
latency_int_mul.x:     file format elf64-x86-64


Disassembly of section .init:

0000000000400468 <_init>:
  400468:	f3 0f 1e fa          	endbr64 
  40046c:	48 83 ec 08          	sub    $0x8,%rsp
  400470:	48 8b 05 79 2b 20 00 	mov    0x202b79(%rip),%rax        # 602ff0 <__gmon_start__@Base>
  400477:	48 85 c0             	test   %rax,%rax
  40047a:	74 02                	je     40047e <_init+0x16>
  40047c:	ff d0                	callq  *%rax
  40047e:	48 83 c4 08          	add    $0x8,%rsp
  400482:	c3                   	retq   

Disassembly of section .plt:

0000000000400490 <.plt>:
  400490:	ff 35 72 2b 20 00    	pushq  0x202b72(%rip)        # 603008 <_GLOBAL_OFFSET_TABLE_+0x8>
  400496:	ff 25 74 2b 20 00    	jmpq   *0x202b74(%rip)        # 603010 <_GLOBAL_OFFSET_TABLE_+0x10>
  40049c:	0f 1f 40 00          	nopl   0x0(%rax)

00000000004004a0 <printf@plt>:
  4004a0:	ff 25 72 2b 20 00    	jmpq   *0x202b72(%rip)        # 603018 <printf@GLIBC_2.2.5>
  4004a6:	68 00 00 00 00       	pushq  $0x0
  4004ab:	e9 e0 ff ff ff       	jmpq   400490 <.plt>

Disassembly of section .text:

00000000004004b0 <main>:
  4004b0:	53                   	push   %rbx
  4004b1:	41 b8 64 00 00 00    	mov    $0x64,%r8d
  4004b7:	41 b9 03 00 00 00    	mov    $0x3,%r9d
  4004bd:	31 db                	xor    %ebx,%ebx
  4004bf:	b9 02 00 00 00       	mov    $0x2,%ecx
  4004c4:	0f 1f 40 00          	nopl   0x0(%rax)
  4004c8:	0f 31                	rdtsc  
  4004ca:	89 c7                	mov    %eax,%edi
  4004cc:	89 d6                	mov    %edx,%esi
  4004ce:	44 89 c8             	mov    %r9d,%eax
  4004d1:	0f af c1             	imul   %ecx,%eax
  4004d4:	0f af c1             	imul   %ecx,%eax
  4004d7:	0f af c1             	imul   %ecx,%eax
  4004da:	0f af c1             	imul   %ecx,%eax
  4004dd:	0f af c1             	imul   %ecx,%eax
  4004e0:	0f af c1             	imul   %ecx,%eax
  4004e3:	0f af c1             	imul   %ecx,%eax
  4004e6:	0f af c1             	imul   %ecx,%eax
  4004e9:	0f af c1             	imul   %ecx,%eax
  4004ec:	0f af c1             	imul   %ecx,%eax
  4004ef:	0f af c1             	imul   %ecx,%eax
  4004f2:	0f af c1             	imul   %ecx,%eax
  4004f5:	0f af c1             	imul   %ecx,%eax
  4004f8:	0f af c1             	imul   %ecx,%eax
  4004fb:	0f af c1             	imul   %ecx,%eax
  4004fe:	0f af c1             	imul   %ecx,%eax
  400501:	0f af c1             	imul   %ecx,%eax
  400504:	0f af c1             	imul   %ecx,%eax
  400507:	0f af c1             	imul   %ecx,%eax
  40050a:	0f af c1             	imul   %ecx,%eax
  40050d:	0f af c1             	imul   %ecx,%eax
  400510:	0f af c1             	imul   %ecx,%eax
  400513:	0f af c1             	imul   %ecx,%eax
  400516:	0f af c1             	imul   %ecx,%eax
  400519:	0f af c1             	imul   %ecx,%eax
  40051c:	0f af c1             	imul   %ecx,%eax
  40051f:	0f af c1             	imul   %ecx,%eax
  400522:	0f af c1             	imul   %ecx,%eax
  400525:	0f af c1             	imul   %ecx,%eax
  400528:	0f af c1             	imul   %ecx,%eax
  40052b:	0f af c1             	imul   %ecx,%eax
  40052e:	0f af c1             	imul   %ecx,%eax
  400531:	0f af c1             	imul   %ecx,%eax
  400534:	0f af c1             	imul   %ecx,%eax
  400537:	0f af c1             	imul   %ecx,%eax
  40053a:	0f af c1             	imul   %ecx,%eax
  40053d:	0f af c1             	imul   %ecx,%eax
  400540:	0f af c1             	imul   %ecx,%eax
  400543:	0f af c1             	imul   %ecx,%eax
  400546:	0f af c1             	imul   %ecx,%eax
  400549:	0f af c1             	imul   %ecx,%eax
  40054c:	0f af c1             	imul   %ecx,%eax
  40054f:	0f af c1             	imul   %ecx,%eax
  400552:	0f af c1             	imul   %ecx,%eax
  400555:	0f af c1             	imul   %ecx,%eax
  400558:	0f af c1             	imul   %ecx,%eax
  40055b:	0f af c1             	imul   %ecx,%eax
  40055e:	0f af c1             	imul   %ecx,%eax
  400561:	0f af c1             	imul   %ecx,%eax
  400564:	0f af c1             	imul   %ecx,%eax
  400567:	0f af c1             	imul   %ecx,%eax
  40056a:	0f af c1             	imul   %ecx,%eax
  40056d:	0f af c1             	imul   %ecx,%eax
  400570:	0f af c1             	imul   %ecx,%eax
  400573:	0f af c1             	imul   %ecx,%eax
  400576:	0f af c1             	imul   %ecx,%eax
  400579:	0f af c1             	imul   %ecx,%eax
  40057c:	0f af c1             	imul   %ecx,%eax
  40057f:	0f af c1             	imul   %ecx,%eax
  400582:	0f af c1             	imul   %ecx,%eax
  400585:	0f af c1             	imul   %ecx,%eax
  400588:	0f af c1             	imul   %ecx,%eax
  40058b:	0f af c1             	imul   %ecx,%eax
  40058e:	0f af c1             	imul   %ecx,%eax
  400591:	0f af c1             	imul   %ecx,%eax
  400594:	0f af c1             	imul   %ecx,%eax
  400597:	0f af c1             	imul   %ecx,%eax
  40059a:	0f af c1             	imul   %ecx,%eax
  40059d:	0f af c1             	imul   %ecx,%eax
  4005a0:	0f af c1             	imul   %ecx,%eax
  4005a3:	0f af c1             	imul   %ecx,%eax
  4005a6:	0f af c1             	imul   %ecx,%eax
  4005a9:	0f af c1             	imul   %ecx,%eax
  4005ac:	0f af c1             	imul   %ecx,%eax
  4005af:	0f af c1             	imul   %ecx,%eax
  4005b2:	0f af c1             	imul   %ecx,%eax
  4005b5:	0f af c1             	imul   %ecx,%eax
  4005b8:	0f af c1             	imul   %ecx,%eax
  4005bb:	0f af c1             	imul   %ecx,%eax
  4005be:	0f af c1             	imul   %ecx,%eax
  4005c1:	0f af c1             	imul   %ecx,%eax
  4005c4:	0f af c1             	imul   %ecx,%eax
  4005c7:	0f af c1             	imul   %ecx,%eax
  4005ca:	0f af c1             	imul   %ecx,%eax
  4005cd:	0f af c1             	imul   %ecx,%eax
  4005d0:	0f af c1             	imul   %ecx,%eax
  4005d3:	0f af c1             	imul   %ecx,%eax
  4005d6:	0f af c1             	imul   %ecx,%eax
  4005d9:	0f af c1             	imul   %ecx,%eax
  4005dc:	0f af c1             	imul   %ecx,%eax
  4005df:	0f af c1             	imul   %ecx,%eax
  4005e2:	0f af c1             	imul   %ecx,%eax
  4005e5:	0f af c1             	imul   %ecx,%eax
  4005e8:	0f af c1             	imul   %ecx,%eax
  4005eb:	0f af c1             	imul   %ecx,%eax
  4005ee:	0f af c1             	imul   %ecx,%eax
  4005f1:	0f af c1             	imul   %ecx,%eax
  4005f4:	0f af c1             	imul   %ecx,%eax
  4005f7:	0f af c1             	imul   %ecx,%eax
  4005fa:	0f af c1             	imul   %ecx,%eax
  4005fd:	0f af c1             	imul   %ecx,%eax
  400600:	0f af c1             	imul   %ecx,%eax
  400603:	0f af c1             	imul   %ecx,%eax
  400606:	0f af c1             	imul   %ecx,%eax
  400609:	0f af c1             	imul   %ecx,%eax
  40060c:	0f af c1             	imul   %ecx,%eax
  40060f:	0f af c1             	imul   %ecx,%eax
  400612:	0f af c1             	imul   %ecx,%eax
  400615:	0f af c1             	imul   %ecx,%eax
  400618:	0f af c1             	imul   %ecx,%eax
  40061b:	0f af c1             	imul   %ecx,%eax
  40061e:	0f af c1             	imul   %ecx,%eax
  400621:	0f af c1             	imul   %ecx,%eax
  400624:	0f af c1             	imul   %ecx,%eax
  400627:	0f af c1             	imul   %ecx,%eax
  40062a:	0f af c1             	imul   %ecx,%eax
  40062d:	0f af c1             	imul   %ecx,%eax
  400630:	0f af c1             	imul   %ecx,%eax
  400633:	0f af c1             	imul   %ecx,%eax
  400636:	0f af c1             	imul   %ecx,%eax
  400639:	0f af c1             	imul   %ecx,%eax
  40063c:	0f af c1             	imul   %ecx,%eax
  40063f:	0f af c1             	imul   %ecx,%eax
  400642:	0f af c1             	imul   %ecx,%eax
  400645:	0f af c1             	imul   %ecx,%eax
  400648:	0f af c1             	imul   %ecx,%eax
  40064b:	0f af c1             	imul   %ecx,%eax
  40064e:	0f af c1             	imul   %ecx,%eax
  400651:	0f af c1             	imul   %ecx,%eax
  400654:	0f af c1             	imul   %ecx,%eax
  400657:	0f af c1             	imul   %ecx,%eax
  40065a:	0f af c1             	imul   %ecx,%eax
  40065d:	0f af c1             	imul   %ecx,%eax
  400660:	0f af c1             	imul   %ecx,%eax
  400663:	0f af c1             	imul   %ecx,%eax
  400666:	0f af c1             	imul   %ecx,%eax
  400669:	0f af c1             	imul   %ecx,%eax
  40066c:	0f af c1             	imul   %ecx,%eax
  40066f:	0f af c1             	imul   %ecx,%eax
  400672:	0f af c1             	imul   %ecx,%eax
  400675:	0f af c1             	imul   %ecx,%eax
  400678:	0f af c1             	imul   %ecx,%eax
  40067b:	0f af c1             	imul   %ecx,%eax
  40067e:	0f af c1             	imul   %ecx,%eax
  400681:	0f af c1             	imul   %ecx,%eax
  400684:	0f af c1             	imul   %ecx,%eax
  400687:	0f af c1             	imul   %ecx,%eax
  40068a:	0f af c1             	imul   %ecx,%eax
  40068d:	0f af c1             	imul   %ecx,%eax
  400690:	0f af c1             	imul   %ecx,%eax
  400693:	0f af c1             	imul   %ecx,%eax
  400696:	0f af c1             	imul   %ecx,%eax
  400699:	0f af c1             	imul   %ecx,%eax
  40069c:	0f af c1             	imul   %ecx,%eax
  40069f:	0f af c1             	imul   %ecx,%eax
  4006a2:	0f af c1             	imul   %ecx,%eax
  4006a5:	0f af c1             	imul   %ecx,%eax
  4006a8:	0f af c1             	imul   %ecx,%eax
  4006ab:	0f af c1             	imul   %ecx,%eax
  4006ae:	0f af c1             	imul   %ecx,%eax
  4006b1:	0f af c1             	imul   %ecx,%eax
  4006b4:	0f af c1             	imul   %ecx,%eax
  4006b7:	0f af c1             	imul   %ecx,%eax
  4006ba:	0f af c1             	imul   %ecx,%eax
  4006bd:	0f af c1             	imul   %ecx,%eax
  4006c0:	0f af c1             	imul   %ecx,%eax
  4006c3:	0f af c1             	imul   %ecx,%eax
  4006c6:	0f af c1             	imul   %ecx,%eax
  4006c9:	0f af c1             	imul   %ecx,%eax
  4006cc:	0f af c1             	imul   %ecx,%eax
  4006cf:	0f af c1             	imul   %ecx,%eax
  4006d2:	0f af c1             	imul   %ecx,%eax
  4006d5:	0f af c1             	imul   %ecx,%eax
  4006d8:	0f af c1             	imul   %ecx,%eax
  4006db:	0f af c1             	imul   %ecx,%eax
  4006de:	0f af c1             	imul   %ecx,%eax
  4006e1:	0f af c1             	imul   %ecx,%eax
  4006e4:	0f af c1             	imul   %ecx,%eax
  4006e7:	0f af c1             	imul   %ecx,%eax
  4006ea:	0f af c1             	imul   %ecx,%eax
  4006ed:	0f af c1             	imul   %ecx,%eax
  4006f0:	0f af c1             	imul   %ecx,%eax
  4006f3:	0f af c1             	imul   %ecx,%eax
  4006f6:	0f af c1             	imul   %ecx,%eax
  4006f9:	0f af c1             	imul   %ecx,%eax
  4006fc:	0f af c1             	imul   %ecx,%eax
  4006ff:	0f af c1             	imul   %ecx,%eax
  400702:	0f af c1             	imul   %ecx,%eax
  400705:	0f af c1             	imul   %ecx,%eax
  400708:	0f af c1             	imul   %ecx,%eax
  40070b:	0f af c1             	imul   %ecx,%eax
  40070e:	0f af c1             	imul   %ecx,%eax
  400711:	0f af c1             	imul   %ecx,%eax
  400714:	0f af c1             	imul   %ecx,%eax
  400717:	0f af c1             	imul   %ecx,%eax
  40071a:	0f af c1             	imul   %ecx,%eax
  40071d:	0f af c1             	imul   %ecx,%eax
  400720:	0f af c1             	imul   %ecx,%eax
  400723:	0f af c1             	imul   %ecx,%eax
  400726:	0f af c1             	imul   %ecx,%eax
  400729:	0f af c1             	imul   %ecx,%eax
  40072c:	0f af c1             	imul   %ecx,%eax
  40072f:	0f af c1             	imul   %ecx,%eax
  400732:	0f af c1             	imul   %ecx,%eax
  400735:	0f af c1             	imul   %ecx,%eax
  400738:	0f af c1             	imul   %ecx,%eax
  40073b:	0f af c1             	imul   %ecx,%eax
  40073e:	0f af c1             	imul   %ecx,%eax
  400741:	0f af c1             	imul   %ecx,%eax
  400744:	0f af c1             	imul   %ecx,%eax
  400747:	0f af c1             	imul   %ecx,%eax
  40074a:	0f af c1             	imul   %ecx,%eax
  40074d:	0f af c1             	imul   %ecx,%eax
  400750:	0f af c1             	imul   %ecx,%eax
  400753:	0f af c1             	imul   %ecx,%eax
  400756:	0f af c1             	imul   %ecx,%eax
  400759:	0f af c1             	imul   %ecx,%eax
  40075c:	0f af c1             	imul   %ecx,%eax
  40075f:	0f af c1             	imul   %ecx,%eax
  400762:	0f af c1             	imul   %ecx,%eax
  400765:	0f af c1             	imul   %ecx,%eax
  400768:	0f af c1             	imul   %ecx,%eax
  40076b:	0f af c1             	imul   %ecx,%eax
  40076e:	0f af c1             	imul   %ecx,%eax
  400771:	0f af c1             	imul   %ecx,%eax
  400774:	0f af c1             	imul   %ecx,%eax
  400777:	0f af c1             	imul   %ecx,%eax
  40077a:	0f af c1             	imul   %ecx,%eax
  40077d:	0f af c1             	imul   %ecx,%eax
  400780:	0f af c1             	imul   %ecx,%eax
  400783:	0f af c1             	imul   %ecx,%eax
  400786:	0f af c1             	imul   %ecx,%eax
  400789:	0f af c1             	imul   %ecx,%eax
  40078c:	0f af c1             	imul   %ecx,%eax
  40078f:	0f af c1             	imul   %ecx,%eax
  400792:	0f af c1             	imul   %ecx,%eax
  400795:	0f af c1             	imul   %ecx,%eax
  400798:	0f af c1             	imul   %ecx,%eax
  40079b:	0f af c1             	imul   %ecx,%eax
  40079e:	0f af c1             	imul   %ecx,%eax
  4007a1:	0f af c1             	imul   %ecx,%eax
  4007a4:	0f af c1             	imul   %ecx,%eax
  4007a7:	0f af c1             	imul   %ecx,%eax
  4007aa:	0f af c1             	imul   %ecx,%eax
  4007ad:	0f af c1             	imul   %ecx,%eax
  4007b0:	0f af c1             	imul   %ecx,%eax
  4007b3:	0f af c1             	imul   %ecx,%eax
  4007b6:	0f af c1             	imul   %ecx,%eax
  4007b9:	0f af c1             	imul   %ecx,%eax
  4007bc:	0f af c1             	imul   %ecx,%eax
  4007bf:	0f af c1             	imul   %ecx,%eax
  4007c2:	0f af c1             	imul   %ecx,%eax
  4007c5:	0f af c1             	imul   %ecx,%eax
  4007c8:	0f af c1             	imul   %ecx,%eax
  4007cb:	0f af c1             	imul   %ecx,%eax
  4007ce:	0f af c1             	imul   %ecx,%eax
  4007d1:	0f af c1             	imul   %ecx,%eax
  4007d4:	0f af c1             	imul   %ecx,%eax
  4007d7:	0f af c1             	imul   %ecx,%eax
  4007da:	0f af c1             	imul   %ecx,%eax
  4007dd:	0f af c1             	imul   %ecx,%eax
  4007e0:	0f af c1             	imul   %ecx,%eax
  4007e3:	0f af c1             	imul   %ecx,%eax
  4007e6:	0f af c1             	imul   %ecx,%eax
  4007e9:	0f af c1             	imul   %ecx,%eax
  4007ec:	0f af c1             	imul   %ecx,%eax
  4007ef:	0f af c1             	imul   %ecx,%eax
  4007f2:	0f af c1             	imul   %ecx,%eax
  4007f5:	0f af c1             	imul   %ecx,%eax
  4007f8:	0f af c1             	imul   %ecx,%eax
  4007fb:	0f af c1             	imul   %ecx,%eax
  4007fe:	0f af c1             	imul   %ecx,%eax
  400801:	0f af c1             	imul   %ecx,%eax
  400804:	0f af c1             	imul   %ecx,%eax
  400807:	0f af c1             	imul   %ecx,%eax
  40080a:	0f af c1             	imul   %ecx,%eax
  40080d:	0f af c1             	imul   %ecx,%eax
  400810:	0f af c1             	imul   %ecx,%eax
  400813:	0f af c1             	imul   %ecx,%eax
  400816:	0f af c1             	imul   %ecx,%eax
  400819:	0f af c1             	imul   %ecx,%eax
  40081c:	0f af c1             	imul   %ecx,%eax
  40081f:	0f af c1             	imul   %ecx,%eax
  400822:	0f af c1             	imul   %ecx,%eax
  400825:	0f af c1             	imul   %ecx,%eax
  400828:	0f af c1             	imul   %ecx,%eax
  40082b:	0f af c1             	imul   %ecx,%eax
  40082e:	0f af c1             	imul   %ecx,%eax
  400831:	0f af c1             	imul   %ecx,%eax
  400834:	0f af c1             	imul   %ecx,%eax
  400837:	0f af c1             	imul   %ecx,%eax
  40083a:	0f af c1             	imul   %ecx,%eax
  40083d:	0f af c1             	imul   %ecx,%eax
  400840:	0f af c1             	imul   %ecx,%eax
  400843:	0f af c1             	imul   %ecx,%eax
  400846:	0f af c1             	imul   %ecx,%eax
  400849:	0f af c1             	imul   %ecx,%eax
  40084c:	0f af c1             	imul   %ecx,%eax
  40084f:	0f af c1             	imul   %ecx,%eax
  400852:	0f af c1             	imul   %ecx,%eax
  400855:	0f af c1             	imul   %ecx,%eax
  400858:	0f af c1             	imul   %ecx,%eax
  40085b:	0f af c1             	imul   %ecx,%eax
  40085e:	0f af c1             	imul   %ecx,%eax
  400861:	0f af c1             	imul   %ecx,%eax
  400864:	0f af c1             	imul   %ecx,%eax
  400867:	0f af c1             	imul   %ecx,%eax
  40086a:	0f af c1             	imul   %ecx,%eax
  40086d:	0f af c1             	imul   %ecx,%eax
  400870:	0f af c1             	imul   %ecx,%eax
  400873:	0f af c1             	imul   %ecx,%eax
  400876:	0f af c1             	imul   %ecx,%eax
  400879:	0f af c1             	imul   %ecx,%eax
  40087c:	0f af c1             	imul   %ecx,%eax
  40087f:	0f af c1             	imul   %ecx,%eax
  400882:	0f af c1             	imul   %ecx,%eax
  400885:	0f af c1             	imul   %ecx,%eax
  400888:	0f af c1             	imul   %ecx,%eax
  40088b:	0f af c1             	imul   %ecx,%eax
  40088e:	0f af c1             	imul   %ecx,%eax
  400891:	0f af c1             	imul   %ecx,%eax
  400894:	0f af c1             	imul   %ecx,%eax
  400897:	0f af c1             	imul   %ecx,%eax
  40089a:	0f af c1             	imul   %ecx,%eax
  40089d:	0f af c1             	imul   %ecx,%eax
  4008a0:	0f af c1             	imul   %ecx,%eax
  4008a3:	0f af c1             	imul   %ecx,%eax
  4008a6:	0f af c1             	imul   %ecx,%eax
  4008a9:	0f af c1             	imul   %ecx,%eax
  4008ac:	0f af c1             	imul   %ecx,%eax
  4008af:	0f af c1             	imul   %ecx,%eax
  4008b2:	0f af c1             	imul   %ecx,%eax
  4008b5:	0f af c1             	imul   %ecx,%eax
  4008b8:	0f af c1             	imul   %ecx,%eax
  4008bb:	0f af c1             	imul   %ecx,%eax
  4008be:	0f af c1             	imul   %ecx,%eax
  4008c1:	0f af c1             	imul   %ecx,%eax
  4008c4:	0f af c1             	imul   %ecx,%eax
  4008c7:	0f af c1             	imul   %ecx,%eax
  4008ca:	0f af c1             	imul   %ecx,%eax
  4008cd:	0f af c1             	imul   %ecx,%eax
  4008d0:	0f af c1             	imul   %ecx,%eax
  4008d3:	0f af c1             	imul   %ecx,%eax
  4008d6:	0f af c1             	imul   %ecx,%eax
  4008d9:	0f af c1             	imul   %ecx,%eax
  4008dc:	0f af c1             	imul   %ecx,%eax
  4008df:	0f af c1             	imul   %ecx,%eax
  4008e2:	0f af c1             	imul   %ecx,%eax
  4008e5:	0f af c1             	imul   %ecx,%eax
  4008e8:	0f af c1             	imul   %ecx,%eax
  4008eb:	0f af c1             	imul   %ecx,%eax
  4008ee:	0f af c1             	imul   %ecx,%eax
  4008f1:	0f af c1             	imul   %ecx,%eax
  4008f4:	0f af c1             	imul   %ecx,%eax
  4008f7:	0f af c1             	imul   %ecx,%eax
  4008fa:	0f af c1             	imul   %ecx,%eax
  4008fd:	0f af c1             	imul   %ecx,%eax
  400900:	0f af c1             	imul   %ecx,%eax
  400903:	0f af c1             	imul   %ecx,%eax
  400906:	0f af c1             	imul   %ecx,%eax
  400909:	0f af c1             	imul   %ecx,%eax
  40090c:	0f af c1             	imul   %ecx,%eax
  40090f:	0f af c1             	imul   %ecx,%eax
  400912:	0f af c1             	imul   %ecx,%eax
  400915:	0f af c1             	imul   %ecx,%eax
  400918:	0f af c1             	imul   %ecx,%eax
  40091b:	0f af c1             	imul   %ecx,%eax
  40091e:	0f af c1             	imul   %ecx,%eax
  400921:	0f af c1             	imul   %ecx,%eax
  400924:	0f af c1             	imul   %ecx,%eax
  400927:	0f af c1             	imul   %ecx,%eax
  40092a:	0f af c1             	imul   %ecx,%eax
  40092d:	0f af c1             	imul   %ecx,%eax
  400930:	0f af c1             	imul   %ecx,%eax
  400933:	0f af c1             	imul   %ecx,%eax
  400936:	0f af c1             	imul   %ecx,%eax
  400939:	0f af c1             	imul   %ecx,%eax
  40093c:	0f af c1             	imul   %ecx,%eax
  40093f:	0f af c1             	imul   %ecx,%eax
  400942:	0f af c1             	imul   %ecx,%eax
  400945:	0f af c1             	imul   %ecx,%eax
  400948:	0f af c1             	imul   %ecx,%eax
  40094b:	0f af c1             	imul   %ecx,%eax
  40094e:	0f af c1             	imul   %ecx,%eax
  400951:	0f af c1             	imul   %ecx,%eax
  400954:	0f af c1             	imul   %ecx,%eax
  400957:	0f af c1             	imul   %ecx,%eax
  40095a:	0f af c1             	imul   %ecx,%eax
  40095d:	0f af c1             	imul   %ecx,%eax
  400960:	0f af c1             	imul   %ecx,%eax
  400963:	0f af c1             	imul   %ecx,%eax
  400966:	0f af c1             	imul   %ecx,%eax
  400969:	0f af c1             	imul   %ecx,%eax
  40096c:	0f af c1             	imul   %ecx,%eax
  40096f:	0f af c1             	imul   %ecx,%eax
  400972:	0f af c1             	imul   %ecx,%eax
  400975:	0f af c1             	imul   %ecx,%eax
  400978:	0f af c1             	imul   %ecx,%eax
  40097b:	0f af c1             	imul   %ecx,%eax
  40097e:	0f af c1             	imul   %ecx,%eax
  400981:	0f af c1             	imul   %ecx,%eax
  400984:	0f af c1             	imul   %ecx,%eax
  400987:	0f af c1             	imul   %ecx,%eax
  40098a:	0f af c1             	imul   %ecx,%eax
  40098d:	0f af c1             	imul   %ecx,%eax
  400990:	0f af c1             	imul   %ecx,%eax
  400993:	0f af c1             	imul   %ecx,%eax
  400996:	0f af c1             	imul   %ecx,%eax
  400999:	0f af c1             	imul   %ecx,%eax
  40099c:	0f af c1             	imul   %ecx,%eax
  40099f:	0f af c1             	imul   %ecx,%eax
  4009a2:	0f af c1             	imul   %ecx,%eax
  4009a5:	0f af c1             	imul   %ecx,%eax
  4009a8:	0f af c1             	imul   %ecx,%eax
  4009ab:	0f af c1             	imul   %ecx,%eax
  4009ae:	0f af c1             	imul   %ecx,%eax
  4009b1:	0f af c1             	imul   %ecx,%eax
  4009b4:	0f af c1             	imul   %ecx,%eax
  4009b7:	0f af c1             	imul   %ecx,%eax
  4009ba:	0f af c1             	imul   %ecx,%eax
  4009bd:	0f af c1             	imul   %ecx,%eax
  4009c0:	0f af c1             	imul   %ecx,%eax
  4009c3:	0f af c1             	imul   %ecx,%eax
  4009c6:	0f af c1             	imul   %ecx,%eax
  4009c9:	0f af c1             	imul   %ecx,%eax
  4009cc:	0f af c1             	imul   %ecx,%eax
  4009cf:	0f af c1             	imul   %ecx,%eax
  4009d2:	0f af c1             	imul   %ecx,%eax
  4009d5:	0f af c1             	imul   %ecx,%eax
  4009d8:	0f af c1             	imul   %ecx,%eax
  4009db:	0f af c1             	imul   %ecx,%eax
  4009de:	0f af c1             	imul   %ecx,%eax
  4009e1:	0f af c1             	imul   %ecx,%eax
  4009e4:	0f af c1             	imul   %ecx,%eax
  4009e7:	0f af c1             	imul   %ecx,%eax
  4009ea:	0f af c1             	imul   %ecx,%eax
  4009ed:	0f af c1             	imul   %ecx,%eax
  4009f0:	0f af c1             	imul   %ecx,%eax
  4009f3:	0f af c1             	imul   %ecx,%eax
  4009f6:	0f af c1             	imul   %ecx,%eax
  4009f9:	0f af c1             	imul   %ecx,%eax
  4009fc:	0f af c1             	imul   %ecx,%eax
  4009ff:	0f af c1             	imul   %ecx,%eax
  400a02:	0f af c1             	imul   %ecx,%eax
  400a05:	0f af c1             	imul   %ecx,%eax
  400a08:	0f af c1             	imul   %ecx,%eax
  400a0b:	0f af c1             	imul   %ecx,%eax
  400a0e:	0f af c1             	imul   %ecx,%eax
  400a11:	0f af c1             	imul   %ecx,%eax
  400a14:	0f af c1             	imul   %ecx,%eax
  400a17:	0f af c1             	imul   %ecx,%eax
  400a1a:	0f af c1             	imul   %ecx,%eax
  400a1d:	0f af c1             	imul   %ecx,%eax
  400a20:	0f af c1             	imul   %ecx,%eax
  400a23:	0f af c1             	imul   %ecx,%eax
  400a26:	0f af c1             	imul   %ecx,%eax
  400a29:	0f af c1             	imul   %ecx,%eax
  400a2c:	0f af c1             	imul   %ecx,%eax
  400a2f:	0f af c1             	imul   %ecx,%eax
  400a32:	0f af c1             	imul   %ecx,%eax
  400a35:	0f af c1             	imul   %ecx,%eax
  400a38:	0f af c1             	imul   %ecx,%eax
  400a3b:	0f af c1             	imul   %ecx,%eax
  400a3e:	0f af c1             	imul   %ecx,%eax
  400a41:	0f af c1             	imul   %ecx,%eax
  400a44:	0f af c1             	imul   %ecx,%eax
  400a47:	0f af c1             	imul   %ecx,%eax
  400a4a:	0f af c1             	imul   %ecx,%eax
  400a4d:	0f af c1             	imul   %ecx,%eax
  400a50:	0f af c1             	imul   %ecx,%eax
  400a53:	0f af c1             	imul   %ecx,%eax
  400a56:	0f af c1             	imul   %ecx,%eax
  400a59:	0f af c1             	imul   %ecx,%eax
  400a5c:	0f af c1             	imul   %ecx,%eax
  400a5f:	0f af c1             	imul   %ecx,%eax
  400a62:	0f af c1             	imul   %ecx,%eax
  400a65:	0f af c1             	imul   %ecx,%eax
  400a68:	0f af c1             	imul   %ecx,%eax
  400a6b:	0f af c1             	imul   %ecx,%eax
  400a6e:	0f af c1             	imul   %ecx,%eax
  400a71:	0f af c1             	imul   %ecx,%eax
  400a74:	0f af c1             	imul   %ecx,%eax
  400a77:	0f af c1             	imul   %ecx,%eax
  400a7a:	0f af c1             	imul   %ecx,%eax
  400a7d:	0f af c1             	imul   %ecx,%eax
  400a80:	0f af c1             	imul   %ecx,%eax
  400a83:	0f af c1             	imul   %ecx,%eax
  400a86:	0f af c1             	imul   %ecx,%eax
  400a89:	0f af c1             	imul   %ecx,%eax
  400a8c:	0f af c1             	imul   %ecx,%eax
  400a8f:	0f af c1             	imul   %ecx,%eax
  400a92:	0f af c1             	imul   %ecx,%eax
  400a95:	0f af c1             	imul   %ecx,%eax
  400a98:	0f af c1             	imul   %ecx,%eax
  400a9b:	0f af c1             	imul   %ecx,%eax
  400a9e:	0f af c1             	imul   %ecx,%eax
  400aa1:	0f af c1             	imul   %ecx,%eax
  400aa4:	0f af c1             	imul   %ecx,%eax
  400aa7:	0f af c1             	imul   %ecx,%eax
  400aaa:	0f af c1             	imul   %ecx,%eax
  400aad:	0f af c1             	imul   %ecx,%eax
  400ab0:	0f af c1             	imul   %ecx,%eax
  400ab3:	0f af c1             	imul   %ecx,%eax
  400ab6:	0f af c1             	imul   %ecx,%eax
  400ab9:	0f af c1             	imul   %ecx,%eax
  400abc:	0f af c1             	imul   %ecx,%eax
  400abf:	0f af c1             	imul   %ecx,%eax
  400ac2:	0f af c1             	imul   %ecx,%eax
  400ac5:	0f af c1             	imul   %ecx,%eax
  400ac8:	0f af c1             	imul   %ecx,%eax
  400acb:	0f af c1             	imul   %ecx,%eax
  400ace:	0f af c1             	imul   %ecx,%eax
  400ad1:	0f af c1             	imul   %ecx,%eax
  400ad4:	0f af c1             	imul   %ecx,%eax
  400ad7:	0f af c1             	imul   %ecx,%eax
  400ada:	0f af c1             	imul   %ecx,%eax
  400add:	0f af c1             	imul   %ecx,%eax
  400ae0:	0f af c1             	imul   %ecx,%eax
  400ae3:	0f af c1             	imul   %ecx,%eax
  400ae6:	0f af c1             	imul   %ecx,%eax
  400ae9:	0f af c1             	imul   %ecx,%eax
  400aec:	0f af c1             	imul   %ecx,%eax
  400aef:	0f af c1             	imul   %ecx,%eax
  400af2:	0f af c1             	imul   %ecx,%eax
  400af5:	0f af c1             	imul   %ecx,%eax
  400af8:	0f af c1             	imul   %ecx,%eax
  400afb:	0f af c1             	imul   %ecx,%eax
  400afe:	0f af c1             	imul   %ecx,%eax
  400b01:	0f af c1             	imul   %ecx,%eax
  400b04:	0f af c1             	imul   %ecx,%eax
  400b07:	0f af c1             	imul   %ecx,%eax
  400b0a:	0f af c1             	imul   %ecx,%eax
  400b0d:	0f af c1             	imul   %ecx,%eax
  400b10:	0f af c1             	imul   %ecx,%eax
  400b13:	0f af c1             	imul   %ecx,%eax
  400b16:	0f af c1             	imul   %ecx,%eax
  400b19:	0f af c1             	imul   %ecx,%eax
  400b1c:	0f af c1             	imul   %ecx,%eax
  400b1f:	0f af c1             	imul   %ecx,%eax
  400b22:	0f af c1             	imul   %ecx,%eax
  400b25:	0f af c1             	imul   %ecx,%eax
  400b28:	0f af c1             	imul   %ecx,%eax
  400b2b:	0f af c1             	imul   %ecx,%eax
  400b2e:	0f af c1             	imul   %ecx,%eax
  400b31:	0f af c1             	imul   %ecx,%eax
  400b34:	0f af c1             	imul   %ecx,%eax
  400b37:	0f af c1             	imul   %ecx,%eax
  400b3a:	0f af c1             	imul   %ecx,%eax
  400b3d:	0f af c1             	imul   %ecx,%eax
  400b40:	0f af c1             	imul   %ecx,%eax
  400b43:	0f af c1             	imul   %ecx,%eax
  400b46:	0f af c1             	imul   %ecx,%eax
  400b49:	0f af c1             	imul   %ecx,%eax
  400b4c:	0f af c1             	imul   %ecx,%eax
  400b4f:	0f af c1             	imul   %ecx,%eax
  400b52:	0f af c1             	imul   %ecx,%eax
  400b55:	0f af c1             	imul   %ecx,%eax
  400b58:	0f af c1             	imul   %ecx,%eax
  400b5b:	0f af c1             	imul   %ecx,%eax
  400b5e:	0f af c1             	imul   %ecx,%eax
  400b61:	0f af c1             	imul   %ecx,%eax
  400b64:	0f af c1             	imul   %ecx,%eax
  400b67:	0f af c1             	imul   %ecx,%eax
  400b6a:	0f af c1             	imul   %ecx,%eax
  400b6d:	0f af c1             	imul   %ecx,%eax
  400b70:	0f af c1             	imul   %ecx,%eax
  400b73:	0f af c1             	imul   %ecx,%eax
  400b76:	0f af c1             	imul   %ecx,%eax
  400b79:	0f af c1             	imul   %ecx,%eax
  400b7c:	0f af c1             	imul   %ecx,%eax
  400b7f:	0f af c1             	imul   %ecx,%eax
  400b82:	0f af c1             	imul   %ecx,%eax
  400b85:	0f af c1             	imul   %ecx,%eax
  400b88:	0f af c1             	imul   %ecx,%eax
  400b8b:	0f af c1             	imul   %ecx,%eax
  400b8e:	0f af c1             	imul   %ecx,%eax
  400b91:	0f af c1             	imul   %ecx,%eax
  400b94:	0f af c1             	imul   %ecx,%eax
  400b97:	0f af c1             	imul   %ecx,%eax
  400b9a:	0f af c1             	imul   %ecx,%eax
  400b9d:	0f af c1             	imul   %ecx,%eax
  400ba0:	0f af c1             	imul   %ecx,%eax
  400ba3:	0f af c1             	imul   %ecx,%eax
  400ba6:	0f af c1             	imul   %ecx,%eax
  400ba9:	0f af c1             	imul   %ecx,%eax
  400bac:	0f af c1             	imul   %ecx,%eax
  400baf:	0f af c1             	imul   %ecx,%eax
  400bb2:	0f af c1             	imul   %ecx,%eax
  400bb5:	0f af c1             	imul   %ecx,%eax
  400bb8:	0f af c1             	imul   %ecx,%eax
  400bbb:	0f af c1             	imul   %ecx,%eax
  400bbe:	0f af c1             	imul   %ecx,%eax
  400bc1:	0f af c1             	imul   %ecx,%eax
  400bc4:	0f af c1             	imul   %ecx,%eax
  400bc7:	0f af c1             	imul   %ecx,%eax
  400bca:	0f af c1             	imul   %ecx,%eax
  400bcd:	0f af c1             	imul   %ecx,%eax
  400bd0:	0f af c1             	imul   %ecx,%eax
  400bd3:	0f af c1             	imul   %ecx,%eax
  400bd6:	0f af c1             	imul   %ecx,%eax
  400bd9:	0f af c1             	imul   %ecx,%eax
  400bdc:	0f af c1             	imul   %ecx,%eax
  400bdf:	0f af c1             	imul   %ecx,%eax
  400be2:	0f af c1             	imul   %ecx,%eax
  400be5:	0f af c1             	imul   %ecx,%eax
  400be8:	0f af c1             	imul   %ecx,%eax
  400beb:	0f af c1             	imul   %ecx,%eax
  400bee:	0f af c1             	imul   %ecx,%eax
  400bf1:	0f af c1             	imul   %ecx,%eax
  400bf4:	0f af c1             	imul   %ecx,%eax
  400bf7:	0f af c1             	imul   %ecx,%eax
  400bfa:	0f af c1             	imul   %ecx,%eax
  400bfd:	0f af c1             	imul   %ecx,%eax
  400c00:	0f af c1             	imul   %ecx,%eax
  400c03:	0f af c1             	imul   %ecx,%eax
  400c06:	0f af c1             	imul   %ecx,%eax
  400c09:	0f af c1             	imul   %ecx,%eax
  400c0c:	0f af c1             	imul   %ecx,%eax
  400c0f:	0f af c1             	imul   %ecx,%eax
  400c12:	0f af c1             	imul   %ecx,%eax
  400c15:	0f af c1             	imul   %ecx,%eax
  400c18:	0f af c1             	imul   %ecx,%eax
  400c1b:	0f af c1             	imul   %ecx,%eax
  400c1e:	0f af c1             	imul   %ecx,%eax
  400c21:	0f af c1             	imul   %ecx,%eax
  400c24:	0f af c1             	imul   %ecx,%eax
  400c27:	0f af c1             	imul   %ecx,%eax
  400c2a:	0f af c1             	imul   %ecx,%eax
  400c2d:	0f af c1             	imul   %ecx,%eax
  400c30:	0f af c1             	imul   %ecx,%eax
  400c33:	0f af c1             	imul   %ecx,%eax
  400c36:	0f af c1             	imul   %ecx,%eax
  400c39:	0f af c1             	imul   %ecx,%eax
  400c3c:	0f af c1             	imul   %ecx,%eax
  400c3f:	0f af c1             	imul   %ecx,%eax
  400c42:	0f af c1             	imul   %ecx,%eax
  400c45:	0f af c1             	imul   %ecx,%eax
  400c48:	0f af c1             	imul   %ecx,%eax
  400c4b:	0f af c1             	imul   %ecx,%eax
  400c4e:	0f af c1             	imul   %ecx,%eax
  400c51:	0f af c1             	imul   %ecx,%eax
  400c54:	0f af c1             	imul   %ecx,%eax
  400c57:	0f af c1             	imul   %ecx,%eax
  400c5a:	0f af c1             	imul   %ecx,%eax
  400c5d:	0f af c1             	imul   %ecx,%eax
  400c60:	0f af c1             	imul   %ecx,%eax
  400c63:	0f af c1             	imul   %ecx,%eax
  400c66:	0f af c1             	imul   %ecx,%eax
  400c69:	0f af c1             	imul   %ecx,%eax
  400c6c:	0f af c1             	imul   %ecx,%eax
  400c6f:	0f af c1             	imul   %ecx,%eax
  400c72:	0f af c1             	imul   %ecx,%eax
  400c75:	0f af c1             	imul   %ecx,%eax
  400c78:	0f af c1             	imul   %ecx,%eax
  400c7b:	0f af c1             	imul   %ecx,%eax
  400c7e:	0f af c1             	imul   %ecx,%eax
  400c81:	0f af c1             	imul   %ecx,%eax
  400c84:	0f af c1             	imul   %ecx,%eax
  400c87:	0f af c1             	imul   %ecx,%eax
  400c8a:	0f af c1             	imul   %ecx,%eax
  400c8d:	0f af c1             	imul   %ecx,%eax
  400c90:	0f af c1             	imul   %ecx,%eax
  400c93:	0f af c1             	imul   %ecx,%eax
  400c96:	0f af c1             	imul   %ecx,%eax
  400c99:	0f af c1             	imul   %ecx,%eax
  400c9c:	0f af c1             	imul   %ecx,%eax
  400c9f:	0f af c1             	imul   %ecx,%eax
  400ca2:	0f af c1             	imul   %ecx,%eax
  400ca5:	0f af c1             	imul   %ecx,%eax
  400ca8:	0f af c1             	imul   %ecx,%eax
  400cab:	0f af c1             	imul   %ecx,%eax
  400cae:	0f af c1             	imul   %ecx,%eax
  400cb1:	0f af c1             	imul   %ecx,%eax
  400cb4:	0f af c1             	imul   %ecx,%eax
  400cb7:	0f af c1             	imul   %ecx,%eax
  400cba:	0f af c1             	imul   %ecx,%eax
  400cbd:	0f af c1             	imul   %ecx,%eax
  400cc0:	0f af c1             	imul   %ecx,%eax
  400cc3:	0f af c1             	imul   %ecx,%eax
  400cc6:	0f af c1             	imul   %ecx,%eax
  400cc9:	0f af c1             	imul   %ecx,%eax
  400ccc:	0f af c1             	imul   %ecx,%eax
  400ccf:	0f af c1             	imul   %ecx,%eax
  400cd2:	0f af c1             	imul   %ecx,%eax
  400cd5:	0f af c1             	imul   %ecx,%eax
  400cd8:	0f af c1             	imul   %ecx,%eax
  400cdb:	0f af c1             	imul   %ecx,%eax
  400cde:	0f af c1             	imul   %ecx,%eax
  400ce1:	0f af c1             	imul   %ecx,%eax
  400ce4:	0f af c1             	imul   %ecx,%eax
  400ce7:	0f af c1             	imul   %ecx,%eax
  400cea:	0f af c1             	imul   %ecx,%eax
  400ced:	0f af c1             	imul   %ecx,%eax
  400cf0:	0f af c1             	imul   %ecx,%eax
  400cf3:	0f af c1             	imul   %ecx,%eax
  400cf6:	0f af c1             	imul   %ecx,%eax
  400cf9:	0f af c1             	imul   %ecx,%eax
  400cfc:	0f af c1             	imul   %ecx,%eax
  400cff:	0f af c1             	imul   %ecx,%eax
  400d02:	0f af c1             	imul   %ecx,%eax
  400d05:	0f af c1             	imul   %ecx,%eax
  400d08:	0f af c1             	imul   %ecx,%eax
  400d0b:	0f af c1             	imul   %ecx,%eax
  400d0e:	0f af c1             	imul   %ecx,%eax
  400d11:	0f af c1             	imul   %ecx,%eax
  400d14:	0f af c1             	imul   %ecx,%eax
  400d17:	0f af c1             	imul   %ecx,%eax
  400d1a:	0f af c1             	imul   %ecx,%eax
  400d1d:	0f af c1             	imul   %ecx,%eax
  400d20:	0f af c1             	imul   %ecx,%eax
  400d23:	0f af c1             	imul   %ecx,%eax
  400d26:	0f af c1             	imul   %ecx,%eax
  400d29:	0f af c1             	imul   %ecx,%eax
  400d2c:	0f af c1             	imul   %ecx,%eax
  400d2f:	0f af c1             	imul   %ecx,%eax
  400d32:	0f af c1             	imul   %ecx,%eax
  400d35:	0f af c1             	imul   %ecx,%eax
  400d38:	0f af c1             	imul   %ecx,%eax
  400d3b:	0f af c1             	imul   %ecx,%eax
  400d3e:	0f af c1             	imul   %ecx,%eax
  400d41:	0f af c1             	imul   %ecx,%eax
  400d44:	0f af c1             	imul   %ecx,%eax
  400d47:	0f af c1             	imul   %ecx,%eax
  400d4a:	0f af c1             	imul   %ecx,%eax
  400d4d:	0f af c1             	imul   %ecx,%eax
  400d50:	0f af c1             	imul   %ecx,%eax
  400d53:	0f af c1             	imul   %ecx,%eax
  400d56:	0f af c1             	imul   %ecx,%eax
  400d59:	0f af c1             	imul   %ecx,%eax
  400d5c:	0f af c1             	imul   %ecx,%eax
  400d5f:	0f af c1             	imul   %ecx,%eax
  400d62:	0f af c1             	imul   %ecx,%eax
  400d65:	0f af c1             	imul   %ecx,%eax
  400d68:	0f af c1             	imul   %ecx,%eax
  400d6b:	0f af c1             	imul   %ecx,%eax
  400d6e:	0f af c1             	imul   %ecx,%eax
  400d71:	0f af c1             	imul   %ecx,%eax
  400d74:	0f af c1             	imul   %ecx,%eax
  400d77:	0f af c1             	imul   %ecx,%eax
  400d7a:	0f af c1             	imul   %ecx,%eax
  400d7d:	0f af c1             	imul   %ecx,%eax
  400d80:	0f af c1             	imul   %ecx,%eax
  400d83:	0f af c1             	imul   %ecx,%eax
  400d86:	0f af c1             	imul   %ecx,%eax
  400d89:	0f af c1             	imul   %ecx,%eax
  400d8c:	0f af c1             	imul   %ecx,%eax
  400d8f:	0f af c1             	imul   %ecx,%eax
  400d92:	0f af c1             	imul   %ecx,%eax
  400d95:	0f af c1             	imul   %ecx,%eax
  400d98:	0f af c1             	imul   %ecx,%eax
  400d9b:	0f af c1             	imul   %ecx,%eax
  400d9e:	0f af c1             	imul   %ecx,%eax
  400da1:	0f af c1             	imul   %ecx,%eax
  400da4:	0f af c1             	imul   %ecx,%eax
  400da7:	0f af c1             	imul   %ecx,%eax
  400daa:	0f af c1             	imul   %ecx,%eax
  400dad:	0f af c1             	imul   %ecx,%eax
  400db0:	0f af c1             	imul   %ecx,%eax
  400db3:	0f af c1             	imul   %ecx,%eax
  400db6:	0f af c1             	imul   %ecx,%eax
  400db9:	0f af c1             	imul   %ecx,%eax
  400dbc:	0f af c1             	imul   %ecx,%eax
  400dbf:	0f af c1             	imul   %ecx,%eax
  400dc2:	0f af c1             	imul   %ecx,%eax
  400dc5:	0f af c1             	imul   %ecx,%eax
  400dc8:	0f af c1             	imul   %ecx,%eax
  400dcb:	0f af c1             	imul   %ecx,%eax
  400dce:	0f af c1             	imul   %ecx,%eax
  400dd1:	0f af c1             	imul   %ecx,%eax
  400dd4:	0f af c1             	imul   %ecx,%eax
  400dd7:	0f af c1             	imul   %ecx,%eax
  400dda:	0f af c1             	imul   %ecx,%eax
  400ddd:	0f af c1             	imul   %ecx,%eax
  400de0:	0f af c1             	imul   %ecx,%eax
  400de3:	0f af c1             	imul   %ecx,%eax
  400de6:	0f af c1             	imul   %ecx,%eax
  400de9:	0f af c1             	imul   %ecx,%eax
  400dec:	0f af c1             	imul   %ecx,%eax
  400def:	0f af c1             	imul   %ecx,%eax
  400df2:	0f af c1             	imul   %ecx,%eax
  400df5:	0f af c1             	imul   %ecx,%eax
  400df8:	0f af c1             	imul   %ecx,%eax
  400dfb:	0f af c1             	imul   %ecx,%eax
  400dfe:	0f af c1             	imul   %ecx,%eax
  400e01:	0f af c1             	imul   %ecx,%eax
  400e04:	0f af c1             	imul   %ecx,%eax
  400e07:	0f af c1             	imul   %ecx,%eax
  400e0a:	0f af c1             	imul   %ecx,%eax
  400e0d:	0f af c1             	imul   %ecx,%eax
  400e10:	0f af c1             	imul   %ecx,%eax
  400e13:	0f af c1             	imul   %ecx,%eax
  400e16:	0f af c1             	imul   %ecx,%eax
  400e19:	0f af c1             	imul   %ecx,%eax
  400e1c:	0f af c1             	imul   %ecx,%eax
  400e1f:	0f af c1             	imul   %ecx,%eax
  400e22:	0f af c1             	imul   %ecx,%eax
  400e25:	0f af c1             	imul   %ecx,%eax
  400e28:	0f af c1             	imul   %ecx,%eax
  400e2b:	0f af c1             	imul   %ecx,%eax
  400e2e:	0f af c1             	imul   %ecx,%eax
  400e31:	0f af c1             	imul   %ecx,%eax
  400e34:	0f af c1             	imul   %ecx,%eax
  400e37:	0f af c1             	imul   %ecx,%eax
  400e3a:	0f af c1             	imul   %ecx,%eax
  400e3d:	0f af c1             	imul   %ecx,%eax
  400e40:	0f af c1             	imul   %ecx,%eax
  400e43:	0f af c1             	imul   %ecx,%eax
  400e46:	0f af c1             	imul   %ecx,%eax
  400e49:	0f af c1             	imul   %ecx,%eax
  400e4c:	0f af c1             	imul   %ecx,%eax
  400e4f:	0f af c1             	imul   %ecx,%eax
  400e52:	0f af c1             	imul   %ecx,%eax
  400e55:	0f af c1             	imul   %ecx,%eax
  400e58:	0f af c1             	imul   %ecx,%eax
  400e5b:	0f af c1             	imul   %ecx,%eax
  400e5e:	0f af c1             	imul   %ecx,%eax
  400e61:	0f af c1             	imul   %ecx,%eax
  400e64:	0f af c1             	imul   %ecx,%eax
  400e67:	0f af c1             	imul   %ecx,%eax
  400e6a:	0f af c1             	imul   %ecx,%eax
  400e6d:	0f af c1             	imul   %ecx,%eax
  400e70:	0f af c1             	imul   %ecx,%eax
  400e73:	0f af c1             	imul   %ecx,%eax
  400e76:	0f af c1             	imul   %ecx,%eax
  400e79:	0f af c1             	imul   %ecx,%eax
  400e7c:	0f af c1             	imul   %ecx,%eax
  400e7f:	0f af c1             	imul   %ecx,%eax
  400e82:	0f af c1             	imul   %ecx,%eax
  400e85:	0f af c1             	imul   %ecx,%eax
  400e88:	0f af c1             	imul   %ecx,%eax
  400e8b:	0f af c1             	imul   %ecx,%eax
  400e8e:	0f af c1             	imul   %ecx,%eax
  400e91:	0f af c1             	imul   %ecx,%eax
  400e94:	0f af c1             	imul   %ecx,%eax
  400e97:	0f af c1             	imul   %ecx,%eax
  400e9a:	0f af c1             	imul   %ecx,%eax
  400e9d:	0f af c1             	imul   %ecx,%eax
  400ea0:	0f af c1             	imul   %ecx,%eax
  400ea3:	0f af c1             	imul   %ecx,%eax
  400ea6:	0f af c1             	imul   %ecx,%eax
  400ea9:	0f af c1             	imul   %ecx,%eax
  400eac:	0f af c1             	imul   %ecx,%eax
  400eaf:	0f af c1             	imul   %ecx,%eax
  400eb2:	0f af c1             	imul   %ecx,%eax
  400eb5:	0f af c1             	imul   %ecx,%eax
  400eb8:	0f af c1             	imul   %ecx,%eax
  400ebb:	0f af c1             	imul   %ecx,%eax
  400ebe:	0f af c1             	imul   %ecx,%eax
  400ec1:	0f af c1             	imul   %ecx,%eax
  400ec4:	0f af c1             	imul   %ecx,%eax
  400ec7:	0f af c1             	imul   %ecx,%eax
  400eca:	0f af c1             	imul   %ecx,%eax
  400ecd:	0f af c1             	imul   %ecx,%eax
  400ed0:	0f af c1             	imul   %ecx,%eax
  400ed3:	0f af c1             	imul   %ecx,%eax
  400ed6:	0f af c1             	imul   %ecx,%eax
  400ed9:	0f af c1             	imul   %ecx,%eax
  400edc:	0f af c1             	imul   %ecx,%eax
  400edf:	0f af c1             	imul   %ecx,%eax
  400ee2:	0f af c1             	imul   %ecx,%eax
  400ee5:	0f af c1             	imul   %ecx,%eax
  400ee8:	0f af c1             	imul   %ecx,%eax
  400eeb:	0f af c1             	imul   %ecx,%eax
  400eee:	0f af c1             	imul   %ecx,%eax
  400ef1:	0f af c1             	imul   %ecx,%eax
  400ef4:	0f af c1             	imul   %ecx,%eax
  400ef7:	0f af c1             	imul   %ecx,%eax
  400efa:	0f af c1             	imul   %ecx,%eax
  400efd:	0f af c1             	imul   %ecx,%eax
  400f00:	0f af c1             	imul   %ecx,%eax
  400f03:	0f af c1             	imul   %ecx,%eax
  400f06:	0f af c1             	imul   %ecx,%eax
  400f09:	0f af c1             	imul   %ecx,%eax
  400f0c:	0f af c1             	imul   %ecx,%eax
  400f0f:	0f af c1             	imul   %ecx,%eax
  400f12:	0f af c1             	imul   %ecx,%eax
  400f15:	0f af c1             	imul   %ecx,%eax
  400f18:	0f af c1             	imul   %ecx,%eax
  400f1b:	0f af c1             	imul   %ecx,%eax
  400f1e:	0f af c1             	imul   %ecx,%eax
  400f21:	0f af c1             	imul   %ecx,%eax
  400f24:	0f af c1             	imul   %ecx,%eax
  400f27:	0f af c1             	imul   %ecx,%eax
  400f2a:	0f af c1             	imul   %ecx,%eax
  400f2d:	0f af c1             	imul   %ecx,%eax
  400f30:	0f af c1             	imul   %ecx,%eax
  400f33:	0f af c1             	imul   %ecx,%eax
  400f36:	0f af c1             	imul   %ecx,%eax
  400f39:	0f af c1             	imul   %ecx,%eax
  400f3c:	0f af c1             	imul   %ecx,%eax
  400f3f:	0f af c1             	imul   %ecx,%eax
  400f42:	0f af c1             	imul   %ecx,%eax
  400f45:	0f af c1             	imul   %ecx,%eax
  400f48:	0f af c1             	imul   %ecx,%eax
  400f4b:	0f af c1             	imul   %ecx,%eax
  400f4e:	0f af c1             	imul   %ecx,%eax
  400f51:	0f af c1             	imul   %ecx,%eax
  400f54:	0f af c1             	imul   %ecx,%eax
  400f57:	0f af c1             	imul   %ecx,%eax
  400f5a:	0f af c1             	imul   %ecx,%eax
  400f5d:	0f af c1             	imul   %ecx,%eax
  400f60:	0f af c1             	imul   %ecx,%eax
  400f63:	0f af c1             	imul   %ecx,%eax
  400f66:	0f af c1             	imul   %ecx,%eax
  400f69:	0f af c1             	imul   %ecx,%eax
  400f6c:	0f af c1             	imul   %ecx,%eax
  400f6f:	0f af c1             	imul   %ecx,%eax
  400f72:	0f af c1             	imul   %ecx,%eax
  400f75:	0f af c1             	imul   %ecx,%eax
  400f78:	0f af c1             	imul   %ecx,%eax
  400f7b:	0f af c1             	imul   %ecx,%eax
  400f7e:	0f af c1             	imul   %ecx,%eax
  400f81:	0f af c1             	imul   %ecx,%eax
  400f84:	0f af c1             	imul   %ecx,%eax
  400f87:	0f af c1             	imul   %ecx,%eax
  400f8a:	0f af c1             	imul   %ecx,%eax
  400f8d:	0f af c1             	imul   %ecx,%eax
  400f90:	0f af c1             	imul   %ecx,%eax
  400f93:	0f af c1             	imul   %ecx,%eax
  400f96:	0f af c1             	imul   %ecx,%eax
  400f99:	0f af c1             	imul   %ecx,%eax
  400f9c:	0f af c1             	imul   %ecx,%eax
  400f9f:	0f af c1             	imul   %ecx,%eax
  400fa2:	0f af c1             	imul   %ecx,%eax
  400fa5:	0f af c1             	imul   %ecx,%eax
  400fa8:	0f af c1             	imul   %ecx,%eax
  400fab:	0f af c1             	imul   %ecx,%eax
  400fae:	0f af c1             	imul   %ecx,%eax
  400fb1:	0f af c1             	imul   %ecx,%eax
  400fb4:	0f af c1             	imul   %ecx,%eax
  400fb7:	0f af c1             	imul   %ecx,%eax
  400fba:	0f af c1             	imul   %ecx,%eax
  400fbd:	0f af c1             	imul   %ecx,%eax
  400fc0:	0f af c1             	imul   %ecx,%eax
  400fc3:	0f af c1             	imul   %ecx,%eax
  400fc6:	0f af c1             	imul   %ecx,%eax
  400fc9:	0f af c1             	imul   %ecx,%eax
  400fcc:	0f af c1             	imul   %ecx,%eax
  400fcf:	0f af c1             	imul   %ecx,%eax
  400fd2:	0f af c1             	imul   %ecx,%eax
  400fd5:	0f af c1             	imul   %ecx,%eax
  400fd8:	0f af c1             	imul   %ecx,%eax
  400fdb:	0f af c1             	imul   %ecx,%eax
  400fde:	0f af c1             	imul   %ecx,%eax
  400fe1:	0f af c1             	imul   %ecx,%eax
  400fe4:	0f af c1             	imul   %ecx,%eax
  400fe7:	0f af c1             	imul   %ecx,%eax
  400fea:	0f af c1             	imul   %ecx,%eax
  400fed:	0f af c1             	imul   %ecx,%eax
  400ff0:	0f af c1             	imul   %ecx,%eax
  400ff3:	0f af c1             	imul   %ecx,%eax
  400ff6:	0f af c1             	imul   %ecx,%eax
  400ff9:	0f af c1             	imul   %ecx,%eax
  400ffc:	0f af c1             	imul   %ecx,%eax
  400fff:	0f af c1             	imul   %ecx,%eax
  401002:	0f af c1             	imul   %ecx,%eax
  401005:	0f af c1             	imul   %ecx,%eax
  401008:	0f af c1             	imul   %ecx,%eax
  40100b:	0f af c1             	imul   %ecx,%eax
  40100e:	0f af c1             	imul   %ecx,%eax
  401011:	0f af c1             	imul   %ecx,%eax
  401014:	0f af c1             	imul   %ecx,%eax
  401017:	0f af c1             	imul   %ecx,%eax
  40101a:	0f af c1             	imul   %ecx,%eax
  40101d:	0f af c1             	imul   %ecx,%eax
  401020:	0f af c1             	imul   %ecx,%eax
  401023:	0f af c1             	imul   %ecx,%eax
  401026:	0f af c1             	imul   %ecx,%eax
  401029:	0f af c1             	imul   %ecx,%eax
  40102c:	0f af c1             	imul   %ecx,%eax
  40102f:	0f af c1             	imul   %ecx,%eax
  401032:	0f af c1             	imul   %ecx,%eax
  401035:	0f af c1             	imul   %ecx,%eax
  401038:	0f af c1             	imul   %ecx,%eax
  40103b:	0f af c1             	imul   %ecx,%eax
  40103e:	0f af c1             	imul   %ecx,%eax
  401041:	0f af c1             	imul   %ecx,%eax
  401044:	0f af c1             	imul   %ecx,%eax
  401047:	0f af c1             	imul   %ecx,%eax
  40104a:	0f af c1             	imul   %ecx,%eax
  40104d:	0f af c1             	imul   %ecx,%eax
  401050:	0f af c1             	imul   %ecx,%eax
  401053:	0f af c1             	imul   %ecx,%eax
  401056:	0f af c1             	imul   %ecx,%eax
  401059:	0f af c1             	imul   %ecx,%eax
  40105c:	0f af c1             	imul   %ecx,%eax
  40105f:	0f af c1             	imul   %ecx,%eax
  401062:	0f af c1             	imul   %ecx,%eax
  401065:	0f af c1             	imul   %ecx,%eax
  401068:	0f af c1             	imul   %ecx,%eax
  40106b:	0f af c1             	imul   %ecx,%eax
  40106e:	0f af c1             	imul   %ecx,%eax
  401071:	0f af c1             	imul   %ecx,%eax
  401074:	0f af c1             	imul   %ecx,%eax
  401077:	0f af c1             	imul   %ecx,%eax
  40107a:	0f af c1             	imul   %ecx,%eax
  40107d:	0f af c1             	imul   %ecx,%eax
  401080:	0f af c1             	imul   %ecx,%eax
  401083:	0f af c1             	imul   %ecx,%eax
  401086:	0f af c1             	imul   %ecx,%eax
  401089:	0f af c1             	imul   %ecx,%eax
  40108c:	0f af c1             	imul   %ecx,%eax
  40108f:	0f af c1             	imul   %ecx,%eax
  401092:	0f af c1             	imul   %ecx,%eax
  401095:	0f af c1             	imul   %ecx,%eax
  401098:	0f af c1             	imul   %ecx,%eax
  40109b:	0f af c1             	imul   %ecx,%eax
  40109e:	0f af c1             	imul   %ecx,%eax
  4010a1:	0f af c1             	imul   %ecx,%eax
  4010a4:	0f af c1             	imul   %ecx,%eax
  4010a7:	0f af c1             	imul   %ecx,%eax
  4010aa:	0f af c1             	imul   %ecx,%eax
  4010ad:	0f af c1             	imul   %ecx,%eax
  4010b0:	0f af c1             	imul   %ecx,%eax
  4010b3:	0f af c1             	imul   %ecx,%eax
  4010b6:	0f af c1             	imul   %ecx,%eax
  4010b9:	0f af c1             	imul   %ecx,%eax
  4010bc:	0f af c1             	imul   %ecx,%eax
  4010bf:	0f af c1             	imul   %ecx,%eax
  4010c2:	0f af c1             	imul   %ecx,%eax
  4010c5:	0f af c1             	imul   %ecx,%eax
  4010c8:	0f af c1             	imul   %ecx,%eax
  4010cb:	0f af c1             	imul   %ecx,%eax
  4010ce:	0f af c1             	imul   %ecx,%eax
  4010d1:	0f af c1             	imul   %ecx,%eax
  4010d4:	0f af c1             	imul   %ecx,%eax
  4010d7:	0f af c1             	imul   %ecx,%eax
  4010da:	0f af c1             	imul   %ecx,%eax
  4010dd:	0f af c1             	imul   %ecx,%eax
  4010e0:	0f af c1             	imul   %ecx,%eax
  4010e3:	0f af c1             	imul   %ecx,%eax
  4010e6:	0f af c1             	imul   %ecx,%eax
  4010e9:	0f af c1             	imul   %ecx,%eax
  4010ec:	0f af c1             	imul   %ecx,%eax
  4010ef:	0f af c1             	imul   %ecx,%eax
  4010f2:	0f af c1             	imul   %ecx,%eax
  4010f5:	0f af c1             	imul   %ecx,%eax
  4010f8:	0f af c1             	imul   %ecx,%eax
  4010fb:	0f af c1             	imul   %ecx,%eax
  4010fe:	0f af c1             	imul   %ecx,%eax
  401101:	0f af c1             	imul   %ecx,%eax
  401104:	0f af c1             	imul   %ecx,%eax
  401107:	0f af c1             	imul   %ecx,%eax
  40110a:	0f af c1             	imul   %ecx,%eax
  40110d:	0f af c1             	imul   %ecx,%eax
  401110:	0f af c1             	imul   %ecx,%eax
  401113:	0f af c1             	imul   %ecx,%eax
  401116:	0f af c1             	imul   %ecx,%eax
  401119:	0f af c1             	imul   %ecx,%eax
  40111c:	0f af c1             	imul   %ecx,%eax
  40111f:	0f af c1             	imul   %ecx,%eax
  401122:	0f af c1             	imul   %ecx,%eax
  401125:	0f af c1             	imul   %ecx,%eax
  401128:	0f af c1             	imul   %ecx,%eax
  40112b:	0f af c1             	imul   %ecx,%eax
  40112e:	0f af c1             	imul   %ecx,%eax
  401131:	0f af c1             	imul   %ecx,%eax
  401134:	0f af c1             	imul   %ecx,%eax
  401137:	0f af c1             	imul   %ecx,%eax
  40113a:	0f af c1             	imul   %ecx,%eax
  40113d:	0f af c1             	imul   %ecx,%eax
  401140:	0f af c1             	imul   %ecx,%eax
  401143:	0f af c1             	imul   %ecx,%eax
  401146:	0f af c1             	imul   %ecx,%eax
  401149:	0f af c1             	imul   %ecx,%eax
  40114c:	0f af c1             	imul   %ecx,%eax
  40114f:	0f af c1             	imul   %ecx,%eax
  401152:	0f af c1             	imul   %ecx,%eax
  401155:	0f af c1             	imul   %ecx,%eax
  401158:	0f af c1             	imul   %ecx,%eax
  40115b:	0f af c1             	imul   %ecx,%eax
  40115e:	0f af c1             	imul   %ecx,%eax
  401161:	0f af c1             	imul   %ecx,%eax
  401164:	0f af c1             	imul   %ecx,%eax
  401167:	0f af c1             	imul   %ecx,%eax
  40116a:	0f af c1             	imul   %ecx,%eax
  40116d:	0f af c1             	imul   %ecx,%eax
  401170:	0f af c1             	imul   %ecx,%eax
  401173:	0f af c1             	imul   %ecx,%eax
  401176:	0f af c1             	imul   %ecx,%eax
  401179:	0f af c1             	imul   %ecx,%eax
  40117c:	0f af c1             	imul   %ecx,%eax
  40117f:	0f af c1             	imul   %ecx,%eax
  401182:	0f af c1             	imul   %ecx,%eax
  401185:	0f af c1             	imul   %ecx,%eax
  401188:	0f af c1             	imul   %ecx,%eax
  40118b:	0f af c1             	imul   %ecx,%eax
  40118e:	0f af c1             	imul   %ecx,%eax
  401191:	0f af c1             	imul   %ecx,%eax
  401194:	0f af c1             	imul   %ecx,%eax
  401197:	0f af c1             	imul   %ecx,%eax
  40119a:	0f af c1             	imul   %ecx,%eax
  40119d:	0f af c1             	imul   %ecx,%eax
  4011a0:	0f af c1             	imul   %ecx,%eax
  4011a3:	0f af c1             	imul   %ecx,%eax
  4011a6:	0f af c1             	imul   %ecx,%eax
  4011a9:	0f af c1             	imul   %ecx,%eax
  4011ac:	0f af c1             	imul   %ecx,%eax
  4011af:	0f af c1             	imul   %ecx,%eax
  4011b2:	0f af c1             	imul   %ecx,%eax
  4011b5:	0f af c1             	imul   %ecx,%eax
  4011b8:	0f af c1             	imul   %ecx,%eax
  4011bb:	0f af c1             	imul   %ecx,%eax
  4011be:	0f af c1             	imul   %ecx,%eax
  4011c1:	0f af c1             	imul   %ecx,%eax
  4011c4:	0f af c1             	imul   %ecx,%eax
  4011c7:	0f af c1             	imul   %ecx,%eax
  4011ca:	0f af c1             	imul   %ecx,%eax
  4011cd:	0f af c1             	imul   %ecx,%eax
  4011d0:	0f af c1             	imul   %ecx,%eax
  4011d3:	0f af c1             	imul   %ecx,%eax
  4011d6:	0f af c1             	imul   %ecx,%eax
  4011d9:	0f af c1             	imul   %ecx,%eax
  4011dc:	0f af c1             	imul   %ecx,%eax
  4011df:	0f af c1             	imul   %ecx,%eax
  4011e2:	0f af c1             	imul   %ecx,%eax
  4011e5:	0f af c1             	imul   %ecx,%eax
  4011e8:	0f af c1             	imul   %ecx,%eax
  4011eb:	0f af c1             	imul   %ecx,%eax
  4011ee:	0f af c1             	imul   %ecx,%eax
  4011f1:	0f af c1             	imul   %ecx,%eax
  4011f4:	0f af c1             	imul   %ecx,%eax
  4011f7:	0f af c1             	imul   %ecx,%eax
  4011fa:	0f af c1             	imul   %ecx,%eax
  4011fd:	0f af c1             	imul   %ecx,%eax
  401200:	0f af c1             	imul   %ecx,%eax
  401203:	0f af c1             	imul   %ecx,%eax
  401206:	0f af c1             	imul   %ecx,%eax
  401209:	0f af c1             	imul   %ecx,%eax
  40120c:	0f af c1             	imul   %ecx,%eax
  40120f:	0f af c1             	imul   %ecx,%eax
  401212:	0f af c1             	imul   %ecx,%eax
  401215:	0f af c1             	imul   %ecx,%eax
  401218:	0f af c1             	imul   %ecx,%eax
  40121b:	0f af c1             	imul   %ecx,%eax
  40121e:	0f af c1             	imul   %ecx,%eax
  401221:	0f af c1             	imul   %ecx,%eax
  401224:	0f af c1             	imul   %ecx,%eax
  401227:	0f af c1             	imul   %ecx,%eax
  40122a:	0f af c1             	imul   %ecx,%eax
  40122d:	0f af c1             	imul   %ecx,%eax
  401230:	0f af c1             	imul   %ecx,%eax
  401233:	0f af c1             	imul   %ecx,%eax
  401236:	0f af c1             	imul   %ecx,%eax
  401239:	0f af c1             	imul   %ecx,%eax
  40123c:	0f af c1             	imul   %ecx,%eax
  40123f:	0f af c1             	imul   %ecx,%eax
  401242:	0f af c1             	imul   %ecx,%eax
  401245:	0f af c1             	imul   %ecx,%eax
  401248:	0f af c1             	imul   %ecx,%eax
  40124b:	0f af c1             	imul   %ecx,%eax
  40124e:	0f af c1             	imul   %ecx,%eax
  401251:	0f af c1             	imul   %ecx,%eax
  401254:	0f af c1             	imul   %ecx,%eax
  401257:	0f af c1             	imul   %ecx,%eax
  40125a:	0f af c1             	imul   %ecx,%eax
  40125d:	0f af c1             	imul   %ecx,%eax
  401260:	0f af c1             	imul   %ecx,%eax
  401263:	0f af c1             	imul   %ecx,%eax
  401266:	0f af c1             	imul   %ecx,%eax
  401269:	0f af c1             	imul   %ecx,%eax
  40126c:	0f af c1             	imul   %ecx,%eax
  40126f:	0f af c1             	imul   %ecx,%eax
  401272:	0f af c1             	imul   %ecx,%eax
  401275:	0f af c1             	imul   %ecx,%eax
  401278:	0f af c1             	imul   %ecx,%eax
  40127b:	0f af c1             	imul   %ecx,%eax
  40127e:	0f af c1             	imul   %ecx,%eax
  401281:	0f af c1             	imul   %ecx,%eax
  401284:	0f af c1             	imul   %ecx,%eax
  401287:	0f af c1             	imul   %ecx,%eax
  40128a:	0f af c1             	imul   %ecx,%eax
  40128d:	0f af c1             	imul   %ecx,%eax
  401290:	0f af c1             	imul   %ecx,%eax
  401293:	0f af c1             	imul   %ecx,%eax
  401296:	0f af c1             	imul   %ecx,%eax
  401299:	0f af c1             	imul   %ecx,%eax
  40129c:	0f af c1             	imul   %ecx,%eax
  40129f:	0f af c1             	imul   %ecx,%eax
  4012a2:	0f af c1             	imul   %ecx,%eax
  4012a5:	0f af c1             	imul   %ecx,%eax
  4012a8:	0f af c1             	imul   %ecx,%eax
  4012ab:	0f af c1             	imul   %ecx,%eax
  4012ae:	0f af c1             	imul   %ecx,%eax
  4012b1:	0f af c1             	imul   %ecx,%eax
  4012b4:	0f af c1             	imul   %ecx,%eax
  4012b7:	0f af c1             	imul   %ecx,%eax
  4012ba:	0f af c1             	imul   %ecx,%eax
  4012bd:	0f af c1             	imul   %ecx,%eax
  4012c0:	0f af c1             	imul   %ecx,%eax
  4012c3:	0f af c1             	imul   %ecx,%eax
  4012c6:	0f af c1             	imul   %ecx,%eax
  4012c9:	0f af c1             	imul   %ecx,%eax
  4012cc:	0f af c1             	imul   %ecx,%eax
  4012cf:	0f af c1             	imul   %ecx,%eax
  4012d2:	0f af c1             	imul   %ecx,%eax
  4012d5:	0f af c1             	imul   %ecx,%eax
  4012d8:	0f af c1             	imul   %ecx,%eax
  4012db:	0f af c1             	imul   %ecx,%eax
  4012de:	0f af c1             	imul   %ecx,%eax
  4012e1:	0f af c1             	imul   %ecx,%eax
  4012e4:	0f af c1             	imul   %ecx,%eax
  4012e7:	0f af c1             	imul   %ecx,%eax
  4012ea:	0f af c1             	imul   %ecx,%eax
  4012ed:	0f af c1             	imul   %ecx,%eax
  4012f0:	0f af c1             	imul   %ecx,%eax
  4012f3:	0f af c1             	imul   %ecx,%eax
  4012f6:	0f af c1             	imul   %ecx,%eax
  4012f9:	0f af c1             	imul   %ecx,%eax
  4012fc:	0f af c1             	imul   %ecx,%eax
  4012ff:	0f af c1             	imul   %ecx,%eax
  401302:	0f af c1             	imul   %ecx,%eax
  401305:	0f af c1             	imul   %ecx,%eax
  401308:	0f af c1             	imul   %ecx,%eax
  40130b:	0f af c1             	imul   %ecx,%eax
  40130e:	0f af c1             	imul   %ecx,%eax
  401311:	0f af c1             	imul   %ecx,%eax
  401314:	0f af c1             	imul   %ecx,%eax
  401317:	0f af c1             	imul   %ecx,%eax
  40131a:	0f af c1             	imul   %ecx,%eax
  40131d:	0f af c1             	imul   %ecx,%eax
  401320:	0f af c1             	imul   %ecx,%eax
  401323:	0f af c1             	imul   %ecx,%eax
  401326:	0f af c1             	imul   %ecx,%eax
  401329:	0f af c1             	imul   %ecx,%eax
  40132c:	0f af c1             	imul   %ecx,%eax
  40132f:	0f af c1             	imul   %ecx,%eax
  401332:	0f af c1             	imul   %ecx,%eax
  401335:	0f af c1             	imul   %ecx,%eax
  401338:	0f af c1             	imul   %ecx,%eax
  40133b:	0f af c1             	imul   %ecx,%eax
  40133e:	0f af c1             	imul   %ecx,%eax
  401341:	0f af c1             	imul   %ecx,%eax
  401344:	0f af c1             	imul   %ecx,%eax
  401347:	0f af c1             	imul   %ecx,%eax
  40134a:	0f af c1             	imul   %ecx,%eax
  40134d:	0f af c1             	imul   %ecx,%eax
  401350:	0f af c1             	imul   %ecx,%eax
  401353:	0f af c1             	imul   %ecx,%eax
  401356:	0f af c1             	imul   %ecx,%eax
  401359:	0f af c1             	imul   %ecx,%eax
  40135c:	0f af c1             	imul   %ecx,%eax
  40135f:	0f af c1             	imul   %ecx,%eax
  401362:	0f af c1             	imul   %ecx,%eax
  401365:	0f af c1             	imul   %ecx,%eax
  401368:	0f af c1             	imul   %ecx,%eax
  40136b:	0f af c1             	imul   %ecx,%eax
  40136e:	0f af c1             	imul   %ecx,%eax
  401371:	0f af c1             	imul   %ecx,%eax
  401374:	0f af c1             	imul   %ecx,%eax
  401377:	0f af c1             	imul   %ecx,%eax
  40137a:	0f af c1             	imul   %ecx,%eax
  40137d:	0f af c1             	imul   %ecx,%eax
  401380:	0f af c1             	imul   %ecx,%eax
  401383:	0f af c1             	imul   %ecx,%eax
  401386:	0f af c1             	imul   %ecx,%eax
  401389:	0f af c1             	imul   %ecx,%eax
  40138c:	0f af c1             	imul   %ecx,%eax
  40138f:	0f af c1             	imul   %ecx,%eax
  401392:	0f af c1             	imul   %ecx,%eax
  401395:	0f af c1             	imul   %ecx,%eax
  401398:	0f af c1             	imul   %ecx,%eax
  40139b:	0f af c1             	imul   %ecx,%eax
  40139e:	0f af c1             	imul   %ecx,%eax
  4013a1:	0f af c1             	imul   %ecx,%eax
  4013a4:	0f af c1             	imul   %ecx,%eax
  4013a7:	0f af c1             	imul   %ecx,%eax
  4013aa:	0f af c1             	imul   %ecx,%eax
  4013ad:	0f af c1             	imul   %ecx,%eax
  4013b0:	0f af c1             	imul   %ecx,%eax
  4013b3:	0f af c1             	imul   %ecx,%eax
  4013b6:	0f af c1             	imul   %ecx,%eax
  4013b9:	0f af c1             	imul   %ecx,%eax
  4013bc:	0f af c1             	imul   %ecx,%eax
  4013bf:	0f af c1             	imul   %ecx,%eax
  4013c2:	0f af c1             	imul   %ecx,%eax
  4013c5:	0f af c1             	imul   %ecx,%eax
  4013c8:	0f af c1             	imul   %ecx,%eax
  4013cb:	0f af c1             	imul   %ecx,%eax
  4013ce:	0f af c1             	imul   %ecx,%eax
  4013d1:	0f af c1             	imul   %ecx,%eax
  4013d4:	0f af c1             	imul   %ecx,%eax
  4013d7:	0f af c1             	imul   %ecx,%eax
  4013da:	0f af c1             	imul   %ecx,%eax
  4013dd:	0f af c1             	imul   %ecx,%eax
  4013e0:	0f af c1             	imul   %ecx,%eax
  4013e3:	0f af c1             	imul   %ecx,%eax
  4013e6:	0f af c1             	imul   %ecx,%eax
  4013e9:	0f af c1             	imul   %ecx,%eax
  4013ec:	0f af c1             	imul   %ecx,%eax
  4013ef:	0f af c1             	imul   %ecx,%eax
  4013f2:	0f af c1             	imul   %ecx,%eax
  4013f5:	0f af c1             	imul   %ecx,%eax
  4013f8:	0f af c1             	imul   %ecx,%eax
  4013fb:	0f af c1             	imul   %ecx,%eax
  4013fe:	0f af c1             	imul   %ecx,%eax
  401401:	0f af c1             	imul   %ecx,%eax
  401404:	0f af c1             	imul   %ecx,%eax
  401407:	0f af c1             	imul   %ecx,%eax
  40140a:	0f af c1             	imul   %ecx,%eax
  40140d:	0f af c1             	imul   %ecx,%eax
  401410:	0f af c1             	imul   %ecx,%eax
  401413:	0f af c1             	imul   %ecx,%eax
  401416:	0f af c1             	imul   %ecx,%eax
  401419:	0f af c1             	imul   %ecx,%eax
  40141c:	0f af c1             	imul   %ecx,%eax
  40141f:	0f af c1             	imul   %ecx,%eax
  401422:	0f af c1             	imul   %ecx,%eax
  401425:	0f af c1             	imul   %ecx,%eax
  401428:	0f af c1             	imul   %ecx,%eax
  40142b:	0f af c1             	imul   %ecx,%eax
  40142e:	0f af c1             	imul   %ecx,%eax
  401431:	0f af c1             	imul   %ecx,%eax
  401434:	0f af c1             	imul   %ecx,%eax
  401437:	0f af c1             	imul   %ecx,%eax
  40143a:	0f af c1             	imul   %ecx,%eax
  40143d:	0f af c1             	imul   %ecx,%eax
  401440:	0f af c1             	imul   %ecx,%eax
  401443:	0f af c1             	imul   %ecx,%eax
  401446:	0f af c1             	imul   %ecx,%eax
  401449:	0f af c1             	imul   %ecx,%eax
  40144c:	0f af c1             	imul   %ecx,%eax
  40144f:	0f af c1             	imul   %ecx,%eax
  401452:	0f af c1             	imul   %ecx,%eax
  401455:	0f af c1             	imul   %ecx,%eax
  401458:	0f af c1             	imul   %ecx,%eax
  40145b:	0f af c1             	imul   %ecx,%eax
  40145e:	0f af c1             	imul   %ecx,%eax
  401461:	0f af c1             	imul   %ecx,%eax
  401464:	0f af c1             	imul   %ecx,%eax
  401467:	0f af c1             	imul   %ecx,%eax
  40146a:	0f af c1             	imul   %ecx,%eax
  40146d:	0f af c1             	imul   %ecx,%eax
  401470:	0f af c1             	imul   %ecx,%eax
  401473:	0f af c1             	imul   %ecx,%eax
  401476:	0f af c1             	imul   %ecx,%eax
  401479:	0f af c1             	imul   %ecx,%eax
  40147c:	0f af c1             	imul   %ecx,%eax
  40147f:	0f af c1             	imul   %ecx,%eax
  401482:	0f af c1             	imul   %ecx,%eax
  401485:	0f af c1             	imul   %ecx,%eax
  401488:	0f af c1             	imul   %ecx,%eax
  40148b:	0f af c1             	imul   %ecx,%eax
  40148e:	0f af c1             	imul   %ecx,%eax
  401491:	0f af c1             	imul   %ecx,%eax
  401494:	0f af c1             	imul   %ecx,%eax
  401497:	0f af c1             	imul   %ecx,%eax
  40149a:	0f af c1             	imul   %ecx,%eax
  40149d:	0f af c1             	imul   %ecx,%eax
  4014a0:	0f af c1             	imul   %ecx,%eax
  4014a3:	0f af c1             	imul   %ecx,%eax
  4014a6:	0f af c1             	imul   %ecx,%eax
  4014a9:	0f af c1             	imul   %ecx,%eax
  4014ac:	0f af c1             	imul   %ecx,%eax
  4014af:	0f af c1             	imul   %ecx,%eax
  4014b2:	0f af c1             	imul   %ecx,%eax
  4014b5:	0f af c1             	imul   %ecx,%eax
  4014b8:	0f af c1             	imul   %ecx,%eax
  4014bb:	0f af c1             	imul   %ecx,%eax
  4014be:	0f af c1             	imul   %ecx,%eax
  4014c1:	0f af c1             	imul   %ecx,%eax
  4014c4:	0f af c1             	imul   %ecx,%eax
  4014c7:	0f af c1             	imul   %ecx,%eax
  4014ca:	0f af c1             	imul   %ecx,%eax
  4014cd:	0f af c1             	imul   %ecx,%eax
  4014d0:	0f af c1             	imul   %ecx,%eax
  4014d3:	0f af c1             	imul   %ecx,%eax
  4014d6:	0f af c1             	imul   %ecx,%eax
  4014d9:	0f af c1             	imul   %ecx,%eax
  4014dc:	0f af c1             	imul   %ecx,%eax
  4014df:	0f af c1             	imul   %ecx,%eax
  4014e2:	0f af c1             	imul   %ecx,%eax
  4014e5:	0f af c1             	imul   %ecx,%eax
  4014e8:	0f af c1             	imul   %ecx,%eax
  4014eb:	0f af c1             	imul   %ecx,%eax
  4014ee:	0f af c1             	imul   %ecx,%eax
  4014f1:	0f af c1             	imul   %ecx,%eax
  4014f4:	0f af c1             	imul   %ecx,%eax
  4014f7:	0f af c1             	imul   %ecx,%eax
  4014fa:	0f af c1             	imul   %ecx,%eax
  4014fd:	0f af c1             	imul   %ecx,%eax
  401500:	0f af c1             	imul   %ecx,%eax
  401503:	0f af c1             	imul   %ecx,%eax
  401506:	0f af c1             	imul   %ecx,%eax
  401509:	0f af c1             	imul   %ecx,%eax
  40150c:	0f af c1             	imul   %ecx,%eax
  40150f:	0f af c1             	imul   %ecx,%eax
  401512:	0f af c1             	imul   %ecx,%eax
  401515:	0f af c1             	imul   %ecx,%eax
  401518:	0f af c1             	imul   %ecx,%eax
  40151b:	0f af c1             	imul   %ecx,%eax
  40151e:	0f af c1             	imul   %ecx,%eax
  401521:	0f af c1             	imul   %ecx,%eax
  401524:	0f af c1             	imul   %ecx,%eax
  401527:	0f af c1             	imul   %ecx,%eax
  40152a:	0f af c1             	imul   %ecx,%eax
  40152d:	0f af c1             	imul   %ecx,%eax
  401530:	0f af c1             	imul   %ecx,%eax
  401533:	0f af c1             	imul   %ecx,%eax
  401536:	0f af c1             	imul   %ecx,%eax
  401539:	0f af c1             	imul   %ecx,%eax
  40153c:	0f af c1             	imul   %ecx,%eax
  40153f:	0f af c1             	imul   %ecx,%eax
  401542:	0f af c1             	imul   %ecx,%eax
  401545:	0f af c1             	imul   %ecx,%eax
  401548:	0f af c1             	imul   %ecx,%eax
  40154b:	0f af c1             	imul   %ecx,%eax
  40154e:	0f af c1             	imul   %ecx,%eax
  401551:	0f af c1             	imul   %ecx,%eax
  401554:	0f af c1             	imul   %ecx,%eax
  401557:	0f af c1             	imul   %ecx,%eax
  40155a:	0f af c1             	imul   %ecx,%eax
  40155d:	0f af c1             	imul   %ecx,%eax
  401560:	0f af c1             	imul   %ecx,%eax
  401563:	0f af c1             	imul   %ecx,%eax
  401566:	0f af c1             	imul   %ecx,%eax
  401569:	0f af c1             	imul   %ecx,%eax
  40156c:	0f af c1             	imul   %ecx,%eax
  40156f:	0f af c1             	imul   %ecx,%eax
  401572:	0f af c1             	imul   %ecx,%eax
  401575:	0f af c1             	imul   %ecx,%eax
  401578:	0f af c1             	imul   %ecx,%eax
  40157b:	0f af c1             	imul   %ecx,%eax
  40157e:	0f af c1             	imul   %ecx,%eax
  401581:	0f af c1             	imul   %ecx,%eax
  401584:	0f af c1             	imul   %ecx,%eax
  401587:	0f af c1             	imul   %ecx,%eax
  40158a:	0f af c1             	imul   %ecx,%eax
  40158d:	0f af c1             	imul   %ecx,%eax
  401590:	0f af c1             	imul   %ecx,%eax
  401593:	0f af c1             	imul   %ecx,%eax
  401596:	0f af c1             	imul   %ecx,%eax
  401599:	0f af c1             	imul   %ecx,%eax
  40159c:	0f af c1             	imul   %ecx,%eax
  40159f:	0f af c1             	imul   %ecx,%eax
  4015a2:	0f af c1             	imul   %ecx,%eax
  4015a5:	0f af c1             	imul   %ecx,%eax
  4015a8:	0f af c1             	imul   %ecx,%eax
  4015ab:	0f af c1             	imul   %ecx,%eax
  4015ae:	0f af c1             	imul   %ecx,%eax
  4015b1:	0f af c1             	imul   %ecx,%eax
  4015b4:	0f af c1             	imul   %ecx,%eax
  4015b7:	0f af c1             	imul   %ecx,%eax
  4015ba:	0f af c1             	imul   %ecx,%eax
  4015bd:	0f af c1             	imul   %ecx,%eax
  4015c0:	0f af c1             	imul   %ecx,%eax
  4015c3:	0f af c1             	imul   %ecx,%eax
  4015c6:	0f af c1             	imul   %ecx,%eax
  4015c9:	0f af c1             	imul   %ecx,%eax
  4015cc:	0f af c1             	imul   %ecx,%eax
  4015cf:	0f af c1             	imul   %ecx,%eax
  4015d2:	0f af c1             	imul   %ecx,%eax
  4015d5:	0f af c1             	imul   %ecx,%eax
  4015d8:	0f af c1             	imul   %ecx,%eax
  4015db:	0f af c1             	imul   %ecx,%eax
  4015de:	0f af c1             	imul   %ecx,%eax
  4015e1:	0f af c1             	imul   %ecx,%eax
  4015e4:	0f af c1             	imul   %ecx,%eax
  4015e7:	0f af c1             	imul   %ecx,%eax
  4015ea:	0f af c1             	imul   %ecx,%eax
  4015ed:	0f af c1             	imul   %ecx,%eax
  4015f0:	0f af c1             	imul   %ecx,%eax
  4015f3:	0f af c1             	imul   %ecx,%eax
  4015f6:	0f af c1             	imul   %ecx,%eax
  4015f9:	0f af c1             	imul   %ecx,%eax
  4015fc:	0f af c1             	imul   %ecx,%eax
  4015ff:	0f af c1             	imul   %ecx,%eax
  401602:	0f af c1             	imul   %ecx,%eax
  401605:	0f af c1             	imul   %ecx,%eax
  401608:	0f af c1             	imul   %ecx,%eax
  40160b:	0f af c1             	imul   %ecx,%eax
  40160e:	0f af c1             	imul   %ecx,%eax
  401611:	0f af c1             	imul   %ecx,%eax
  401614:	0f af c1             	imul   %ecx,%eax
  401617:	0f af c1             	imul   %ecx,%eax
  40161a:	0f af c1             	imul   %ecx,%eax
  40161d:	0f af c1             	imul   %ecx,%eax
  401620:	0f af c1             	imul   %ecx,%eax
  401623:	0f af c1             	imul   %ecx,%eax
  401626:	0f af c1             	imul   %ecx,%eax
  401629:	0f af c1             	imul   %ecx,%eax
  40162c:	0f af c1             	imul   %ecx,%eax
  40162f:	0f af c1             	imul   %ecx,%eax
  401632:	0f af c1             	imul   %ecx,%eax
  401635:	0f af c1             	imul   %ecx,%eax
  401638:	0f af c1             	imul   %ecx,%eax
  40163b:	0f af c1             	imul   %ecx,%eax
  40163e:	0f af c1             	imul   %ecx,%eax
  401641:	0f af c1             	imul   %ecx,%eax
  401644:	0f af c1             	imul   %ecx,%eax
  401647:	0f af c1             	imul   %ecx,%eax
  40164a:	0f af c1             	imul   %ecx,%eax
  40164d:	0f af c1             	imul   %ecx,%eax
  401650:	0f af c1             	imul   %ecx,%eax
  401653:	0f af c1             	imul   %ecx,%eax
  401656:	0f af c1             	imul   %ecx,%eax
  401659:	0f af c1             	imul   %ecx,%eax
  40165c:	0f af c1             	imul   %ecx,%eax
  40165f:	0f af c1             	imul   %ecx,%eax
  401662:	0f af c1             	imul   %ecx,%eax
  401665:	0f af c1             	imul   %ecx,%eax
  401668:	0f af c1             	imul   %ecx,%eax
  40166b:	0f af c1             	imul   %ecx,%eax
  40166e:	0f af c1             	imul   %ecx,%eax
  401671:	0f af c1             	imul   %ecx,%eax
  401674:	0f af c1             	imul   %ecx,%eax
  401677:	0f af c1             	imul   %ecx,%eax
  40167a:	0f af c1             	imul   %ecx,%eax
  40167d:	0f af c1             	imul   %ecx,%eax
  401680:	0f af c1             	imul   %ecx,%eax
  401683:	0f af c1             	imul   %ecx,%eax
  401686:	0f af c1             	imul   %ecx,%eax
  401689:	0f af c1             	imul   %ecx,%eax
  40168c:	0f af c1             	imul   %ecx,%eax
  40168f:	0f af c1             	imul   %ecx,%eax
  401692:	0f af c1             	imul   %ecx,%eax
  401695:	0f af c1             	imul   %ecx,%eax
  401698:	0f af c1             	imul   %ecx,%eax
  40169b:	0f af c1             	imul   %ecx,%eax
  40169e:	0f af c1             	imul   %ecx,%eax
  4016a1:	0f af c1             	imul   %ecx,%eax
  4016a4:	0f af c1             	imul   %ecx,%eax
  4016a7:	0f af c1             	imul   %ecx,%eax
  4016aa:	0f af c1             	imul   %ecx,%eax
  4016ad:	0f af c1             	imul   %ecx,%eax
  4016b0:	0f af c1             	imul   %ecx,%eax
  4016b3:	0f af c1             	imul   %ecx,%eax
  4016b6:	0f af c1             	imul   %ecx,%eax
  4016b9:	0f af c1             	imul   %ecx,%eax
  4016bc:	0f af c1             	imul   %ecx,%eax
  4016bf:	0f af c1             	imul   %ecx,%eax
  4016c2:	0f af c1             	imul   %ecx,%eax
  4016c5:	0f af c1             	imul   %ecx,%eax
  4016c8:	0f af c1             	imul   %ecx,%eax
  4016cb:	0f af c1             	imul   %ecx,%eax
  4016ce:	0f af c1             	imul   %ecx,%eax
  4016d1:	0f af c1             	imul   %ecx,%eax
  4016d4:	0f af c1             	imul   %ecx,%eax
  4016d7:	0f af c1             	imul   %ecx,%eax
  4016da:	0f af c1             	imul   %ecx,%eax
  4016dd:	0f af c1             	imul   %ecx,%eax
  4016e0:	0f af c1             	imul   %ecx,%eax
  4016e3:	0f af c1             	imul   %ecx,%eax
  4016e6:	0f af c1             	imul   %ecx,%eax
  4016e9:	0f af c1             	imul   %ecx,%eax
  4016ec:	0f af c1             	imul   %ecx,%eax
  4016ef:	0f af c1             	imul   %ecx,%eax
  4016f2:	0f af c1             	imul   %ecx,%eax
  4016f5:	0f af c1             	imul   %ecx,%eax
  4016f8:	0f af c1             	imul   %ecx,%eax
  4016fb:	0f af c1             	imul   %ecx,%eax
  4016fe:	0f af c1             	imul   %ecx,%eax
  401701:	0f af c1             	imul   %ecx,%eax
  401704:	0f af c1             	imul   %ecx,%eax
  401707:	0f af c1             	imul   %ecx,%eax
  40170a:	0f af c1             	imul   %ecx,%eax
  40170d:	0f af c1             	imul   %ecx,%eax
  401710:	0f af c1             	imul   %ecx,%eax
  401713:	0f af c1             	imul   %ecx,%eax
  401716:	0f af c1             	imul   %ecx,%eax
  401719:	0f af c1             	imul   %ecx,%eax
  40171c:	0f af c1             	imul   %ecx,%eax
  40171f:	0f af c1             	imul   %ecx,%eax
  401722:	0f af c1             	imul   %ecx,%eax
  401725:	0f af c1             	imul   %ecx,%eax
  401728:	0f af c1             	imul   %ecx,%eax
  40172b:	0f af c1             	imul   %ecx,%eax
  40172e:	0f af c1             	imul   %ecx,%eax
  401731:	0f af c1             	imul   %ecx,%eax
  401734:	0f af c1             	imul   %ecx,%eax
  401737:	0f af c1             	imul   %ecx,%eax
  40173a:	0f af c1             	imul   %ecx,%eax
  40173d:	0f af c1             	imul   %ecx,%eax
  401740:	0f af c1             	imul   %ecx,%eax
  401743:	0f af c1             	imul   %ecx,%eax
  401746:	0f af c1             	imul   %ecx,%eax
  401749:	0f af c1             	imul   %ecx,%eax
  40174c:	0f af c1             	imul   %ecx,%eax
  40174f:	0f af c1             	imul   %ecx,%eax
  401752:	0f af c1             	imul   %ecx,%eax
  401755:	0f af c1             	imul   %ecx,%eax
  401758:	0f af c1             	imul   %ecx,%eax
  40175b:	0f af c1             	imul   %ecx,%eax
  40175e:	0f af c1             	imul   %ecx,%eax
  401761:	0f af c1             	imul   %ecx,%eax
  401764:	0f af c1             	imul   %ecx,%eax
  401767:	0f af c1             	imul   %ecx,%eax
  40176a:	0f af c1             	imul   %ecx,%eax
  40176d:	0f af c1             	imul   %ecx,%eax
  401770:	0f af c1             	imul   %ecx,%eax
  401773:	0f af c1             	imul   %ecx,%eax
  401776:	0f af c1             	imul   %ecx,%eax
  401779:	0f af c1             	imul   %ecx,%eax
  40177c:	0f af c1             	imul   %ecx,%eax
  40177f:	0f af c1             	imul   %ecx,%eax
  401782:	0f af c1             	imul   %ecx,%eax
  401785:	0f af c1             	imul   %ecx,%eax
  401788:	0f af c1             	imul   %ecx,%eax
  40178b:	0f af c1             	imul   %ecx,%eax
  40178e:	0f af c1             	imul   %ecx,%eax
  401791:	0f af c1             	imul   %ecx,%eax
  401794:	0f af c1             	imul   %ecx,%eax
  401797:	0f af c1             	imul   %ecx,%eax
  40179a:	0f af c1             	imul   %ecx,%eax
  40179d:	0f af c1             	imul   %ecx,%eax
  4017a0:	0f af c1             	imul   %ecx,%eax
  4017a3:	0f af c1             	imul   %ecx,%eax
  4017a6:	0f af c1             	imul   %ecx,%eax
  4017a9:	0f af c1             	imul   %ecx,%eax
  4017ac:	0f af c1             	imul   %ecx,%eax
  4017af:	0f af c1             	imul   %ecx,%eax
  4017b2:	0f af c1             	imul   %ecx,%eax
  4017b5:	0f af c1             	imul   %ecx,%eax
  4017b8:	0f af c1             	imul   %ecx,%eax
  4017bb:	0f af c1             	imul   %ecx,%eax
  4017be:	0f af c1             	imul   %ecx,%eax
  4017c1:	0f af c1             	imul   %ecx,%eax
  4017c4:	0f af c1             	imul   %ecx,%eax
  4017c7:	0f af c1             	imul   %ecx,%eax
  4017ca:	0f af c1             	imul   %ecx,%eax
  4017cd:	0f af c1             	imul   %ecx,%eax
  4017d0:	0f af c1             	imul   %ecx,%eax
  4017d3:	0f af c1             	imul   %ecx,%eax
  4017d6:	0f af c1             	imul   %ecx,%eax
  4017d9:	0f af c1             	imul   %ecx,%eax
  4017dc:	0f af c1             	imul   %ecx,%eax
  4017df:	0f af c1             	imul   %ecx,%eax
  4017e2:	0f af c1             	imul   %ecx,%eax
  4017e5:	0f af c1             	imul   %ecx,%eax
  4017e8:	0f af c1             	imul   %ecx,%eax
  4017eb:	0f af c1             	imul   %ecx,%eax
  4017ee:	0f af c1             	imul   %ecx,%eax
  4017f1:	0f af c1             	imul   %ecx,%eax
  4017f4:	0f af c1             	imul   %ecx,%eax
  4017f7:	0f af c1             	imul   %ecx,%eax
  4017fa:	0f af c1             	imul   %ecx,%eax
  4017fd:	0f af c1             	imul   %ecx,%eax
  401800:	0f af c1             	imul   %ecx,%eax
  401803:	0f af c1             	imul   %ecx,%eax
  401806:	0f af c1             	imul   %ecx,%eax
  401809:	0f af c1             	imul   %ecx,%eax
  40180c:	0f af c1             	imul   %ecx,%eax
  40180f:	0f af c1             	imul   %ecx,%eax
  401812:	0f af c1             	imul   %ecx,%eax
  401815:	0f af c1             	imul   %ecx,%eax
  401818:	0f af c1             	imul   %ecx,%eax
  40181b:	0f af c1             	imul   %ecx,%eax
  40181e:	0f af c1             	imul   %ecx,%eax
  401821:	0f af c1             	imul   %ecx,%eax
  401824:	0f af c1             	imul   %ecx,%eax
  401827:	0f af c1             	imul   %ecx,%eax
  40182a:	0f af c1             	imul   %ecx,%eax
  40182d:	0f af c1             	imul   %ecx,%eax
  401830:	0f af c1             	imul   %ecx,%eax
  401833:	0f af c1             	imul   %ecx,%eax
  401836:	0f af c1             	imul   %ecx,%eax
  401839:	0f af c1             	imul   %ecx,%eax
  40183c:	0f af c1             	imul   %ecx,%eax
  40183f:	0f af c1             	imul   %ecx,%eax
  401842:	0f af c1             	imul   %ecx,%eax
  401845:	0f af c1             	imul   %ecx,%eax
  401848:	0f af c1             	imul   %ecx,%eax
  40184b:	0f af c1             	imul   %ecx,%eax
  40184e:	0f af c1             	imul   %ecx,%eax
  401851:	0f af c1             	imul   %ecx,%eax
  401854:	0f af c1             	imul   %ecx,%eax
  401857:	0f af c1             	imul   %ecx,%eax
  40185a:	0f af c1             	imul   %ecx,%eax
  40185d:	0f af c1             	imul   %ecx,%eax
  401860:	0f af c1             	imul   %ecx,%eax
  401863:	0f af c1             	imul   %ecx,%eax
  401866:	0f af c1             	imul   %ecx,%eax
  401869:	0f af c1             	imul   %ecx,%eax
  40186c:	0f af c1             	imul   %ecx,%eax
  40186f:	0f af c1             	imul   %ecx,%eax
  401872:	0f af c1             	imul   %ecx,%eax
  401875:	0f af c1             	imul   %ecx,%eax
  401878:	0f af c1             	imul   %ecx,%eax
  40187b:	0f af c1             	imul   %ecx,%eax
  40187e:	0f af c1             	imul   %ecx,%eax
  401881:	0f af c1             	imul   %ecx,%eax
  401884:	0f af c1             	imul   %ecx,%eax
  401887:	0f af c1             	imul   %ecx,%eax
  40188a:	0f af c1             	imul   %ecx,%eax
  40188d:	0f af c1             	imul   %ecx,%eax
  401890:	0f af c1             	imul   %ecx,%eax
  401893:	0f af c1             	imul   %ecx,%eax
  401896:	0f af c1             	imul   %ecx,%eax
  401899:	0f af c1             	imul   %ecx,%eax
  40189c:	0f af c1             	imul   %ecx,%eax
  40189f:	0f af c1             	imul   %ecx,%eax
  4018a2:	0f af c1             	imul   %ecx,%eax
  4018a5:	0f af c1             	imul   %ecx,%eax
  4018a8:	0f af c1             	imul   %ecx,%eax
  4018ab:	0f af c1             	imul   %ecx,%eax
  4018ae:	0f af c1             	imul   %ecx,%eax
  4018b1:	0f af c1             	imul   %ecx,%eax
  4018b4:	0f af c1             	imul   %ecx,%eax
  4018b7:	0f af c1             	imul   %ecx,%eax
  4018ba:	0f af c1             	imul   %ecx,%eax
  4018bd:	0f af c1             	imul   %ecx,%eax
  4018c0:	0f af c1             	imul   %ecx,%eax
  4018c3:	0f af c1             	imul   %ecx,%eax
  4018c6:	0f af c1             	imul   %ecx,%eax
  4018c9:	0f af c1             	imul   %ecx,%eax
  4018cc:	0f af c1             	imul   %ecx,%eax
  4018cf:	0f af c1             	imul   %ecx,%eax
  4018d2:	0f af c1             	imul   %ecx,%eax
  4018d5:	0f af c1             	imul   %ecx,%eax
  4018d8:	0f af c1             	imul   %ecx,%eax
  4018db:	0f af c1             	imul   %ecx,%eax
  4018de:	0f af c1             	imul   %ecx,%eax
  4018e1:	0f af c1             	imul   %ecx,%eax
  4018e4:	0f af c1             	imul   %ecx,%eax
  4018e7:	0f af c1             	imul   %ecx,%eax
  4018ea:	0f af c1             	imul   %ecx,%eax
  4018ed:	0f af c1             	imul   %ecx,%eax
  4018f0:	0f af c1             	imul   %ecx,%eax
  4018f3:	0f af c1             	imul   %ecx,%eax
  4018f6:	0f af c1             	imul   %ecx,%eax
  4018f9:	0f af c1             	imul   %ecx,%eax
  4018fc:	0f af c1             	imul   %ecx,%eax
  4018ff:	0f af c1             	imul   %ecx,%eax
  401902:	0f af c1             	imul   %ecx,%eax
  401905:	0f af c1             	imul   %ecx,%eax
  401908:	0f af c1             	imul   %ecx,%eax
  40190b:	0f af c1             	imul   %ecx,%eax
  40190e:	0f af c1             	imul   %ecx,%eax
  401911:	0f af c1             	imul   %ecx,%eax
  401914:	0f af c1             	imul   %ecx,%eax
  401917:	0f af c1             	imul   %ecx,%eax
  40191a:	0f af c1             	imul   %ecx,%eax
  40191d:	0f af c1             	imul   %ecx,%eax
  401920:	0f af c1             	imul   %ecx,%eax
  401923:	0f af c1             	imul   %ecx,%eax
  401926:	0f af c1             	imul   %ecx,%eax
  401929:	0f af c1             	imul   %ecx,%eax
  40192c:	0f af c1             	imul   %ecx,%eax
  40192f:	0f af c1             	imul   %ecx,%eax
  401932:	0f af c1             	imul   %ecx,%eax
  401935:	0f af c1             	imul   %ecx,%eax
  401938:	0f af c1             	imul   %ecx,%eax
  40193b:	0f af c1             	imul   %ecx,%eax
  40193e:	0f af c1             	imul   %ecx,%eax
  401941:	0f af c1             	imul   %ecx,%eax
  401944:	0f af c1             	imul   %ecx,%eax
  401947:	0f af c1             	imul   %ecx,%eax
  40194a:	0f af c1             	imul   %ecx,%eax
  40194d:	0f af c1             	imul   %ecx,%eax
  401950:	0f af c1             	imul   %ecx,%eax
  401953:	0f af c1             	imul   %ecx,%eax
  401956:	0f af c1             	imul   %ecx,%eax
  401959:	0f af c1             	imul   %ecx,%eax
  40195c:	0f af c1             	imul   %ecx,%eax
  40195f:	0f af c1             	imul   %ecx,%eax
  401962:	0f af c1             	imul   %ecx,%eax
  401965:	0f af c1             	imul   %ecx,%eax
  401968:	0f af c1             	imul   %ecx,%eax
  40196b:	0f af c1             	imul   %ecx,%eax
  40196e:	0f af c1             	imul   %ecx,%eax
  401971:	0f af c1             	imul   %ecx,%eax
  401974:	0f af c1             	imul   %ecx,%eax
  401977:	0f af c1             	imul   %ecx,%eax
  40197a:	0f af c1             	imul   %ecx,%eax
  40197d:	0f af c1             	imul   %ecx,%eax
  401980:	0f af c1             	imul   %ecx,%eax
  401983:	0f af c1             	imul   %ecx,%eax
  401986:	0f af c1             	imul   %ecx,%eax
  401989:	0f af c1             	imul   %ecx,%eax
  40198c:	0f af c1             	imul   %ecx,%eax
  40198f:	0f af c1             	imul   %ecx,%eax
  401992:	0f af c1             	imul   %ecx,%eax
  401995:	0f af c1             	imul   %ecx,%eax
  401998:	0f af c1             	imul   %ecx,%eax
  40199b:	0f af c1             	imul   %ecx,%eax
  40199e:	0f af c1             	imul   %ecx,%eax
  4019a1:	0f af c1             	imul   %ecx,%eax
  4019a4:	0f af c1             	imul   %ecx,%eax
  4019a7:	0f af c1             	imul   %ecx,%eax
  4019aa:	0f af c1             	imul   %ecx,%eax
  4019ad:	0f af c1             	imul   %ecx,%eax
  4019b0:	0f af c1             	imul   %ecx,%eax
  4019b3:	0f af c1             	imul   %ecx,%eax
  4019b6:	0f af c1             	imul   %ecx,%eax
  4019b9:	0f af c1             	imul   %ecx,%eax
  4019bc:	0f af c1             	imul   %ecx,%eax
  4019bf:	0f af c1             	imul   %ecx,%eax
  4019c2:	0f af c1             	imul   %ecx,%eax
  4019c5:	0f af c1             	imul   %ecx,%eax
  4019c8:	0f af c1             	imul   %ecx,%eax
  4019cb:	0f af c1             	imul   %ecx,%eax
  4019ce:	0f af c1             	imul   %ecx,%eax
  4019d1:	0f af c1             	imul   %ecx,%eax
  4019d4:	0f af c1             	imul   %ecx,%eax
  4019d7:	0f af c1             	imul   %ecx,%eax
  4019da:	0f af c1             	imul   %ecx,%eax
  4019dd:	0f af c1             	imul   %ecx,%eax
  4019e0:	0f af c1             	imul   %ecx,%eax
  4019e3:	0f af c1             	imul   %ecx,%eax
  4019e6:	0f af c1             	imul   %ecx,%eax
  4019e9:	0f af c1             	imul   %ecx,%eax
  4019ec:	0f af c1             	imul   %ecx,%eax
  4019ef:	0f af c1             	imul   %ecx,%eax
  4019f2:	0f af c1             	imul   %ecx,%eax
  4019f5:	0f af c1             	imul   %ecx,%eax
  4019f8:	0f af c1             	imul   %ecx,%eax
  4019fb:	0f af c1             	imul   %ecx,%eax
  4019fe:	0f af c1             	imul   %ecx,%eax
  401a01:	0f af c1             	imul   %ecx,%eax
  401a04:	0f af c1             	imul   %ecx,%eax
  401a07:	0f af c1             	imul   %ecx,%eax
  401a0a:	0f af c1             	imul   %ecx,%eax
  401a0d:	0f af c1             	imul   %ecx,%eax
  401a10:	0f af c1             	imul   %ecx,%eax
  401a13:	0f af c1             	imul   %ecx,%eax
  401a16:	0f af c1             	imul   %ecx,%eax
  401a19:	0f af c1             	imul   %ecx,%eax
  401a1c:	0f af c1             	imul   %ecx,%eax
  401a1f:	0f af c1             	imul   %ecx,%eax
  401a22:	0f af c1             	imul   %ecx,%eax
  401a25:	0f af c1             	imul   %ecx,%eax
  401a28:	0f af c1             	imul   %ecx,%eax
  401a2b:	0f af c1             	imul   %ecx,%eax
  401a2e:	0f af c1             	imul   %ecx,%eax
  401a31:	0f af c1             	imul   %ecx,%eax
  401a34:	0f af c1             	imul   %ecx,%eax
  401a37:	0f af c1             	imul   %ecx,%eax
  401a3a:	0f af c1             	imul   %ecx,%eax
  401a3d:	0f af c1             	imul   %ecx,%eax
  401a40:	0f af c1             	imul   %ecx,%eax
  401a43:	0f af c1             	imul   %ecx,%eax
  401a46:	0f af c1             	imul   %ecx,%eax
  401a49:	0f af c1             	imul   %ecx,%eax
  401a4c:	0f af c1             	imul   %ecx,%eax
  401a4f:	0f af c1             	imul   %ecx,%eax
  401a52:	0f af c1             	imul   %ecx,%eax
  401a55:	0f af c1             	imul   %ecx,%eax
  401a58:	0f af c1             	imul   %ecx,%eax
  401a5b:	0f af c1             	imul   %ecx,%eax
  401a5e:	0f af c1             	imul   %ecx,%eax
  401a61:	0f af c1             	imul   %ecx,%eax
  401a64:	0f af c1             	imul   %ecx,%eax
  401a67:	0f af c1             	imul   %ecx,%eax
  401a6a:	0f af c1             	imul   %ecx,%eax
  401a6d:	0f af c1             	imul   %ecx,%eax
  401a70:	0f af c1             	imul   %ecx,%eax
  401a73:	0f af c1             	imul   %ecx,%eax
  401a76:	0f af c1             	imul   %ecx,%eax
  401a79:	0f af c1             	imul   %ecx,%eax
  401a7c:	0f af c1             	imul   %ecx,%eax
  401a7f:	0f af c1             	imul   %ecx,%eax
  401a82:	0f af c1             	imul   %ecx,%eax
  401a85:	0f af c1             	imul   %ecx,%eax
  401a88:	0f af c1             	imul   %ecx,%eax
  401a8b:	0f af c1             	imul   %ecx,%eax
  401a8e:	0f af c1             	imul   %ecx,%eax
  401a91:	0f af c1             	imul   %ecx,%eax
  401a94:	0f af c1             	imul   %ecx,%eax
  401a97:	0f af c1             	imul   %ecx,%eax
  401a9a:	0f af c1             	imul   %ecx,%eax
  401a9d:	0f af c1             	imul   %ecx,%eax
  401aa0:	0f af c1             	imul   %ecx,%eax
  401aa3:	0f af c1             	imul   %ecx,%eax
  401aa6:	0f af c1             	imul   %ecx,%eax
  401aa9:	0f af c1             	imul   %ecx,%eax
  401aac:	0f af c1             	imul   %ecx,%eax
  401aaf:	0f af c1             	imul   %ecx,%eax
  401ab2:	0f af c1             	imul   %ecx,%eax
  401ab5:	0f af c1             	imul   %ecx,%eax
  401ab8:	0f af c1             	imul   %ecx,%eax
  401abb:	0f af c1             	imul   %ecx,%eax
  401abe:	0f af c1             	imul   %ecx,%eax
  401ac1:	0f af c1             	imul   %ecx,%eax
  401ac4:	0f af c1             	imul   %ecx,%eax
  401ac7:	0f af c1             	imul   %ecx,%eax
  401aca:	0f af c1             	imul   %ecx,%eax
  401acd:	0f af c1             	imul   %ecx,%eax
  401ad0:	0f af c1             	imul   %ecx,%eax
  401ad3:	0f af c1             	imul   %ecx,%eax
  401ad6:	0f af c1             	imul   %ecx,%eax
  401ad9:	0f af c1             	imul   %ecx,%eax
  401adc:	0f af c1             	imul   %ecx,%eax
  401adf:	0f af c1             	imul   %ecx,%eax
  401ae2:	0f af c1             	imul   %ecx,%eax
  401ae5:	0f af c1             	imul   %ecx,%eax
  401ae8:	0f af c1             	imul   %ecx,%eax
  401aeb:	0f af c1             	imul   %ecx,%eax
  401aee:	0f af c1             	imul   %ecx,%eax
  401af1:	0f af c1             	imul   %ecx,%eax
  401af4:	0f af c1             	imul   %ecx,%eax
  401af7:	0f af c1             	imul   %ecx,%eax
  401afa:	0f af c1             	imul   %ecx,%eax
  401afd:	0f af c1             	imul   %ecx,%eax
  401b00:	0f af c1             	imul   %ecx,%eax
  401b03:	0f af c1             	imul   %ecx,%eax
  401b06:	0f af c1             	imul   %ecx,%eax
  401b09:	0f af c1             	imul   %ecx,%eax
  401b0c:	0f af c1             	imul   %ecx,%eax
  401b0f:	0f af c1             	imul   %ecx,%eax
  401b12:	0f af c1             	imul   %ecx,%eax
  401b15:	0f af c1             	imul   %ecx,%eax
  401b18:	0f af c1             	imul   %ecx,%eax
  401b1b:	0f af c1             	imul   %ecx,%eax
  401b1e:	0f af c1             	imul   %ecx,%eax
  401b21:	0f af c1             	imul   %ecx,%eax
  401b24:	0f af c1             	imul   %ecx,%eax
  401b27:	0f af c1             	imul   %ecx,%eax
  401b2a:	0f af c1             	imul   %ecx,%eax
  401b2d:	0f af c1             	imul   %ecx,%eax
  401b30:	0f af c1             	imul   %ecx,%eax
  401b33:	0f af c1             	imul   %ecx,%eax
  401b36:	0f af c1             	imul   %ecx,%eax
  401b39:	0f af c1             	imul   %ecx,%eax
  401b3c:	0f af c1             	imul   %ecx,%eax
  401b3f:	0f af c1             	imul   %ecx,%eax
  401b42:	0f af c1             	imul   %ecx,%eax
  401b45:	0f af c1             	imul   %ecx,%eax
  401b48:	0f af c1             	imul   %ecx,%eax
  401b4b:	0f af c1             	imul   %ecx,%eax
  401b4e:	0f af c1             	imul   %ecx,%eax
  401b51:	0f af c1             	imul   %ecx,%eax
  401b54:	0f af c1             	imul   %ecx,%eax
  401b57:	0f af c1             	imul   %ecx,%eax
  401b5a:	0f af c1             	imul   %ecx,%eax
  401b5d:	0f af c1             	imul   %ecx,%eax
  401b60:	0f af c1             	imul   %ecx,%eax
  401b63:	0f af c1             	imul   %ecx,%eax
  401b66:	0f af c1             	imul   %ecx,%eax
  401b69:	0f af c1             	imul   %ecx,%eax
  401b6c:	0f af c1             	imul   %ecx,%eax
  401b6f:	0f af c1             	imul   %ecx,%eax
  401b72:	0f af c1             	imul   %ecx,%eax
  401b75:	0f af c1             	imul   %ecx,%eax
  401b78:	0f af c1             	imul   %ecx,%eax
  401b7b:	0f af c1             	imul   %ecx,%eax
  401b7e:	0f af c1             	imul   %ecx,%eax
  401b81:	0f af c1             	imul   %ecx,%eax
  401b84:	0f af c1             	imul   %ecx,%eax
  401b87:	0f af c1             	imul   %ecx,%eax
  401b8a:	0f af c1             	imul   %ecx,%eax
  401b8d:	0f af c1             	imul   %ecx,%eax
  401b90:	0f af c1             	imul   %ecx,%eax
  401b93:	0f af c1             	imul   %ecx,%eax
  401b96:	0f af c1             	imul   %ecx,%eax
  401b99:	0f af c1             	imul   %ecx,%eax
  401b9c:	0f af c1             	imul   %ecx,%eax
  401b9f:	0f af c1             	imul   %ecx,%eax
  401ba2:	0f af c1             	imul   %ecx,%eax
  401ba5:	0f af c1             	imul   %ecx,%eax
  401ba8:	0f af c1             	imul   %ecx,%eax
  401bab:	0f af c1             	imul   %ecx,%eax
  401bae:	0f af c1             	imul   %ecx,%eax
  401bb1:	0f af c1             	imul   %ecx,%eax
  401bb4:	0f af c1             	imul   %ecx,%eax
  401bb7:	0f af c1             	imul   %ecx,%eax
  401bba:	0f af c1             	imul   %ecx,%eax
  401bbd:	0f af c1             	imul   %ecx,%eax
  401bc0:	0f af c1             	imul   %ecx,%eax
  401bc3:	0f af c1             	imul   %ecx,%eax
  401bc6:	0f af c1             	imul   %ecx,%eax
  401bc9:	0f af c1             	imul   %ecx,%eax
  401bcc:	0f af c1             	imul   %ecx,%eax
  401bcf:	0f af c1             	imul   %ecx,%eax
  401bd2:	0f af c1             	imul   %ecx,%eax
  401bd5:	0f af c1             	imul   %ecx,%eax
  401bd8:	0f af c1             	imul   %ecx,%eax
  401bdb:	0f af c1             	imul   %ecx,%eax
  401bde:	0f af c1             	imul   %ecx,%eax
  401be1:	0f af c1             	imul   %ecx,%eax
  401be4:	0f af c1             	imul   %ecx,%eax
  401be7:	0f af c1             	imul   %ecx,%eax
  401bea:	0f af c1             	imul   %ecx,%eax
  401bed:	0f af c1             	imul   %ecx,%eax
  401bf0:	0f af c1             	imul   %ecx,%eax
  401bf3:	0f af c1             	imul   %ecx,%eax
  401bf6:	0f af c1             	imul   %ecx,%eax
  401bf9:	0f af c1             	imul   %ecx,%eax
  401bfc:	0f af c1             	imul   %ecx,%eax
  401bff:	0f af c1             	imul   %ecx,%eax
  401c02:	0f af c1             	imul   %ecx,%eax
  401c05:	0f af c1             	imul   %ecx,%eax
  401c08:	0f af c1             	imul   %ecx,%eax
  401c0b:	0f af c1             	imul   %ecx,%eax
  401c0e:	0f af c1             	imul   %ecx,%eax
  401c11:	0f af c1             	imul   %ecx,%eax
  401c14:	0f af c1             	imul   %ecx,%eax
  401c17:	0f af c1             	imul   %ecx,%eax
  401c1a:	0f af c1             	imul   %ecx,%eax
  401c1d:	0f af c1             	imul   %ecx,%eax
  401c20:	0f af c1             	imul   %ecx,%eax
  401c23:	0f af c1             	imul   %ecx,%eax
  401c26:	0f af c1             	imul   %ecx,%eax
  401c29:	0f af c1             	imul   %ecx,%eax
  401c2c:	0f af c1             	imul   %ecx,%eax
  401c2f:	0f af c1             	imul   %ecx,%eax
  401c32:	0f af c1             	imul   %ecx,%eax
  401c35:	0f af c1             	imul   %ecx,%eax
  401c38:	0f af c1             	imul   %ecx,%eax
  401c3b:	0f af c1             	imul   %ecx,%eax
  401c3e:	0f af c1             	imul   %ecx,%eax
  401c41:	0f af c1             	imul   %ecx,%eax
  401c44:	0f af c1             	imul   %ecx,%eax
  401c47:	0f af c1             	imul   %ecx,%eax
  401c4a:	0f af c1             	imul   %ecx,%eax
  401c4d:	0f af c1             	imul   %ecx,%eax
  401c50:	0f af c1             	imul   %ecx,%eax
  401c53:	0f af c1             	imul   %ecx,%eax
  401c56:	0f af c1             	imul   %ecx,%eax
  401c59:	0f af c1             	imul   %ecx,%eax
  401c5c:	0f af c1             	imul   %ecx,%eax
  401c5f:	0f af c1             	imul   %ecx,%eax
  401c62:	0f af c1             	imul   %ecx,%eax
  401c65:	0f af c1             	imul   %ecx,%eax
  401c68:	0f af c1             	imul   %ecx,%eax
  401c6b:	0f af c1             	imul   %ecx,%eax
  401c6e:	0f af c1             	imul   %ecx,%eax
  401c71:	0f af c1             	imul   %ecx,%eax
  401c74:	0f af c1             	imul   %ecx,%eax
  401c77:	0f af c1             	imul   %ecx,%eax
  401c7a:	0f af c1             	imul   %ecx,%eax
  401c7d:	0f af c1             	imul   %ecx,%eax
  401c80:	0f af c1             	imul   %ecx,%eax
  401c83:	0f af c1             	imul   %ecx,%eax
  401c86:	0f af c1             	imul   %ecx,%eax
  401c89:	0f af c1             	imul   %ecx,%eax
  401c8c:	0f af c1             	imul   %ecx,%eax
  401c8f:	0f af c1             	imul   %ecx,%eax
  401c92:	0f af c1             	imul   %ecx,%eax
  401c95:	0f af c1             	imul   %ecx,%eax
  401c98:	0f af c1             	imul   %ecx,%eax
  401c9b:	0f af c1             	imul   %ecx,%eax
  401c9e:	0f af c1             	imul   %ecx,%eax
  401ca1:	0f af c1             	imul   %ecx,%eax
  401ca4:	0f af c1             	imul   %ecx,%eax
  401ca7:	0f af c1             	imul   %ecx,%eax
  401caa:	0f af c1             	imul   %ecx,%eax
  401cad:	0f af c1             	imul   %ecx,%eax
  401cb0:	0f af c1             	imul   %ecx,%eax
  401cb3:	0f af c1             	imul   %ecx,%eax
  401cb6:	0f af c1             	imul   %ecx,%eax
  401cb9:	0f af c1             	imul   %ecx,%eax
  401cbc:	0f af c1             	imul   %ecx,%eax
  401cbf:	0f af c1             	imul   %ecx,%eax
  401cc2:	0f af c1             	imul   %ecx,%eax
  401cc5:	0f af c1             	imul   %ecx,%eax
  401cc8:	0f af c1             	imul   %ecx,%eax
  401ccb:	0f af c1             	imul   %ecx,%eax
  401cce:	0f af c1             	imul   %ecx,%eax
  401cd1:	0f af c1             	imul   %ecx,%eax
  401cd4:	0f af c1             	imul   %ecx,%eax
  401cd7:	0f af c1             	imul   %ecx,%eax
  401cda:	0f af c1             	imul   %ecx,%eax
  401cdd:	0f af c1             	imul   %ecx,%eax
  401ce0:	0f af c1             	imul   %ecx,%eax
  401ce3:	0f af c1             	imul   %ecx,%eax
  401ce6:	0f af c1             	imul   %ecx,%eax
  401ce9:	0f af c1             	imul   %ecx,%eax
  401cec:	0f af c1             	imul   %ecx,%eax
  401cef:	0f af c1             	imul   %ecx,%eax
  401cf2:	0f af c1             	imul   %ecx,%eax
  401cf5:	0f af c1             	imul   %ecx,%eax
  401cf8:	0f af c1             	imul   %ecx,%eax
  401cfb:	0f af c1             	imul   %ecx,%eax
  401cfe:	0f af c1             	imul   %ecx,%eax
  401d01:	0f af c1             	imul   %ecx,%eax
  401d04:	0f af c1             	imul   %ecx,%eax
  401d07:	0f af c1             	imul   %ecx,%eax
  401d0a:	0f af c1             	imul   %ecx,%eax
  401d0d:	0f af c1             	imul   %ecx,%eax
  401d10:	0f af c1             	imul   %ecx,%eax
  401d13:	0f af c1             	imul   %ecx,%eax
  401d16:	0f af c1             	imul   %ecx,%eax
  401d19:	0f af c1             	imul   %ecx,%eax
  401d1c:	0f af c1             	imul   %ecx,%eax
  401d1f:	0f af c1             	imul   %ecx,%eax
  401d22:	0f af c1             	imul   %ecx,%eax
  401d25:	0f af c1             	imul   %ecx,%eax
  401d28:	0f af c1             	imul   %ecx,%eax
  401d2b:	0f af c1             	imul   %ecx,%eax
  401d2e:	0f af c1             	imul   %ecx,%eax
  401d31:	0f af c1             	imul   %ecx,%eax
  401d34:	0f af c1             	imul   %ecx,%eax
  401d37:	0f af c1             	imul   %ecx,%eax
  401d3a:	0f af c1             	imul   %ecx,%eax
  401d3d:	0f af c1             	imul   %ecx,%eax
  401d40:	0f af c1             	imul   %ecx,%eax
  401d43:	0f af c1             	imul   %ecx,%eax
  401d46:	0f af c1             	imul   %ecx,%eax
  401d49:	0f af c1             	imul   %ecx,%eax
  401d4c:	0f af c1             	imul   %ecx,%eax
  401d4f:	0f af c1             	imul   %ecx,%eax
  401d52:	0f af c1             	imul   %ecx,%eax
  401d55:	0f af c1             	imul   %ecx,%eax
  401d58:	0f af c1             	imul   %ecx,%eax
  401d5b:	0f af c1             	imul   %ecx,%eax
  401d5e:	0f af c1             	imul   %ecx,%eax
  401d61:	0f af c1             	imul   %ecx,%eax
  401d64:	0f af c1             	imul   %ecx,%eax
  401d67:	0f af c1             	imul   %ecx,%eax
  401d6a:	0f af c1             	imul   %ecx,%eax
  401d6d:	0f af c1             	imul   %ecx,%eax
  401d70:	0f af c1             	imul   %ecx,%eax
  401d73:	0f af c1             	imul   %ecx,%eax
  401d76:	0f af c1             	imul   %ecx,%eax
  401d79:	0f af c1             	imul   %ecx,%eax
  401d7c:	0f af c1             	imul   %ecx,%eax
  401d7f:	0f af c1             	imul   %ecx,%eax
  401d82:	0f af c1             	imul   %ecx,%eax
  401d85:	0f af c1             	imul   %ecx,%eax
  401d88:	0f af c1             	imul   %ecx,%eax
  401d8b:	0f af c1             	imul   %ecx,%eax
  401d8e:	0f af c1             	imul   %ecx,%eax
  401d91:	0f af c1             	imul   %ecx,%eax
  401d94:	0f af c1             	imul   %ecx,%eax
  401d97:	0f af c1             	imul   %ecx,%eax
  401d9a:	0f af c1             	imul   %ecx,%eax
  401d9d:	0f af c1             	imul   %ecx,%eax
  401da0:	0f af c1             	imul   %ecx,%eax
  401da3:	0f af c1             	imul   %ecx,%eax
  401da6:	0f af c1             	imul   %ecx,%eax
  401da9:	0f af c1             	imul   %ecx,%eax
  401dac:	0f af c1             	imul   %ecx,%eax
  401daf:	0f af c1             	imul   %ecx,%eax
  401db2:	0f af c1             	imul   %ecx,%eax
  401db5:	0f af c1             	imul   %ecx,%eax
  401db8:	0f af c1             	imul   %ecx,%eax
  401dbb:	0f af c1             	imul   %ecx,%eax
  401dbe:	0f af c1             	imul   %ecx,%eax
  401dc1:	0f af c1             	imul   %ecx,%eax
  401dc4:	0f af c1             	imul   %ecx,%eax
  401dc7:	0f af c1             	imul   %ecx,%eax
  401dca:	0f af c1             	imul   %ecx,%eax
  401dcd:	0f af c1             	imul   %ecx,%eax
  401dd0:	0f af c1             	imul   %ecx,%eax
  401dd3:	0f af c1             	imul   %ecx,%eax
  401dd6:	0f af c1             	imul   %ecx,%eax
  401dd9:	0f af c1             	imul   %ecx,%eax
  401ddc:	0f af c1             	imul   %ecx,%eax
  401ddf:	0f af c1             	imul   %ecx,%eax
  401de2:	0f af c1             	imul   %ecx,%eax
  401de5:	0f af c1             	imul   %ecx,%eax
  401de8:	0f af c1             	imul   %ecx,%eax
  401deb:	0f af c1             	imul   %ecx,%eax
  401dee:	0f af c1             	imul   %ecx,%eax
  401df1:	0f af c1             	imul   %ecx,%eax
  401df4:	0f af c1             	imul   %ecx,%eax
  401df7:	0f af c1             	imul   %ecx,%eax
  401dfa:	0f af c1             	imul   %ecx,%eax
  401dfd:	0f af c1             	imul   %ecx,%eax
  401e00:	0f af c1             	imul   %ecx,%eax
  401e03:	0f af c1             	imul   %ecx,%eax
  401e06:	0f af c1             	imul   %ecx,%eax
  401e09:	0f af c1             	imul   %ecx,%eax
  401e0c:	0f af c1             	imul   %ecx,%eax
  401e0f:	0f af c1             	imul   %ecx,%eax
  401e12:	0f af c1             	imul   %ecx,%eax
  401e15:	0f af c1             	imul   %ecx,%eax
  401e18:	0f af c1             	imul   %ecx,%eax
  401e1b:	0f af c1             	imul   %ecx,%eax
  401e1e:	0f af c1             	imul   %ecx,%eax
  401e21:	0f af c1             	imul   %ecx,%eax
  401e24:	0f af c1             	imul   %ecx,%eax
  401e27:	0f af c1             	imul   %ecx,%eax
  401e2a:	0f af c1             	imul   %ecx,%eax
  401e2d:	0f af c1             	imul   %ecx,%eax
  401e30:	0f af c1             	imul   %ecx,%eax
  401e33:	0f af c1             	imul   %ecx,%eax
  401e36:	0f af c1             	imul   %ecx,%eax
  401e39:	0f af c1             	imul   %ecx,%eax
  401e3c:	0f af c1             	imul   %ecx,%eax
  401e3f:	0f af c1             	imul   %ecx,%eax
  401e42:	0f af c1             	imul   %ecx,%eax
  401e45:	0f af c1             	imul   %ecx,%eax
  401e48:	0f af c1             	imul   %ecx,%eax
  401e4b:	0f af c1             	imul   %ecx,%eax
  401e4e:	0f af c1             	imul   %ecx,%eax
  401e51:	0f af c1             	imul   %ecx,%eax
  401e54:	0f af c1             	imul   %ecx,%eax
  401e57:	0f af c1             	imul   %ecx,%eax
  401e5a:	0f af c1             	imul   %ecx,%eax
  401e5d:	0f af c1             	imul   %ecx,%eax
  401e60:	0f af c1             	imul   %ecx,%eax
  401e63:	0f af c1             	imul   %ecx,%eax
  401e66:	0f af c1             	imul   %ecx,%eax
  401e69:	0f af c1             	imul   %ecx,%eax
  401e6c:	0f af c1             	imul   %ecx,%eax
  401e6f:	0f af c1             	imul   %ecx,%eax
  401e72:	0f af c1             	imul   %ecx,%eax
  401e75:	0f af c1             	imul   %ecx,%eax
  401e78:	0f af c1             	imul   %ecx,%eax
  401e7b:	0f af c1             	imul   %ecx,%eax
  401e7e:	0f af c1             	imul   %ecx,%eax
  401e81:	0f af c1             	imul   %ecx,%eax
  401e84:	0f af c1             	imul   %ecx,%eax
  401e87:	0f af c1             	imul   %ecx,%eax
  401e8a:	0f af c1             	imul   %ecx,%eax
  401e8d:	0f af c1             	imul   %ecx,%eax
  401e90:	0f af c1             	imul   %ecx,%eax
  401e93:	0f af c1             	imul   %ecx,%eax
  401e96:	0f af c1             	imul   %ecx,%eax
  401e99:	0f af c1             	imul   %ecx,%eax
  401e9c:	0f af c1             	imul   %ecx,%eax
  401e9f:	0f af c1             	imul   %ecx,%eax
  401ea2:	0f af c1             	imul   %ecx,%eax
  401ea5:	0f af c1             	imul   %ecx,%eax
  401ea8:	0f af c1             	imul   %ecx,%eax
  401eab:	0f af c1             	imul   %ecx,%eax
  401eae:	0f af c1             	imul   %ecx,%eax
  401eb1:	0f af c1             	imul   %ecx,%eax
  401eb4:	0f af c1             	imul   %ecx,%eax
  401eb7:	0f af c1             	imul   %ecx,%eax
  401eba:	0f af c1             	imul   %ecx,%eax
  401ebd:	0f af c1             	imul   %ecx,%eax
  401ec0:	0f af c1             	imul   %ecx,%eax
  401ec3:	0f af c1             	imul   %ecx,%eax
  401ec6:	0f af c1             	imul   %ecx,%eax
  401ec9:	0f af c1             	imul   %ecx,%eax
  401ecc:	0f af c1             	imul   %ecx,%eax
  401ecf:	0f af c1             	imul   %ecx,%eax
  401ed2:	0f af c1             	imul   %ecx,%eax
  401ed5:	0f af c1             	imul   %ecx,%eax
  401ed8:	0f af c1             	imul   %ecx,%eax
  401edb:	0f af c1             	imul   %ecx,%eax
  401ede:	0f af c1             	imul   %ecx,%eax
  401ee1:	0f af c1             	imul   %ecx,%eax
  401ee4:	0f af c1             	imul   %ecx,%eax
  401ee7:	0f af c1             	imul   %ecx,%eax
  401eea:	0f af c1             	imul   %ecx,%eax
  401eed:	0f af c1             	imul   %ecx,%eax
  401ef0:	0f af c1             	imul   %ecx,%eax
  401ef3:	0f af c1             	imul   %ecx,%eax
  401ef6:	0f af c1             	imul   %ecx,%eax
  401ef9:	0f af c1             	imul   %ecx,%eax
  401efc:	0f af c1             	imul   %ecx,%eax
  401eff:	0f af c1             	imul   %ecx,%eax
  401f02:	0f af c1             	imul   %ecx,%eax
  401f05:	0f af c1             	imul   %ecx,%eax
  401f08:	0f af c1             	imul   %ecx,%eax
  401f0b:	0f af c1             	imul   %ecx,%eax
  401f0e:	0f af c1             	imul   %ecx,%eax
  401f11:	0f af c1             	imul   %ecx,%eax
  401f14:	0f af c1             	imul   %ecx,%eax
  401f17:	0f af c1             	imul   %ecx,%eax
  401f1a:	0f af c1             	imul   %ecx,%eax
  401f1d:	0f af c1             	imul   %ecx,%eax
  401f20:	0f af c1             	imul   %ecx,%eax
  401f23:	0f af c1             	imul   %ecx,%eax
  401f26:	0f af c1             	imul   %ecx,%eax
  401f29:	0f af c1             	imul   %ecx,%eax
  401f2c:	0f af c1             	imul   %ecx,%eax
  401f2f:	0f af c1             	imul   %ecx,%eax
  401f32:	0f af c1             	imul   %ecx,%eax
  401f35:	0f af c1             	imul   %ecx,%eax
  401f38:	0f af c1             	imul   %ecx,%eax
  401f3b:	0f af c1             	imul   %ecx,%eax
  401f3e:	0f af c1             	imul   %ecx,%eax
  401f41:	0f af c1             	imul   %ecx,%eax
  401f44:	0f af c1             	imul   %ecx,%eax
  401f47:	0f af c1             	imul   %ecx,%eax
  401f4a:	0f af c1             	imul   %ecx,%eax
  401f4d:	0f af c1             	imul   %ecx,%eax
  401f50:	0f af c1             	imul   %ecx,%eax
  401f53:	0f af c1             	imul   %ecx,%eax
  401f56:	0f af c1             	imul   %ecx,%eax
  401f59:	0f af c1             	imul   %ecx,%eax
  401f5c:	0f af c1             	imul   %ecx,%eax
  401f5f:	0f af c1             	imul   %ecx,%eax
  401f62:	0f af c1             	imul   %ecx,%eax
  401f65:	0f af c1             	imul   %ecx,%eax
  401f68:	0f af c1             	imul   %ecx,%eax
  401f6b:	0f af c1             	imul   %ecx,%eax
  401f6e:	0f af c1             	imul   %ecx,%eax
  401f71:	0f af c1             	imul   %ecx,%eax
  401f74:	0f af c1             	imul   %ecx,%eax
  401f77:	0f af c1             	imul   %ecx,%eax
  401f7a:	0f af c1             	imul   %ecx,%eax
  401f7d:	0f af c1             	imul   %ecx,%eax
  401f80:	0f af c1             	imul   %ecx,%eax
  401f83:	0f af c1             	imul   %ecx,%eax
  401f86:	0f af c1             	imul   %ecx,%eax
  401f89:	0f af c1             	imul   %ecx,%eax
  401f8c:	0f af c1             	imul   %ecx,%eax
  401f8f:	0f af c1             	imul   %ecx,%eax
  401f92:	0f af c1             	imul   %ecx,%eax
  401f95:	0f af c1             	imul   %ecx,%eax
  401f98:	0f af c1             	imul   %ecx,%eax
  401f9b:	0f af c1             	imul   %ecx,%eax
  401f9e:	0f af c1             	imul   %ecx,%eax
  401fa1:	0f af c1             	imul   %ecx,%eax
  401fa4:	0f af c1             	imul   %ecx,%eax
  401fa7:	0f af c1             	imul   %ecx,%eax
  401faa:	0f af c1             	imul   %ecx,%eax
  401fad:	0f af c1             	imul   %ecx,%eax
  401fb0:	0f af c1             	imul   %ecx,%eax
  401fb3:	0f af c1             	imul   %ecx,%eax
  401fb6:	0f af c1             	imul   %ecx,%eax
  401fb9:	0f af c1             	imul   %ecx,%eax
  401fbc:	0f af c1             	imul   %ecx,%eax
  401fbf:	0f af c1             	imul   %ecx,%eax
  401fc2:	0f af c1             	imul   %ecx,%eax
  401fc5:	0f af c1             	imul   %ecx,%eax
  401fc8:	0f af c1             	imul   %ecx,%eax
  401fcb:	0f af c1             	imul   %ecx,%eax
  401fce:	0f af c1             	imul   %ecx,%eax
  401fd1:	0f af c1             	imul   %ecx,%eax
  401fd4:	0f af c1             	imul   %ecx,%eax
  401fd7:	0f af c1             	imul   %ecx,%eax
  401fda:	0f af c1             	imul   %ecx,%eax
  401fdd:	0f af c1             	imul   %ecx,%eax
  401fe0:	0f af c1             	imul   %ecx,%eax
  401fe3:	0f af c1             	imul   %ecx,%eax
  401fe6:	0f af c1             	imul   %ecx,%eax
  401fe9:	0f af c1             	imul   %ecx,%eax
  401fec:	0f af c1             	imul   %ecx,%eax
  401fef:	0f af c1             	imul   %ecx,%eax
  401ff2:	0f af c1             	imul   %ecx,%eax
  401ff5:	0f af c1             	imul   %ecx,%eax
  401ff8:	0f af c1             	imul   %ecx,%eax
  401ffb:	0f af c1             	imul   %ecx,%eax
  401ffe:	0f af c1             	imul   %ecx,%eax
  402001:	0f af c1             	imul   %ecx,%eax
  402004:	0f af c1             	imul   %ecx,%eax
  402007:	0f af c1             	imul   %ecx,%eax
  40200a:	0f af c1             	imul   %ecx,%eax
  40200d:	0f af c1             	imul   %ecx,%eax
  402010:	0f af c1             	imul   %ecx,%eax
  402013:	0f af c1             	imul   %ecx,%eax
  402016:	0f af c1             	imul   %ecx,%eax
  402019:	0f af c1             	imul   %ecx,%eax
  40201c:	0f af c1             	imul   %ecx,%eax
  40201f:	0f af c1             	imul   %ecx,%eax
  402022:	0f af c1             	imul   %ecx,%eax
  402025:	0f af c1             	imul   %ecx,%eax
  402028:	0f af c1             	imul   %ecx,%eax
  40202b:	0f af c1             	imul   %ecx,%eax
  40202e:	0f af c1             	imul   %ecx,%eax
  402031:	0f af c1             	imul   %ecx,%eax
  402034:	0f af c1             	imul   %ecx,%eax
  402037:	0f af c1             	imul   %ecx,%eax
  40203a:	0f af c1             	imul   %ecx,%eax
  40203d:	0f af c1             	imul   %ecx,%eax
  402040:	0f af c1             	imul   %ecx,%eax
  402043:	0f af c1             	imul   %ecx,%eax
  402046:	0f af c1             	imul   %ecx,%eax
  402049:	0f af c1             	imul   %ecx,%eax
  40204c:	0f af c1             	imul   %ecx,%eax
  40204f:	0f af c1             	imul   %ecx,%eax
  402052:	0f af c1             	imul   %ecx,%eax
  402055:	0f af c1             	imul   %ecx,%eax
  402058:	0f af c1             	imul   %ecx,%eax
  40205b:	0f af c1             	imul   %ecx,%eax
  40205e:	0f af c1             	imul   %ecx,%eax
  402061:	0f af c1             	imul   %ecx,%eax
  402064:	0f af c1             	imul   %ecx,%eax
  402067:	0f af c1             	imul   %ecx,%eax
  40206a:	0f af c1             	imul   %ecx,%eax
  40206d:	0f af c1             	imul   %ecx,%eax
  402070:	0f af c1             	imul   %ecx,%eax
  402073:	0f af c1             	imul   %ecx,%eax
  402076:	0f af c1             	imul   %ecx,%eax
  402079:	0f af c1             	imul   %ecx,%eax
  40207c:	0f af c1             	imul   %ecx,%eax
  40207f:	0f af c1             	imul   %ecx,%eax
  402082:	0f af c1             	imul   %ecx,%eax
  402085:	0f af c1             	imul   %ecx,%eax
  402088:	0f af c1             	imul   %ecx,%eax
  40208b:	0f af c1             	imul   %ecx,%eax
  40208e:	0f af c1             	imul   %ecx,%eax
  402091:	0f af c1             	imul   %ecx,%eax
  402094:	0f af c1             	imul   %ecx,%eax
  402097:	0f af c1             	imul   %ecx,%eax
  40209a:	0f af c1             	imul   %ecx,%eax
  40209d:	0f af c1             	imul   %ecx,%eax
  4020a0:	0f af c1             	imul   %ecx,%eax
  4020a3:	0f af c1             	imul   %ecx,%eax
  4020a6:	0f af c1             	imul   %ecx,%eax
  4020a9:	0f af c1             	imul   %ecx,%eax
  4020ac:	0f af c1             	imul   %ecx,%eax
  4020af:	0f af c1             	imul   %ecx,%eax
  4020b2:	0f af c1             	imul   %ecx,%eax
  4020b5:	0f af c1             	imul   %ecx,%eax
  4020b8:	0f af c1             	imul   %ecx,%eax
  4020bb:	0f af c1             	imul   %ecx,%eax
  4020be:	0f af c1             	imul   %ecx,%eax
  4020c1:	0f af c1             	imul   %ecx,%eax
  4020c4:	0f af c1             	imul   %ecx,%eax
  4020c7:	0f af c1             	imul   %ecx,%eax
  4020ca:	0f af c1             	imul   %ecx,%eax
  4020cd:	0f af c1             	imul   %ecx,%eax
  4020d0:	0f af c1             	imul   %ecx,%eax
  4020d3:	0f af c1             	imul   %ecx,%eax
  4020d6:	0f af c1             	imul   %ecx,%eax
  4020d9:	0f af c1             	imul   %ecx,%eax
  4020dc:	0f af c1             	imul   %ecx,%eax
  4020df:	0f af c1             	imul   %ecx,%eax
  4020e2:	0f af c1             	imul   %ecx,%eax
  4020e5:	0f af c1             	imul   %ecx,%eax
  4020e8:	0f af c1             	imul   %ecx,%eax
  4020eb:	0f af c1             	imul   %ecx,%eax
  4020ee:	0f af c1             	imul   %ecx,%eax
  4020f1:	0f af c1             	imul   %ecx,%eax
  4020f4:	0f af c1             	imul   %ecx,%eax
  4020f7:	0f af c1             	imul   %ecx,%eax
  4020fa:	0f af c1             	imul   %ecx,%eax
  4020fd:	0f af c1             	imul   %ecx,%eax
  402100:	0f af c1             	imul   %ecx,%eax
  402103:	0f af c1             	imul   %ecx,%eax
  402106:	0f af c1             	imul   %ecx,%eax
  402109:	0f af c1             	imul   %ecx,%eax
  40210c:	0f af c1             	imul   %ecx,%eax
  40210f:	0f af c1             	imul   %ecx,%eax
  402112:	0f af c1             	imul   %ecx,%eax
  402115:	0f af c1             	imul   %ecx,%eax
  402118:	0f af c1             	imul   %ecx,%eax
  40211b:	0f af c1             	imul   %ecx,%eax
  40211e:	0f af c1             	imul   %ecx,%eax
  402121:	0f af c1             	imul   %ecx,%eax
  402124:	0f af c1             	imul   %ecx,%eax
  402127:	0f af c1             	imul   %ecx,%eax
  40212a:	0f af c1             	imul   %ecx,%eax
  40212d:	0f af c1             	imul   %ecx,%eax
  402130:	0f af c1             	imul   %ecx,%eax
  402133:	0f af c1             	imul   %ecx,%eax
  402136:	0f af c1             	imul   %ecx,%eax
  402139:	0f af c1             	imul   %ecx,%eax
  40213c:	0f af c1             	imul   %ecx,%eax
  40213f:	0f af c1             	imul   %ecx,%eax
  402142:	0f af c1             	imul   %ecx,%eax
  402145:	0f af c1             	imul   %ecx,%eax
  402148:	0f af c1             	imul   %ecx,%eax
  40214b:	0f af c1             	imul   %ecx,%eax
  40214e:	0f af c1             	imul   %ecx,%eax
  402151:	0f af c1             	imul   %ecx,%eax
  402154:	0f af c1             	imul   %ecx,%eax
  402157:	0f af c1             	imul   %ecx,%eax
  40215a:	0f af c1             	imul   %ecx,%eax
  40215d:	0f af c1             	imul   %ecx,%eax
  402160:	0f af c1             	imul   %ecx,%eax
  402163:	0f af c1             	imul   %ecx,%eax
  402166:	0f af c1             	imul   %ecx,%eax
  402169:	0f af c1             	imul   %ecx,%eax
  40216c:	0f af c1             	imul   %ecx,%eax
  40216f:	0f af c1             	imul   %ecx,%eax
  402172:	0f af c1             	imul   %ecx,%eax
  402175:	0f af c1             	imul   %ecx,%eax
  402178:	0f af c1             	imul   %ecx,%eax
  40217b:	0f af c1             	imul   %ecx,%eax
  40217e:	0f af c1             	imul   %ecx,%eax
  402181:	0f af c1             	imul   %ecx,%eax
  402184:	0f af c1             	imul   %ecx,%eax
  402187:	0f af c1             	imul   %ecx,%eax
  40218a:	0f af c1             	imul   %ecx,%eax
  40218d:	0f af c1             	imul   %ecx,%eax
  402190:	0f af c1             	imul   %ecx,%eax
  402193:	0f af c1             	imul   %ecx,%eax
  402196:	0f af c1             	imul   %ecx,%eax
  402199:	0f af c1             	imul   %ecx,%eax
  40219c:	0f af c1             	imul   %ecx,%eax
  40219f:	0f af c1             	imul   %ecx,%eax
  4021a2:	0f af c1             	imul   %ecx,%eax
  4021a5:	0f af c1             	imul   %ecx,%eax
  4021a8:	0f af c1             	imul   %ecx,%eax
  4021ab:	0f af c1             	imul   %ecx,%eax
  4021ae:	0f af c1             	imul   %ecx,%eax
  4021b1:	0f af c1             	imul   %ecx,%eax
  4021b4:	0f af c1             	imul   %ecx,%eax
  4021b7:	0f af c1             	imul   %ecx,%eax
  4021ba:	0f af c1             	imul   %ecx,%eax
  4021bd:	0f af c1             	imul   %ecx,%eax
  4021c0:	0f af c1             	imul   %ecx,%eax
  4021c3:	0f af c1             	imul   %ecx,%eax
  4021c6:	0f af c1             	imul   %ecx,%eax
  4021c9:	0f af c1             	imul   %ecx,%eax
  4021cc:	0f af c1             	imul   %ecx,%eax
  4021cf:	0f af c1             	imul   %ecx,%eax
  4021d2:	0f af c1             	imul   %ecx,%eax
  4021d5:	0f af c1             	imul   %ecx,%eax
  4021d8:	0f af c1             	imul   %ecx,%eax
  4021db:	0f af c1             	imul   %ecx,%eax
  4021de:	0f af c1             	imul   %ecx,%eax
  4021e1:	0f af c1             	imul   %ecx,%eax
  4021e4:	0f af c1             	imul   %ecx,%eax
  4021e7:	0f af c1             	imul   %ecx,%eax
  4021ea:	0f af c1             	imul   %ecx,%eax
  4021ed:	0f af c1             	imul   %ecx,%eax
  4021f0:	0f af c1             	imul   %ecx,%eax
  4021f3:	0f af c1             	imul   %ecx,%eax
  4021f6:	0f af c1             	imul   %ecx,%eax
  4021f9:	0f af c1             	imul   %ecx,%eax
  4021fc:	0f af c1             	imul   %ecx,%eax
  4021ff:	0f af c1             	imul   %ecx,%eax
  402202:	0f af c1             	imul   %ecx,%eax
  402205:	0f af c1             	imul   %ecx,%eax
  402208:	0f af c1             	imul   %ecx,%eax
  40220b:	0f af c1             	imul   %ecx,%eax
  40220e:	0f af c1             	imul   %ecx,%eax
  402211:	0f af c1             	imul   %ecx,%eax
  402214:	0f af c1             	imul   %ecx,%eax
  402217:	0f af c1             	imul   %ecx,%eax
  40221a:	0f af c1             	imul   %ecx,%eax
  40221d:	0f af c1             	imul   %ecx,%eax
  402220:	0f af c1             	imul   %ecx,%eax
  402223:	0f af c1             	imul   %ecx,%eax
  402226:	0f af c1             	imul   %ecx,%eax
  402229:	0f af c1             	imul   %ecx,%eax
  40222c:	0f af c1             	imul   %ecx,%eax
  40222f:	0f af c1             	imul   %ecx,%eax
  402232:	0f af c1             	imul   %ecx,%eax
  402235:	0f af c1             	imul   %ecx,%eax
  402238:	0f af c1             	imul   %ecx,%eax
  40223b:	0f af c1             	imul   %ecx,%eax
  40223e:	0f af c1             	imul   %ecx,%eax
  402241:	0f af c1             	imul   %ecx,%eax
  402244:	0f af c1             	imul   %ecx,%eax
  402247:	0f af c1             	imul   %ecx,%eax
  40224a:	0f af c1             	imul   %ecx,%eax
  40224d:	0f af c1             	imul   %ecx,%eax
  402250:	0f af c1             	imul   %ecx,%eax
  402253:	0f af c1             	imul   %ecx,%eax
  402256:	0f af c1             	imul   %ecx,%eax
  402259:	0f af c1             	imul   %ecx,%eax
  40225c:	0f af c1             	imul   %ecx,%eax
  40225f:	0f af c1             	imul   %ecx,%eax
  402262:	0f af c1             	imul   %ecx,%eax
  402265:	0f af c1             	imul   %ecx,%eax
  402268:	0f af c1             	imul   %ecx,%eax
  40226b:	0f af c1             	imul   %ecx,%eax
  40226e:	0f af c1             	imul   %ecx,%eax
  402271:	0f af c1             	imul   %ecx,%eax
  402274:	0f af c1             	imul   %ecx,%eax
  402277:	0f af c1             	imul   %ecx,%eax
  40227a:	0f af c1             	imul   %ecx,%eax
  40227d:	0f af c1             	imul   %ecx,%eax
  402280:	0f af c1             	imul   %ecx,%eax
  402283:	0f af c1             	imul   %ecx,%eax
  402286:	0f af c1             	imul   %ecx,%eax
  402289:	0f af c1             	imul   %ecx,%eax
  40228c:	0f af c1             	imul   %ecx,%eax
  40228f:	0f af c1             	imul   %ecx,%eax
  402292:	0f af c1             	imul   %ecx,%eax
  402295:	0f af c1             	imul   %ecx,%eax
  402298:	0f af c1             	imul   %ecx,%eax
  40229b:	0f af c1             	imul   %ecx,%eax
  40229e:	0f af c1             	imul   %ecx,%eax
  4022a1:	0f af c1             	imul   %ecx,%eax
  4022a4:	0f af c1             	imul   %ecx,%eax
  4022a7:	0f af c1             	imul   %ecx,%eax
  4022aa:	0f af c1             	imul   %ecx,%eax
  4022ad:	0f af c1             	imul   %ecx,%eax
  4022b0:	0f af c1             	imul   %ecx,%eax
  4022b3:	0f af c1             	imul   %ecx,%eax
  4022b6:	0f af c1             	imul   %ecx,%eax
  4022b9:	0f af c1             	imul   %ecx,%eax
  4022bc:	0f af c1             	imul   %ecx,%eax
  4022bf:	0f af c1             	imul   %ecx,%eax
  4022c2:	0f af c1             	imul   %ecx,%eax
  4022c5:	0f af c1             	imul   %ecx,%eax
  4022c8:	0f af c1             	imul   %ecx,%eax
  4022cb:	0f af c1             	imul   %ecx,%eax
  4022ce:	0f af c1             	imul   %ecx,%eax
  4022d1:	0f af c1             	imul   %ecx,%eax
  4022d4:	0f af c1             	imul   %ecx,%eax
  4022d7:	0f af c1             	imul   %ecx,%eax
  4022da:	0f af c1             	imul   %ecx,%eax
  4022dd:	0f af c1             	imul   %ecx,%eax
  4022e0:	0f af c1             	imul   %ecx,%eax
  4022e3:	0f af c1             	imul   %ecx,%eax
  4022e6:	0f af c1             	imul   %ecx,%eax
  4022e9:	0f af c1             	imul   %ecx,%eax
  4022ec:	0f af c1             	imul   %ecx,%eax
  4022ef:	0f af c1             	imul   %ecx,%eax
  4022f2:	0f af c1             	imul   %ecx,%eax
  4022f5:	0f af c1             	imul   %ecx,%eax
  4022f8:	0f af c1             	imul   %ecx,%eax
  4022fb:	0f af c1             	imul   %ecx,%eax
  4022fe:	0f af c1             	imul   %ecx,%eax
  402301:	0f af c1             	imul   %ecx,%eax
  402304:	0f af c1             	imul   %ecx,%eax
  402307:	0f af c1             	imul   %ecx,%eax
  40230a:	0f af c1             	imul   %ecx,%eax
  40230d:	0f af c1             	imul   %ecx,%eax
  402310:	0f af c1             	imul   %ecx,%eax
  402313:	0f af c1             	imul   %ecx,%eax
  402316:	0f af c1             	imul   %ecx,%eax
  402319:	0f af c1             	imul   %ecx,%eax
  40231c:	0f af c1             	imul   %ecx,%eax
  40231f:	0f af c1             	imul   %ecx,%eax
  402322:	0f af c1             	imul   %ecx,%eax
  402325:	0f af c1             	imul   %ecx,%eax
  402328:	0f af c1             	imul   %ecx,%eax
  40232b:	0f af c1             	imul   %ecx,%eax
  40232e:	0f af c1             	imul   %ecx,%eax
  402331:	0f af c1             	imul   %ecx,%eax
  402334:	0f af c1             	imul   %ecx,%eax
  402337:	0f af c1             	imul   %ecx,%eax
  40233a:	0f af c1             	imul   %ecx,%eax
  40233d:	0f af c1             	imul   %ecx,%eax
  402340:	0f af c1             	imul   %ecx,%eax
  402343:	0f af c1             	imul   %ecx,%eax
  402346:	0f af c1             	imul   %ecx,%eax
  402349:	0f af c1             	imul   %ecx,%eax
  40234c:	0f af c1             	imul   %ecx,%eax
  40234f:	0f af c1             	imul   %ecx,%eax
  402352:	0f af c1             	imul   %ecx,%eax
  402355:	0f af c1             	imul   %ecx,%eax
  402358:	0f af c1             	imul   %ecx,%eax
  40235b:	0f af c1             	imul   %ecx,%eax
  40235e:	0f af c1             	imul   %ecx,%eax
  402361:	0f af c1             	imul   %ecx,%eax
  402364:	0f af c1             	imul   %ecx,%eax
  402367:	0f af c1             	imul   %ecx,%eax
  40236a:	0f af c1             	imul   %ecx,%eax
  40236d:	0f af c1             	imul   %ecx,%eax
  402370:	0f af c1             	imul   %ecx,%eax
  402373:	0f af c1             	imul   %ecx,%eax
  402376:	0f af c1             	imul   %ecx,%eax
  402379:	0f af c1             	imul   %ecx,%eax
  40237c:	0f af c1             	imul   %ecx,%eax
  40237f:	0f af c1             	imul   %ecx,%eax
  402382:	0f af c1             	imul   %ecx,%eax
  402385:	0f af c1             	imul   %ecx,%eax
  402388:	0f af c1             	imul   %ecx,%eax
  40238b:	0f af c1             	imul   %ecx,%eax
  40238e:	0f af c1             	imul   %ecx,%eax
  402391:	0f af c1             	imul   %ecx,%eax
  402394:	0f af c1             	imul   %ecx,%eax
  402397:	0f af c1             	imul   %ecx,%eax
  40239a:	0f af c1             	imul   %ecx,%eax
  40239d:	0f af c1             	imul   %ecx,%eax
  4023a0:	0f af c1             	imul   %ecx,%eax
  4023a3:	0f af c1             	imul   %ecx,%eax
  4023a6:	0f af c1             	imul   %ecx,%eax
  4023a9:	0f af c1             	imul   %ecx,%eax
  4023ac:	0f af c1             	imul   %ecx,%eax
  4023af:	0f af c1             	imul   %ecx,%eax
  4023b2:	0f af c1             	imul   %ecx,%eax
  4023b5:	0f af c1             	imul   %ecx,%eax
  4023b8:	0f af c1             	imul   %ecx,%eax
  4023bb:	0f af c1             	imul   %ecx,%eax
  4023be:	0f af c1             	imul   %ecx,%eax
  4023c1:	0f af c1             	imul   %ecx,%eax
  4023c4:	0f af c1             	imul   %ecx,%eax
  4023c7:	0f af c1             	imul   %ecx,%eax
  4023ca:	0f af c1             	imul   %ecx,%eax
  4023cd:	0f af c1             	imul   %ecx,%eax
  4023d0:	0f af c1             	imul   %ecx,%eax
  4023d3:	0f af c1             	imul   %ecx,%eax
  4023d6:	0f af c1             	imul   %ecx,%eax
  4023d9:	0f af c1             	imul   %ecx,%eax
  4023dc:	0f af c1             	imul   %ecx,%eax
  4023df:	0f af c1             	imul   %ecx,%eax
  4023e2:	0f af c1             	imul   %ecx,%eax
  4023e5:	0f af c1             	imul   %ecx,%eax
  4023e8:	0f af c1             	imul   %ecx,%eax
  4023eb:	0f af c1             	imul   %ecx,%eax
  4023ee:	0f af c1             	imul   %ecx,%eax
  4023f1:	0f af c1             	imul   %ecx,%eax
  4023f4:	0f af c1             	imul   %ecx,%eax
  4023f7:	0f af c1             	imul   %ecx,%eax
  4023fa:	0f af c1             	imul   %ecx,%eax
  4023fd:	0f af c1             	imul   %ecx,%eax
  402400:	0f af c1             	imul   %ecx,%eax
  402403:	0f af c1             	imul   %ecx,%eax
  402406:	0f af c1             	imul   %ecx,%eax
  402409:	0f af c1             	imul   %ecx,%eax
  40240c:	0f af c1             	imul   %ecx,%eax
  40240f:	0f af c1             	imul   %ecx,%eax
  402412:	0f af c1             	imul   %ecx,%eax
  402415:	0f af c1             	imul   %ecx,%eax
  402418:	0f af c1             	imul   %ecx,%eax
  40241b:	0f af c1             	imul   %ecx,%eax
  40241e:	0f af c1             	imul   %ecx,%eax
  402421:	0f af c1             	imul   %ecx,%eax
  402424:	0f af c1             	imul   %ecx,%eax
  402427:	0f af c1             	imul   %ecx,%eax
  40242a:	0f af c1             	imul   %ecx,%eax
  40242d:	0f af c1             	imul   %ecx,%eax
  402430:	0f af c1             	imul   %ecx,%eax
  402433:	0f af c1             	imul   %ecx,%eax
  402436:	0f af c1             	imul   %ecx,%eax
  402439:	0f af c1             	imul   %ecx,%eax
  40243c:	0f af c1             	imul   %ecx,%eax
  40243f:	0f af c1             	imul   %ecx,%eax
  402442:	0f af c1             	imul   %ecx,%eax
  402445:	0f af c1             	imul   %ecx,%eax
  402448:	0f af c1             	imul   %ecx,%eax
  40244b:	0f af c1             	imul   %ecx,%eax
  40244e:	0f af c1             	imul   %ecx,%eax
  402451:	0f af c1             	imul   %ecx,%eax
  402454:	0f af c1             	imul   %ecx,%eax
  402457:	0f af c1             	imul   %ecx,%eax
  40245a:	0f af c1             	imul   %ecx,%eax
  40245d:	0f af c1             	imul   %ecx,%eax
  402460:	0f af c1             	imul   %ecx,%eax
  402463:	0f af c1             	imul   %ecx,%eax
  402466:	0f af c1             	imul   %ecx,%eax
  402469:	0f af c1             	imul   %ecx,%eax
  40246c:	0f af c1             	imul   %ecx,%eax
  40246f:	0f af c1             	imul   %ecx,%eax
  402472:	0f af c1             	imul   %ecx,%eax
  402475:	0f af c1             	imul   %ecx,%eax
  402478:	0f af c1             	imul   %ecx,%eax
  40247b:	0f af c1             	imul   %ecx,%eax
  40247e:	0f af c1             	imul   %ecx,%eax
  402481:	0f af c1             	imul   %ecx,%eax
  402484:	0f af c1             	imul   %ecx,%eax
  402487:	0f af c1             	imul   %ecx,%eax
  40248a:	0f af c1             	imul   %ecx,%eax
  40248d:	0f af c1             	imul   %ecx,%eax
  402490:	0f af c1             	imul   %ecx,%eax
  402493:	0f af c1             	imul   %ecx,%eax
  402496:	0f af c1             	imul   %ecx,%eax
  402499:	0f af c1             	imul   %ecx,%eax
  40249c:	0f af c1             	imul   %ecx,%eax
  40249f:	0f af c1             	imul   %ecx,%eax
  4024a2:	0f af c1             	imul   %ecx,%eax
  4024a5:	0f af c1             	imul   %ecx,%eax
  4024a8:	0f af c1             	imul   %ecx,%eax
  4024ab:	0f af c1             	imul   %ecx,%eax
  4024ae:	0f af c1             	imul   %ecx,%eax
  4024b1:	0f af c1             	imul   %ecx,%eax
  4024b4:	0f af c1             	imul   %ecx,%eax
  4024b7:	0f af c1             	imul   %ecx,%eax
  4024ba:	0f af c1             	imul   %ecx,%eax
  4024bd:	0f af c1             	imul   %ecx,%eax
  4024c0:	0f af c1             	imul   %ecx,%eax
  4024c3:	0f af c1             	imul   %ecx,%eax
  4024c6:	0f af c1             	imul   %ecx,%eax
  4024c9:	0f af c1             	imul   %ecx,%eax
  4024cc:	0f af c1             	imul   %ecx,%eax
  4024cf:	0f af c1             	imul   %ecx,%eax
  4024d2:	0f af c1             	imul   %ecx,%eax
  4024d5:	0f af c1             	imul   %ecx,%eax
  4024d8:	0f af c1             	imul   %ecx,%eax
  4024db:	0f af c1             	imul   %ecx,%eax
  4024de:	0f af c1             	imul   %ecx,%eax
  4024e1:	0f af c1             	imul   %ecx,%eax
  4024e4:	0f af c1             	imul   %ecx,%eax
  4024e7:	0f af c1             	imul   %ecx,%eax
  4024ea:	0f af c1             	imul   %ecx,%eax
  4024ed:	0f af c1             	imul   %ecx,%eax
  4024f0:	0f af c1             	imul   %ecx,%eax
  4024f3:	0f af c1             	imul   %ecx,%eax
  4024f6:	0f af c1             	imul   %ecx,%eax
  4024f9:	0f af c1             	imul   %ecx,%eax
  4024fc:	0f af c1             	imul   %ecx,%eax
  4024ff:	0f af c1             	imul   %ecx,%eax
  402502:	0f af c1             	imul   %ecx,%eax
  402505:	0f af c1             	imul   %ecx,%eax
  402508:	0f af c1             	imul   %ecx,%eax
  40250b:	0f af c1             	imul   %ecx,%eax
  40250e:	0f af c1             	imul   %ecx,%eax
  402511:	0f af c1             	imul   %ecx,%eax
  402514:	0f af c1             	imul   %ecx,%eax
  402517:	0f af c1             	imul   %ecx,%eax
  40251a:	0f af c1             	imul   %ecx,%eax
  40251d:	0f af c1             	imul   %ecx,%eax
  402520:	0f af c1             	imul   %ecx,%eax
  402523:	0f af c1             	imul   %ecx,%eax
  402526:	0f af c1             	imul   %ecx,%eax
  402529:	0f af c1             	imul   %ecx,%eax
  40252c:	0f af c1             	imul   %ecx,%eax
  40252f:	0f af c1             	imul   %ecx,%eax
  402532:	0f af c1             	imul   %ecx,%eax
  402535:	0f af c1             	imul   %ecx,%eax
  402538:	0f af c1             	imul   %ecx,%eax
  40253b:	0f af c1             	imul   %ecx,%eax
  40253e:	0f af c1             	imul   %ecx,%eax
  402541:	0f af c1             	imul   %ecx,%eax
  402544:	0f af c1             	imul   %ecx,%eax
  402547:	0f af c1             	imul   %ecx,%eax
  40254a:	0f af c1             	imul   %ecx,%eax
  40254d:	0f af c1             	imul   %ecx,%eax
  402550:	0f af c1             	imul   %ecx,%eax
  402553:	0f af c1             	imul   %ecx,%eax
  402556:	0f af c1             	imul   %ecx,%eax
  402559:	0f af c1             	imul   %ecx,%eax
  40255c:	0f af c1             	imul   %ecx,%eax
  40255f:	0f af c1             	imul   %ecx,%eax
  402562:	0f af c1             	imul   %ecx,%eax
  402565:	0f af c1             	imul   %ecx,%eax
  402568:	0f af c1             	imul   %ecx,%eax
  40256b:	0f af c1             	imul   %ecx,%eax
  40256e:	0f af c1             	imul   %ecx,%eax
  402571:	0f af c1             	imul   %ecx,%eax
  402574:	0f af c1             	imul   %ecx,%eax
  402577:	0f af c1             	imul   %ecx,%eax
  40257a:	0f af c1             	imul   %ecx,%eax
  40257d:	0f af c1             	imul   %ecx,%eax
  402580:	0f af c1             	imul   %ecx,%eax
  402583:	0f af c1             	imul   %ecx,%eax
  402586:	0f af c1             	imul   %ecx,%eax
  402589:	0f af c1             	imul   %ecx,%eax
  40258c:	0f af c1             	imul   %ecx,%eax
  40258f:	0f af c1             	imul   %ecx,%eax
  402592:	0f af c1             	imul   %ecx,%eax
  402595:	0f af c1             	imul   %ecx,%eax
  402598:	0f af c1             	imul   %ecx,%eax
  40259b:	0f af c1             	imul   %ecx,%eax
  40259e:	0f af c1             	imul   %ecx,%eax
  4025a1:	0f af c1             	imul   %ecx,%eax
  4025a4:	0f af c1             	imul   %ecx,%eax
  4025a7:	0f af c1             	imul   %ecx,%eax
  4025aa:	0f af c1             	imul   %ecx,%eax
  4025ad:	0f af c1             	imul   %ecx,%eax
  4025b0:	0f af c1             	imul   %ecx,%eax
  4025b3:	0f af c1             	imul   %ecx,%eax
  4025b6:	0f af c1             	imul   %ecx,%eax
  4025b9:	0f af c1             	imul   %ecx,%eax
  4025bc:	0f af c1             	imul   %ecx,%eax
  4025bf:	0f af c1             	imul   %ecx,%eax
  4025c2:	0f af c1             	imul   %ecx,%eax
  4025c5:	0f af c1             	imul   %ecx,%eax
  4025c8:	0f af c1             	imul   %ecx,%eax
  4025cb:	0f af c1             	imul   %ecx,%eax
  4025ce:	0f af c1             	imul   %ecx,%eax
  4025d1:	0f af c1             	imul   %ecx,%eax
  4025d4:	0f af c1             	imul   %ecx,%eax
  4025d7:	0f af c1             	imul   %ecx,%eax
  4025da:	0f af c1             	imul   %ecx,%eax
  4025dd:	0f af c1             	imul   %ecx,%eax
  4025e0:	0f af c1             	imul   %ecx,%eax
  4025e3:	0f af c1             	imul   %ecx,%eax
  4025e6:	0f af c1             	imul   %ecx,%eax
  4025e9:	0f af c1             	imul   %ecx,%eax
  4025ec:	0f af c1             	imul   %ecx,%eax
  4025ef:	0f af c1             	imul   %ecx,%eax
  4025f2:	0f af c1             	imul   %ecx,%eax
  4025f5:	0f af c1             	imul   %ecx,%eax
  4025f8:	0f af c1             	imul   %ecx,%eax
  4025fb:	0f af c1             	imul   %ecx,%eax
  4025fe:	0f af c1             	imul   %ecx,%eax
  402601:	0f af c1             	imul   %ecx,%eax
  402604:	0f af c1             	imul   %ecx,%eax
  402607:	0f af c1             	imul   %ecx,%eax
  40260a:	0f af c1             	imul   %ecx,%eax
  40260d:	0f af c1             	imul   %ecx,%eax
  402610:	0f af c1             	imul   %ecx,%eax
  402613:	0f af c1             	imul   %ecx,%eax
  402616:	0f af c1             	imul   %ecx,%eax
  402619:	0f af c1             	imul   %ecx,%eax
  40261c:	0f af c1             	imul   %ecx,%eax
  40261f:	0f af c1             	imul   %ecx,%eax
  402622:	0f af c1             	imul   %ecx,%eax
  402625:	0f af c1             	imul   %ecx,%eax
  402628:	0f af c1             	imul   %ecx,%eax
  40262b:	0f af c1             	imul   %ecx,%eax
  40262e:	0f af c1             	imul   %ecx,%eax
  402631:	0f af c1             	imul   %ecx,%eax
  402634:	0f af c1             	imul   %ecx,%eax
  402637:	0f af c1             	imul   %ecx,%eax
  40263a:	0f af c1             	imul   %ecx,%eax
  40263d:	0f af c1             	imul   %ecx,%eax
  402640:	0f af c1             	imul   %ecx,%eax
  402643:	0f af c1             	imul   %ecx,%eax
  402646:	0f af c1             	imul   %ecx,%eax
  402649:	0f af c1             	imul   %ecx,%eax
  40264c:	0f af c1             	imul   %ecx,%eax
  40264f:	0f af c1             	imul   %ecx,%eax
  402652:	0f af c1             	imul   %ecx,%eax
  402655:	0f af c1             	imul   %ecx,%eax
  402658:	0f af c1             	imul   %ecx,%eax
  40265b:	0f af c1             	imul   %ecx,%eax
  40265e:	0f af c1             	imul   %ecx,%eax
  402661:	0f af c1             	imul   %ecx,%eax
  402664:	0f af c1             	imul   %ecx,%eax
  402667:	0f af c1             	imul   %ecx,%eax
  40266a:	0f af c1             	imul   %ecx,%eax
  40266d:	0f af c1             	imul   %ecx,%eax
  402670:	0f af c1             	imul   %ecx,%eax
  402673:	0f af c1             	imul   %ecx,%eax
  402676:	0f af c1             	imul   %ecx,%eax
  402679:	0f af c1             	imul   %ecx,%eax
  40267c:	0f af c1             	imul   %ecx,%eax
  40267f:	0f af c1             	imul   %ecx,%eax
  402682:	0f af c1             	imul   %ecx,%eax
  402685:	0f af c1             	imul   %ecx,%eax
  402688:	0f af c1             	imul   %ecx,%eax
  40268b:	0f af c1             	imul   %ecx,%eax
  40268e:	0f af c1             	imul   %ecx,%eax
  402691:	0f af c1             	imul   %ecx,%eax
  402694:	0f af c1             	imul   %ecx,%eax
  402697:	0f af c1             	imul   %ecx,%eax
  40269a:	0f af c1             	imul   %ecx,%eax
  40269d:	0f af c1             	imul   %ecx,%eax
  4026a0:	0f af c1             	imul   %ecx,%eax
  4026a3:	0f af c1             	imul   %ecx,%eax
  4026a6:	0f af c1             	imul   %ecx,%eax
  4026a9:	0f af c1             	imul   %ecx,%eax
  4026ac:	0f af c1             	imul   %ecx,%eax
  4026af:	0f af c1             	imul   %ecx,%eax
  4026b2:	0f af c1             	imul   %ecx,%eax
  4026b5:	0f af c1             	imul   %ecx,%eax
  4026b8:	0f af c1             	imul   %ecx,%eax
  4026bb:	0f af c1             	imul   %ecx,%eax
  4026be:	0f af c1             	imul   %ecx,%eax
  4026c1:	0f af c1             	imul   %ecx,%eax
  4026c4:	0f af c1             	imul   %ecx,%eax
  4026c7:	0f af c1             	imul   %ecx,%eax
  4026ca:	0f af c1             	imul   %ecx,%eax
  4026cd:	0f af c1             	imul   %ecx,%eax
  4026d0:	0f af c1             	imul   %ecx,%eax
  4026d3:	0f af c1             	imul   %ecx,%eax
  4026d6:	0f af c1             	imul   %ecx,%eax
  4026d9:	0f af c1             	imul   %ecx,%eax
  4026dc:	0f af c1             	imul   %ecx,%eax
  4026df:	0f af c1             	imul   %ecx,%eax
  4026e2:	0f af c1             	imul   %ecx,%eax
  4026e5:	0f af c1             	imul   %ecx,%eax
  4026e8:	0f af c1             	imul   %ecx,%eax
  4026eb:	0f af c1             	imul   %ecx,%eax
  4026ee:	0f af c1             	imul   %ecx,%eax
  4026f1:	0f af c1             	imul   %ecx,%eax
  4026f4:	0f af c1             	imul   %ecx,%eax
  4026f7:	0f af c1             	imul   %ecx,%eax
  4026fa:	0f af c1             	imul   %ecx,%eax
  4026fd:	0f af c1             	imul   %ecx,%eax
  402700:	0f af c1             	imul   %ecx,%eax
  402703:	0f af c1             	imul   %ecx,%eax
  402706:	0f af c1             	imul   %ecx,%eax
  402709:	0f af c1             	imul   %ecx,%eax
  40270c:	0f af c1             	imul   %ecx,%eax
  40270f:	0f af c1             	imul   %ecx,%eax
  402712:	0f af c1             	imul   %ecx,%eax
  402715:	0f af c1             	imul   %ecx,%eax
  402718:	0f af c1             	imul   %ecx,%eax
  40271b:	0f af c1             	imul   %ecx,%eax
  40271e:	0f af c1             	imul   %ecx,%eax
  402721:	0f af c1             	imul   %ecx,%eax
  402724:	0f af c1             	imul   %ecx,%eax
  402727:	0f af c1             	imul   %ecx,%eax
  40272a:	0f af c1             	imul   %ecx,%eax
  40272d:	0f af c1             	imul   %ecx,%eax
  402730:	0f af c1             	imul   %ecx,%eax
  402733:	0f af c1             	imul   %ecx,%eax
  402736:	0f af c1             	imul   %ecx,%eax
  402739:	0f af c1             	imul   %ecx,%eax
  40273c:	0f af c1             	imul   %ecx,%eax
  40273f:	0f af c1             	imul   %ecx,%eax
  402742:	0f af c1             	imul   %ecx,%eax
  402745:	0f af c1             	imul   %ecx,%eax
  402748:	0f af c1             	imul   %ecx,%eax
  40274b:	0f af c1             	imul   %ecx,%eax
  40274e:	0f af c1             	imul   %ecx,%eax
  402751:	0f af c1             	imul   %ecx,%eax
  402754:	0f af c1             	imul   %ecx,%eax
  402757:	0f af c1             	imul   %ecx,%eax
  40275a:	0f af c1             	imul   %ecx,%eax
  40275d:	0f af c1             	imul   %ecx,%eax
  402760:	0f af c1             	imul   %ecx,%eax
  402763:	0f af c1             	imul   %ecx,%eax
  402766:	0f af c1             	imul   %ecx,%eax
  402769:	0f af c1             	imul   %ecx,%eax
  40276c:	0f af c1             	imul   %ecx,%eax
  40276f:	0f af c1             	imul   %ecx,%eax
  402772:	0f af c1             	imul   %ecx,%eax
  402775:	0f af c1             	imul   %ecx,%eax
  402778:	0f af c1             	imul   %ecx,%eax
  40277b:	0f af c1             	imul   %ecx,%eax
  40277e:	0f af c1             	imul   %ecx,%eax
  402781:	0f af c1             	imul   %ecx,%eax
  402784:	0f af c1             	imul   %ecx,%eax
  402787:	0f af c1             	imul   %ecx,%eax
  40278a:	0f af c1             	imul   %ecx,%eax
  40278d:	0f af c1             	imul   %ecx,%eax
  402790:	0f af c1             	imul   %ecx,%eax
  402793:	0f af c1             	imul   %ecx,%eax
  402796:	0f af c1             	imul   %ecx,%eax
  402799:	0f af c1             	imul   %ecx,%eax
  40279c:	0f af c1             	imul   %ecx,%eax
  40279f:	0f af c1             	imul   %ecx,%eax
  4027a2:	0f af c1             	imul   %ecx,%eax
  4027a5:	0f af c1             	imul   %ecx,%eax
  4027a8:	0f af c1             	imul   %ecx,%eax
  4027ab:	0f af c1             	imul   %ecx,%eax
  4027ae:	0f af c1             	imul   %ecx,%eax
  4027b1:	0f af c1             	imul   %ecx,%eax
  4027b4:	0f af c1             	imul   %ecx,%eax
  4027b7:	0f af c1             	imul   %ecx,%eax
  4027ba:	0f af c1             	imul   %ecx,%eax
  4027bd:	0f af c1             	imul   %ecx,%eax
  4027c0:	0f af c1             	imul   %ecx,%eax
  4027c3:	0f af c1             	imul   %ecx,%eax
  4027c6:	0f af c1             	imul   %ecx,%eax
  4027c9:	0f af c1             	imul   %ecx,%eax
  4027cc:	0f af c1             	imul   %ecx,%eax
  4027cf:	0f af c1             	imul   %ecx,%eax
  4027d2:	0f af c1             	imul   %ecx,%eax
  4027d5:	0f af c1             	imul   %ecx,%eax
  4027d8:	0f af c1             	imul   %ecx,%eax
  4027db:	0f af c1             	imul   %ecx,%eax
  4027de:	0f af c1             	imul   %ecx,%eax
  4027e1:	0f af c1             	imul   %ecx,%eax
  4027e4:	0f af c1             	imul   %ecx,%eax
  4027e7:	0f af c1             	imul   %ecx,%eax
  4027ea:	0f af c1             	imul   %ecx,%eax
  4027ed:	0f af c1             	imul   %ecx,%eax
  4027f0:	0f af c1             	imul   %ecx,%eax
  4027f3:	0f af c1             	imul   %ecx,%eax
  4027f6:	0f af c1             	imul   %ecx,%eax
  4027f9:	41 89 c1             	mov    %eax,%r9d
  4027fc:	0f 31                	rdtsc  
  4027fe:	48 c1 e2 20          	shl    $0x20,%rdx
  402802:	89 c0                	mov    %eax,%eax
  402804:	48 c1 e6 20          	shl    $0x20,%rsi
  402808:	48 09 c2             	or     %rax,%rdx
  40280b:	48 09 fe             	or     %rdi,%rsi
  40280e:	48 29 f2             	sub    %rsi,%rdx
  402811:	48 01 d3             	add    %rdx,%rbx
  402814:	41 83 e8 01          	sub    $0x1,%r8d
  402818:	0f 85 aa dc ff ff    	jne    4004c8 <main+0x18>
  40281e:	31 c0                	xor    %eax,%eax
  402820:	48 89 de             	mov    %rbx,%rsi
  402823:	bf 08 2a 40 00       	mov    $0x402a08,%edi
  402828:	e8 73 dc ff ff       	callq  4004a0 <printf@plt>
  40282d:	48 85 db             	test   %rbx,%rbx
  402830:	78 2c                	js     40285e <main+0x23ae>
  402832:	c5 f9 57 c0          	vxorpd %xmm0,%xmm0,%xmm0
  402836:	c4 e1 fb 2a c3       	vcvtsi2sd %rbx,%xmm0,%xmm0
  40283b:	c5 fb 59 05 05 02 00 	vmulsd 0x205(%rip),%xmm0,%xmm0        # 402a48 <__dso_handle+0x48>
  402842:	00 
  402843:	bf 38 2a 40 00       	mov    $0x402a38,%edi
  402848:	b8 01 00 00 00       	mov    $0x1,%eax
  40284d:	c5 fb 5e 05 fb 01 00 	vdivsd 0x1fb(%rip),%xmm0,%xmm0        # 402a50 <__dso_handle+0x50>
  402854:	00 
  402855:	e8 46 dc ff ff       	callq  4004a0 <printf@plt>
  40285a:	31 c0                	xor    %eax,%eax
  40285c:	5b                   	pop    %rbx
  40285d:	c3                   	retq   
  40285e:	48 89 d8             	mov    %rbx,%rax
  402861:	83 e3 01             	and    $0x1,%ebx
  402864:	c5 f9 57 c0          	vxorpd %xmm0,%xmm0,%xmm0
  402868:	48 d1 e8             	shr    %rax
  40286b:	48 09 d8             	or     %rbx,%rax
  40286e:	c4 e1 fb 2a c0       	vcvtsi2sd %rax,%xmm0,%xmm0
  402873:	c5 fb 58 c0          	vaddsd %xmm0,%xmm0,%xmm0
  402877:	eb c2                	jmp    40283b <main+0x238b>

0000000000402879 <.annobin_elf_init.c.hot>:
  402879:	0f 1f 80 00 00 00 00 	nopl   0x0(%rax)

0000000000402880 <_start>:
  402880:	f3 0f 1e fa          	endbr64 
  402884:	31 ed                	xor    %ebp,%ebp
  402886:	49 89 d1             	mov    %rdx,%r9
  402889:	5e                   	pop    %rsi
  40288a:	48 89 e2             	mov    %rsp,%rdx
  40288d:	48 83 e4 f0          	and    $0xfffffffffffffff0,%rsp
  402891:	50                   	push   %rax
  402892:	54                   	push   %rsp
  402893:	49 c7 c0 e0 29 40 00 	mov    $0x4029e0,%r8
  40289a:	48 c7 c1 70 29 40 00 	mov    $0x402970,%rcx
  4028a1:	48 c7 c7 b0 04 40 00 	mov    $0x4004b0,%rdi
  4028a8:	ff 15 3a 07 20 00    	callq  *0x20073a(%rip)        # 602fe8 <__libc_start_main@GLIBC_2.2.5>
  4028ae:	f4                   	hlt    

00000000004028af <.annobin_init.c>:
  4028af:	90                   	nop

00000000004028b0 <_dl_relocate_static_pie>:
  4028b0:	f3 0f 1e fa          	endbr64 
  4028b4:	c3                   	retq   

00000000004028b5 <.annobin__dl_relocate_static_pie.end>:
  4028b5:	66 2e 0f 1f 84 00 00 	nopw   %cs:0x0(%rax,%rax,1)
  4028bc:	00 00 00 
  4028bf:	90                   	nop

00000000004028c0 <deregister_tm_clones>:
  4028c0:	48 8d 3d 61 07 20 00 	lea    0x200761(%rip),%rdi        # 603028 <__TMC_END__>
  4028c7:	48 8d 05 5a 07 20 00 	lea    0x20075a(%rip),%rax        # 603028 <__TMC_END__>
  4028ce:	48 39 f8             	cmp    %rdi,%rax
  4028d1:	74 15                	je     4028e8 <deregister_tm_clones+0x28>
  4028d3:	48 8b 05 06 07 20 00 	mov    0x200706(%rip),%rax        # 602fe0 <_ITM_deregisterTMCloneTable@Base>
  4028da:	48 85 c0             	test   %rax,%rax
  4028dd:	74 09                	je     4028e8 <deregister_tm_clones+0x28>
  4028df:	ff e0                	jmpq   *%rax
  4028e1:	0f 1f 80 00 00 00 00 	nopl   0x0(%rax)
  4028e8:	c3                   	retq   
  4028e9:	0f 1f 80 00 00 00 00 	nopl   0x0(%rax)

00000000004028f0 <register_tm_clones>:
  4028f0:	48 8d 3d 31 07 20 00 	lea    0x200731(%rip),%rdi        # 603028 <__TMC_END__>
  4028f7:	48 8d 35 2a 07 20 00 	lea    0x20072a(%rip),%rsi        # 603028 <__TMC_END__>
  4028fe:	48 29 fe             	sub    %rdi,%rsi
  402901:	48 c1 fe 03          	sar    $0x3,%rsi
  402905:	48 89 f0             	mov    %rsi,%rax
  402908:	48 c1 e8 3f          	shr    $0x3f,%rax
  40290c:	48 01 c6             	add    %rax,%rsi
  40290f:	48 d1 fe             	sar    %rsi
  402912:	74 14                	je     402928 <register_tm_clones+0x38>
  402914:	48 8b 05 dd 06 20 00 	mov    0x2006dd(%rip),%rax        # 602ff8 <_ITM_registerTMCloneTable@Base>
  40291b:	48 85 c0             	test   %rax,%rax
  40291e:	74 08                	je     402928 <register_tm_clones+0x38>
  402920:	ff e0                	jmpq   *%rax
  402922:	66 0f 1f 44 00 00    	nopw   0x0(%rax,%rax,1)
  402928:	c3                   	retq   
  402929:	0f 1f 80 00 00 00 00 	nopl   0x0(%rax)

0000000000402930 <__do_global_dtors_aux>:
  402930:	f3 0f 1e fa          	endbr64 
  402934:	80 3d e9 06 20 00 00 	cmpb   $0x0,0x2006e9(%rip)        # 603024 <_edata>
  40293b:	75 13                	jne    402950 <__do_global_dtors_aux+0x20>
  40293d:	55                   	push   %rbp
  40293e:	48 89 e5             	mov    %rsp,%rbp
  402941:	e8 7a ff ff ff       	callq  4028c0 <deregister_tm_clones>
  402946:	c6 05 d7 06 20 00 01 	movb   $0x1,0x2006d7(%rip)        # 603024 <_edata>
  40294d:	5d                   	pop    %rbp
  40294e:	c3                   	retq   
  40294f:	90                   	nop
  402950:	c3                   	retq   
  402951:	66 66 2e 0f 1f 84 00 	data16 nopw %cs:0x0(%rax,%rax,1)
  402958:	00 00 00 00 
  40295c:	0f 1f 40 00          	nopl   0x0(%rax)

0000000000402960 <frame_dummy>:
  402960:	f3 0f 1e fa          	endbr64 
  402964:	eb 8a                	jmp    4028f0 <register_tm_clones>
  402966:	66 2e 0f 1f 84 00 00 	nopw   %cs:0x0(%rax,%rax,1)
  40296d:	00 00 00 

0000000000402970 <__libc_csu_init>:
  402970:	f3 0f 1e fa          	endbr64 
  402974:	41 57                	push   %r15
  402976:	49 89 d7             	mov    %rdx,%r15
  402979:	41 56                	push   %r14
  40297b:	49 89 f6             	mov    %rsi,%r14
  40297e:	41 55                	push   %r13
  402980:	41 89 fd             	mov    %edi,%r13d
  402983:	41 54                	push   %r12
  402985:	4c 8d 25 74 04 20 00 	lea    0x200474(%rip),%r12        # 602e00 <__frame_dummy_init_array_entry>
  40298c:	55                   	push   %rbp
  40298d:	48 8d 2d 74 04 20 00 	lea    0x200474(%rip),%rbp        # 602e08 <__init_array_end>
  402994:	53                   	push   %rbx
  402995:	4c 29 e5             	sub    %r12,%rbp
  402998:	48 83 ec 08          	sub    $0x8,%rsp
  40299c:	e8 c7 da ff ff       	callq  400468 <_init>
  4029a1:	48 c1 fd 03          	sar    $0x3,%rbp
  4029a5:	74 1f                	je     4029c6 <__libc_csu_init+0x56>
  4029a7:	31 db                	xor    %ebx,%ebx
  4029a9:	0f 1f 80 00 00 00 00 	nopl   0x0(%rax)
  4029b0:	4c 89 fa             	mov    %r15,%rdx
  4029b3:	4c 89 f6             	mov    %r14,%rsi
  4029b6:	44 89 ef             	mov    %r13d,%edi
  4029b9:	41 ff 14 dc          	callq  *(%r12,%rbx,8)
  4029bd:	48 83 c3 01          	add    $0x1,%rbx
  4029c1:	48 39 dd             	cmp    %rbx,%rbp
  4029c4:	75 ea                	jne    4029b0 <__libc_csu_init+0x40>
  4029c6:	48 83 c4 08          	add    $0x8,%rsp
  4029ca:	5b                   	pop    %rbx
  4029cb:	5d                   	pop    %rbp
  4029cc:	41 5c                	pop    %r12
  4029ce:	41 5d                	pop    %r13
  4029d0:	41 5e                	pop    %r14
  4029d2:	41 5f                	pop    %r15
  4029d4:	c3                   	retq   

00000000004029d5 <.annobin___libc_csu_fini.start>:
  4029d5:	66 66 2e 0f 1f 84 00 	data16 nopw %cs:0x0(%rax,%rax,1)
  4029dc:	00 00 00 00 

00000000004029e0 <__libc_csu_fini>:
  4029e0:	f3 0f 1e fa          	endbr64 
  4029e4:	c3                   	retq   

Disassembly of section .fini:

00000000004029e8 <_fini>:
  4029e8:	f3 0f 1e fa          	endbr64 
  4029ec:	48 83 ec 08          	sub    $0x8,%rsp
  4029f0:	48 83 c4 08          	add    $0x8,%rsp
  4029f4:	c3                   	retq   
