
./latency_simd_fma.x:     file format elf64-x86-64


Disassembly of section .init:

0000000000400468 <_init>:
  400468:	f3 0f 1e fa          	endbr64 
  40046c:	48 83 ec 08          	sub    $0x8,%rsp
  400470:	48 8b 05 79 bb 20 00 	mov    0x20bb79(%rip),%rax        # 60bff0 <__gmon_start__@Base>
  400477:	48 85 c0             	test   %rax,%rax
  40047a:	74 02                	je     40047e <_init+0x16>
  40047c:	ff d0                	callq  *%rax
  40047e:	48 83 c4 08          	add    $0x8,%rsp
  400482:	c3                   	retq   

Disassembly of section .plt:

0000000000400490 <.plt>:
  400490:	ff 35 72 bb 20 00    	pushq  0x20bb72(%rip)        # 60c008 <_GLOBAL_OFFSET_TABLE_+0x8>
  400496:	ff 25 74 bb 20 00    	jmpq   *0x20bb74(%rip)        # 60c010 <_GLOBAL_OFFSET_TABLE_+0x10>
  40049c:	0f 1f 40 00          	nopl   0x0(%rax)

00000000004004a0 <printf@plt>:
  4004a0:	ff 25 72 bb 20 00    	jmpq   *0x20bb72(%rip)        # 60c018 <printf@GLIBC_2.2.5>
  4004a6:	68 00 00 00 00       	pushq  $0x0
  4004ab:	e9 e0 ff ff ff       	jmpq   400490 <.plt>

Disassembly of section .text:

00000000004004b0 <main>:
  4004b0:	4c 8d 54 24 08       	lea    0x8(%rsp),%r10
  4004b5:	48 83 e4 e0          	and    $0xffffffffffffffe0,%rsp
  4004b9:	bf 64 00 00 00       	mov    $0x64,%edi
  4004be:	41 ff 72 f8          	pushq  -0x8(%r10)
  4004c2:	55                   	push   %rbp
  4004c3:	48 89 e5             	mov    %rsp,%rbp
  4004c6:	41 52                	push   %r10
  4004c8:	53                   	push   %rbx
  4004c9:	31 db                	xor    %ebx,%ebx
  4004cb:	48 83 ec 60          	sub    $0x60,%rsp
  4004cf:	c5 fb 10 05 81 b2 00 	vmovsd 0xb281(%rip),%xmm0        # 40b758 <__dso_handle+0x48>
  4004d6:	00 
  4004d7:	c5 fb 10 15 81 b2 00 	vmovsd 0xb281(%rip),%xmm2        # 40b760 <__dso_handle+0x50>
  4004de:	00 
  4004df:	c5 fb 10 0d 81 b2 00 	vmovsd 0xb281(%rip),%xmm1        # 40b768 <__dso_handle+0x58>
  4004e6:	00 
  4004e7:	c5 fb 11 45 90       	vmovsd %xmm0,-0x70(%rbp)
  4004ec:	c5 fb 11 45 a0       	vmovsd %xmm0,-0x60(%rbp)
  4004f1:	c5 fb 11 4d a8       	vmovsd %xmm1,-0x58(%rbp)
  4004f6:	c5 fb 11 45 b0       	vmovsd %xmm0,-0x50(%rbp)
  4004fb:	c5 fb 11 55 b8       	vmovsd %xmm2,-0x48(%rbp)
  400500:	c5 fb 11 45 c0       	vmovsd %xmm0,-0x40(%rbp)
  400505:	c5 fb 11 55 d8       	vmovsd %xmm2,-0x28(%rbp)
  40050a:	c5 fb 11 4d e8       	vmovsd %xmm1,-0x18(%rbp)
  40050f:	c5 fb 11 55 98       	vmovsd %xmm2,-0x68(%rbp)
  400514:	c5 fd 28 55 90       	vmovapd -0x70(%rbp),%ymm2
  400519:	c5 fb 11 4d c8       	vmovsd %xmm1,-0x38(%rbp)
  40051e:	c5 fd 28 4d b0       	vmovapd -0x50(%rbp),%ymm1
  400523:	c5 fb 11 45 d0       	vmovsd %xmm0,-0x30(%rbp)
  400528:	c5 fb 11 45 e0       	vmovsd %xmm0,-0x20(%rbp)
  40052d:	c5 fd 28 45 d0       	vmovapd -0x30(%rbp),%ymm0
  400532:	66 0f 1f 44 00 00    	nopw   0x0(%rax,%rax,1)
  400538:	0f 31                	rdtsc  
  40053a:	89 d1                	mov    %edx,%ecx
  40053c:	89 c6                	mov    %eax,%esi
  40053e:	c4 e2 f5 b8 c2       	vfmadd231pd %ymm2,%ymm1,%ymm0
  400543:	c4 e2 ed b8 c8       	vfmadd231pd %ymm0,%ymm2,%ymm1
  400548:	c4 e2 fd b8 d1       	vfmadd231pd %ymm1,%ymm0,%ymm2
  40054d:	c4 e2 f5 b8 c2       	vfmadd231pd %ymm2,%ymm1,%ymm0
  400552:	c4 e2 ed b8 c8       	vfmadd231pd %ymm0,%ymm2,%ymm1
  400557:	c4 e2 fd b8 d1       	vfmadd231pd %ymm1,%ymm0,%ymm2
  40055c:	c4 e2 f5 b8 c2       	vfmadd231pd %ymm2,%ymm1,%ymm0
  400561:	c4 e2 ed b8 c8       	vfmadd231pd %ymm0,%ymm2,%ymm1
  400566:	c4 e2 fd b8 d1       	vfmadd231pd %ymm1,%ymm0,%ymm2
  40056b:	c4 e2 f5 b8 c2       	vfmadd231pd %ymm2,%ymm1,%ymm0
  400570:	c4 e2 ed b8 c8       	vfmadd231pd %ymm0,%ymm2,%ymm1
  400575:	c4 e2 fd b8 d1       	vfmadd231pd %ymm1,%ymm0,%ymm2
  40057a:	c4 e2 f5 b8 c2       	vfmadd231pd %ymm2,%ymm1,%ymm0
  40057f:	c4 e2 ed b8 c8       	vfmadd231pd %ymm0,%ymm2,%ymm1
  400584:	c4 e2 fd b8 d1       	vfmadd231pd %ymm1,%ymm0,%ymm2
  400589:	c4 e2 f5 b8 c2       	vfmadd231pd %ymm2,%ymm1,%ymm0
  40058e:	c4 e2 ed b8 c8       	vfmadd231pd %ymm0,%ymm2,%ymm1
  400593:	c4 e2 fd b8 d1       	vfmadd231pd %ymm1,%ymm0,%ymm2
  400598:	c4 e2 f5 b8 c2       	vfmadd231pd %ymm2,%ymm1,%ymm0
  40059d:	c4 e2 ed b8 c8       	vfmadd231pd %ymm0,%ymm2,%ymm1
  4005a2:	c4 e2 fd b8 d1       	vfmadd231pd %ymm1,%ymm0,%ymm2
  4005a7:	c4 e2 f5 b8 c2       	vfmadd231pd %ymm2,%ymm1,%ymm0
  4005ac:	c4 e2 ed b8 c8       	vfmadd231pd %ymm0,%ymm2,%ymm1
  4005b1:	c4 e2 fd b8 d1       	vfmadd231pd %ymm1,%ymm0,%ymm2
  4005b6:	c4 e2 f5 b8 c2       	vfmadd231pd %ymm2,%ymm1,%ymm0
  4005bb:	c4 e2 ed b8 c8       	vfmadd231pd %ymm0,%ymm2,%ymm1
  4005c0:	c4 e2 fd b8 d1       	vfmadd231pd %ymm1,%ymm0,%ymm2
  4005c5:	c4 e2 f5 b8 c2       	vfmadd231pd %ymm2,%ymm1,%ymm0
  4005ca:	c4 e2 ed b8 c8       	vfmadd231pd %ymm0,%ymm2,%ymm1
  4005cf:	c4 e2 fd b8 d1       	vfmadd231pd %ymm1,%ymm0,%ymm2
  4005d4:	c4 e2 f5 b8 c2       	vfmadd231pd %ymm2,%ymm1,%ymm0
  4005d9:	c4 e2 ed b8 c8       	vfmadd231pd %ymm0,%ymm2,%ymm1
  4005de:	c4 e2 fd b8 d1       	vfmadd231pd %ymm1,%ymm0,%ymm2
  4005e3:	c4 e2 f5 b8 c2       	vfmadd231pd %ymm2,%ymm1,%ymm0
  4005e8:	c4 e2 ed b8 c8       	vfmadd231pd %ymm0,%ymm2,%ymm1
  4005ed:	c4 e2 fd b8 d1       	vfmadd231pd %ymm1,%ymm0,%ymm2
  4005f2:	c4 e2 f5 b8 c2       	vfmadd231pd %ymm2,%ymm1,%ymm0
  4005f7:	c4 e2 ed b8 c8       	vfmadd231pd %ymm0,%ymm2,%ymm1
  4005fc:	c4 e2 fd b8 d1       	vfmadd231pd %ymm1,%ymm0,%ymm2
  400601:	c4 e2 f5 b8 c2       	vfmadd231pd %ymm2,%ymm1,%ymm0
  400606:	c4 e2 ed b8 c8       	vfmadd231pd %ymm0,%ymm2,%ymm1
  40060b:	c4 e2 fd b8 d1       	vfmadd231pd %ymm1,%ymm0,%ymm2
  400610:	c4 e2 f5 b8 c2       	vfmadd231pd %ymm2,%ymm1,%ymm0
  400615:	c4 e2 ed b8 c8       	vfmadd231pd %ymm0,%ymm2,%ymm1
  40061a:	c4 e2 fd b8 d1       	vfmadd231pd %ymm1,%ymm0,%ymm2
  40061f:	c4 e2 f5 b8 c2       	vfmadd231pd %ymm2,%ymm1,%ymm0
  400624:	c4 e2 ed b8 c8       	vfmadd231pd %ymm0,%ymm2,%ymm1
  400629:	c4 e2 fd b8 d1       	vfmadd231pd %ymm1,%ymm0,%ymm2
  40062e:	c4 e2 f5 b8 c2       	vfmadd231pd %ymm2,%ymm1,%ymm0
  400633:	c4 e2 ed b8 c8       	vfmadd231pd %ymm0,%ymm2,%ymm1
  400638:	c4 e2 fd b8 d1       	vfmadd231pd %ymm1,%ymm0,%ymm2
  40063d:	c4 e2 f5 b8 c2       	vfmadd231pd %ymm2,%ymm1,%ymm0
  400642:	c4 e2 ed b8 c8       	vfmadd231pd %ymm0,%ymm2,%ymm1
  400647:	c4 e2 fd b8 d1       	vfmadd231pd %ymm1,%ymm0,%ymm2
  40064c:	c4 e2 f5 b8 c2       	vfmadd231pd %ymm2,%ymm1,%ymm0
  400651:	c4 e2 ed b8 c8       	vfmadd231pd %ymm0,%ymm2,%ymm1
  400656:	c4 e2 fd b8 d1       	vfmadd231pd %ymm1,%ymm0,%ymm2
  40065b:	c4 e2 f5 b8 c2       	vfmadd231pd %ymm2,%ymm1,%ymm0
  400660:	c4 e2 ed b8 c8       	vfmadd231pd %ymm0,%ymm2,%ymm1
  400665:	c4 e2 fd b8 d1       	vfmadd231pd %ymm1,%ymm0,%ymm2
  40066a:	c4 e2 f5 b8 c2       	vfmadd231pd %ymm2,%ymm1,%ymm0
  40066f:	c4 e2 ed b8 c8       	vfmadd231pd %ymm0,%ymm2,%ymm1
  400674:	c4 e2 fd b8 d1       	vfmadd231pd %ymm1,%ymm0,%ymm2
  400679:	c4 e2 f5 b8 c2       	vfmadd231pd %ymm2,%ymm1,%ymm0
  40067e:	c4 e2 ed b8 c8       	vfmadd231pd %ymm0,%ymm2,%ymm1
  400683:	c4 e2 fd b8 d1       	vfmadd231pd %ymm1,%ymm0,%ymm2
  400688:	c4 e2 f5 b8 c2       	vfmadd231pd %ymm2,%ymm1,%ymm0
  40068d:	c4 e2 ed b8 c8       	vfmadd231pd %ymm0,%ymm2,%ymm1
  400692:	c4 e2 fd b8 d1       	vfmadd231pd %ymm1,%ymm0,%ymm2
  400697:	c4 e2 f5 b8 c2       	vfmadd231pd %ymm2,%ymm1,%ymm0
  40069c:	c4 e2 ed b8 c8       	vfmadd231pd %ymm0,%ymm2,%ymm1
  4006a1:	c4 e2 fd b8 d1       	vfmadd231pd %ymm1,%ymm0,%ymm2
  4006a6:	c4 e2 f5 b8 c2       	vfmadd231pd %ymm2,%ymm1,%ymm0
  4006ab:	c4 e2 ed b8 c8       	vfmadd231pd %ymm0,%ymm2,%ymm1
  4006b0:	c4 e2 fd b8 d1       	vfmadd231pd %ymm1,%ymm0,%ymm2
  4006b5:	c4 e2 f5 b8 c2       	vfmadd231pd %ymm2,%ymm1,%ymm0
  4006ba:	c4 e2 ed b8 c8       	vfmadd231pd %ymm0,%ymm2,%ymm1
  4006bf:	c4 e2 fd b8 d1       	vfmadd231pd %ymm1,%ymm0,%ymm2
  4006c4:	c4 e2 f5 b8 c2       	vfmadd231pd %ymm2,%ymm1,%ymm0
  4006c9:	c4 e2 ed b8 c8       	vfmadd231pd %ymm0,%ymm2,%ymm1
  4006ce:	c4 e2 fd b8 d1       	vfmadd231pd %ymm1,%ymm0,%ymm2
  4006d3:	c4 e2 f5 b8 c2       	vfmadd231pd %ymm2,%ymm1,%ymm0
  4006d8:	c4 e2 ed b8 c8       	vfmadd231pd %ymm0,%ymm2,%ymm1
  4006dd:	c4 e2 fd b8 d1       	vfmadd231pd %ymm1,%ymm0,%ymm2
  4006e2:	c4 e2 f5 b8 c2       	vfmadd231pd %ymm2,%ymm1,%ymm0
  4006e7:	c4 e2 ed b8 c8       	vfmadd231pd %ymm0,%ymm2,%ymm1
  4006ec:	c4 e2 fd b8 d1       	vfmadd231pd %ymm1,%ymm0,%ymm2
  4006f1:	c4 e2 f5 b8 c2       	vfmadd231pd %ymm2,%ymm1,%ymm0
  4006f6:	c4 e2 ed b8 c8       	vfmadd231pd %ymm0,%ymm2,%ymm1
  4006fb:	c4 e2 fd b8 d1       	vfmadd231pd %ymm1,%ymm0,%ymm2
  400700:	c4 e2 f5 b8 c2       	vfmadd231pd %ymm2,%ymm1,%ymm0
  400705:	c4 e2 ed b8 c8       	vfmadd231pd %ymm0,%ymm2,%ymm1
  40070a:	c4 e2 fd b8 d1       	vfmadd231pd %ymm1,%ymm0,%ymm2
  40070f:	c4 e2 f5 b8 c2       	vfmadd231pd %ymm2,%ymm1,%ymm0
  400714:	c4 e2 ed b8 c8       	vfmadd231pd %ymm0,%ymm2,%ymm1
  400719:	c4 e2 fd b8 d1       	vfmadd231pd %ymm1,%ymm0,%ymm2
  40071e:	c4 e2 f5 b8 c2       	vfmadd231pd %ymm2,%ymm1,%ymm0
  400723:	c4 e2 ed b8 c8       	vfmadd231pd %ymm0,%ymm2,%ymm1
  400728:	c4 e2 fd b8 d1       	vfmadd231pd %ymm1,%ymm0,%ymm2
  40072d:	c4 e2 f5 b8 c2       	vfmadd231pd %ymm2,%ymm1,%ymm0
  400732:	c4 e2 ed b8 c8       	vfmadd231pd %ymm0,%ymm2,%ymm1
  400737:	c4 e2 fd b8 d1       	vfmadd231pd %ymm1,%ymm0,%ymm2
  40073c:	c4 e2 f5 b8 c2       	vfmadd231pd %ymm2,%ymm1,%ymm0
  400741:	c4 e2 ed b8 c8       	vfmadd231pd %ymm0,%ymm2,%ymm1
  400746:	c4 e2 fd b8 d1       	vfmadd231pd %ymm1,%ymm0,%ymm2
  40074b:	c4 e2 f5 b8 c2       	vfmadd231pd %ymm2,%ymm1,%ymm0
  400750:	c4 e2 ed b8 c8       	vfmadd231pd %ymm0,%ymm2,%ymm1
  400755:	c4 e2 fd b8 d1       	vfmadd231pd %ymm1,%ymm0,%ymm2
  40075a:	c4 e2 f5 b8 c2       	vfmadd231pd %ymm2,%ymm1,%ymm0
  40075f:	c4 e2 ed b8 c8       	vfmadd231pd %ymm0,%ymm2,%ymm1
  400764:	c4 e2 fd b8 d1       	vfmadd231pd %ymm1,%ymm0,%ymm2
  400769:	c4 e2 f5 b8 c2       	vfmadd231pd %ymm2,%ymm1,%ymm0
  40076e:	c4 e2 ed b8 c8       	vfmadd231pd %ymm0,%ymm2,%ymm1
  400773:	c4 e2 fd b8 d1       	vfmadd231pd %ymm1,%ymm0,%ymm2
  400778:	c4 e2 f5 b8 c2       	vfmadd231pd %ymm2,%ymm1,%ymm0
  40077d:	c4 e2 ed b8 c8       	vfmadd231pd %ymm0,%ymm2,%ymm1
  400782:	c4 e2 fd b8 d1       	vfmadd231pd %ymm1,%ymm0,%ymm2
  400787:	c4 e2 f5 b8 c2       	vfmadd231pd %ymm2,%ymm1,%ymm0
  40078c:	c4 e2 ed b8 c8       	vfmadd231pd %ymm0,%ymm2,%ymm1
  400791:	c4 e2 fd b8 d1       	vfmadd231pd %ymm1,%ymm0,%ymm2
  400796:	c4 e2 f5 b8 c2       	vfmadd231pd %ymm2,%ymm1,%ymm0
  40079b:	c4 e2 ed b8 c8       	vfmadd231pd %ymm0,%ymm2,%ymm1
  4007a0:	c4 e2 fd b8 d1       	vfmadd231pd %ymm1,%ymm0,%ymm2
  4007a5:	c4 e2 f5 b8 c2       	vfmadd231pd %ymm2,%ymm1,%ymm0
  4007aa:	c4 e2 ed b8 c8       	vfmadd231pd %ymm0,%ymm2,%ymm1
  4007af:	c4 e2 fd b8 d1       	vfmadd231pd %ymm1,%ymm0,%ymm2
  4007b4:	c4 e2 f5 b8 c2       	vfmadd231pd %ymm2,%ymm1,%ymm0
  4007b9:	c4 e2 ed b8 c8       	vfmadd231pd %ymm0,%ymm2,%ymm1
  4007be:	c4 e2 fd b8 d1       	vfmadd231pd %ymm1,%ymm0,%ymm2
  4007c3:	c4 e2 f5 b8 c2       	vfmadd231pd %ymm2,%ymm1,%ymm0
  4007c8:	c4 e2 ed b8 c8       	vfmadd231pd %ymm0,%ymm2,%ymm1
  4007cd:	c4 e2 fd b8 d1       	vfmadd231pd %ymm1,%ymm0,%ymm2
  4007d2:	c4 e2 f5 b8 c2       	vfmadd231pd %ymm2,%ymm1,%ymm0
  4007d7:	c4 e2 ed b8 c8       	vfmadd231pd %ymm0,%ymm2,%ymm1
  4007dc:	c4 e2 fd b8 d1       	vfmadd231pd %ymm1,%ymm0,%ymm2
  4007e1:	c4 e2 f5 b8 c2       	vfmadd231pd %ymm2,%ymm1,%ymm0
  4007e6:	c4 e2 ed b8 c8       	vfmadd231pd %ymm0,%ymm2,%ymm1
  4007eb:	c4 e2 fd b8 d1       	vfmadd231pd %ymm1,%ymm0,%ymm2
  4007f0:	c4 e2 f5 b8 c2       	vfmadd231pd %ymm2,%ymm1,%ymm0
  4007f5:	c4 e2 ed b8 c8       	vfmadd231pd %ymm0,%ymm2,%ymm1
  4007fa:	c4 e2 fd b8 d1       	vfmadd231pd %ymm1,%ymm0,%ymm2
  4007ff:	c4 e2 f5 b8 c2       	vfmadd231pd %ymm2,%ymm1,%ymm0
  400804:	c4 e2 ed b8 c8       	vfmadd231pd %ymm0,%ymm2,%ymm1
  400809:	c4 e2 fd b8 d1       	vfmadd231pd %ymm1,%ymm0,%ymm2
  40080e:	c4 e2 f5 b8 c2       	vfmadd231pd %ymm2,%ymm1,%ymm0
  400813:	c4 e2 ed b8 c8       	vfmadd231pd %ymm0,%ymm2,%ymm1
  400818:	c4 e2 fd b8 d1       	vfmadd231pd %ymm1,%ymm0,%ymm2
  40081d:	c4 e2 f5 b8 c2       	vfmadd231pd %ymm2,%ymm1,%ymm0
  400822:	c4 e2 ed b8 c8       	vfmadd231pd %ymm0,%ymm2,%ymm1
  400827:	c4 e2 fd b8 d1       	vfmadd231pd %ymm1,%ymm0,%ymm2
  40082c:	c4 e2 f5 b8 c2       	vfmadd231pd %ymm2,%ymm1,%ymm0
  400831:	c4 e2 ed b8 c8       	vfmadd231pd %ymm0,%ymm2,%ymm1
  400836:	c4 e2 fd b8 d1       	vfmadd231pd %ymm1,%ymm0,%ymm2
  40083b:	c4 e2 f5 b8 c2       	vfmadd231pd %ymm2,%ymm1,%ymm0
  400840:	c4 e2 ed b8 c8       	vfmadd231pd %ymm0,%ymm2,%ymm1
  400845:	c4 e2 fd b8 d1       	vfmadd231pd %ymm1,%ymm0,%ymm2
  40084a:	c4 e2 f5 b8 c2       	vfmadd231pd %ymm2,%ymm1,%ymm0
  40084f:	c4 e2 ed b8 c8       	vfmadd231pd %ymm0,%ymm2,%ymm1
  400854:	c4 e2 fd b8 d1       	vfmadd231pd %ymm1,%ymm0,%ymm2
  400859:	c4 e2 f5 b8 c2       	vfmadd231pd %ymm2,%ymm1,%ymm0
  40085e:	c4 e2 ed b8 c8       	vfmadd231pd %ymm0,%ymm2,%ymm1
  400863:	c4 e2 fd b8 d1       	vfmadd231pd %ymm1,%ymm0,%ymm2
  400868:	c4 e2 f5 b8 c2       	vfmadd231pd %ymm2,%ymm1,%ymm0
  40086d:	c4 e2 ed b8 c8       	vfmadd231pd %ymm0,%ymm2,%ymm1
  400872:	c4 e2 fd b8 d1       	vfmadd231pd %ymm1,%ymm0,%ymm2
  400877:	c4 e2 f5 b8 c2       	vfmadd231pd %ymm2,%ymm1,%ymm0
  40087c:	c4 e2 ed b8 c8       	vfmadd231pd %ymm0,%ymm2,%ymm1
  400881:	c4 e2 fd b8 d1       	vfmadd231pd %ymm1,%ymm0,%ymm2
  400886:	c4 e2 f5 b8 c2       	vfmadd231pd %ymm2,%ymm1,%ymm0
  40088b:	c4 e2 ed b8 c8       	vfmadd231pd %ymm0,%ymm2,%ymm1
  400890:	c4 e2 fd b8 d1       	vfmadd231pd %ymm1,%ymm0,%ymm2
  400895:	c4 e2 f5 b8 c2       	vfmadd231pd %ymm2,%ymm1,%ymm0
  40089a:	c4 e2 ed b8 c8       	vfmadd231pd %ymm0,%ymm2,%ymm1
  40089f:	c4 e2 fd b8 d1       	vfmadd231pd %ymm1,%ymm0,%ymm2
  4008a4:	c4 e2 f5 b8 c2       	vfmadd231pd %ymm2,%ymm1,%ymm0
  4008a9:	c4 e2 ed b8 c8       	vfmadd231pd %ymm0,%ymm2,%ymm1
  4008ae:	c4 e2 fd b8 d1       	vfmadd231pd %ymm1,%ymm0,%ymm2
  4008b3:	c4 e2 f5 b8 c2       	vfmadd231pd %ymm2,%ymm1,%ymm0
  4008b8:	c4 e2 ed b8 c8       	vfmadd231pd %ymm0,%ymm2,%ymm1
  4008bd:	c4 e2 fd b8 d1       	vfmadd231pd %ymm1,%ymm0,%ymm2
  4008c2:	c4 e2 f5 b8 c2       	vfmadd231pd %ymm2,%ymm1,%ymm0
  4008c7:	c4 e2 ed b8 c8       	vfmadd231pd %ymm0,%ymm2,%ymm1
  4008cc:	c4 e2 fd b8 d1       	vfmadd231pd %ymm1,%ymm0,%ymm2
  4008d1:	c4 e2 f5 b8 c2       	vfmadd231pd %ymm2,%ymm1,%ymm0
  4008d6:	c4 e2 ed b8 c8       	vfmadd231pd %ymm0,%ymm2,%ymm1
  4008db:	c4 e2 fd b8 d1       	vfmadd231pd %ymm1,%ymm0,%ymm2
  4008e0:	c4 e2 f5 b8 c2       	vfmadd231pd %ymm2,%ymm1,%ymm0
  4008e5:	c4 e2 ed b8 c8       	vfmadd231pd %ymm0,%ymm2,%ymm1
  4008ea:	c4 e2 fd b8 d1       	vfmadd231pd %ymm1,%ymm0,%ymm2
  4008ef:	c4 e2 f5 b8 c2       	vfmadd231pd %ymm2,%ymm1,%ymm0
  4008f4:	c4 e2 ed b8 c8       	vfmadd231pd %ymm0,%ymm2,%ymm1
  4008f9:	c4 e2 fd b8 d1       	vfmadd231pd %ymm1,%ymm0,%ymm2
  4008fe:	c4 e2 f5 b8 c2       	vfmadd231pd %ymm2,%ymm1,%ymm0
  400903:	c4 e2 ed b8 c8       	vfmadd231pd %ymm0,%ymm2,%ymm1
  400908:	c4 e2 fd b8 d1       	vfmadd231pd %ymm1,%ymm0,%ymm2
  40090d:	c4 e2 f5 b8 c2       	vfmadd231pd %ymm2,%ymm1,%ymm0
  400912:	c4 e2 ed b8 c8       	vfmadd231pd %ymm0,%ymm2,%ymm1
  400917:	c4 e2 fd b8 d1       	vfmadd231pd %ymm1,%ymm0,%ymm2
  40091c:	c4 e2 f5 b8 c2       	vfmadd231pd %ymm2,%ymm1,%ymm0
  400921:	c4 e2 ed b8 c8       	vfmadd231pd %ymm0,%ymm2,%ymm1
  400926:	c4 e2 fd b8 d1       	vfmadd231pd %ymm1,%ymm0,%ymm2
  40092b:	c4 e2 f5 b8 c2       	vfmadd231pd %ymm2,%ymm1,%ymm0
  400930:	c4 e2 ed b8 c8       	vfmadd231pd %ymm0,%ymm2,%ymm1
  400935:	c4 e2 fd b8 d1       	vfmadd231pd %ymm1,%ymm0,%ymm2
  40093a:	c4 e2 f5 b8 c2       	vfmadd231pd %ymm2,%ymm1,%ymm0
  40093f:	c4 e2 ed b8 c8       	vfmadd231pd %ymm0,%ymm2,%ymm1
  400944:	c4 e2 fd b8 d1       	vfmadd231pd %ymm1,%ymm0,%ymm2
  400949:	c4 e2 f5 b8 c2       	vfmadd231pd %ymm2,%ymm1,%ymm0
  40094e:	c4 e2 ed b8 c8       	vfmadd231pd %ymm0,%ymm2,%ymm1
  400953:	c4 e2 fd b8 d1       	vfmadd231pd %ymm1,%ymm0,%ymm2
  400958:	c4 e2 f5 b8 c2       	vfmadd231pd %ymm2,%ymm1,%ymm0
  40095d:	c4 e2 ed b8 c8       	vfmadd231pd %ymm0,%ymm2,%ymm1
  400962:	c4 e2 fd b8 d1       	vfmadd231pd %ymm1,%ymm0,%ymm2
  400967:	c4 e2 f5 b8 c2       	vfmadd231pd %ymm2,%ymm1,%ymm0
  40096c:	c4 e2 ed b8 c8       	vfmadd231pd %ymm0,%ymm2,%ymm1
  400971:	c4 e2 fd b8 d1       	vfmadd231pd %ymm1,%ymm0,%ymm2
  400976:	c4 e2 f5 b8 c2       	vfmadd231pd %ymm2,%ymm1,%ymm0
  40097b:	c4 e2 ed b8 c8       	vfmadd231pd %ymm0,%ymm2,%ymm1
  400980:	c4 e2 fd b8 d1       	vfmadd231pd %ymm1,%ymm0,%ymm2
  400985:	c4 e2 f5 b8 c2       	vfmadd231pd %ymm2,%ymm1,%ymm0
  40098a:	c4 e2 ed b8 c8       	vfmadd231pd %ymm0,%ymm2,%ymm1
  40098f:	c4 e2 fd b8 d1       	vfmadd231pd %ymm1,%ymm0,%ymm2
  400994:	c4 e2 f5 b8 c2       	vfmadd231pd %ymm2,%ymm1,%ymm0
  400999:	c4 e2 ed b8 c8       	vfmadd231pd %ymm0,%ymm2,%ymm1
  40099e:	c4 e2 fd b8 d1       	vfmadd231pd %ymm1,%ymm0,%ymm2
  4009a3:	c4 e2 f5 b8 c2       	vfmadd231pd %ymm2,%ymm1,%ymm0
  4009a8:	c4 e2 ed b8 c8       	vfmadd231pd %ymm0,%ymm2,%ymm1
  4009ad:	c4 e2 fd b8 d1       	vfmadd231pd %ymm1,%ymm0,%ymm2
  4009b2:	c4 e2 f5 b8 c2       	vfmadd231pd %ymm2,%ymm1,%ymm0
  4009b7:	c4 e2 ed b8 c8       	vfmadd231pd %ymm0,%ymm2,%ymm1
  4009bc:	c4 e2 fd b8 d1       	vfmadd231pd %ymm1,%ymm0,%ymm2
  4009c1:	c4 e2 f5 b8 c2       	vfmadd231pd %ymm2,%ymm1,%ymm0
  4009c6:	c4 e2 ed b8 c8       	vfmadd231pd %ymm0,%ymm2,%ymm1
  4009cb:	c4 e2 fd b8 d1       	vfmadd231pd %ymm1,%ymm0,%ymm2
  4009d0:	c4 e2 f5 b8 c2       	vfmadd231pd %ymm2,%ymm1,%ymm0
  4009d5:	c4 e2 ed b8 c8       	vfmadd231pd %ymm0,%ymm2,%ymm1
  4009da:	c4 e2 fd b8 d1       	vfmadd231pd %ymm1,%ymm0,%ymm2
  4009df:	c4 e2 f5 b8 c2       	vfmadd231pd %ymm2,%ymm1,%ymm0
  4009e4:	c4 e2 ed b8 c8       	vfmadd231pd %ymm0,%ymm2,%ymm1
  4009e9:	c4 e2 fd b8 d1       	vfmadd231pd %ymm1,%ymm0,%ymm2
  4009ee:	c4 e2 f5 b8 c2       	vfmadd231pd %ymm2,%ymm1,%ymm0
  4009f3:	c4 e2 ed b8 c8       	vfmadd231pd %ymm0,%ymm2,%ymm1
  4009f8:	c4 e2 fd b8 d1       	vfmadd231pd %ymm1,%ymm0,%ymm2
  4009fd:	c4 e2 f5 b8 c2       	vfmadd231pd %ymm2,%ymm1,%ymm0
  400a02:	c4 e2 ed b8 c8       	vfmadd231pd %ymm0,%ymm2,%ymm1
  400a07:	c4 e2 fd b8 d1       	vfmadd231pd %ymm1,%ymm0,%ymm2
  400a0c:	c4 e2 f5 b8 c2       	vfmadd231pd %ymm2,%ymm1,%ymm0
  400a11:	c4 e2 ed b8 c8       	vfmadd231pd %ymm0,%ymm2,%ymm1
  400a16:	c4 e2 fd b8 d1       	vfmadd231pd %ymm1,%ymm0,%ymm2
  400a1b:	c4 e2 f5 b8 c2       	vfmadd231pd %ymm2,%ymm1,%ymm0
  400a20:	c4 e2 ed b8 c8       	vfmadd231pd %ymm0,%ymm2,%ymm1
  400a25:	c4 e2 fd b8 d1       	vfmadd231pd %ymm1,%ymm0,%ymm2
  400a2a:	c4 e2 f5 b8 c2       	vfmadd231pd %ymm2,%ymm1,%ymm0
  400a2f:	c4 e2 ed b8 c8       	vfmadd231pd %ymm0,%ymm2,%ymm1
  400a34:	c4 e2 fd b8 d1       	vfmadd231pd %ymm1,%ymm0,%ymm2
  400a39:	c4 e2 f5 b8 c2       	vfmadd231pd %ymm2,%ymm1,%ymm0
  400a3e:	c4 e2 ed b8 c8       	vfmadd231pd %ymm0,%ymm2,%ymm1
  400a43:	c4 e2 fd b8 d1       	vfmadd231pd %ymm1,%ymm0,%ymm2
  400a48:	c4 e2 f5 b8 c2       	vfmadd231pd %ymm2,%ymm1,%ymm0
  400a4d:	c4 e2 ed b8 c8       	vfmadd231pd %ymm0,%ymm2,%ymm1
  400a52:	c4 e2 fd b8 d1       	vfmadd231pd %ymm1,%ymm0,%ymm2
  400a57:	c4 e2 f5 b8 c2       	vfmadd231pd %ymm2,%ymm1,%ymm0
  400a5c:	c4 e2 ed b8 c8       	vfmadd231pd %ymm0,%ymm2,%ymm1
  400a61:	c4 e2 fd b8 d1       	vfmadd231pd %ymm1,%ymm0,%ymm2
  400a66:	c4 e2 f5 b8 c2       	vfmadd231pd %ymm2,%ymm1,%ymm0
  400a6b:	c4 e2 ed b8 c8       	vfmadd231pd %ymm0,%ymm2,%ymm1
  400a70:	c4 e2 fd b8 d1       	vfmadd231pd %ymm1,%ymm0,%ymm2
  400a75:	c4 e2 f5 b8 c2       	vfmadd231pd %ymm2,%ymm1,%ymm0
  400a7a:	c4 e2 ed b8 c8       	vfmadd231pd %ymm0,%ymm2,%ymm1
  400a7f:	c4 e2 fd b8 d1       	vfmadd231pd %ymm1,%ymm0,%ymm2
  400a84:	c4 e2 f5 b8 c2       	vfmadd231pd %ymm2,%ymm1,%ymm0
  400a89:	c4 e2 ed b8 c8       	vfmadd231pd %ymm0,%ymm2,%ymm1
  400a8e:	c4 e2 fd b8 d1       	vfmadd231pd %ymm1,%ymm0,%ymm2
  400a93:	c4 e2 f5 b8 c2       	vfmadd231pd %ymm2,%ymm1,%ymm0
  400a98:	c4 e2 ed b8 c8       	vfmadd231pd %ymm0,%ymm2,%ymm1
  400a9d:	c4 e2 fd b8 d1       	vfmadd231pd %ymm1,%ymm0,%ymm2
  400aa2:	c4 e2 f5 b8 c2       	vfmadd231pd %ymm2,%ymm1,%ymm0
  400aa7:	c4 e2 ed b8 c8       	vfmadd231pd %ymm0,%ymm2,%ymm1
  400aac:	c4 e2 fd b8 d1       	vfmadd231pd %ymm1,%ymm0,%ymm2
  400ab1:	c4 e2 f5 b8 c2       	vfmadd231pd %ymm2,%ymm1,%ymm0
  400ab6:	c4 e2 ed b8 c8       	vfmadd231pd %ymm0,%ymm2,%ymm1
  400abb:	c4 e2 fd b8 d1       	vfmadd231pd %ymm1,%ymm0,%ymm2
  400ac0:	c4 e2 f5 b8 c2       	vfmadd231pd %ymm2,%ymm1,%ymm0
  400ac5:	c4 e2 ed b8 c8       	vfmadd231pd %ymm0,%ymm2,%ymm1
  400aca:	c4 e2 fd b8 d1       	vfmadd231pd %ymm1,%ymm0,%ymm2
  400acf:	c4 e2 f5 b8 c2       	vfmadd231pd %ymm2,%ymm1,%ymm0
  400ad4:	c4 e2 ed b8 c8       	vfmadd231pd %ymm0,%ymm2,%ymm1
  400ad9:	c4 e2 fd b8 d1       	vfmadd231pd %ymm1,%ymm0,%ymm2
  400ade:	c4 e2 f5 b8 c2       	vfmadd231pd %ymm2,%ymm1,%ymm0
  400ae3:	c4 e2 ed b8 c8       	vfmadd231pd %ymm0,%ymm2,%ymm1
  400ae8:	c4 e2 fd b8 d1       	vfmadd231pd %ymm1,%ymm0,%ymm2
  400aed:	c4 e2 f5 b8 c2       	vfmadd231pd %ymm2,%ymm1,%ymm0
  400af2:	c4 e2 ed b8 c8       	vfmadd231pd %ymm0,%ymm2,%ymm1
  400af7:	c4 e2 fd b8 d1       	vfmadd231pd %ymm1,%ymm0,%ymm2
  400afc:	c4 e2 f5 b8 c2       	vfmadd231pd %ymm2,%ymm1,%ymm0
  400b01:	c4 e2 ed b8 c8       	vfmadd231pd %ymm0,%ymm2,%ymm1
  400b06:	c4 e2 fd b8 d1       	vfmadd231pd %ymm1,%ymm0,%ymm2
  400b0b:	c4 e2 f5 b8 c2       	vfmadd231pd %ymm2,%ymm1,%ymm0
  400b10:	c4 e2 ed b8 c8       	vfmadd231pd %ymm0,%ymm2,%ymm1
  400b15:	c4 e2 fd b8 d1       	vfmadd231pd %ymm1,%ymm0,%ymm2
  400b1a:	c4 e2 f5 b8 c2       	vfmadd231pd %ymm2,%ymm1,%ymm0
  400b1f:	c4 e2 ed b8 c8       	vfmadd231pd %ymm0,%ymm2,%ymm1
  400b24:	c4 e2 fd b8 d1       	vfmadd231pd %ymm1,%ymm0,%ymm2
  400b29:	c4 e2 f5 b8 c2       	vfmadd231pd %ymm2,%ymm1,%ymm0
  400b2e:	c4 e2 ed b8 c8       	vfmadd231pd %ymm0,%ymm2,%ymm1
  400b33:	c4 e2 fd b8 d1       	vfmadd231pd %ymm1,%ymm0,%ymm2
  400b38:	c4 e2 f5 b8 c2       	vfmadd231pd %ymm2,%ymm1,%ymm0
  400b3d:	c4 e2 ed b8 c8       	vfmadd231pd %ymm0,%ymm2,%ymm1
  400b42:	c4 e2 fd b8 d1       	vfmadd231pd %ymm1,%ymm0,%ymm2
  400b47:	c4 e2 f5 b8 c2       	vfmadd231pd %ymm2,%ymm1,%ymm0
  400b4c:	c4 e2 ed b8 c8       	vfmadd231pd %ymm0,%ymm2,%ymm1
  400b51:	c4 e2 fd b8 d1       	vfmadd231pd %ymm1,%ymm0,%ymm2
  400b56:	c4 e2 f5 b8 c2       	vfmadd231pd %ymm2,%ymm1,%ymm0
  400b5b:	c4 e2 ed b8 c8       	vfmadd231pd %ymm0,%ymm2,%ymm1
  400b60:	c4 e2 fd b8 d1       	vfmadd231pd %ymm1,%ymm0,%ymm2
  400b65:	c4 e2 f5 b8 c2       	vfmadd231pd %ymm2,%ymm1,%ymm0
  400b6a:	c4 e2 ed b8 c8       	vfmadd231pd %ymm0,%ymm2,%ymm1
  400b6f:	c4 e2 fd b8 d1       	vfmadd231pd %ymm1,%ymm0,%ymm2
  400b74:	c4 e2 f5 b8 c2       	vfmadd231pd %ymm2,%ymm1,%ymm0
  400b79:	c4 e2 ed b8 c8       	vfmadd231pd %ymm0,%ymm2,%ymm1
  400b7e:	c4 e2 fd b8 d1       	vfmadd231pd %ymm1,%ymm0,%ymm2
  400b83:	c4 e2 f5 b8 c2       	vfmadd231pd %ymm2,%ymm1,%ymm0
  400b88:	c4 e2 ed b8 c8       	vfmadd231pd %ymm0,%ymm2,%ymm1
  400b8d:	c4 e2 fd b8 d1       	vfmadd231pd %ymm1,%ymm0,%ymm2
  400b92:	c4 e2 f5 b8 c2       	vfmadd231pd %ymm2,%ymm1,%ymm0
  400b97:	c4 e2 ed b8 c8       	vfmadd231pd %ymm0,%ymm2,%ymm1
  400b9c:	c4 e2 fd b8 d1       	vfmadd231pd %ymm1,%ymm0,%ymm2
  400ba1:	c4 e2 f5 b8 c2       	vfmadd231pd %ymm2,%ymm1,%ymm0
  400ba6:	c4 e2 ed b8 c8       	vfmadd231pd %ymm0,%ymm2,%ymm1
  400bab:	c4 e2 fd b8 d1       	vfmadd231pd %ymm1,%ymm0,%ymm2
  400bb0:	c4 e2 f5 b8 c2       	vfmadd231pd %ymm2,%ymm1,%ymm0
  400bb5:	c4 e2 ed b8 c8       	vfmadd231pd %ymm0,%ymm2,%ymm1
  400bba:	c4 e2 fd b8 d1       	vfmadd231pd %ymm1,%ymm0,%ymm2
  400bbf:	c4 e2 f5 b8 c2       	vfmadd231pd %ymm2,%ymm1,%ymm0
  400bc4:	c4 e2 ed b8 c8       	vfmadd231pd %ymm0,%ymm2,%ymm1
  400bc9:	c4 e2 fd b8 d1       	vfmadd231pd %ymm1,%ymm0,%ymm2
  400bce:	c4 e2 f5 b8 c2       	vfmadd231pd %ymm2,%ymm1,%ymm0
  400bd3:	c4 e2 ed b8 c8       	vfmadd231pd %ymm0,%ymm2,%ymm1
  400bd8:	c4 e2 fd b8 d1       	vfmadd231pd %ymm1,%ymm0,%ymm2
  400bdd:	c4 e2 f5 b8 c2       	vfmadd231pd %ymm2,%ymm1,%ymm0
  400be2:	c4 e2 ed b8 c8       	vfmadd231pd %ymm0,%ymm2,%ymm1
  400be7:	c4 e2 fd b8 d1       	vfmadd231pd %ymm1,%ymm0,%ymm2
  400bec:	c4 e2 f5 b8 c2       	vfmadd231pd %ymm2,%ymm1,%ymm0
  400bf1:	c4 e2 ed b8 c8       	vfmadd231pd %ymm0,%ymm2,%ymm1
  400bf6:	c4 e2 fd b8 d1       	vfmadd231pd %ymm1,%ymm0,%ymm2
  400bfb:	c4 e2 f5 b8 c2       	vfmadd231pd %ymm2,%ymm1,%ymm0
  400c00:	c4 e2 ed b8 c8       	vfmadd231pd %ymm0,%ymm2,%ymm1
  400c05:	c4 e2 fd b8 d1       	vfmadd231pd %ymm1,%ymm0,%ymm2
  400c0a:	c4 e2 f5 b8 c2       	vfmadd231pd %ymm2,%ymm1,%ymm0
  400c0f:	c4 e2 ed b8 c8       	vfmadd231pd %ymm0,%ymm2,%ymm1
  400c14:	c4 e2 fd b8 d1       	vfmadd231pd %ymm1,%ymm0,%ymm2
  400c19:	c4 e2 f5 b8 c2       	vfmadd231pd %ymm2,%ymm1,%ymm0
  400c1e:	c4 e2 ed b8 c8       	vfmadd231pd %ymm0,%ymm2,%ymm1
  400c23:	c4 e2 fd b8 d1       	vfmadd231pd %ymm1,%ymm0,%ymm2
  400c28:	c4 e2 f5 b8 c2       	vfmadd231pd %ymm2,%ymm1,%ymm0
  400c2d:	c4 e2 ed b8 c8       	vfmadd231pd %ymm0,%ymm2,%ymm1
  400c32:	c4 e2 fd b8 d1       	vfmadd231pd %ymm1,%ymm0,%ymm2
  400c37:	c4 e2 f5 b8 c2       	vfmadd231pd %ymm2,%ymm1,%ymm0
  400c3c:	c4 e2 ed b8 c8       	vfmadd231pd %ymm0,%ymm2,%ymm1
  400c41:	c4 e2 fd b8 d1       	vfmadd231pd %ymm1,%ymm0,%ymm2
  400c46:	c4 e2 f5 b8 c2       	vfmadd231pd %ymm2,%ymm1,%ymm0
  400c4b:	c4 e2 ed b8 c8       	vfmadd231pd %ymm0,%ymm2,%ymm1
  400c50:	c4 e2 fd b8 d1       	vfmadd231pd %ymm1,%ymm0,%ymm2
  400c55:	c4 e2 f5 b8 c2       	vfmadd231pd %ymm2,%ymm1,%ymm0
  400c5a:	c4 e2 ed b8 c8       	vfmadd231pd %ymm0,%ymm2,%ymm1
  400c5f:	c4 e2 fd b8 d1       	vfmadd231pd %ymm1,%ymm0,%ymm2
  400c64:	c4 e2 f5 b8 c2       	vfmadd231pd %ymm2,%ymm1,%ymm0
  400c69:	c4 e2 ed b8 c8       	vfmadd231pd %ymm0,%ymm2,%ymm1
  400c6e:	c4 e2 fd b8 d1       	vfmadd231pd %ymm1,%ymm0,%ymm2
  400c73:	c4 e2 f5 b8 c2       	vfmadd231pd %ymm2,%ymm1,%ymm0
  400c78:	c4 e2 ed b8 c8       	vfmadd231pd %ymm0,%ymm2,%ymm1
  400c7d:	c4 e2 fd b8 d1       	vfmadd231pd %ymm1,%ymm0,%ymm2
  400c82:	c4 e2 f5 b8 c2       	vfmadd231pd %ymm2,%ymm1,%ymm0
  400c87:	c4 e2 ed b8 c8       	vfmadd231pd %ymm0,%ymm2,%ymm1
  400c8c:	c4 e2 fd b8 d1       	vfmadd231pd %ymm1,%ymm0,%ymm2
  400c91:	c4 e2 f5 b8 c2       	vfmadd231pd %ymm2,%ymm1,%ymm0
  400c96:	c4 e2 ed b8 c8       	vfmadd231pd %ymm0,%ymm2,%ymm1
  400c9b:	c4 e2 fd b8 d1       	vfmadd231pd %ymm1,%ymm0,%ymm2
  400ca0:	c4 e2 f5 b8 c2       	vfmadd231pd %ymm2,%ymm1,%ymm0
  400ca5:	c4 e2 ed b8 c8       	vfmadd231pd %ymm0,%ymm2,%ymm1
  400caa:	c4 e2 fd b8 d1       	vfmadd231pd %ymm1,%ymm0,%ymm2
  400caf:	c4 e2 f5 b8 c2       	vfmadd231pd %ymm2,%ymm1,%ymm0
  400cb4:	c4 e2 ed b8 c8       	vfmadd231pd %ymm0,%ymm2,%ymm1
  400cb9:	c4 e2 fd b8 d1       	vfmadd231pd %ymm1,%ymm0,%ymm2
  400cbe:	c4 e2 f5 b8 c2       	vfmadd231pd %ymm2,%ymm1,%ymm0
  400cc3:	c4 e2 ed b8 c8       	vfmadd231pd %ymm0,%ymm2,%ymm1
  400cc8:	c4 e2 fd b8 d1       	vfmadd231pd %ymm1,%ymm0,%ymm2
  400ccd:	c4 e2 f5 b8 c2       	vfmadd231pd %ymm2,%ymm1,%ymm0
  400cd2:	c4 e2 ed b8 c8       	vfmadd231pd %ymm0,%ymm2,%ymm1
  400cd7:	c4 e2 fd b8 d1       	vfmadd231pd %ymm1,%ymm0,%ymm2
  400cdc:	c4 e2 f5 b8 c2       	vfmadd231pd %ymm2,%ymm1,%ymm0
  400ce1:	c4 e2 ed b8 c8       	vfmadd231pd %ymm0,%ymm2,%ymm1
  400ce6:	c4 e2 fd b8 d1       	vfmadd231pd %ymm1,%ymm0,%ymm2
  400ceb:	c4 e2 f5 b8 c2       	vfmadd231pd %ymm2,%ymm1,%ymm0
  400cf0:	c4 e2 ed b8 c8       	vfmadd231pd %ymm0,%ymm2,%ymm1
  400cf5:	c4 e2 fd b8 d1       	vfmadd231pd %ymm1,%ymm0,%ymm2
  400cfa:	c4 e2 f5 b8 c2       	vfmadd231pd %ymm2,%ymm1,%ymm0
  400cff:	c4 e2 ed b8 c8       	vfmadd231pd %ymm0,%ymm2,%ymm1
  400d04:	c4 e2 fd b8 d1       	vfmadd231pd %ymm1,%ymm0,%ymm2
  400d09:	c4 e2 f5 b8 c2       	vfmadd231pd %ymm2,%ymm1,%ymm0
  400d0e:	c4 e2 ed b8 c8       	vfmadd231pd %ymm0,%ymm2,%ymm1
  400d13:	c4 e2 fd b8 d1       	vfmadd231pd %ymm1,%ymm0,%ymm2
  400d18:	c4 e2 f5 b8 c2       	vfmadd231pd %ymm2,%ymm1,%ymm0
  400d1d:	c4 e2 ed b8 c8       	vfmadd231pd %ymm0,%ymm2,%ymm1
  400d22:	c4 e2 fd b8 d1       	vfmadd231pd %ymm1,%ymm0,%ymm2
  400d27:	c4 e2 f5 b8 c2       	vfmadd231pd %ymm2,%ymm1,%ymm0
  400d2c:	c4 e2 ed b8 c8       	vfmadd231pd %ymm0,%ymm2,%ymm1
  400d31:	c4 e2 fd b8 d1       	vfmadd231pd %ymm1,%ymm0,%ymm2
  400d36:	c4 e2 f5 b8 c2       	vfmadd231pd %ymm2,%ymm1,%ymm0
  400d3b:	c4 e2 ed b8 c8       	vfmadd231pd %ymm0,%ymm2,%ymm1
  400d40:	c4 e2 fd b8 d1       	vfmadd231pd %ymm1,%ymm0,%ymm2
  400d45:	c4 e2 f5 b8 c2       	vfmadd231pd %ymm2,%ymm1,%ymm0
  400d4a:	c4 e2 ed b8 c8       	vfmadd231pd %ymm0,%ymm2,%ymm1
  400d4f:	c4 e2 fd b8 d1       	vfmadd231pd %ymm1,%ymm0,%ymm2
  400d54:	c4 e2 f5 b8 c2       	vfmadd231pd %ymm2,%ymm1,%ymm0
  400d59:	c4 e2 ed b8 c8       	vfmadd231pd %ymm0,%ymm2,%ymm1
  400d5e:	c4 e2 fd b8 d1       	vfmadd231pd %ymm1,%ymm0,%ymm2
  400d63:	c4 e2 f5 b8 c2       	vfmadd231pd %ymm2,%ymm1,%ymm0
  400d68:	c4 e2 ed b8 c8       	vfmadd231pd %ymm0,%ymm2,%ymm1
  400d6d:	c4 e2 fd b8 d1       	vfmadd231pd %ymm1,%ymm0,%ymm2
  400d72:	c4 e2 f5 b8 c2       	vfmadd231pd %ymm2,%ymm1,%ymm0
  400d77:	c4 e2 ed b8 c8       	vfmadd231pd %ymm0,%ymm2,%ymm1
  400d7c:	c4 e2 fd b8 d1       	vfmadd231pd %ymm1,%ymm0,%ymm2
  400d81:	c4 e2 f5 b8 c2       	vfmadd231pd %ymm2,%ymm1,%ymm0
  400d86:	c4 e2 ed b8 c8       	vfmadd231pd %ymm0,%ymm2,%ymm1
  400d8b:	c4 e2 fd b8 d1       	vfmadd231pd %ymm1,%ymm0,%ymm2
  400d90:	c4 e2 f5 b8 c2       	vfmadd231pd %ymm2,%ymm1,%ymm0
  400d95:	c4 e2 ed b8 c8       	vfmadd231pd %ymm0,%ymm2,%ymm1
  400d9a:	c4 e2 fd b8 d1       	vfmadd231pd %ymm1,%ymm0,%ymm2
  400d9f:	c4 e2 f5 b8 c2       	vfmadd231pd %ymm2,%ymm1,%ymm0
  400da4:	c4 e2 ed b8 c8       	vfmadd231pd %ymm0,%ymm2,%ymm1
  400da9:	c4 e2 fd b8 d1       	vfmadd231pd %ymm1,%ymm0,%ymm2
  400dae:	c4 e2 f5 b8 c2       	vfmadd231pd %ymm2,%ymm1,%ymm0
  400db3:	c4 e2 ed b8 c8       	vfmadd231pd %ymm0,%ymm2,%ymm1
  400db8:	c4 e2 fd b8 d1       	vfmadd231pd %ymm1,%ymm0,%ymm2
  400dbd:	c4 e2 f5 b8 c2       	vfmadd231pd %ymm2,%ymm1,%ymm0
  400dc2:	c4 e2 ed b8 c8       	vfmadd231pd %ymm0,%ymm2,%ymm1
  400dc7:	c4 e2 fd b8 d1       	vfmadd231pd %ymm1,%ymm0,%ymm2
  400dcc:	c4 e2 f5 b8 c2       	vfmadd231pd %ymm2,%ymm1,%ymm0
  400dd1:	c4 e2 ed b8 c8       	vfmadd231pd %ymm0,%ymm2,%ymm1
  400dd6:	c4 e2 fd b8 d1       	vfmadd231pd %ymm1,%ymm0,%ymm2
  400ddb:	c4 e2 f5 b8 c2       	vfmadd231pd %ymm2,%ymm1,%ymm0
  400de0:	c4 e2 ed b8 c8       	vfmadd231pd %ymm0,%ymm2,%ymm1
  400de5:	c4 e2 fd b8 d1       	vfmadd231pd %ymm1,%ymm0,%ymm2
  400dea:	c4 e2 f5 b8 c2       	vfmadd231pd %ymm2,%ymm1,%ymm0
  400def:	c4 e2 ed b8 c8       	vfmadd231pd %ymm0,%ymm2,%ymm1
  400df4:	c4 e2 fd b8 d1       	vfmadd231pd %ymm1,%ymm0,%ymm2
  400df9:	c4 e2 f5 b8 c2       	vfmadd231pd %ymm2,%ymm1,%ymm0
  400dfe:	c4 e2 ed b8 c8       	vfmadd231pd %ymm0,%ymm2,%ymm1
  400e03:	c4 e2 fd b8 d1       	vfmadd231pd %ymm1,%ymm0,%ymm2
  400e08:	c4 e2 f5 b8 c2       	vfmadd231pd %ymm2,%ymm1,%ymm0
  400e0d:	c4 e2 ed b8 c8       	vfmadd231pd %ymm0,%ymm2,%ymm1
  400e12:	c4 e2 fd b8 d1       	vfmadd231pd %ymm1,%ymm0,%ymm2
  400e17:	c4 e2 f5 b8 c2       	vfmadd231pd %ymm2,%ymm1,%ymm0
  400e1c:	c4 e2 ed b8 c8       	vfmadd231pd %ymm0,%ymm2,%ymm1
  400e21:	c4 e2 fd b8 d1       	vfmadd231pd %ymm1,%ymm0,%ymm2
  400e26:	c4 e2 f5 b8 c2       	vfmadd231pd %ymm2,%ymm1,%ymm0
  400e2b:	c4 e2 ed b8 c8       	vfmadd231pd %ymm0,%ymm2,%ymm1
  400e30:	c4 e2 fd b8 d1       	vfmadd231pd %ymm1,%ymm0,%ymm2
  400e35:	c4 e2 f5 b8 c2       	vfmadd231pd %ymm2,%ymm1,%ymm0
  400e3a:	c4 e2 ed b8 c8       	vfmadd231pd %ymm0,%ymm2,%ymm1
  400e3f:	c4 e2 fd b8 d1       	vfmadd231pd %ymm1,%ymm0,%ymm2
  400e44:	c4 e2 f5 b8 c2       	vfmadd231pd %ymm2,%ymm1,%ymm0
  400e49:	c4 e2 ed b8 c8       	vfmadd231pd %ymm0,%ymm2,%ymm1
  400e4e:	c4 e2 fd b8 d1       	vfmadd231pd %ymm1,%ymm0,%ymm2
  400e53:	c4 e2 f5 b8 c2       	vfmadd231pd %ymm2,%ymm1,%ymm0
  400e58:	c4 e2 ed b8 c8       	vfmadd231pd %ymm0,%ymm2,%ymm1
  400e5d:	c4 e2 fd b8 d1       	vfmadd231pd %ymm1,%ymm0,%ymm2
  400e62:	c4 e2 f5 b8 c2       	vfmadd231pd %ymm2,%ymm1,%ymm0
  400e67:	c4 e2 ed b8 c8       	vfmadd231pd %ymm0,%ymm2,%ymm1
  400e6c:	c4 e2 fd b8 d1       	vfmadd231pd %ymm1,%ymm0,%ymm2
  400e71:	c4 e2 f5 b8 c2       	vfmadd231pd %ymm2,%ymm1,%ymm0
  400e76:	c4 e2 ed b8 c8       	vfmadd231pd %ymm0,%ymm2,%ymm1
  400e7b:	c4 e2 fd b8 d1       	vfmadd231pd %ymm1,%ymm0,%ymm2
  400e80:	c4 e2 f5 b8 c2       	vfmadd231pd %ymm2,%ymm1,%ymm0
  400e85:	c4 e2 ed b8 c8       	vfmadd231pd %ymm0,%ymm2,%ymm1
  400e8a:	c4 e2 fd b8 d1       	vfmadd231pd %ymm1,%ymm0,%ymm2
  400e8f:	c4 e2 f5 b8 c2       	vfmadd231pd %ymm2,%ymm1,%ymm0
  400e94:	c4 e2 ed b8 c8       	vfmadd231pd %ymm0,%ymm2,%ymm1
  400e99:	c4 e2 fd b8 d1       	vfmadd231pd %ymm1,%ymm0,%ymm2
  400e9e:	c4 e2 f5 b8 c2       	vfmadd231pd %ymm2,%ymm1,%ymm0
  400ea3:	c4 e2 ed b8 c8       	vfmadd231pd %ymm0,%ymm2,%ymm1
  400ea8:	c4 e2 fd b8 d1       	vfmadd231pd %ymm1,%ymm0,%ymm2
  400ead:	c4 e2 f5 b8 c2       	vfmadd231pd %ymm2,%ymm1,%ymm0
  400eb2:	c4 e2 ed b8 c8       	vfmadd231pd %ymm0,%ymm2,%ymm1
  400eb7:	c4 e2 fd b8 d1       	vfmadd231pd %ymm1,%ymm0,%ymm2
  400ebc:	c4 e2 f5 b8 c2       	vfmadd231pd %ymm2,%ymm1,%ymm0
  400ec1:	c4 e2 ed b8 c8       	vfmadd231pd %ymm0,%ymm2,%ymm1
  400ec6:	c4 e2 fd b8 d1       	vfmadd231pd %ymm1,%ymm0,%ymm2
  400ecb:	c4 e2 f5 b8 c2       	vfmadd231pd %ymm2,%ymm1,%ymm0
  400ed0:	c4 e2 ed b8 c8       	vfmadd231pd %ymm0,%ymm2,%ymm1
  400ed5:	c4 e2 fd b8 d1       	vfmadd231pd %ymm1,%ymm0,%ymm2
  400eda:	c4 e2 f5 b8 c2       	vfmadd231pd %ymm2,%ymm1,%ymm0
  400edf:	c4 e2 ed b8 c8       	vfmadd231pd %ymm0,%ymm2,%ymm1
  400ee4:	c4 e2 fd b8 d1       	vfmadd231pd %ymm1,%ymm0,%ymm2
  400ee9:	c4 e2 f5 b8 c2       	vfmadd231pd %ymm2,%ymm1,%ymm0
  400eee:	c4 e2 ed b8 c8       	vfmadd231pd %ymm0,%ymm2,%ymm1
  400ef3:	c4 e2 fd b8 d1       	vfmadd231pd %ymm1,%ymm0,%ymm2
  400ef8:	c4 e2 f5 b8 c2       	vfmadd231pd %ymm2,%ymm1,%ymm0
  400efd:	c4 e2 ed b8 c8       	vfmadd231pd %ymm0,%ymm2,%ymm1
  400f02:	c4 e2 fd b8 d1       	vfmadd231pd %ymm1,%ymm0,%ymm2
  400f07:	c4 e2 f5 b8 c2       	vfmadd231pd %ymm2,%ymm1,%ymm0
  400f0c:	c4 e2 ed b8 c8       	vfmadd231pd %ymm0,%ymm2,%ymm1
  400f11:	c4 e2 fd b8 d1       	vfmadd231pd %ymm1,%ymm0,%ymm2
  400f16:	c4 e2 f5 b8 c2       	vfmadd231pd %ymm2,%ymm1,%ymm0
  400f1b:	c4 e2 ed b8 c8       	vfmadd231pd %ymm0,%ymm2,%ymm1
  400f20:	c4 e2 fd b8 d1       	vfmadd231pd %ymm1,%ymm0,%ymm2
  400f25:	c4 e2 f5 b8 c2       	vfmadd231pd %ymm2,%ymm1,%ymm0
  400f2a:	c4 e2 ed b8 c8       	vfmadd231pd %ymm0,%ymm2,%ymm1
  400f2f:	c4 e2 fd b8 d1       	vfmadd231pd %ymm1,%ymm0,%ymm2
  400f34:	c4 e2 f5 b8 c2       	vfmadd231pd %ymm2,%ymm1,%ymm0
  400f39:	c4 e2 ed b8 c8       	vfmadd231pd %ymm0,%ymm2,%ymm1
  400f3e:	c4 e2 fd b8 d1       	vfmadd231pd %ymm1,%ymm0,%ymm2
  400f43:	c4 e2 f5 b8 c2       	vfmadd231pd %ymm2,%ymm1,%ymm0
  400f48:	c4 e2 ed b8 c8       	vfmadd231pd %ymm0,%ymm2,%ymm1
  400f4d:	c4 e2 fd b8 d1       	vfmadd231pd %ymm1,%ymm0,%ymm2
  400f52:	c4 e2 f5 b8 c2       	vfmadd231pd %ymm2,%ymm1,%ymm0
  400f57:	c4 e2 ed b8 c8       	vfmadd231pd %ymm0,%ymm2,%ymm1
  400f5c:	c4 e2 fd b8 d1       	vfmadd231pd %ymm1,%ymm0,%ymm2
  400f61:	c4 e2 f5 b8 c2       	vfmadd231pd %ymm2,%ymm1,%ymm0
  400f66:	c4 e2 ed b8 c8       	vfmadd231pd %ymm0,%ymm2,%ymm1
  400f6b:	c4 e2 fd b8 d1       	vfmadd231pd %ymm1,%ymm0,%ymm2
  400f70:	c4 e2 f5 b8 c2       	vfmadd231pd %ymm2,%ymm1,%ymm0
  400f75:	c4 e2 ed b8 c8       	vfmadd231pd %ymm0,%ymm2,%ymm1
  400f7a:	c4 e2 fd b8 d1       	vfmadd231pd %ymm1,%ymm0,%ymm2
  400f7f:	c4 e2 f5 b8 c2       	vfmadd231pd %ymm2,%ymm1,%ymm0
  400f84:	c4 e2 ed b8 c8       	vfmadd231pd %ymm0,%ymm2,%ymm1
  400f89:	c4 e2 fd b8 d1       	vfmadd231pd %ymm1,%ymm0,%ymm2
  400f8e:	c4 e2 f5 b8 c2       	vfmadd231pd %ymm2,%ymm1,%ymm0
  400f93:	c4 e2 ed b8 c8       	vfmadd231pd %ymm0,%ymm2,%ymm1
  400f98:	c4 e2 fd b8 d1       	vfmadd231pd %ymm1,%ymm0,%ymm2
  400f9d:	c4 e2 f5 b8 c2       	vfmadd231pd %ymm2,%ymm1,%ymm0
  400fa2:	c4 e2 ed b8 c8       	vfmadd231pd %ymm0,%ymm2,%ymm1
  400fa7:	c4 e2 fd b8 d1       	vfmadd231pd %ymm1,%ymm0,%ymm2
  400fac:	c4 e2 f5 b8 c2       	vfmadd231pd %ymm2,%ymm1,%ymm0
  400fb1:	c4 e2 ed b8 c8       	vfmadd231pd %ymm0,%ymm2,%ymm1
  400fb6:	c4 e2 fd b8 d1       	vfmadd231pd %ymm1,%ymm0,%ymm2
  400fbb:	c4 e2 f5 b8 c2       	vfmadd231pd %ymm2,%ymm1,%ymm0
  400fc0:	c4 e2 ed b8 c8       	vfmadd231pd %ymm0,%ymm2,%ymm1
  400fc5:	c4 e2 fd b8 d1       	vfmadd231pd %ymm1,%ymm0,%ymm2
  400fca:	c4 e2 f5 b8 c2       	vfmadd231pd %ymm2,%ymm1,%ymm0
  400fcf:	c4 e2 ed b8 c8       	vfmadd231pd %ymm0,%ymm2,%ymm1
  400fd4:	c4 e2 fd b8 d1       	vfmadd231pd %ymm1,%ymm0,%ymm2
  400fd9:	c4 e2 f5 b8 c2       	vfmadd231pd %ymm2,%ymm1,%ymm0
  400fde:	c4 e2 ed b8 c8       	vfmadd231pd %ymm0,%ymm2,%ymm1
  400fe3:	c4 e2 fd b8 d1       	vfmadd231pd %ymm1,%ymm0,%ymm2
  400fe8:	c4 e2 f5 b8 c2       	vfmadd231pd %ymm2,%ymm1,%ymm0
  400fed:	c4 e2 ed b8 c8       	vfmadd231pd %ymm0,%ymm2,%ymm1
  400ff2:	c4 e2 fd b8 d1       	vfmadd231pd %ymm1,%ymm0,%ymm2
  400ff7:	c4 e2 f5 b8 c2       	vfmadd231pd %ymm2,%ymm1,%ymm0
  400ffc:	c4 e2 ed b8 c8       	vfmadd231pd %ymm0,%ymm2,%ymm1
  401001:	c4 e2 fd b8 d1       	vfmadd231pd %ymm1,%ymm0,%ymm2
  401006:	c4 e2 f5 b8 c2       	vfmadd231pd %ymm2,%ymm1,%ymm0
  40100b:	c4 e2 ed b8 c8       	vfmadd231pd %ymm0,%ymm2,%ymm1
  401010:	c4 e2 fd b8 d1       	vfmadd231pd %ymm1,%ymm0,%ymm2
  401015:	c4 e2 f5 b8 c2       	vfmadd231pd %ymm2,%ymm1,%ymm0
  40101a:	c4 e2 ed b8 c8       	vfmadd231pd %ymm0,%ymm2,%ymm1
  40101f:	c4 e2 fd b8 d1       	vfmadd231pd %ymm1,%ymm0,%ymm2
  401024:	c4 e2 f5 b8 c2       	vfmadd231pd %ymm2,%ymm1,%ymm0
  401029:	c4 e2 ed b8 c8       	vfmadd231pd %ymm0,%ymm2,%ymm1
  40102e:	c4 e2 fd b8 d1       	vfmadd231pd %ymm1,%ymm0,%ymm2
  401033:	c4 e2 f5 b8 c2       	vfmadd231pd %ymm2,%ymm1,%ymm0
  401038:	c4 e2 ed b8 c8       	vfmadd231pd %ymm0,%ymm2,%ymm1
  40103d:	c4 e2 fd b8 d1       	vfmadd231pd %ymm1,%ymm0,%ymm2
  401042:	c4 e2 f5 b8 c2       	vfmadd231pd %ymm2,%ymm1,%ymm0
  401047:	c4 e2 ed b8 c8       	vfmadd231pd %ymm0,%ymm2,%ymm1
  40104c:	c4 e2 fd b8 d1       	vfmadd231pd %ymm1,%ymm0,%ymm2
  401051:	c4 e2 f5 b8 c2       	vfmadd231pd %ymm2,%ymm1,%ymm0
  401056:	c4 e2 ed b8 c8       	vfmadd231pd %ymm0,%ymm2,%ymm1
  40105b:	c4 e2 fd b8 d1       	vfmadd231pd %ymm1,%ymm0,%ymm2
  401060:	c4 e2 f5 b8 c2       	vfmadd231pd %ymm2,%ymm1,%ymm0
  401065:	c4 e2 ed b8 c8       	vfmadd231pd %ymm0,%ymm2,%ymm1
  40106a:	c4 e2 fd b8 d1       	vfmadd231pd %ymm1,%ymm0,%ymm2
  40106f:	c4 e2 f5 b8 c2       	vfmadd231pd %ymm2,%ymm1,%ymm0
  401074:	c4 e2 ed b8 c8       	vfmadd231pd %ymm0,%ymm2,%ymm1
  401079:	c4 e2 fd b8 d1       	vfmadd231pd %ymm1,%ymm0,%ymm2
  40107e:	c4 e2 f5 b8 c2       	vfmadd231pd %ymm2,%ymm1,%ymm0
  401083:	c4 e2 ed b8 c8       	vfmadd231pd %ymm0,%ymm2,%ymm1
  401088:	c4 e2 fd b8 d1       	vfmadd231pd %ymm1,%ymm0,%ymm2
  40108d:	c4 e2 f5 b8 c2       	vfmadd231pd %ymm2,%ymm1,%ymm0
  401092:	c4 e2 ed b8 c8       	vfmadd231pd %ymm0,%ymm2,%ymm1
  401097:	c4 e2 fd b8 d1       	vfmadd231pd %ymm1,%ymm0,%ymm2
  40109c:	c4 e2 f5 b8 c2       	vfmadd231pd %ymm2,%ymm1,%ymm0
  4010a1:	c4 e2 ed b8 c8       	vfmadd231pd %ymm0,%ymm2,%ymm1
  4010a6:	c4 e2 fd b8 d1       	vfmadd231pd %ymm1,%ymm0,%ymm2
  4010ab:	c4 e2 f5 b8 c2       	vfmadd231pd %ymm2,%ymm1,%ymm0
  4010b0:	c4 e2 ed b8 c8       	vfmadd231pd %ymm0,%ymm2,%ymm1
  4010b5:	c4 e2 fd b8 d1       	vfmadd231pd %ymm1,%ymm0,%ymm2
  4010ba:	c4 e2 f5 b8 c2       	vfmadd231pd %ymm2,%ymm1,%ymm0
  4010bf:	c4 e2 ed b8 c8       	vfmadd231pd %ymm0,%ymm2,%ymm1
  4010c4:	c4 e2 fd b8 d1       	vfmadd231pd %ymm1,%ymm0,%ymm2
  4010c9:	c4 e2 f5 b8 c2       	vfmadd231pd %ymm2,%ymm1,%ymm0
  4010ce:	c4 e2 ed b8 c8       	vfmadd231pd %ymm0,%ymm2,%ymm1
  4010d3:	c4 e2 fd b8 d1       	vfmadd231pd %ymm1,%ymm0,%ymm2
  4010d8:	c4 e2 f5 b8 c2       	vfmadd231pd %ymm2,%ymm1,%ymm0
  4010dd:	c4 e2 ed b8 c8       	vfmadd231pd %ymm0,%ymm2,%ymm1
  4010e2:	c4 e2 fd b8 d1       	vfmadd231pd %ymm1,%ymm0,%ymm2
  4010e7:	c4 e2 f5 b8 c2       	vfmadd231pd %ymm2,%ymm1,%ymm0
  4010ec:	c4 e2 ed b8 c8       	vfmadd231pd %ymm0,%ymm2,%ymm1
  4010f1:	c4 e2 fd b8 d1       	vfmadd231pd %ymm1,%ymm0,%ymm2
  4010f6:	c4 e2 f5 b8 c2       	vfmadd231pd %ymm2,%ymm1,%ymm0
  4010fb:	c4 e2 ed b8 c8       	vfmadd231pd %ymm0,%ymm2,%ymm1
  401100:	c4 e2 fd b8 d1       	vfmadd231pd %ymm1,%ymm0,%ymm2
  401105:	c4 e2 f5 b8 c2       	vfmadd231pd %ymm2,%ymm1,%ymm0
  40110a:	c4 e2 ed b8 c8       	vfmadd231pd %ymm0,%ymm2,%ymm1
  40110f:	c4 e2 fd b8 d1       	vfmadd231pd %ymm1,%ymm0,%ymm2
  401114:	c4 e2 f5 b8 c2       	vfmadd231pd %ymm2,%ymm1,%ymm0
  401119:	c4 e2 ed b8 c8       	vfmadd231pd %ymm0,%ymm2,%ymm1
  40111e:	c4 e2 fd b8 d1       	vfmadd231pd %ymm1,%ymm0,%ymm2
  401123:	c4 e2 f5 b8 c2       	vfmadd231pd %ymm2,%ymm1,%ymm0
  401128:	c4 e2 ed b8 c8       	vfmadd231pd %ymm0,%ymm2,%ymm1
  40112d:	c4 e2 fd b8 d1       	vfmadd231pd %ymm1,%ymm0,%ymm2
  401132:	c4 e2 f5 b8 c2       	vfmadd231pd %ymm2,%ymm1,%ymm0
  401137:	c4 e2 ed b8 c8       	vfmadd231pd %ymm0,%ymm2,%ymm1
  40113c:	c4 e2 fd b8 d1       	vfmadd231pd %ymm1,%ymm0,%ymm2
  401141:	c4 e2 f5 b8 c2       	vfmadd231pd %ymm2,%ymm1,%ymm0
  401146:	c4 e2 ed b8 c8       	vfmadd231pd %ymm0,%ymm2,%ymm1
  40114b:	c4 e2 fd b8 d1       	vfmadd231pd %ymm1,%ymm0,%ymm2
  401150:	c4 e2 f5 b8 c2       	vfmadd231pd %ymm2,%ymm1,%ymm0
  401155:	c4 e2 ed b8 c8       	vfmadd231pd %ymm0,%ymm2,%ymm1
  40115a:	c4 e2 fd b8 d1       	vfmadd231pd %ymm1,%ymm0,%ymm2
  40115f:	c4 e2 f5 b8 c2       	vfmadd231pd %ymm2,%ymm1,%ymm0
  401164:	c4 e2 ed b8 c8       	vfmadd231pd %ymm0,%ymm2,%ymm1
  401169:	c4 e2 fd b8 d1       	vfmadd231pd %ymm1,%ymm0,%ymm2
  40116e:	c4 e2 f5 b8 c2       	vfmadd231pd %ymm2,%ymm1,%ymm0
  401173:	c4 e2 ed b8 c8       	vfmadd231pd %ymm0,%ymm2,%ymm1
  401178:	c4 e2 fd b8 d1       	vfmadd231pd %ymm1,%ymm0,%ymm2
  40117d:	c4 e2 f5 b8 c2       	vfmadd231pd %ymm2,%ymm1,%ymm0
  401182:	c4 e2 ed b8 c8       	vfmadd231pd %ymm0,%ymm2,%ymm1
  401187:	c4 e2 fd b8 d1       	vfmadd231pd %ymm1,%ymm0,%ymm2
  40118c:	c4 e2 f5 b8 c2       	vfmadd231pd %ymm2,%ymm1,%ymm0
  401191:	c4 e2 ed b8 c8       	vfmadd231pd %ymm0,%ymm2,%ymm1
  401196:	c4 e2 fd b8 d1       	vfmadd231pd %ymm1,%ymm0,%ymm2
  40119b:	c4 e2 f5 b8 c2       	vfmadd231pd %ymm2,%ymm1,%ymm0
  4011a0:	c4 e2 ed b8 c8       	vfmadd231pd %ymm0,%ymm2,%ymm1
  4011a5:	c4 e2 fd b8 d1       	vfmadd231pd %ymm1,%ymm0,%ymm2
  4011aa:	c4 e2 f5 b8 c2       	vfmadd231pd %ymm2,%ymm1,%ymm0
  4011af:	c4 e2 ed b8 c8       	vfmadd231pd %ymm0,%ymm2,%ymm1
  4011b4:	c4 e2 fd b8 d1       	vfmadd231pd %ymm1,%ymm0,%ymm2
  4011b9:	c4 e2 f5 b8 c2       	vfmadd231pd %ymm2,%ymm1,%ymm0
  4011be:	c4 e2 ed b8 c8       	vfmadd231pd %ymm0,%ymm2,%ymm1
  4011c3:	c4 e2 fd b8 d1       	vfmadd231pd %ymm1,%ymm0,%ymm2
  4011c8:	c4 e2 f5 b8 c2       	vfmadd231pd %ymm2,%ymm1,%ymm0
  4011cd:	c4 e2 ed b8 c8       	vfmadd231pd %ymm0,%ymm2,%ymm1
  4011d2:	c4 e2 fd b8 d1       	vfmadd231pd %ymm1,%ymm0,%ymm2
  4011d7:	c4 e2 f5 b8 c2       	vfmadd231pd %ymm2,%ymm1,%ymm0
  4011dc:	c4 e2 ed b8 c8       	vfmadd231pd %ymm0,%ymm2,%ymm1
  4011e1:	c4 e2 fd b8 d1       	vfmadd231pd %ymm1,%ymm0,%ymm2
  4011e6:	c4 e2 f5 b8 c2       	vfmadd231pd %ymm2,%ymm1,%ymm0
  4011eb:	c4 e2 ed b8 c8       	vfmadd231pd %ymm0,%ymm2,%ymm1
  4011f0:	c4 e2 fd b8 d1       	vfmadd231pd %ymm1,%ymm0,%ymm2
  4011f5:	c4 e2 f5 b8 c2       	vfmadd231pd %ymm2,%ymm1,%ymm0
  4011fa:	c4 e2 ed b8 c8       	vfmadd231pd %ymm0,%ymm2,%ymm1
  4011ff:	c4 e2 fd b8 d1       	vfmadd231pd %ymm1,%ymm0,%ymm2
  401204:	c4 e2 f5 b8 c2       	vfmadd231pd %ymm2,%ymm1,%ymm0
  401209:	c4 e2 ed b8 c8       	vfmadd231pd %ymm0,%ymm2,%ymm1
  40120e:	c4 e2 fd b8 d1       	vfmadd231pd %ymm1,%ymm0,%ymm2
  401213:	c4 e2 f5 b8 c2       	vfmadd231pd %ymm2,%ymm1,%ymm0
  401218:	c4 e2 ed b8 c8       	vfmadd231pd %ymm0,%ymm2,%ymm1
  40121d:	c4 e2 fd b8 d1       	vfmadd231pd %ymm1,%ymm0,%ymm2
  401222:	c4 e2 f5 b8 c2       	vfmadd231pd %ymm2,%ymm1,%ymm0
  401227:	c4 e2 ed b8 c8       	vfmadd231pd %ymm0,%ymm2,%ymm1
  40122c:	c4 e2 fd b8 d1       	vfmadd231pd %ymm1,%ymm0,%ymm2
  401231:	c4 e2 f5 b8 c2       	vfmadd231pd %ymm2,%ymm1,%ymm0
  401236:	c4 e2 ed b8 c8       	vfmadd231pd %ymm0,%ymm2,%ymm1
  40123b:	c4 e2 fd b8 d1       	vfmadd231pd %ymm1,%ymm0,%ymm2
  401240:	c4 e2 f5 b8 c2       	vfmadd231pd %ymm2,%ymm1,%ymm0
  401245:	c4 e2 ed b8 c8       	vfmadd231pd %ymm0,%ymm2,%ymm1
  40124a:	c4 e2 fd b8 d1       	vfmadd231pd %ymm1,%ymm0,%ymm2
  40124f:	c4 e2 f5 b8 c2       	vfmadd231pd %ymm2,%ymm1,%ymm0
  401254:	c4 e2 ed b8 c8       	vfmadd231pd %ymm0,%ymm2,%ymm1
  401259:	c4 e2 fd b8 d1       	vfmadd231pd %ymm1,%ymm0,%ymm2
  40125e:	c4 e2 f5 b8 c2       	vfmadd231pd %ymm2,%ymm1,%ymm0
  401263:	c4 e2 ed b8 c8       	vfmadd231pd %ymm0,%ymm2,%ymm1
  401268:	c4 e2 fd b8 d1       	vfmadd231pd %ymm1,%ymm0,%ymm2
  40126d:	c4 e2 f5 b8 c2       	vfmadd231pd %ymm2,%ymm1,%ymm0
  401272:	c4 e2 ed b8 c8       	vfmadd231pd %ymm0,%ymm2,%ymm1
  401277:	c4 e2 fd b8 d1       	vfmadd231pd %ymm1,%ymm0,%ymm2
  40127c:	c4 e2 f5 b8 c2       	vfmadd231pd %ymm2,%ymm1,%ymm0
  401281:	c4 e2 ed b8 c8       	vfmadd231pd %ymm0,%ymm2,%ymm1
  401286:	c4 e2 fd b8 d1       	vfmadd231pd %ymm1,%ymm0,%ymm2
  40128b:	c4 e2 f5 b8 c2       	vfmadd231pd %ymm2,%ymm1,%ymm0
  401290:	c4 e2 ed b8 c8       	vfmadd231pd %ymm0,%ymm2,%ymm1
  401295:	c4 e2 fd b8 d1       	vfmadd231pd %ymm1,%ymm0,%ymm2
  40129a:	c4 e2 f5 b8 c2       	vfmadd231pd %ymm2,%ymm1,%ymm0
  40129f:	c4 e2 ed b8 c8       	vfmadd231pd %ymm0,%ymm2,%ymm1
  4012a4:	c4 e2 fd b8 d1       	vfmadd231pd %ymm1,%ymm0,%ymm2
  4012a9:	c4 e2 f5 b8 c2       	vfmadd231pd %ymm2,%ymm1,%ymm0
  4012ae:	c4 e2 ed b8 c8       	vfmadd231pd %ymm0,%ymm2,%ymm1
  4012b3:	c4 e2 fd b8 d1       	vfmadd231pd %ymm1,%ymm0,%ymm2
  4012b8:	c4 e2 f5 b8 c2       	vfmadd231pd %ymm2,%ymm1,%ymm0
  4012bd:	c4 e2 ed b8 c8       	vfmadd231pd %ymm0,%ymm2,%ymm1
  4012c2:	c4 e2 fd b8 d1       	vfmadd231pd %ymm1,%ymm0,%ymm2
  4012c7:	c4 e2 f5 b8 c2       	vfmadd231pd %ymm2,%ymm1,%ymm0
  4012cc:	c4 e2 ed b8 c8       	vfmadd231pd %ymm0,%ymm2,%ymm1
  4012d1:	c4 e2 fd b8 d1       	vfmadd231pd %ymm1,%ymm0,%ymm2
  4012d6:	c4 e2 f5 b8 c2       	vfmadd231pd %ymm2,%ymm1,%ymm0
  4012db:	c4 e2 ed b8 c8       	vfmadd231pd %ymm0,%ymm2,%ymm1
  4012e0:	c4 e2 fd b8 d1       	vfmadd231pd %ymm1,%ymm0,%ymm2
  4012e5:	c4 e2 f5 b8 c2       	vfmadd231pd %ymm2,%ymm1,%ymm0
  4012ea:	c4 e2 ed b8 c8       	vfmadd231pd %ymm0,%ymm2,%ymm1
  4012ef:	c4 e2 fd b8 d1       	vfmadd231pd %ymm1,%ymm0,%ymm2
  4012f4:	c4 e2 f5 b8 c2       	vfmadd231pd %ymm2,%ymm1,%ymm0
  4012f9:	c4 e2 ed b8 c8       	vfmadd231pd %ymm0,%ymm2,%ymm1
  4012fe:	c4 e2 fd b8 d1       	vfmadd231pd %ymm1,%ymm0,%ymm2
  401303:	c4 e2 f5 b8 c2       	vfmadd231pd %ymm2,%ymm1,%ymm0
  401308:	c4 e2 ed b8 c8       	vfmadd231pd %ymm0,%ymm2,%ymm1
  40130d:	c4 e2 fd b8 d1       	vfmadd231pd %ymm1,%ymm0,%ymm2
  401312:	c4 e2 f5 b8 c2       	vfmadd231pd %ymm2,%ymm1,%ymm0
  401317:	c4 e2 ed b8 c8       	vfmadd231pd %ymm0,%ymm2,%ymm1
  40131c:	c4 e2 fd b8 d1       	vfmadd231pd %ymm1,%ymm0,%ymm2
  401321:	c4 e2 f5 b8 c2       	vfmadd231pd %ymm2,%ymm1,%ymm0
  401326:	c4 e2 ed b8 c8       	vfmadd231pd %ymm0,%ymm2,%ymm1
  40132b:	c4 e2 fd b8 d1       	vfmadd231pd %ymm1,%ymm0,%ymm2
  401330:	c4 e2 f5 b8 c2       	vfmadd231pd %ymm2,%ymm1,%ymm0
  401335:	c4 e2 ed b8 c8       	vfmadd231pd %ymm0,%ymm2,%ymm1
  40133a:	c4 e2 fd b8 d1       	vfmadd231pd %ymm1,%ymm0,%ymm2
  40133f:	c4 e2 f5 b8 c2       	vfmadd231pd %ymm2,%ymm1,%ymm0
  401344:	c4 e2 ed b8 c8       	vfmadd231pd %ymm0,%ymm2,%ymm1
  401349:	c4 e2 fd b8 d1       	vfmadd231pd %ymm1,%ymm0,%ymm2
  40134e:	c4 e2 f5 b8 c2       	vfmadd231pd %ymm2,%ymm1,%ymm0
  401353:	c4 e2 ed b8 c8       	vfmadd231pd %ymm0,%ymm2,%ymm1
  401358:	c4 e2 fd b8 d1       	vfmadd231pd %ymm1,%ymm0,%ymm2
  40135d:	c4 e2 f5 b8 c2       	vfmadd231pd %ymm2,%ymm1,%ymm0
  401362:	c4 e2 ed b8 c8       	vfmadd231pd %ymm0,%ymm2,%ymm1
  401367:	c4 e2 fd b8 d1       	vfmadd231pd %ymm1,%ymm0,%ymm2
  40136c:	c4 e2 f5 b8 c2       	vfmadd231pd %ymm2,%ymm1,%ymm0
  401371:	c4 e2 ed b8 c8       	vfmadd231pd %ymm0,%ymm2,%ymm1
  401376:	c4 e2 fd b8 d1       	vfmadd231pd %ymm1,%ymm0,%ymm2
  40137b:	c4 e2 f5 b8 c2       	vfmadd231pd %ymm2,%ymm1,%ymm0
  401380:	c4 e2 ed b8 c8       	vfmadd231pd %ymm0,%ymm2,%ymm1
  401385:	c4 e2 fd b8 d1       	vfmadd231pd %ymm1,%ymm0,%ymm2
  40138a:	c4 e2 f5 b8 c2       	vfmadd231pd %ymm2,%ymm1,%ymm0
  40138f:	c4 e2 ed b8 c8       	vfmadd231pd %ymm0,%ymm2,%ymm1
  401394:	c4 e2 fd b8 d1       	vfmadd231pd %ymm1,%ymm0,%ymm2
  401399:	c4 e2 f5 b8 c2       	vfmadd231pd %ymm2,%ymm1,%ymm0
  40139e:	c4 e2 ed b8 c8       	vfmadd231pd %ymm0,%ymm2,%ymm1
  4013a3:	c4 e2 fd b8 d1       	vfmadd231pd %ymm1,%ymm0,%ymm2
  4013a8:	c4 e2 f5 b8 c2       	vfmadd231pd %ymm2,%ymm1,%ymm0
  4013ad:	c4 e2 ed b8 c8       	vfmadd231pd %ymm0,%ymm2,%ymm1
  4013b2:	c4 e2 fd b8 d1       	vfmadd231pd %ymm1,%ymm0,%ymm2
  4013b7:	c4 e2 f5 b8 c2       	vfmadd231pd %ymm2,%ymm1,%ymm0
  4013bc:	c4 e2 ed b8 c8       	vfmadd231pd %ymm0,%ymm2,%ymm1
  4013c1:	c4 e2 fd b8 d1       	vfmadd231pd %ymm1,%ymm0,%ymm2
  4013c6:	c4 e2 f5 b8 c2       	vfmadd231pd %ymm2,%ymm1,%ymm0
  4013cb:	c4 e2 ed b8 c8       	vfmadd231pd %ymm0,%ymm2,%ymm1
  4013d0:	c4 e2 fd b8 d1       	vfmadd231pd %ymm1,%ymm0,%ymm2
  4013d5:	c4 e2 f5 b8 c2       	vfmadd231pd %ymm2,%ymm1,%ymm0
  4013da:	c4 e2 ed b8 c8       	vfmadd231pd %ymm0,%ymm2,%ymm1
  4013df:	c4 e2 fd b8 d1       	vfmadd231pd %ymm1,%ymm0,%ymm2
  4013e4:	c4 e2 f5 b8 c2       	vfmadd231pd %ymm2,%ymm1,%ymm0
  4013e9:	c4 e2 ed b8 c8       	vfmadd231pd %ymm0,%ymm2,%ymm1
  4013ee:	c4 e2 fd b8 d1       	vfmadd231pd %ymm1,%ymm0,%ymm2
  4013f3:	c4 e2 f5 b8 c2       	vfmadd231pd %ymm2,%ymm1,%ymm0
  4013f8:	c4 e2 ed b8 c8       	vfmadd231pd %ymm0,%ymm2,%ymm1
  4013fd:	c4 e2 fd b8 d1       	vfmadd231pd %ymm1,%ymm0,%ymm2
  401402:	c4 e2 f5 b8 c2       	vfmadd231pd %ymm2,%ymm1,%ymm0
  401407:	c4 e2 ed b8 c8       	vfmadd231pd %ymm0,%ymm2,%ymm1
  40140c:	c4 e2 fd b8 d1       	vfmadd231pd %ymm1,%ymm0,%ymm2
  401411:	c4 e2 f5 b8 c2       	vfmadd231pd %ymm2,%ymm1,%ymm0
  401416:	c4 e2 ed b8 c8       	vfmadd231pd %ymm0,%ymm2,%ymm1
  40141b:	c4 e2 fd b8 d1       	vfmadd231pd %ymm1,%ymm0,%ymm2
  401420:	c4 e2 f5 b8 c2       	vfmadd231pd %ymm2,%ymm1,%ymm0
  401425:	c4 e2 ed b8 c8       	vfmadd231pd %ymm0,%ymm2,%ymm1
  40142a:	c4 e2 fd b8 d1       	vfmadd231pd %ymm1,%ymm0,%ymm2
  40142f:	c4 e2 f5 b8 c2       	vfmadd231pd %ymm2,%ymm1,%ymm0
  401434:	c4 e2 ed b8 c8       	vfmadd231pd %ymm0,%ymm2,%ymm1
  401439:	c4 e2 fd b8 d1       	vfmadd231pd %ymm1,%ymm0,%ymm2
  40143e:	c4 e2 f5 b8 c2       	vfmadd231pd %ymm2,%ymm1,%ymm0
  401443:	c4 e2 ed b8 c8       	vfmadd231pd %ymm0,%ymm2,%ymm1
  401448:	c4 e2 fd b8 d1       	vfmadd231pd %ymm1,%ymm0,%ymm2
  40144d:	c4 e2 f5 b8 c2       	vfmadd231pd %ymm2,%ymm1,%ymm0
  401452:	c4 e2 ed b8 c8       	vfmadd231pd %ymm0,%ymm2,%ymm1
  401457:	c4 e2 fd b8 d1       	vfmadd231pd %ymm1,%ymm0,%ymm2
  40145c:	c4 e2 f5 b8 c2       	vfmadd231pd %ymm2,%ymm1,%ymm0
  401461:	c4 e2 ed b8 c8       	vfmadd231pd %ymm0,%ymm2,%ymm1
  401466:	c4 e2 fd b8 d1       	vfmadd231pd %ymm1,%ymm0,%ymm2
  40146b:	c4 e2 f5 b8 c2       	vfmadd231pd %ymm2,%ymm1,%ymm0
  401470:	c4 e2 ed b8 c8       	vfmadd231pd %ymm0,%ymm2,%ymm1
  401475:	c4 e2 fd b8 d1       	vfmadd231pd %ymm1,%ymm0,%ymm2
  40147a:	c4 e2 f5 b8 c2       	vfmadd231pd %ymm2,%ymm1,%ymm0
  40147f:	c4 e2 ed b8 c8       	vfmadd231pd %ymm0,%ymm2,%ymm1
  401484:	c4 e2 fd b8 d1       	vfmadd231pd %ymm1,%ymm0,%ymm2
  401489:	c4 e2 f5 b8 c2       	vfmadd231pd %ymm2,%ymm1,%ymm0
  40148e:	c4 e2 ed b8 c8       	vfmadd231pd %ymm0,%ymm2,%ymm1
  401493:	c4 e2 fd b8 d1       	vfmadd231pd %ymm1,%ymm0,%ymm2
  401498:	c4 e2 f5 b8 c2       	vfmadd231pd %ymm2,%ymm1,%ymm0
  40149d:	c4 e2 ed b8 c8       	vfmadd231pd %ymm0,%ymm2,%ymm1
  4014a2:	c4 e2 fd b8 d1       	vfmadd231pd %ymm1,%ymm0,%ymm2
  4014a7:	c4 e2 f5 b8 c2       	vfmadd231pd %ymm2,%ymm1,%ymm0
  4014ac:	c4 e2 ed b8 c8       	vfmadd231pd %ymm0,%ymm2,%ymm1
  4014b1:	c4 e2 fd b8 d1       	vfmadd231pd %ymm1,%ymm0,%ymm2
  4014b6:	c4 e2 f5 b8 c2       	vfmadd231pd %ymm2,%ymm1,%ymm0
  4014bb:	c4 e2 ed b8 c8       	vfmadd231pd %ymm0,%ymm2,%ymm1
  4014c0:	c4 e2 fd b8 d1       	vfmadd231pd %ymm1,%ymm0,%ymm2
  4014c5:	c4 e2 f5 b8 c2       	vfmadd231pd %ymm2,%ymm1,%ymm0
  4014ca:	c4 e2 ed b8 c8       	vfmadd231pd %ymm0,%ymm2,%ymm1
  4014cf:	c4 e2 fd b8 d1       	vfmadd231pd %ymm1,%ymm0,%ymm2
  4014d4:	c4 e2 f5 b8 c2       	vfmadd231pd %ymm2,%ymm1,%ymm0
  4014d9:	c4 e2 ed b8 c8       	vfmadd231pd %ymm0,%ymm2,%ymm1
  4014de:	c4 e2 fd b8 d1       	vfmadd231pd %ymm1,%ymm0,%ymm2
  4014e3:	c4 e2 f5 b8 c2       	vfmadd231pd %ymm2,%ymm1,%ymm0
  4014e8:	c4 e2 ed b8 c8       	vfmadd231pd %ymm0,%ymm2,%ymm1
  4014ed:	c4 e2 fd b8 d1       	vfmadd231pd %ymm1,%ymm0,%ymm2
  4014f2:	c4 e2 f5 b8 c2       	vfmadd231pd %ymm2,%ymm1,%ymm0
  4014f7:	c4 e2 ed b8 c8       	vfmadd231pd %ymm0,%ymm2,%ymm1
  4014fc:	c4 e2 fd b8 d1       	vfmadd231pd %ymm1,%ymm0,%ymm2
  401501:	c4 e2 f5 b8 c2       	vfmadd231pd %ymm2,%ymm1,%ymm0
  401506:	c4 e2 ed b8 c8       	vfmadd231pd %ymm0,%ymm2,%ymm1
  40150b:	c4 e2 fd b8 d1       	vfmadd231pd %ymm1,%ymm0,%ymm2
  401510:	c4 e2 f5 b8 c2       	vfmadd231pd %ymm2,%ymm1,%ymm0
  401515:	c4 e2 ed b8 c8       	vfmadd231pd %ymm0,%ymm2,%ymm1
  40151a:	c4 e2 fd b8 d1       	vfmadd231pd %ymm1,%ymm0,%ymm2
  40151f:	c4 e2 f5 b8 c2       	vfmadd231pd %ymm2,%ymm1,%ymm0
  401524:	c4 e2 ed b8 c8       	vfmadd231pd %ymm0,%ymm2,%ymm1
  401529:	c4 e2 fd b8 d1       	vfmadd231pd %ymm1,%ymm0,%ymm2
  40152e:	c4 e2 f5 b8 c2       	vfmadd231pd %ymm2,%ymm1,%ymm0
  401533:	c4 e2 ed b8 c8       	vfmadd231pd %ymm0,%ymm2,%ymm1
  401538:	c4 e2 fd b8 d1       	vfmadd231pd %ymm1,%ymm0,%ymm2
  40153d:	c4 e2 f5 b8 c2       	vfmadd231pd %ymm2,%ymm1,%ymm0
  401542:	c4 e2 ed b8 c8       	vfmadd231pd %ymm0,%ymm2,%ymm1
  401547:	c4 e2 fd b8 d1       	vfmadd231pd %ymm1,%ymm0,%ymm2
  40154c:	c4 e2 f5 b8 c2       	vfmadd231pd %ymm2,%ymm1,%ymm0
  401551:	c4 e2 ed b8 c8       	vfmadd231pd %ymm0,%ymm2,%ymm1
  401556:	c4 e2 fd b8 d1       	vfmadd231pd %ymm1,%ymm0,%ymm2
  40155b:	c4 e2 f5 b8 c2       	vfmadd231pd %ymm2,%ymm1,%ymm0
  401560:	c4 e2 ed b8 c8       	vfmadd231pd %ymm0,%ymm2,%ymm1
  401565:	c4 e2 fd b8 d1       	vfmadd231pd %ymm1,%ymm0,%ymm2
  40156a:	c4 e2 f5 b8 c2       	vfmadd231pd %ymm2,%ymm1,%ymm0
  40156f:	c4 e2 ed b8 c8       	vfmadd231pd %ymm0,%ymm2,%ymm1
  401574:	c4 e2 fd b8 d1       	vfmadd231pd %ymm1,%ymm0,%ymm2
  401579:	c4 e2 f5 b8 c2       	vfmadd231pd %ymm2,%ymm1,%ymm0
  40157e:	c4 e2 ed b8 c8       	vfmadd231pd %ymm0,%ymm2,%ymm1
  401583:	c4 e2 fd b8 d1       	vfmadd231pd %ymm1,%ymm0,%ymm2
  401588:	c4 e2 f5 b8 c2       	vfmadd231pd %ymm2,%ymm1,%ymm0
  40158d:	c4 e2 ed b8 c8       	vfmadd231pd %ymm0,%ymm2,%ymm1
  401592:	c4 e2 fd b8 d1       	vfmadd231pd %ymm1,%ymm0,%ymm2
  401597:	c4 e2 f5 b8 c2       	vfmadd231pd %ymm2,%ymm1,%ymm0
  40159c:	c4 e2 ed b8 c8       	vfmadd231pd %ymm0,%ymm2,%ymm1
  4015a1:	c4 e2 fd b8 d1       	vfmadd231pd %ymm1,%ymm0,%ymm2
  4015a6:	c4 e2 f5 b8 c2       	vfmadd231pd %ymm2,%ymm1,%ymm0
  4015ab:	c4 e2 ed b8 c8       	vfmadd231pd %ymm0,%ymm2,%ymm1
  4015b0:	c4 e2 fd b8 d1       	vfmadd231pd %ymm1,%ymm0,%ymm2
  4015b5:	c4 e2 f5 b8 c2       	vfmadd231pd %ymm2,%ymm1,%ymm0
  4015ba:	c4 e2 ed b8 c8       	vfmadd231pd %ymm0,%ymm2,%ymm1
  4015bf:	c4 e2 fd b8 d1       	vfmadd231pd %ymm1,%ymm0,%ymm2
  4015c4:	c4 e2 f5 b8 c2       	vfmadd231pd %ymm2,%ymm1,%ymm0
  4015c9:	c4 e2 ed b8 c8       	vfmadd231pd %ymm0,%ymm2,%ymm1
  4015ce:	c4 e2 fd b8 d1       	vfmadd231pd %ymm1,%ymm0,%ymm2
  4015d3:	c4 e2 f5 b8 c2       	vfmadd231pd %ymm2,%ymm1,%ymm0
  4015d8:	c4 e2 ed b8 c8       	vfmadd231pd %ymm0,%ymm2,%ymm1
  4015dd:	c4 e2 fd b8 d1       	vfmadd231pd %ymm1,%ymm0,%ymm2
  4015e2:	c4 e2 f5 b8 c2       	vfmadd231pd %ymm2,%ymm1,%ymm0
  4015e7:	c4 e2 ed b8 c8       	vfmadd231pd %ymm0,%ymm2,%ymm1
  4015ec:	c4 e2 fd b8 d1       	vfmadd231pd %ymm1,%ymm0,%ymm2
  4015f1:	c4 e2 f5 b8 c2       	vfmadd231pd %ymm2,%ymm1,%ymm0
  4015f6:	c4 e2 ed b8 c8       	vfmadd231pd %ymm0,%ymm2,%ymm1
  4015fb:	c4 e2 fd b8 d1       	vfmadd231pd %ymm1,%ymm0,%ymm2
  401600:	c4 e2 f5 b8 c2       	vfmadd231pd %ymm2,%ymm1,%ymm0
  401605:	c4 e2 ed b8 c8       	vfmadd231pd %ymm0,%ymm2,%ymm1
  40160a:	c4 e2 fd b8 d1       	vfmadd231pd %ymm1,%ymm0,%ymm2
  40160f:	c4 e2 f5 b8 c2       	vfmadd231pd %ymm2,%ymm1,%ymm0
  401614:	c4 e2 ed b8 c8       	vfmadd231pd %ymm0,%ymm2,%ymm1
  401619:	c4 e2 fd b8 d1       	vfmadd231pd %ymm1,%ymm0,%ymm2
  40161e:	c4 e2 f5 b8 c2       	vfmadd231pd %ymm2,%ymm1,%ymm0
  401623:	c4 e2 ed b8 c8       	vfmadd231pd %ymm0,%ymm2,%ymm1
  401628:	c4 e2 fd b8 d1       	vfmadd231pd %ymm1,%ymm0,%ymm2
  40162d:	c4 e2 f5 b8 c2       	vfmadd231pd %ymm2,%ymm1,%ymm0
  401632:	c4 e2 ed b8 c8       	vfmadd231pd %ymm0,%ymm2,%ymm1
  401637:	c4 e2 fd b8 d1       	vfmadd231pd %ymm1,%ymm0,%ymm2
  40163c:	c4 e2 f5 b8 c2       	vfmadd231pd %ymm2,%ymm1,%ymm0
  401641:	c4 e2 ed b8 c8       	vfmadd231pd %ymm0,%ymm2,%ymm1
  401646:	c4 e2 fd b8 d1       	vfmadd231pd %ymm1,%ymm0,%ymm2
  40164b:	c4 e2 f5 b8 c2       	vfmadd231pd %ymm2,%ymm1,%ymm0
  401650:	c4 e2 ed b8 c8       	vfmadd231pd %ymm0,%ymm2,%ymm1
  401655:	c4 e2 fd b8 d1       	vfmadd231pd %ymm1,%ymm0,%ymm2
  40165a:	c4 e2 f5 b8 c2       	vfmadd231pd %ymm2,%ymm1,%ymm0
  40165f:	c4 e2 ed b8 c8       	vfmadd231pd %ymm0,%ymm2,%ymm1
  401664:	c4 e2 fd b8 d1       	vfmadd231pd %ymm1,%ymm0,%ymm2
  401669:	c4 e2 f5 b8 c2       	vfmadd231pd %ymm2,%ymm1,%ymm0
  40166e:	c4 e2 ed b8 c8       	vfmadd231pd %ymm0,%ymm2,%ymm1
  401673:	c4 e2 fd b8 d1       	vfmadd231pd %ymm1,%ymm0,%ymm2
  401678:	c4 e2 f5 b8 c2       	vfmadd231pd %ymm2,%ymm1,%ymm0
  40167d:	c4 e2 ed b8 c8       	vfmadd231pd %ymm0,%ymm2,%ymm1
  401682:	c4 e2 fd b8 d1       	vfmadd231pd %ymm1,%ymm0,%ymm2
  401687:	c4 e2 f5 b8 c2       	vfmadd231pd %ymm2,%ymm1,%ymm0
  40168c:	c4 e2 ed b8 c8       	vfmadd231pd %ymm0,%ymm2,%ymm1
  401691:	c4 e2 fd b8 d1       	vfmadd231pd %ymm1,%ymm0,%ymm2
  401696:	c4 e2 f5 b8 c2       	vfmadd231pd %ymm2,%ymm1,%ymm0
  40169b:	c4 e2 ed b8 c8       	vfmadd231pd %ymm0,%ymm2,%ymm1
  4016a0:	c4 e2 fd b8 d1       	vfmadd231pd %ymm1,%ymm0,%ymm2
  4016a5:	c4 e2 f5 b8 c2       	vfmadd231pd %ymm2,%ymm1,%ymm0
  4016aa:	c4 e2 ed b8 c8       	vfmadd231pd %ymm0,%ymm2,%ymm1
  4016af:	c4 e2 fd b8 d1       	vfmadd231pd %ymm1,%ymm0,%ymm2
  4016b4:	c4 e2 f5 b8 c2       	vfmadd231pd %ymm2,%ymm1,%ymm0
  4016b9:	c4 e2 ed b8 c8       	vfmadd231pd %ymm0,%ymm2,%ymm1
  4016be:	c4 e2 fd b8 d1       	vfmadd231pd %ymm1,%ymm0,%ymm2
  4016c3:	c4 e2 f5 b8 c2       	vfmadd231pd %ymm2,%ymm1,%ymm0
  4016c8:	c4 e2 ed b8 c8       	vfmadd231pd %ymm0,%ymm2,%ymm1
  4016cd:	c4 e2 fd b8 d1       	vfmadd231pd %ymm1,%ymm0,%ymm2
  4016d2:	c4 e2 f5 b8 c2       	vfmadd231pd %ymm2,%ymm1,%ymm0
  4016d7:	c4 e2 ed b8 c8       	vfmadd231pd %ymm0,%ymm2,%ymm1
  4016dc:	c4 e2 fd b8 d1       	vfmadd231pd %ymm1,%ymm0,%ymm2
  4016e1:	c4 e2 f5 b8 c2       	vfmadd231pd %ymm2,%ymm1,%ymm0
  4016e6:	c4 e2 ed b8 c8       	vfmadd231pd %ymm0,%ymm2,%ymm1
  4016eb:	c4 e2 fd b8 d1       	vfmadd231pd %ymm1,%ymm0,%ymm2
  4016f0:	c4 e2 f5 b8 c2       	vfmadd231pd %ymm2,%ymm1,%ymm0
  4016f5:	c4 e2 ed b8 c8       	vfmadd231pd %ymm0,%ymm2,%ymm1
  4016fa:	c4 e2 fd b8 d1       	vfmadd231pd %ymm1,%ymm0,%ymm2
  4016ff:	c4 e2 f5 b8 c2       	vfmadd231pd %ymm2,%ymm1,%ymm0
  401704:	c4 e2 ed b8 c8       	vfmadd231pd %ymm0,%ymm2,%ymm1
  401709:	c4 e2 fd b8 d1       	vfmadd231pd %ymm1,%ymm0,%ymm2
  40170e:	c4 e2 f5 b8 c2       	vfmadd231pd %ymm2,%ymm1,%ymm0
  401713:	c4 e2 ed b8 c8       	vfmadd231pd %ymm0,%ymm2,%ymm1
  401718:	c4 e2 fd b8 d1       	vfmadd231pd %ymm1,%ymm0,%ymm2
  40171d:	c4 e2 f5 b8 c2       	vfmadd231pd %ymm2,%ymm1,%ymm0
  401722:	c4 e2 ed b8 c8       	vfmadd231pd %ymm0,%ymm2,%ymm1
  401727:	c4 e2 fd b8 d1       	vfmadd231pd %ymm1,%ymm0,%ymm2
  40172c:	c4 e2 f5 b8 c2       	vfmadd231pd %ymm2,%ymm1,%ymm0
  401731:	c4 e2 ed b8 c8       	vfmadd231pd %ymm0,%ymm2,%ymm1
  401736:	c4 e2 fd b8 d1       	vfmadd231pd %ymm1,%ymm0,%ymm2
  40173b:	c4 e2 f5 b8 c2       	vfmadd231pd %ymm2,%ymm1,%ymm0
  401740:	c4 e2 ed b8 c8       	vfmadd231pd %ymm0,%ymm2,%ymm1
  401745:	c4 e2 fd b8 d1       	vfmadd231pd %ymm1,%ymm0,%ymm2
  40174a:	c4 e2 f5 b8 c2       	vfmadd231pd %ymm2,%ymm1,%ymm0
  40174f:	c4 e2 ed b8 c8       	vfmadd231pd %ymm0,%ymm2,%ymm1
  401754:	c4 e2 fd b8 d1       	vfmadd231pd %ymm1,%ymm0,%ymm2
  401759:	c4 e2 f5 b8 c2       	vfmadd231pd %ymm2,%ymm1,%ymm0
  40175e:	c4 e2 ed b8 c8       	vfmadd231pd %ymm0,%ymm2,%ymm1
  401763:	c4 e2 fd b8 d1       	vfmadd231pd %ymm1,%ymm0,%ymm2
  401768:	c4 e2 f5 b8 c2       	vfmadd231pd %ymm2,%ymm1,%ymm0
  40176d:	c4 e2 ed b8 c8       	vfmadd231pd %ymm0,%ymm2,%ymm1
  401772:	c4 e2 fd b8 d1       	vfmadd231pd %ymm1,%ymm0,%ymm2
  401777:	c4 e2 f5 b8 c2       	vfmadd231pd %ymm2,%ymm1,%ymm0
  40177c:	c4 e2 ed b8 c8       	vfmadd231pd %ymm0,%ymm2,%ymm1
  401781:	c4 e2 fd b8 d1       	vfmadd231pd %ymm1,%ymm0,%ymm2
  401786:	c4 e2 f5 b8 c2       	vfmadd231pd %ymm2,%ymm1,%ymm0
  40178b:	c4 e2 ed b8 c8       	vfmadd231pd %ymm0,%ymm2,%ymm1
  401790:	c4 e2 fd b8 d1       	vfmadd231pd %ymm1,%ymm0,%ymm2
  401795:	c4 e2 f5 b8 c2       	vfmadd231pd %ymm2,%ymm1,%ymm0
  40179a:	c4 e2 ed b8 c8       	vfmadd231pd %ymm0,%ymm2,%ymm1
  40179f:	c4 e2 fd b8 d1       	vfmadd231pd %ymm1,%ymm0,%ymm2
  4017a4:	c4 e2 f5 b8 c2       	vfmadd231pd %ymm2,%ymm1,%ymm0
  4017a9:	c4 e2 ed b8 c8       	vfmadd231pd %ymm0,%ymm2,%ymm1
  4017ae:	c4 e2 fd b8 d1       	vfmadd231pd %ymm1,%ymm0,%ymm2
  4017b3:	c4 e2 f5 b8 c2       	vfmadd231pd %ymm2,%ymm1,%ymm0
  4017b8:	c4 e2 ed b8 c8       	vfmadd231pd %ymm0,%ymm2,%ymm1
  4017bd:	c4 e2 fd b8 d1       	vfmadd231pd %ymm1,%ymm0,%ymm2
  4017c2:	c4 e2 f5 b8 c2       	vfmadd231pd %ymm2,%ymm1,%ymm0
  4017c7:	c4 e2 ed b8 c8       	vfmadd231pd %ymm0,%ymm2,%ymm1
  4017cc:	c4 e2 fd b8 d1       	vfmadd231pd %ymm1,%ymm0,%ymm2
  4017d1:	c4 e2 f5 b8 c2       	vfmadd231pd %ymm2,%ymm1,%ymm0
  4017d6:	c4 e2 ed b8 c8       	vfmadd231pd %ymm0,%ymm2,%ymm1
  4017db:	c4 e2 fd b8 d1       	vfmadd231pd %ymm1,%ymm0,%ymm2
  4017e0:	c4 e2 f5 b8 c2       	vfmadd231pd %ymm2,%ymm1,%ymm0
  4017e5:	c4 e2 ed b8 c8       	vfmadd231pd %ymm0,%ymm2,%ymm1
  4017ea:	c4 e2 fd b8 d1       	vfmadd231pd %ymm1,%ymm0,%ymm2
  4017ef:	c4 e2 f5 b8 c2       	vfmadd231pd %ymm2,%ymm1,%ymm0
  4017f4:	c4 e2 ed b8 c8       	vfmadd231pd %ymm0,%ymm2,%ymm1
  4017f9:	c4 e2 fd b8 d1       	vfmadd231pd %ymm1,%ymm0,%ymm2
  4017fe:	c4 e2 f5 b8 c2       	vfmadd231pd %ymm2,%ymm1,%ymm0
  401803:	c4 e2 ed b8 c8       	vfmadd231pd %ymm0,%ymm2,%ymm1
  401808:	c4 e2 fd b8 d1       	vfmadd231pd %ymm1,%ymm0,%ymm2
  40180d:	c4 e2 f5 b8 c2       	vfmadd231pd %ymm2,%ymm1,%ymm0
  401812:	c4 e2 ed b8 c8       	vfmadd231pd %ymm0,%ymm2,%ymm1
  401817:	c4 e2 fd b8 d1       	vfmadd231pd %ymm1,%ymm0,%ymm2
  40181c:	c4 e2 f5 b8 c2       	vfmadd231pd %ymm2,%ymm1,%ymm0
  401821:	c4 e2 ed b8 c8       	vfmadd231pd %ymm0,%ymm2,%ymm1
  401826:	c4 e2 fd b8 d1       	vfmadd231pd %ymm1,%ymm0,%ymm2
  40182b:	c4 e2 f5 b8 c2       	vfmadd231pd %ymm2,%ymm1,%ymm0
  401830:	c4 e2 ed b8 c8       	vfmadd231pd %ymm0,%ymm2,%ymm1
  401835:	c4 e2 fd b8 d1       	vfmadd231pd %ymm1,%ymm0,%ymm2
  40183a:	c4 e2 f5 b8 c2       	vfmadd231pd %ymm2,%ymm1,%ymm0
  40183f:	c4 e2 ed b8 c8       	vfmadd231pd %ymm0,%ymm2,%ymm1
  401844:	c4 e2 fd b8 d1       	vfmadd231pd %ymm1,%ymm0,%ymm2
  401849:	c4 e2 f5 b8 c2       	vfmadd231pd %ymm2,%ymm1,%ymm0
  40184e:	c4 e2 ed b8 c8       	vfmadd231pd %ymm0,%ymm2,%ymm1
  401853:	c4 e2 fd b8 d1       	vfmadd231pd %ymm1,%ymm0,%ymm2
  401858:	c4 e2 f5 b8 c2       	vfmadd231pd %ymm2,%ymm1,%ymm0
  40185d:	c4 e2 ed b8 c8       	vfmadd231pd %ymm0,%ymm2,%ymm1
  401862:	c4 e2 fd b8 d1       	vfmadd231pd %ymm1,%ymm0,%ymm2
  401867:	c4 e2 f5 b8 c2       	vfmadd231pd %ymm2,%ymm1,%ymm0
  40186c:	c4 e2 ed b8 c8       	vfmadd231pd %ymm0,%ymm2,%ymm1
  401871:	c4 e2 fd b8 d1       	vfmadd231pd %ymm1,%ymm0,%ymm2
  401876:	c4 e2 f5 b8 c2       	vfmadd231pd %ymm2,%ymm1,%ymm0
  40187b:	c4 e2 ed b8 c8       	vfmadd231pd %ymm0,%ymm2,%ymm1
  401880:	c4 e2 fd b8 d1       	vfmadd231pd %ymm1,%ymm0,%ymm2
  401885:	c4 e2 f5 b8 c2       	vfmadd231pd %ymm2,%ymm1,%ymm0
  40188a:	c4 e2 ed b8 c8       	vfmadd231pd %ymm0,%ymm2,%ymm1
  40188f:	c4 e2 fd b8 d1       	vfmadd231pd %ymm1,%ymm0,%ymm2
  401894:	c4 e2 f5 b8 c2       	vfmadd231pd %ymm2,%ymm1,%ymm0
  401899:	c4 e2 ed b8 c8       	vfmadd231pd %ymm0,%ymm2,%ymm1
  40189e:	c4 e2 fd b8 d1       	vfmadd231pd %ymm1,%ymm0,%ymm2
  4018a3:	c4 e2 f5 b8 c2       	vfmadd231pd %ymm2,%ymm1,%ymm0
  4018a8:	c4 e2 ed b8 c8       	vfmadd231pd %ymm0,%ymm2,%ymm1
  4018ad:	c4 e2 fd b8 d1       	vfmadd231pd %ymm1,%ymm0,%ymm2
  4018b2:	c4 e2 f5 b8 c2       	vfmadd231pd %ymm2,%ymm1,%ymm0
  4018b7:	c4 e2 ed b8 c8       	vfmadd231pd %ymm0,%ymm2,%ymm1
  4018bc:	c4 e2 fd b8 d1       	vfmadd231pd %ymm1,%ymm0,%ymm2
  4018c1:	c4 e2 f5 b8 c2       	vfmadd231pd %ymm2,%ymm1,%ymm0
  4018c6:	c4 e2 ed b8 c8       	vfmadd231pd %ymm0,%ymm2,%ymm1
  4018cb:	c4 e2 fd b8 d1       	vfmadd231pd %ymm1,%ymm0,%ymm2
  4018d0:	c4 e2 f5 b8 c2       	vfmadd231pd %ymm2,%ymm1,%ymm0
  4018d5:	c4 e2 ed b8 c8       	vfmadd231pd %ymm0,%ymm2,%ymm1
  4018da:	c4 e2 fd b8 d1       	vfmadd231pd %ymm1,%ymm0,%ymm2
  4018df:	c4 e2 f5 b8 c2       	vfmadd231pd %ymm2,%ymm1,%ymm0
  4018e4:	c4 e2 ed b8 c8       	vfmadd231pd %ymm0,%ymm2,%ymm1
  4018e9:	c4 e2 fd b8 d1       	vfmadd231pd %ymm1,%ymm0,%ymm2
  4018ee:	c4 e2 f5 b8 c2       	vfmadd231pd %ymm2,%ymm1,%ymm0
  4018f3:	c4 e2 ed b8 c8       	vfmadd231pd %ymm0,%ymm2,%ymm1
  4018f8:	c4 e2 fd b8 d1       	vfmadd231pd %ymm1,%ymm0,%ymm2
  4018fd:	c4 e2 f5 b8 c2       	vfmadd231pd %ymm2,%ymm1,%ymm0
  401902:	c4 e2 ed b8 c8       	vfmadd231pd %ymm0,%ymm2,%ymm1
  401907:	c4 e2 fd b8 d1       	vfmadd231pd %ymm1,%ymm0,%ymm2
  40190c:	c4 e2 f5 b8 c2       	vfmadd231pd %ymm2,%ymm1,%ymm0
  401911:	c4 e2 ed b8 c8       	vfmadd231pd %ymm0,%ymm2,%ymm1
  401916:	c4 e2 fd b8 d1       	vfmadd231pd %ymm1,%ymm0,%ymm2
  40191b:	c4 e2 f5 b8 c2       	vfmadd231pd %ymm2,%ymm1,%ymm0
  401920:	c4 e2 ed b8 c8       	vfmadd231pd %ymm0,%ymm2,%ymm1
  401925:	c4 e2 fd b8 d1       	vfmadd231pd %ymm1,%ymm0,%ymm2
  40192a:	c4 e2 f5 b8 c2       	vfmadd231pd %ymm2,%ymm1,%ymm0
  40192f:	c4 e2 ed b8 c8       	vfmadd231pd %ymm0,%ymm2,%ymm1
  401934:	c4 e2 fd b8 d1       	vfmadd231pd %ymm1,%ymm0,%ymm2
  401939:	c4 e2 f5 b8 c2       	vfmadd231pd %ymm2,%ymm1,%ymm0
  40193e:	c4 e2 ed b8 c8       	vfmadd231pd %ymm0,%ymm2,%ymm1
  401943:	c4 e2 fd b8 d1       	vfmadd231pd %ymm1,%ymm0,%ymm2
  401948:	c4 e2 f5 b8 c2       	vfmadd231pd %ymm2,%ymm1,%ymm0
  40194d:	c4 e2 ed b8 c8       	vfmadd231pd %ymm0,%ymm2,%ymm1
  401952:	c4 e2 fd b8 d1       	vfmadd231pd %ymm1,%ymm0,%ymm2
  401957:	c4 e2 f5 b8 c2       	vfmadd231pd %ymm2,%ymm1,%ymm0
  40195c:	c4 e2 ed b8 c8       	vfmadd231pd %ymm0,%ymm2,%ymm1
  401961:	c4 e2 fd b8 d1       	vfmadd231pd %ymm1,%ymm0,%ymm2
  401966:	c4 e2 f5 b8 c2       	vfmadd231pd %ymm2,%ymm1,%ymm0
  40196b:	c4 e2 ed b8 c8       	vfmadd231pd %ymm0,%ymm2,%ymm1
  401970:	c4 e2 fd b8 d1       	vfmadd231pd %ymm1,%ymm0,%ymm2
  401975:	c4 e2 f5 b8 c2       	vfmadd231pd %ymm2,%ymm1,%ymm0
  40197a:	c4 e2 ed b8 c8       	vfmadd231pd %ymm0,%ymm2,%ymm1
  40197f:	c4 e2 fd b8 d1       	vfmadd231pd %ymm1,%ymm0,%ymm2
  401984:	c4 e2 f5 b8 c2       	vfmadd231pd %ymm2,%ymm1,%ymm0
  401989:	c4 e2 ed b8 c8       	vfmadd231pd %ymm0,%ymm2,%ymm1
  40198e:	c4 e2 fd b8 d1       	vfmadd231pd %ymm1,%ymm0,%ymm2
  401993:	c4 e2 f5 b8 c2       	vfmadd231pd %ymm2,%ymm1,%ymm0
  401998:	c4 e2 ed b8 c8       	vfmadd231pd %ymm0,%ymm2,%ymm1
  40199d:	c4 e2 fd b8 d1       	vfmadd231pd %ymm1,%ymm0,%ymm2
  4019a2:	c4 e2 f5 b8 c2       	vfmadd231pd %ymm2,%ymm1,%ymm0
  4019a7:	c4 e2 ed b8 c8       	vfmadd231pd %ymm0,%ymm2,%ymm1
  4019ac:	c4 e2 fd b8 d1       	vfmadd231pd %ymm1,%ymm0,%ymm2
  4019b1:	c4 e2 f5 b8 c2       	vfmadd231pd %ymm2,%ymm1,%ymm0
  4019b6:	c4 e2 ed b8 c8       	vfmadd231pd %ymm0,%ymm2,%ymm1
  4019bb:	c4 e2 fd b8 d1       	vfmadd231pd %ymm1,%ymm0,%ymm2
  4019c0:	c4 e2 f5 b8 c2       	vfmadd231pd %ymm2,%ymm1,%ymm0
  4019c5:	c4 e2 ed b8 c8       	vfmadd231pd %ymm0,%ymm2,%ymm1
  4019ca:	c4 e2 fd b8 d1       	vfmadd231pd %ymm1,%ymm0,%ymm2
  4019cf:	c4 e2 f5 b8 c2       	vfmadd231pd %ymm2,%ymm1,%ymm0
  4019d4:	c4 e2 ed b8 c8       	vfmadd231pd %ymm0,%ymm2,%ymm1
  4019d9:	c4 e2 fd b8 d1       	vfmadd231pd %ymm1,%ymm0,%ymm2
  4019de:	c4 e2 f5 b8 c2       	vfmadd231pd %ymm2,%ymm1,%ymm0
  4019e3:	c4 e2 ed b8 c8       	vfmadd231pd %ymm0,%ymm2,%ymm1
  4019e8:	c4 e2 fd b8 d1       	vfmadd231pd %ymm1,%ymm0,%ymm2
  4019ed:	c4 e2 f5 b8 c2       	vfmadd231pd %ymm2,%ymm1,%ymm0
  4019f2:	c4 e2 ed b8 c8       	vfmadd231pd %ymm0,%ymm2,%ymm1
  4019f7:	c4 e2 fd b8 d1       	vfmadd231pd %ymm1,%ymm0,%ymm2
  4019fc:	c4 e2 f5 b8 c2       	vfmadd231pd %ymm2,%ymm1,%ymm0
  401a01:	c4 e2 ed b8 c8       	vfmadd231pd %ymm0,%ymm2,%ymm1
  401a06:	c4 e2 fd b8 d1       	vfmadd231pd %ymm1,%ymm0,%ymm2
  401a0b:	c4 e2 f5 b8 c2       	vfmadd231pd %ymm2,%ymm1,%ymm0
  401a10:	c4 e2 ed b8 c8       	vfmadd231pd %ymm0,%ymm2,%ymm1
  401a15:	c4 e2 fd b8 d1       	vfmadd231pd %ymm1,%ymm0,%ymm2
  401a1a:	c4 e2 f5 b8 c2       	vfmadd231pd %ymm2,%ymm1,%ymm0
  401a1f:	c4 e2 ed b8 c8       	vfmadd231pd %ymm0,%ymm2,%ymm1
  401a24:	c4 e2 fd b8 d1       	vfmadd231pd %ymm1,%ymm0,%ymm2
  401a29:	c4 e2 f5 b8 c2       	vfmadd231pd %ymm2,%ymm1,%ymm0
  401a2e:	c4 e2 ed b8 c8       	vfmadd231pd %ymm0,%ymm2,%ymm1
  401a33:	c4 e2 fd b8 d1       	vfmadd231pd %ymm1,%ymm0,%ymm2
  401a38:	c4 e2 f5 b8 c2       	vfmadd231pd %ymm2,%ymm1,%ymm0
  401a3d:	c4 e2 ed b8 c8       	vfmadd231pd %ymm0,%ymm2,%ymm1
  401a42:	c4 e2 fd b8 d1       	vfmadd231pd %ymm1,%ymm0,%ymm2
  401a47:	c4 e2 f5 b8 c2       	vfmadd231pd %ymm2,%ymm1,%ymm0
  401a4c:	c4 e2 ed b8 c8       	vfmadd231pd %ymm0,%ymm2,%ymm1
  401a51:	c4 e2 fd b8 d1       	vfmadd231pd %ymm1,%ymm0,%ymm2
  401a56:	c4 e2 f5 b8 c2       	vfmadd231pd %ymm2,%ymm1,%ymm0
  401a5b:	c4 e2 ed b8 c8       	vfmadd231pd %ymm0,%ymm2,%ymm1
  401a60:	c4 e2 fd b8 d1       	vfmadd231pd %ymm1,%ymm0,%ymm2
  401a65:	c4 e2 f5 b8 c2       	vfmadd231pd %ymm2,%ymm1,%ymm0
  401a6a:	c4 e2 ed b8 c8       	vfmadd231pd %ymm0,%ymm2,%ymm1
  401a6f:	c4 e2 fd b8 d1       	vfmadd231pd %ymm1,%ymm0,%ymm2
  401a74:	c4 e2 f5 b8 c2       	vfmadd231pd %ymm2,%ymm1,%ymm0
  401a79:	c4 e2 ed b8 c8       	vfmadd231pd %ymm0,%ymm2,%ymm1
  401a7e:	c4 e2 fd b8 d1       	vfmadd231pd %ymm1,%ymm0,%ymm2
  401a83:	c4 e2 f5 b8 c2       	vfmadd231pd %ymm2,%ymm1,%ymm0
  401a88:	c4 e2 ed b8 c8       	vfmadd231pd %ymm0,%ymm2,%ymm1
  401a8d:	c4 e2 fd b8 d1       	vfmadd231pd %ymm1,%ymm0,%ymm2
  401a92:	c4 e2 f5 b8 c2       	vfmadd231pd %ymm2,%ymm1,%ymm0
  401a97:	c4 e2 ed b8 c8       	vfmadd231pd %ymm0,%ymm2,%ymm1
  401a9c:	c4 e2 fd b8 d1       	vfmadd231pd %ymm1,%ymm0,%ymm2
  401aa1:	c4 e2 f5 b8 c2       	vfmadd231pd %ymm2,%ymm1,%ymm0
  401aa6:	c4 e2 ed b8 c8       	vfmadd231pd %ymm0,%ymm2,%ymm1
  401aab:	c4 e2 fd b8 d1       	vfmadd231pd %ymm1,%ymm0,%ymm2
  401ab0:	c4 e2 f5 b8 c2       	vfmadd231pd %ymm2,%ymm1,%ymm0
  401ab5:	c4 e2 ed b8 c8       	vfmadd231pd %ymm0,%ymm2,%ymm1
  401aba:	c4 e2 fd b8 d1       	vfmadd231pd %ymm1,%ymm0,%ymm2
  401abf:	c4 e2 f5 b8 c2       	vfmadd231pd %ymm2,%ymm1,%ymm0
  401ac4:	c4 e2 ed b8 c8       	vfmadd231pd %ymm0,%ymm2,%ymm1
  401ac9:	c4 e2 fd b8 d1       	vfmadd231pd %ymm1,%ymm0,%ymm2
  401ace:	c4 e2 f5 b8 c2       	vfmadd231pd %ymm2,%ymm1,%ymm0
  401ad3:	c4 e2 ed b8 c8       	vfmadd231pd %ymm0,%ymm2,%ymm1
  401ad8:	c4 e2 fd b8 d1       	vfmadd231pd %ymm1,%ymm0,%ymm2
  401add:	c4 e2 f5 b8 c2       	vfmadd231pd %ymm2,%ymm1,%ymm0
  401ae2:	c4 e2 ed b8 c8       	vfmadd231pd %ymm0,%ymm2,%ymm1
  401ae7:	c4 e2 fd b8 d1       	vfmadd231pd %ymm1,%ymm0,%ymm2
  401aec:	c4 e2 f5 b8 c2       	vfmadd231pd %ymm2,%ymm1,%ymm0
  401af1:	c4 e2 ed b8 c8       	vfmadd231pd %ymm0,%ymm2,%ymm1
  401af6:	c4 e2 fd b8 d1       	vfmadd231pd %ymm1,%ymm0,%ymm2
  401afb:	c4 e2 f5 b8 c2       	vfmadd231pd %ymm2,%ymm1,%ymm0
  401b00:	c4 e2 ed b8 c8       	vfmadd231pd %ymm0,%ymm2,%ymm1
  401b05:	c4 e2 fd b8 d1       	vfmadd231pd %ymm1,%ymm0,%ymm2
  401b0a:	c4 e2 f5 b8 c2       	vfmadd231pd %ymm2,%ymm1,%ymm0
  401b0f:	c4 e2 ed b8 c8       	vfmadd231pd %ymm0,%ymm2,%ymm1
  401b14:	c4 e2 fd b8 d1       	vfmadd231pd %ymm1,%ymm0,%ymm2
  401b19:	c4 e2 f5 b8 c2       	vfmadd231pd %ymm2,%ymm1,%ymm0
  401b1e:	c4 e2 ed b8 c8       	vfmadd231pd %ymm0,%ymm2,%ymm1
  401b23:	c4 e2 fd b8 d1       	vfmadd231pd %ymm1,%ymm0,%ymm2
  401b28:	c4 e2 f5 b8 c2       	vfmadd231pd %ymm2,%ymm1,%ymm0
  401b2d:	c4 e2 ed b8 c8       	vfmadd231pd %ymm0,%ymm2,%ymm1
  401b32:	c4 e2 fd b8 d1       	vfmadd231pd %ymm1,%ymm0,%ymm2
  401b37:	c4 e2 f5 b8 c2       	vfmadd231pd %ymm2,%ymm1,%ymm0
  401b3c:	c4 e2 ed b8 c8       	vfmadd231pd %ymm0,%ymm2,%ymm1
  401b41:	c4 e2 fd b8 d1       	vfmadd231pd %ymm1,%ymm0,%ymm2
  401b46:	c4 e2 f5 b8 c2       	vfmadd231pd %ymm2,%ymm1,%ymm0
  401b4b:	c4 e2 ed b8 c8       	vfmadd231pd %ymm0,%ymm2,%ymm1
  401b50:	c4 e2 fd b8 d1       	vfmadd231pd %ymm1,%ymm0,%ymm2
  401b55:	c4 e2 f5 b8 c2       	vfmadd231pd %ymm2,%ymm1,%ymm0
  401b5a:	c4 e2 ed b8 c8       	vfmadd231pd %ymm0,%ymm2,%ymm1
  401b5f:	c4 e2 fd b8 d1       	vfmadd231pd %ymm1,%ymm0,%ymm2
  401b64:	c4 e2 f5 b8 c2       	vfmadd231pd %ymm2,%ymm1,%ymm0
  401b69:	c4 e2 ed b8 c8       	vfmadd231pd %ymm0,%ymm2,%ymm1
  401b6e:	c4 e2 fd b8 d1       	vfmadd231pd %ymm1,%ymm0,%ymm2
  401b73:	c4 e2 f5 b8 c2       	vfmadd231pd %ymm2,%ymm1,%ymm0
  401b78:	c4 e2 ed b8 c8       	vfmadd231pd %ymm0,%ymm2,%ymm1
  401b7d:	c4 e2 fd b8 d1       	vfmadd231pd %ymm1,%ymm0,%ymm2
  401b82:	c4 e2 f5 b8 c2       	vfmadd231pd %ymm2,%ymm1,%ymm0
  401b87:	c4 e2 ed b8 c8       	vfmadd231pd %ymm0,%ymm2,%ymm1
  401b8c:	c4 e2 fd b8 d1       	vfmadd231pd %ymm1,%ymm0,%ymm2
  401b91:	c4 e2 f5 b8 c2       	vfmadd231pd %ymm2,%ymm1,%ymm0
  401b96:	c4 e2 ed b8 c8       	vfmadd231pd %ymm0,%ymm2,%ymm1
  401b9b:	c4 e2 fd b8 d1       	vfmadd231pd %ymm1,%ymm0,%ymm2
  401ba0:	c4 e2 f5 b8 c2       	vfmadd231pd %ymm2,%ymm1,%ymm0
  401ba5:	c4 e2 ed b8 c8       	vfmadd231pd %ymm0,%ymm2,%ymm1
  401baa:	c4 e2 fd b8 d1       	vfmadd231pd %ymm1,%ymm0,%ymm2
  401baf:	c4 e2 f5 b8 c2       	vfmadd231pd %ymm2,%ymm1,%ymm0
  401bb4:	c4 e2 ed b8 c8       	vfmadd231pd %ymm0,%ymm2,%ymm1
  401bb9:	c4 e2 fd b8 d1       	vfmadd231pd %ymm1,%ymm0,%ymm2
  401bbe:	c4 e2 f5 b8 c2       	vfmadd231pd %ymm2,%ymm1,%ymm0
  401bc3:	c4 e2 ed b8 c8       	vfmadd231pd %ymm0,%ymm2,%ymm1
  401bc8:	c4 e2 fd b8 d1       	vfmadd231pd %ymm1,%ymm0,%ymm2
  401bcd:	c4 e2 f5 b8 c2       	vfmadd231pd %ymm2,%ymm1,%ymm0
  401bd2:	c4 e2 ed b8 c8       	vfmadd231pd %ymm0,%ymm2,%ymm1
  401bd7:	c4 e2 fd b8 d1       	vfmadd231pd %ymm1,%ymm0,%ymm2
  401bdc:	c4 e2 f5 b8 c2       	vfmadd231pd %ymm2,%ymm1,%ymm0
  401be1:	c4 e2 ed b8 c8       	vfmadd231pd %ymm0,%ymm2,%ymm1
  401be6:	c4 e2 fd b8 d1       	vfmadd231pd %ymm1,%ymm0,%ymm2
  401beb:	c4 e2 f5 b8 c2       	vfmadd231pd %ymm2,%ymm1,%ymm0
  401bf0:	c4 e2 ed b8 c8       	vfmadd231pd %ymm0,%ymm2,%ymm1
  401bf5:	c4 e2 fd b8 d1       	vfmadd231pd %ymm1,%ymm0,%ymm2
  401bfa:	c4 e2 f5 b8 c2       	vfmadd231pd %ymm2,%ymm1,%ymm0
  401bff:	c4 e2 ed b8 c8       	vfmadd231pd %ymm0,%ymm2,%ymm1
  401c04:	c4 e2 fd b8 d1       	vfmadd231pd %ymm1,%ymm0,%ymm2
  401c09:	c4 e2 f5 b8 c2       	vfmadd231pd %ymm2,%ymm1,%ymm0
  401c0e:	c4 e2 ed b8 c8       	vfmadd231pd %ymm0,%ymm2,%ymm1
  401c13:	c4 e2 fd b8 d1       	vfmadd231pd %ymm1,%ymm0,%ymm2
  401c18:	c4 e2 f5 b8 c2       	vfmadd231pd %ymm2,%ymm1,%ymm0
  401c1d:	c4 e2 ed b8 c8       	vfmadd231pd %ymm0,%ymm2,%ymm1
  401c22:	c4 e2 fd b8 d1       	vfmadd231pd %ymm1,%ymm0,%ymm2
  401c27:	c4 e2 f5 b8 c2       	vfmadd231pd %ymm2,%ymm1,%ymm0
  401c2c:	c4 e2 ed b8 c8       	vfmadd231pd %ymm0,%ymm2,%ymm1
  401c31:	c4 e2 fd b8 d1       	vfmadd231pd %ymm1,%ymm0,%ymm2
  401c36:	c4 e2 f5 b8 c2       	vfmadd231pd %ymm2,%ymm1,%ymm0
  401c3b:	c4 e2 ed b8 c8       	vfmadd231pd %ymm0,%ymm2,%ymm1
  401c40:	c4 e2 fd b8 d1       	vfmadd231pd %ymm1,%ymm0,%ymm2
  401c45:	c4 e2 f5 b8 c2       	vfmadd231pd %ymm2,%ymm1,%ymm0
  401c4a:	c4 e2 ed b8 c8       	vfmadd231pd %ymm0,%ymm2,%ymm1
  401c4f:	c4 e2 fd b8 d1       	vfmadd231pd %ymm1,%ymm0,%ymm2
  401c54:	c4 e2 f5 b8 c2       	vfmadd231pd %ymm2,%ymm1,%ymm0
  401c59:	c4 e2 ed b8 c8       	vfmadd231pd %ymm0,%ymm2,%ymm1
  401c5e:	c4 e2 fd b8 d1       	vfmadd231pd %ymm1,%ymm0,%ymm2
  401c63:	c4 e2 f5 b8 c2       	vfmadd231pd %ymm2,%ymm1,%ymm0
  401c68:	c4 e2 ed b8 c8       	vfmadd231pd %ymm0,%ymm2,%ymm1
  401c6d:	c4 e2 fd b8 d1       	vfmadd231pd %ymm1,%ymm0,%ymm2
  401c72:	c4 e2 f5 b8 c2       	vfmadd231pd %ymm2,%ymm1,%ymm0
  401c77:	c4 e2 ed b8 c8       	vfmadd231pd %ymm0,%ymm2,%ymm1
  401c7c:	c4 e2 fd b8 d1       	vfmadd231pd %ymm1,%ymm0,%ymm2
  401c81:	c4 e2 f5 b8 c2       	vfmadd231pd %ymm2,%ymm1,%ymm0
  401c86:	c4 e2 ed b8 c8       	vfmadd231pd %ymm0,%ymm2,%ymm1
  401c8b:	c4 e2 fd b8 d1       	vfmadd231pd %ymm1,%ymm0,%ymm2
  401c90:	c4 e2 f5 b8 c2       	vfmadd231pd %ymm2,%ymm1,%ymm0
  401c95:	c4 e2 ed b8 c8       	vfmadd231pd %ymm0,%ymm2,%ymm1
  401c9a:	c4 e2 fd b8 d1       	vfmadd231pd %ymm1,%ymm0,%ymm2
  401c9f:	c4 e2 f5 b8 c2       	vfmadd231pd %ymm2,%ymm1,%ymm0
  401ca4:	c4 e2 ed b8 c8       	vfmadd231pd %ymm0,%ymm2,%ymm1
  401ca9:	c4 e2 fd b8 d1       	vfmadd231pd %ymm1,%ymm0,%ymm2
  401cae:	c4 e2 f5 b8 c2       	vfmadd231pd %ymm2,%ymm1,%ymm0
  401cb3:	c4 e2 ed b8 c8       	vfmadd231pd %ymm0,%ymm2,%ymm1
  401cb8:	c4 e2 fd b8 d1       	vfmadd231pd %ymm1,%ymm0,%ymm2
  401cbd:	c4 e2 f5 b8 c2       	vfmadd231pd %ymm2,%ymm1,%ymm0
  401cc2:	c4 e2 ed b8 c8       	vfmadd231pd %ymm0,%ymm2,%ymm1
  401cc7:	c4 e2 fd b8 d1       	vfmadd231pd %ymm1,%ymm0,%ymm2
  401ccc:	c4 e2 f5 b8 c2       	vfmadd231pd %ymm2,%ymm1,%ymm0
  401cd1:	c4 e2 ed b8 c8       	vfmadd231pd %ymm0,%ymm2,%ymm1
  401cd6:	c4 e2 fd b8 d1       	vfmadd231pd %ymm1,%ymm0,%ymm2
  401cdb:	c4 e2 f5 b8 c2       	vfmadd231pd %ymm2,%ymm1,%ymm0
  401ce0:	c4 e2 ed b8 c8       	vfmadd231pd %ymm0,%ymm2,%ymm1
  401ce5:	c4 e2 fd b8 d1       	vfmadd231pd %ymm1,%ymm0,%ymm2
  401cea:	c4 e2 f5 b8 c2       	vfmadd231pd %ymm2,%ymm1,%ymm0
  401cef:	c4 e2 ed b8 c8       	vfmadd231pd %ymm0,%ymm2,%ymm1
  401cf4:	c4 e2 fd b8 d1       	vfmadd231pd %ymm1,%ymm0,%ymm2
  401cf9:	c4 e2 f5 b8 c2       	vfmadd231pd %ymm2,%ymm1,%ymm0
  401cfe:	c4 e2 ed b8 c8       	vfmadd231pd %ymm0,%ymm2,%ymm1
  401d03:	c4 e2 fd b8 d1       	vfmadd231pd %ymm1,%ymm0,%ymm2
  401d08:	c4 e2 f5 b8 c2       	vfmadd231pd %ymm2,%ymm1,%ymm0
  401d0d:	c4 e2 ed b8 c8       	vfmadd231pd %ymm0,%ymm2,%ymm1
  401d12:	c4 e2 fd b8 d1       	vfmadd231pd %ymm1,%ymm0,%ymm2
  401d17:	c4 e2 f5 b8 c2       	vfmadd231pd %ymm2,%ymm1,%ymm0
  401d1c:	c4 e2 ed b8 c8       	vfmadd231pd %ymm0,%ymm2,%ymm1
  401d21:	c4 e2 fd b8 d1       	vfmadd231pd %ymm1,%ymm0,%ymm2
  401d26:	c4 e2 f5 b8 c2       	vfmadd231pd %ymm2,%ymm1,%ymm0
  401d2b:	c4 e2 ed b8 c8       	vfmadd231pd %ymm0,%ymm2,%ymm1
  401d30:	c4 e2 fd b8 d1       	vfmadd231pd %ymm1,%ymm0,%ymm2
  401d35:	c4 e2 f5 b8 c2       	vfmadd231pd %ymm2,%ymm1,%ymm0
  401d3a:	c4 e2 ed b8 c8       	vfmadd231pd %ymm0,%ymm2,%ymm1
  401d3f:	c4 e2 fd b8 d1       	vfmadd231pd %ymm1,%ymm0,%ymm2
  401d44:	c4 e2 f5 b8 c2       	vfmadd231pd %ymm2,%ymm1,%ymm0
  401d49:	c4 e2 ed b8 c8       	vfmadd231pd %ymm0,%ymm2,%ymm1
  401d4e:	c4 e2 fd b8 d1       	vfmadd231pd %ymm1,%ymm0,%ymm2
  401d53:	c4 e2 f5 b8 c2       	vfmadd231pd %ymm2,%ymm1,%ymm0
  401d58:	c4 e2 ed b8 c8       	vfmadd231pd %ymm0,%ymm2,%ymm1
  401d5d:	c4 e2 fd b8 d1       	vfmadd231pd %ymm1,%ymm0,%ymm2
  401d62:	c4 e2 f5 b8 c2       	vfmadd231pd %ymm2,%ymm1,%ymm0
  401d67:	c4 e2 ed b8 c8       	vfmadd231pd %ymm0,%ymm2,%ymm1
  401d6c:	c4 e2 fd b8 d1       	vfmadd231pd %ymm1,%ymm0,%ymm2
  401d71:	c4 e2 f5 b8 c2       	vfmadd231pd %ymm2,%ymm1,%ymm0
  401d76:	c4 e2 ed b8 c8       	vfmadd231pd %ymm0,%ymm2,%ymm1
  401d7b:	c4 e2 fd b8 d1       	vfmadd231pd %ymm1,%ymm0,%ymm2
  401d80:	c4 e2 f5 b8 c2       	vfmadd231pd %ymm2,%ymm1,%ymm0
  401d85:	c4 e2 ed b8 c8       	vfmadd231pd %ymm0,%ymm2,%ymm1
  401d8a:	c4 e2 fd b8 d1       	vfmadd231pd %ymm1,%ymm0,%ymm2
  401d8f:	c4 e2 f5 b8 c2       	vfmadd231pd %ymm2,%ymm1,%ymm0
  401d94:	c4 e2 ed b8 c8       	vfmadd231pd %ymm0,%ymm2,%ymm1
  401d99:	c4 e2 fd b8 d1       	vfmadd231pd %ymm1,%ymm0,%ymm2
  401d9e:	c4 e2 f5 b8 c2       	vfmadd231pd %ymm2,%ymm1,%ymm0
  401da3:	c4 e2 ed b8 c8       	vfmadd231pd %ymm0,%ymm2,%ymm1
  401da8:	c4 e2 fd b8 d1       	vfmadd231pd %ymm1,%ymm0,%ymm2
  401dad:	c4 e2 f5 b8 c2       	vfmadd231pd %ymm2,%ymm1,%ymm0
  401db2:	c4 e2 ed b8 c8       	vfmadd231pd %ymm0,%ymm2,%ymm1
  401db7:	c4 e2 fd b8 d1       	vfmadd231pd %ymm1,%ymm0,%ymm2
  401dbc:	c4 e2 f5 b8 c2       	vfmadd231pd %ymm2,%ymm1,%ymm0
  401dc1:	c4 e2 ed b8 c8       	vfmadd231pd %ymm0,%ymm2,%ymm1
  401dc6:	c4 e2 fd b8 d1       	vfmadd231pd %ymm1,%ymm0,%ymm2
  401dcb:	c4 e2 f5 b8 c2       	vfmadd231pd %ymm2,%ymm1,%ymm0
  401dd0:	c4 e2 ed b8 c8       	vfmadd231pd %ymm0,%ymm2,%ymm1
  401dd5:	c4 e2 fd b8 d1       	vfmadd231pd %ymm1,%ymm0,%ymm2
  401dda:	c4 e2 f5 b8 c2       	vfmadd231pd %ymm2,%ymm1,%ymm0
  401ddf:	c4 e2 ed b8 c8       	vfmadd231pd %ymm0,%ymm2,%ymm1
  401de4:	c4 e2 fd b8 d1       	vfmadd231pd %ymm1,%ymm0,%ymm2
  401de9:	c4 e2 f5 b8 c2       	vfmadd231pd %ymm2,%ymm1,%ymm0
  401dee:	c4 e2 ed b8 c8       	vfmadd231pd %ymm0,%ymm2,%ymm1
  401df3:	c4 e2 fd b8 d1       	vfmadd231pd %ymm1,%ymm0,%ymm2
  401df8:	c4 e2 f5 b8 c2       	vfmadd231pd %ymm2,%ymm1,%ymm0
  401dfd:	c4 e2 ed b8 c8       	vfmadd231pd %ymm0,%ymm2,%ymm1
  401e02:	c4 e2 fd b8 d1       	vfmadd231pd %ymm1,%ymm0,%ymm2
  401e07:	c4 e2 f5 b8 c2       	vfmadd231pd %ymm2,%ymm1,%ymm0
  401e0c:	c4 e2 ed b8 c8       	vfmadd231pd %ymm0,%ymm2,%ymm1
  401e11:	c4 e2 fd b8 d1       	vfmadd231pd %ymm1,%ymm0,%ymm2
  401e16:	c4 e2 f5 b8 c2       	vfmadd231pd %ymm2,%ymm1,%ymm0
  401e1b:	c4 e2 ed b8 c8       	vfmadd231pd %ymm0,%ymm2,%ymm1
  401e20:	c4 e2 fd b8 d1       	vfmadd231pd %ymm1,%ymm0,%ymm2
  401e25:	c4 e2 f5 b8 c2       	vfmadd231pd %ymm2,%ymm1,%ymm0
  401e2a:	c4 e2 ed b8 c8       	vfmadd231pd %ymm0,%ymm2,%ymm1
  401e2f:	c4 e2 fd b8 d1       	vfmadd231pd %ymm1,%ymm0,%ymm2
  401e34:	c4 e2 f5 b8 c2       	vfmadd231pd %ymm2,%ymm1,%ymm0
  401e39:	c4 e2 ed b8 c8       	vfmadd231pd %ymm0,%ymm2,%ymm1
  401e3e:	c4 e2 fd b8 d1       	vfmadd231pd %ymm1,%ymm0,%ymm2
  401e43:	c4 e2 f5 b8 c2       	vfmadd231pd %ymm2,%ymm1,%ymm0
  401e48:	c4 e2 ed b8 c8       	vfmadd231pd %ymm0,%ymm2,%ymm1
  401e4d:	c4 e2 fd b8 d1       	vfmadd231pd %ymm1,%ymm0,%ymm2
  401e52:	c4 e2 f5 b8 c2       	vfmadd231pd %ymm2,%ymm1,%ymm0
  401e57:	c4 e2 ed b8 c8       	vfmadd231pd %ymm0,%ymm2,%ymm1
  401e5c:	c4 e2 fd b8 d1       	vfmadd231pd %ymm1,%ymm0,%ymm2
  401e61:	c4 e2 f5 b8 c2       	vfmadd231pd %ymm2,%ymm1,%ymm0
  401e66:	c4 e2 ed b8 c8       	vfmadd231pd %ymm0,%ymm2,%ymm1
  401e6b:	c4 e2 fd b8 d1       	vfmadd231pd %ymm1,%ymm0,%ymm2
  401e70:	c4 e2 f5 b8 c2       	vfmadd231pd %ymm2,%ymm1,%ymm0
  401e75:	c4 e2 ed b8 c8       	vfmadd231pd %ymm0,%ymm2,%ymm1
  401e7a:	c4 e2 fd b8 d1       	vfmadd231pd %ymm1,%ymm0,%ymm2
  401e7f:	c4 e2 f5 b8 c2       	vfmadd231pd %ymm2,%ymm1,%ymm0
  401e84:	c4 e2 ed b8 c8       	vfmadd231pd %ymm0,%ymm2,%ymm1
  401e89:	c4 e2 fd b8 d1       	vfmadd231pd %ymm1,%ymm0,%ymm2
  401e8e:	c4 e2 f5 b8 c2       	vfmadd231pd %ymm2,%ymm1,%ymm0
  401e93:	c4 e2 ed b8 c8       	vfmadd231pd %ymm0,%ymm2,%ymm1
  401e98:	c4 e2 fd b8 d1       	vfmadd231pd %ymm1,%ymm0,%ymm2
  401e9d:	c4 e2 f5 b8 c2       	vfmadd231pd %ymm2,%ymm1,%ymm0
  401ea2:	c4 e2 ed b8 c8       	vfmadd231pd %ymm0,%ymm2,%ymm1
  401ea7:	c4 e2 fd b8 d1       	vfmadd231pd %ymm1,%ymm0,%ymm2
  401eac:	c4 e2 f5 b8 c2       	vfmadd231pd %ymm2,%ymm1,%ymm0
  401eb1:	c4 e2 ed b8 c8       	vfmadd231pd %ymm0,%ymm2,%ymm1
  401eb6:	c4 e2 fd b8 d1       	vfmadd231pd %ymm1,%ymm0,%ymm2
  401ebb:	c4 e2 f5 b8 c2       	vfmadd231pd %ymm2,%ymm1,%ymm0
  401ec0:	c4 e2 ed b8 c8       	vfmadd231pd %ymm0,%ymm2,%ymm1
  401ec5:	c4 e2 fd b8 d1       	vfmadd231pd %ymm1,%ymm0,%ymm2
  401eca:	c4 e2 f5 b8 c2       	vfmadd231pd %ymm2,%ymm1,%ymm0
  401ecf:	c4 e2 ed b8 c8       	vfmadd231pd %ymm0,%ymm2,%ymm1
  401ed4:	c4 e2 fd b8 d1       	vfmadd231pd %ymm1,%ymm0,%ymm2
  401ed9:	c4 e2 f5 b8 c2       	vfmadd231pd %ymm2,%ymm1,%ymm0
  401ede:	c4 e2 ed b8 c8       	vfmadd231pd %ymm0,%ymm2,%ymm1
  401ee3:	c4 e2 fd b8 d1       	vfmadd231pd %ymm1,%ymm0,%ymm2
  401ee8:	c4 e2 f5 b8 c2       	vfmadd231pd %ymm2,%ymm1,%ymm0
  401eed:	c4 e2 ed b8 c8       	vfmadd231pd %ymm0,%ymm2,%ymm1
  401ef2:	c4 e2 fd b8 d1       	vfmadd231pd %ymm1,%ymm0,%ymm2
  401ef7:	c4 e2 f5 b8 c2       	vfmadd231pd %ymm2,%ymm1,%ymm0
  401efc:	c4 e2 ed b8 c8       	vfmadd231pd %ymm0,%ymm2,%ymm1
  401f01:	c4 e2 fd b8 d1       	vfmadd231pd %ymm1,%ymm0,%ymm2
  401f06:	c4 e2 f5 b8 c2       	vfmadd231pd %ymm2,%ymm1,%ymm0
  401f0b:	c4 e2 ed b8 c8       	vfmadd231pd %ymm0,%ymm2,%ymm1
  401f10:	c4 e2 fd b8 d1       	vfmadd231pd %ymm1,%ymm0,%ymm2
  401f15:	c4 e2 f5 b8 c2       	vfmadd231pd %ymm2,%ymm1,%ymm0
  401f1a:	c4 e2 ed b8 c8       	vfmadd231pd %ymm0,%ymm2,%ymm1
  401f1f:	c4 e2 fd b8 d1       	vfmadd231pd %ymm1,%ymm0,%ymm2
  401f24:	c4 e2 f5 b8 c2       	vfmadd231pd %ymm2,%ymm1,%ymm0
  401f29:	c4 e2 ed b8 c8       	vfmadd231pd %ymm0,%ymm2,%ymm1
  401f2e:	c4 e2 fd b8 d1       	vfmadd231pd %ymm1,%ymm0,%ymm2
  401f33:	c4 e2 f5 b8 c2       	vfmadd231pd %ymm2,%ymm1,%ymm0
  401f38:	c4 e2 ed b8 c8       	vfmadd231pd %ymm0,%ymm2,%ymm1
  401f3d:	c4 e2 fd b8 d1       	vfmadd231pd %ymm1,%ymm0,%ymm2
  401f42:	c4 e2 f5 b8 c2       	vfmadd231pd %ymm2,%ymm1,%ymm0
  401f47:	c4 e2 ed b8 c8       	vfmadd231pd %ymm0,%ymm2,%ymm1
  401f4c:	c4 e2 fd b8 d1       	vfmadd231pd %ymm1,%ymm0,%ymm2
  401f51:	c4 e2 f5 b8 c2       	vfmadd231pd %ymm2,%ymm1,%ymm0
  401f56:	c4 e2 ed b8 c8       	vfmadd231pd %ymm0,%ymm2,%ymm1
  401f5b:	c4 e2 fd b8 d1       	vfmadd231pd %ymm1,%ymm0,%ymm2
  401f60:	c4 e2 f5 b8 c2       	vfmadd231pd %ymm2,%ymm1,%ymm0
  401f65:	c4 e2 ed b8 c8       	vfmadd231pd %ymm0,%ymm2,%ymm1
  401f6a:	c4 e2 fd b8 d1       	vfmadd231pd %ymm1,%ymm0,%ymm2
  401f6f:	c4 e2 f5 b8 c2       	vfmadd231pd %ymm2,%ymm1,%ymm0
  401f74:	c4 e2 ed b8 c8       	vfmadd231pd %ymm0,%ymm2,%ymm1
  401f79:	c4 e2 fd b8 d1       	vfmadd231pd %ymm1,%ymm0,%ymm2
  401f7e:	c4 e2 f5 b8 c2       	vfmadd231pd %ymm2,%ymm1,%ymm0
  401f83:	c4 e2 ed b8 c8       	vfmadd231pd %ymm0,%ymm2,%ymm1
  401f88:	c4 e2 fd b8 d1       	vfmadd231pd %ymm1,%ymm0,%ymm2
  401f8d:	c4 e2 f5 b8 c2       	vfmadd231pd %ymm2,%ymm1,%ymm0
  401f92:	c4 e2 ed b8 c8       	vfmadd231pd %ymm0,%ymm2,%ymm1
  401f97:	c4 e2 fd b8 d1       	vfmadd231pd %ymm1,%ymm0,%ymm2
  401f9c:	c4 e2 f5 b8 c2       	vfmadd231pd %ymm2,%ymm1,%ymm0
  401fa1:	c4 e2 ed b8 c8       	vfmadd231pd %ymm0,%ymm2,%ymm1
  401fa6:	c4 e2 fd b8 d1       	vfmadd231pd %ymm1,%ymm0,%ymm2
  401fab:	c4 e2 f5 b8 c2       	vfmadd231pd %ymm2,%ymm1,%ymm0
  401fb0:	c4 e2 ed b8 c8       	vfmadd231pd %ymm0,%ymm2,%ymm1
  401fb5:	c4 e2 fd b8 d1       	vfmadd231pd %ymm1,%ymm0,%ymm2
  401fba:	c4 e2 f5 b8 c2       	vfmadd231pd %ymm2,%ymm1,%ymm0
  401fbf:	c4 e2 ed b8 c8       	vfmadd231pd %ymm0,%ymm2,%ymm1
  401fc4:	c4 e2 fd b8 d1       	vfmadd231pd %ymm1,%ymm0,%ymm2
  401fc9:	c4 e2 f5 b8 c2       	vfmadd231pd %ymm2,%ymm1,%ymm0
  401fce:	c4 e2 ed b8 c8       	vfmadd231pd %ymm0,%ymm2,%ymm1
  401fd3:	c4 e2 fd b8 d1       	vfmadd231pd %ymm1,%ymm0,%ymm2
  401fd8:	c4 e2 f5 b8 c2       	vfmadd231pd %ymm2,%ymm1,%ymm0
  401fdd:	c4 e2 ed b8 c8       	vfmadd231pd %ymm0,%ymm2,%ymm1
  401fe2:	c4 e2 fd b8 d1       	vfmadd231pd %ymm1,%ymm0,%ymm2
  401fe7:	c4 e2 f5 b8 c2       	vfmadd231pd %ymm2,%ymm1,%ymm0
  401fec:	c4 e2 ed b8 c8       	vfmadd231pd %ymm0,%ymm2,%ymm1
  401ff1:	c4 e2 fd b8 d1       	vfmadd231pd %ymm1,%ymm0,%ymm2
  401ff6:	c4 e2 f5 b8 c2       	vfmadd231pd %ymm2,%ymm1,%ymm0
  401ffb:	c4 e2 ed b8 c8       	vfmadd231pd %ymm0,%ymm2,%ymm1
  402000:	c4 e2 fd b8 d1       	vfmadd231pd %ymm1,%ymm0,%ymm2
  402005:	c4 e2 f5 b8 c2       	vfmadd231pd %ymm2,%ymm1,%ymm0
  40200a:	c4 e2 ed b8 c8       	vfmadd231pd %ymm0,%ymm2,%ymm1
  40200f:	c4 e2 fd b8 d1       	vfmadd231pd %ymm1,%ymm0,%ymm2
  402014:	c4 e2 f5 b8 c2       	vfmadd231pd %ymm2,%ymm1,%ymm0
  402019:	c4 e2 ed b8 c8       	vfmadd231pd %ymm0,%ymm2,%ymm1
  40201e:	c4 e2 fd b8 d1       	vfmadd231pd %ymm1,%ymm0,%ymm2
  402023:	c4 e2 f5 b8 c2       	vfmadd231pd %ymm2,%ymm1,%ymm0
  402028:	c4 e2 ed b8 c8       	vfmadd231pd %ymm0,%ymm2,%ymm1
  40202d:	c4 e2 fd b8 d1       	vfmadd231pd %ymm1,%ymm0,%ymm2
  402032:	c4 e2 f5 b8 c2       	vfmadd231pd %ymm2,%ymm1,%ymm0
  402037:	c4 e2 ed b8 c8       	vfmadd231pd %ymm0,%ymm2,%ymm1
  40203c:	c4 e2 fd b8 d1       	vfmadd231pd %ymm1,%ymm0,%ymm2
  402041:	c4 e2 f5 b8 c2       	vfmadd231pd %ymm2,%ymm1,%ymm0
  402046:	c4 e2 ed b8 c8       	vfmadd231pd %ymm0,%ymm2,%ymm1
  40204b:	c4 e2 fd b8 d1       	vfmadd231pd %ymm1,%ymm0,%ymm2
  402050:	c4 e2 f5 b8 c2       	vfmadd231pd %ymm2,%ymm1,%ymm0
  402055:	c4 e2 ed b8 c8       	vfmadd231pd %ymm0,%ymm2,%ymm1
  40205a:	c4 e2 fd b8 d1       	vfmadd231pd %ymm1,%ymm0,%ymm2
  40205f:	c4 e2 f5 b8 c2       	vfmadd231pd %ymm2,%ymm1,%ymm0
  402064:	c4 e2 ed b8 c8       	vfmadd231pd %ymm0,%ymm2,%ymm1
  402069:	c4 e2 fd b8 d1       	vfmadd231pd %ymm1,%ymm0,%ymm2
  40206e:	c4 e2 f5 b8 c2       	vfmadd231pd %ymm2,%ymm1,%ymm0
  402073:	c4 e2 ed b8 c8       	vfmadd231pd %ymm0,%ymm2,%ymm1
  402078:	c4 e2 fd b8 d1       	vfmadd231pd %ymm1,%ymm0,%ymm2
  40207d:	c4 e2 f5 b8 c2       	vfmadd231pd %ymm2,%ymm1,%ymm0
  402082:	c4 e2 ed b8 c8       	vfmadd231pd %ymm0,%ymm2,%ymm1
  402087:	c4 e2 fd b8 d1       	vfmadd231pd %ymm1,%ymm0,%ymm2
  40208c:	c4 e2 f5 b8 c2       	vfmadd231pd %ymm2,%ymm1,%ymm0
  402091:	c4 e2 ed b8 c8       	vfmadd231pd %ymm0,%ymm2,%ymm1
  402096:	c4 e2 fd b8 d1       	vfmadd231pd %ymm1,%ymm0,%ymm2
  40209b:	c4 e2 f5 b8 c2       	vfmadd231pd %ymm2,%ymm1,%ymm0
  4020a0:	c4 e2 ed b8 c8       	vfmadd231pd %ymm0,%ymm2,%ymm1
  4020a5:	c4 e2 fd b8 d1       	vfmadd231pd %ymm1,%ymm0,%ymm2
  4020aa:	c4 e2 f5 b8 c2       	vfmadd231pd %ymm2,%ymm1,%ymm0
  4020af:	c4 e2 ed b8 c8       	vfmadd231pd %ymm0,%ymm2,%ymm1
  4020b4:	c4 e2 fd b8 d1       	vfmadd231pd %ymm1,%ymm0,%ymm2
  4020b9:	c4 e2 f5 b8 c2       	vfmadd231pd %ymm2,%ymm1,%ymm0
  4020be:	c4 e2 ed b8 c8       	vfmadd231pd %ymm0,%ymm2,%ymm1
  4020c3:	c4 e2 fd b8 d1       	vfmadd231pd %ymm1,%ymm0,%ymm2
  4020c8:	c4 e2 f5 b8 c2       	vfmadd231pd %ymm2,%ymm1,%ymm0
  4020cd:	c4 e2 ed b8 c8       	vfmadd231pd %ymm0,%ymm2,%ymm1
  4020d2:	c4 e2 fd b8 d1       	vfmadd231pd %ymm1,%ymm0,%ymm2
  4020d7:	c4 e2 f5 b8 c2       	vfmadd231pd %ymm2,%ymm1,%ymm0
  4020dc:	c4 e2 ed b8 c8       	vfmadd231pd %ymm0,%ymm2,%ymm1
  4020e1:	c4 e2 fd b8 d1       	vfmadd231pd %ymm1,%ymm0,%ymm2
  4020e6:	c4 e2 f5 b8 c2       	vfmadd231pd %ymm2,%ymm1,%ymm0
  4020eb:	c4 e2 ed b8 c8       	vfmadd231pd %ymm0,%ymm2,%ymm1
  4020f0:	c4 e2 fd b8 d1       	vfmadd231pd %ymm1,%ymm0,%ymm2
  4020f5:	c4 e2 f5 b8 c2       	vfmadd231pd %ymm2,%ymm1,%ymm0
  4020fa:	c4 e2 ed b8 c8       	vfmadd231pd %ymm0,%ymm2,%ymm1
  4020ff:	c4 e2 fd b8 d1       	vfmadd231pd %ymm1,%ymm0,%ymm2
  402104:	c4 e2 f5 b8 c2       	vfmadd231pd %ymm2,%ymm1,%ymm0
  402109:	c4 e2 ed b8 c8       	vfmadd231pd %ymm0,%ymm2,%ymm1
  40210e:	c4 e2 fd b8 d1       	vfmadd231pd %ymm1,%ymm0,%ymm2
  402113:	c4 e2 f5 b8 c2       	vfmadd231pd %ymm2,%ymm1,%ymm0
  402118:	c4 e2 ed b8 c8       	vfmadd231pd %ymm0,%ymm2,%ymm1
  40211d:	c4 e2 fd b8 d1       	vfmadd231pd %ymm1,%ymm0,%ymm2
  402122:	c4 e2 f5 b8 c2       	vfmadd231pd %ymm2,%ymm1,%ymm0
  402127:	c4 e2 ed b8 c8       	vfmadd231pd %ymm0,%ymm2,%ymm1
  40212c:	c4 e2 fd b8 d1       	vfmadd231pd %ymm1,%ymm0,%ymm2
  402131:	c4 e2 f5 b8 c2       	vfmadd231pd %ymm2,%ymm1,%ymm0
  402136:	c4 e2 ed b8 c8       	vfmadd231pd %ymm0,%ymm2,%ymm1
  40213b:	c4 e2 fd b8 d1       	vfmadd231pd %ymm1,%ymm0,%ymm2
  402140:	c4 e2 f5 b8 c2       	vfmadd231pd %ymm2,%ymm1,%ymm0
  402145:	c4 e2 ed b8 c8       	vfmadd231pd %ymm0,%ymm2,%ymm1
  40214a:	c4 e2 fd b8 d1       	vfmadd231pd %ymm1,%ymm0,%ymm2
  40214f:	c4 e2 f5 b8 c2       	vfmadd231pd %ymm2,%ymm1,%ymm0
  402154:	c4 e2 ed b8 c8       	vfmadd231pd %ymm0,%ymm2,%ymm1
  402159:	c4 e2 fd b8 d1       	vfmadd231pd %ymm1,%ymm0,%ymm2
  40215e:	c4 e2 f5 b8 c2       	vfmadd231pd %ymm2,%ymm1,%ymm0
  402163:	c4 e2 ed b8 c8       	vfmadd231pd %ymm0,%ymm2,%ymm1
  402168:	c4 e2 fd b8 d1       	vfmadd231pd %ymm1,%ymm0,%ymm2
  40216d:	c4 e2 f5 b8 c2       	vfmadd231pd %ymm2,%ymm1,%ymm0
  402172:	c4 e2 ed b8 c8       	vfmadd231pd %ymm0,%ymm2,%ymm1
  402177:	c4 e2 fd b8 d1       	vfmadd231pd %ymm1,%ymm0,%ymm2
  40217c:	c4 e2 f5 b8 c2       	vfmadd231pd %ymm2,%ymm1,%ymm0
  402181:	c4 e2 ed b8 c8       	vfmadd231pd %ymm0,%ymm2,%ymm1
  402186:	c4 e2 fd b8 d1       	vfmadd231pd %ymm1,%ymm0,%ymm2
  40218b:	c4 e2 f5 b8 c2       	vfmadd231pd %ymm2,%ymm1,%ymm0
  402190:	c4 e2 ed b8 c8       	vfmadd231pd %ymm0,%ymm2,%ymm1
  402195:	c4 e2 fd b8 d1       	vfmadd231pd %ymm1,%ymm0,%ymm2
  40219a:	c4 e2 f5 b8 c2       	vfmadd231pd %ymm2,%ymm1,%ymm0
  40219f:	c4 e2 ed b8 c8       	vfmadd231pd %ymm0,%ymm2,%ymm1
  4021a4:	c4 e2 fd b8 d1       	vfmadd231pd %ymm1,%ymm0,%ymm2
  4021a9:	c4 e2 f5 b8 c2       	vfmadd231pd %ymm2,%ymm1,%ymm0
  4021ae:	c4 e2 ed b8 c8       	vfmadd231pd %ymm0,%ymm2,%ymm1
  4021b3:	c4 e2 fd b8 d1       	vfmadd231pd %ymm1,%ymm0,%ymm2
  4021b8:	c4 e2 f5 b8 c2       	vfmadd231pd %ymm2,%ymm1,%ymm0
  4021bd:	c4 e2 ed b8 c8       	vfmadd231pd %ymm0,%ymm2,%ymm1
  4021c2:	c4 e2 fd b8 d1       	vfmadd231pd %ymm1,%ymm0,%ymm2
  4021c7:	c4 e2 f5 b8 c2       	vfmadd231pd %ymm2,%ymm1,%ymm0
  4021cc:	c4 e2 ed b8 c8       	vfmadd231pd %ymm0,%ymm2,%ymm1
  4021d1:	c4 e2 fd b8 d1       	vfmadd231pd %ymm1,%ymm0,%ymm2
  4021d6:	c4 e2 f5 b8 c2       	vfmadd231pd %ymm2,%ymm1,%ymm0
  4021db:	c4 e2 ed b8 c8       	vfmadd231pd %ymm0,%ymm2,%ymm1
  4021e0:	c4 e2 fd b8 d1       	vfmadd231pd %ymm1,%ymm0,%ymm2
  4021e5:	c4 e2 f5 b8 c2       	vfmadd231pd %ymm2,%ymm1,%ymm0
  4021ea:	c4 e2 ed b8 c8       	vfmadd231pd %ymm0,%ymm2,%ymm1
  4021ef:	c4 e2 fd b8 d1       	vfmadd231pd %ymm1,%ymm0,%ymm2
  4021f4:	c4 e2 f5 b8 c2       	vfmadd231pd %ymm2,%ymm1,%ymm0
  4021f9:	c4 e2 ed b8 c8       	vfmadd231pd %ymm0,%ymm2,%ymm1
  4021fe:	c4 e2 fd b8 d1       	vfmadd231pd %ymm1,%ymm0,%ymm2
  402203:	c4 e2 f5 b8 c2       	vfmadd231pd %ymm2,%ymm1,%ymm0
  402208:	c4 e2 ed b8 c8       	vfmadd231pd %ymm0,%ymm2,%ymm1
  40220d:	c4 e2 fd b8 d1       	vfmadd231pd %ymm1,%ymm0,%ymm2
  402212:	c4 e2 f5 b8 c2       	vfmadd231pd %ymm2,%ymm1,%ymm0
  402217:	c4 e2 ed b8 c8       	vfmadd231pd %ymm0,%ymm2,%ymm1
  40221c:	c4 e2 fd b8 d1       	vfmadd231pd %ymm1,%ymm0,%ymm2
  402221:	c4 e2 f5 b8 c2       	vfmadd231pd %ymm2,%ymm1,%ymm0
  402226:	c4 e2 ed b8 c8       	vfmadd231pd %ymm0,%ymm2,%ymm1
  40222b:	c4 e2 fd b8 d1       	vfmadd231pd %ymm1,%ymm0,%ymm2
  402230:	c4 e2 f5 b8 c2       	vfmadd231pd %ymm2,%ymm1,%ymm0
  402235:	c4 e2 ed b8 c8       	vfmadd231pd %ymm0,%ymm2,%ymm1
  40223a:	c4 e2 fd b8 d1       	vfmadd231pd %ymm1,%ymm0,%ymm2
  40223f:	c4 e2 f5 b8 c2       	vfmadd231pd %ymm2,%ymm1,%ymm0
  402244:	c4 e2 ed b8 c8       	vfmadd231pd %ymm0,%ymm2,%ymm1
  402249:	c4 e2 fd b8 d1       	vfmadd231pd %ymm1,%ymm0,%ymm2
  40224e:	c4 e2 f5 b8 c2       	vfmadd231pd %ymm2,%ymm1,%ymm0
  402253:	c4 e2 ed b8 c8       	vfmadd231pd %ymm0,%ymm2,%ymm1
  402258:	c4 e2 fd b8 d1       	vfmadd231pd %ymm1,%ymm0,%ymm2
  40225d:	c4 e2 f5 b8 c2       	vfmadd231pd %ymm2,%ymm1,%ymm0
  402262:	c4 e2 ed b8 c8       	vfmadd231pd %ymm0,%ymm2,%ymm1
  402267:	c4 e2 fd b8 d1       	vfmadd231pd %ymm1,%ymm0,%ymm2
  40226c:	c4 e2 f5 b8 c2       	vfmadd231pd %ymm2,%ymm1,%ymm0
  402271:	c4 e2 ed b8 c8       	vfmadd231pd %ymm0,%ymm2,%ymm1
  402276:	c4 e2 fd b8 d1       	vfmadd231pd %ymm1,%ymm0,%ymm2
  40227b:	c4 e2 f5 b8 c2       	vfmadd231pd %ymm2,%ymm1,%ymm0
  402280:	c4 e2 ed b8 c8       	vfmadd231pd %ymm0,%ymm2,%ymm1
  402285:	c4 e2 fd b8 d1       	vfmadd231pd %ymm1,%ymm0,%ymm2
  40228a:	c4 e2 f5 b8 c2       	vfmadd231pd %ymm2,%ymm1,%ymm0
  40228f:	c4 e2 ed b8 c8       	vfmadd231pd %ymm0,%ymm2,%ymm1
  402294:	c4 e2 fd b8 d1       	vfmadd231pd %ymm1,%ymm0,%ymm2
  402299:	c4 e2 f5 b8 c2       	vfmadd231pd %ymm2,%ymm1,%ymm0
  40229e:	c4 e2 ed b8 c8       	vfmadd231pd %ymm0,%ymm2,%ymm1
  4022a3:	c4 e2 fd b8 d1       	vfmadd231pd %ymm1,%ymm0,%ymm2
  4022a8:	c4 e2 f5 b8 c2       	vfmadd231pd %ymm2,%ymm1,%ymm0
  4022ad:	c4 e2 ed b8 c8       	vfmadd231pd %ymm0,%ymm2,%ymm1
  4022b2:	c4 e2 fd b8 d1       	vfmadd231pd %ymm1,%ymm0,%ymm2
  4022b7:	c4 e2 f5 b8 c2       	vfmadd231pd %ymm2,%ymm1,%ymm0
  4022bc:	c4 e2 ed b8 c8       	vfmadd231pd %ymm0,%ymm2,%ymm1
  4022c1:	c4 e2 fd b8 d1       	vfmadd231pd %ymm1,%ymm0,%ymm2
  4022c6:	c4 e2 f5 b8 c2       	vfmadd231pd %ymm2,%ymm1,%ymm0
  4022cb:	c4 e2 ed b8 c8       	vfmadd231pd %ymm0,%ymm2,%ymm1
  4022d0:	c4 e2 fd b8 d1       	vfmadd231pd %ymm1,%ymm0,%ymm2
  4022d5:	c4 e2 f5 b8 c2       	vfmadd231pd %ymm2,%ymm1,%ymm0
  4022da:	c4 e2 ed b8 c8       	vfmadd231pd %ymm0,%ymm2,%ymm1
  4022df:	c4 e2 fd b8 d1       	vfmadd231pd %ymm1,%ymm0,%ymm2
  4022e4:	c4 e2 f5 b8 c2       	vfmadd231pd %ymm2,%ymm1,%ymm0
  4022e9:	c4 e2 ed b8 c8       	vfmadd231pd %ymm0,%ymm2,%ymm1
  4022ee:	c4 e2 fd b8 d1       	vfmadd231pd %ymm1,%ymm0,%ymm2
  4022f3:	c4 e2 f5 b8 c2       	vfmadd231pd %ymm2,%ymm1,%ymm0
  4022f8:	c4 e2 ed b8 c8       	vfmadd231pd %ymm0,%ymm2,%ymm1
  4022fd:	c4 e2 fd b8 d1       	vfmadd231pd %ymm1,%ymm0,%ymm2
  402302:	c4 e2 f5 b8 c2       	vfmadd231pd %ymm2,%ymm1,%ymm0
  402307:	c4 e2 ed b8 c8       	vfmadd231pd %ymm0,%ymm2,%ymm1
  40230c:	c4 e2 fd b8 d1       	vfmadd231pd %ymm1,%ymm0,%ymm2
  402311:	c4 e2 f5 b8 c2       	vfmadd231pd %ymm2,%ymm1,%ymm0
  402316:	c4 e2 ed b8 c8       	vfmadd231pd %ymm0,%ymm2,%ymm1
  40231b:	c4 e2 fd b8 d1       	vfmadd231pd %ymm1,%ymm0,%ymm2
  402320:	c4 e2 f5 b8 c2       	vfmadd231pd %ymm2,%ymm1,%ymm0
  402325:	c4 e2 ed b8 c8       	vfmadd231pd %ymm0,%ymm2,%ymm1
  40232a:	c4 e2 fd b8 d1       	vfmadd231pd %ymm1,%ymm0,%ymm2
  40232f:	c4 e2 f5 b8 c2       	vfmadd231pd %ymm2,%ymm1,%ymm0
  402334:	c4 e2 ed b8 c8       	vfmadd231pd %ymm0,%ymm2,%ymm1
  402339:	c4 e2 fd b8 d1       	vfmadd231pd %ymm1,%ymm0,%ymm2
  40233e:	c4 e2 f5 b8 c2       	vfmadd231pd %ymm2,%ymm1,%ymm0
  402343:	c4 e2 ed b8 c8       	vfmadd231pd %ymm0,%ymm2,%ymm1
  402348:	c4 e2 fd b8 d1       	vfmadd231pd %ymm1,%ymm0,%ymm2
  40234d:	c4 e2 f5 b8 c2       	vfmadd231pd %ymm2,%ymm1,%ymm0
  402352:	c4 e2 ed b8 c8       	vfmadd231pd %ymm0,%ymm2,%ymm1
  402357:	c4 e2 fd b8 d1       	vfmadd231pd %ymm1,%ymm0,%ymm2
  40235c:	c4 e2 f5 b8 c2       	vfmadd231pd %ymm2,%ymm1,%ymm0
  402361:	c4 e2 ed b8 c8       	vfmadd231pd %ymm0,%ymm2,%ymm1
  402366:	c4 e2 fd b8 d1       	vfmadd231pd %ymm1,%ymm0,%ymm2
  40236b:	c4 e2 f5 b8 c2       	vfmadd231pd %ymm2,%ymm1,%ymm0
  402370:	c4 e2 ed b8 c8       	vfmadd231pd %ymm0,%ymm2,%ymm1
  402375:	c4 e2 fd b8 d1       	vfmadd231pd %ymm1,%ymm0,%ymm2
  40237a:	c4 e2 f5 b8 c2       	vfmadd231pd %ymm2,%ymm1,%ymm0
  40237f:	c4 e2 ed b8 c8       	vfmadd231pd %ymm0,%ymm2,%ymm1
  402384:	c4 e2 fd b8 d1       	vfmadd231pd %ymm1,%ymm0,%ymm2
  402389:	c4 e2 f5 b8 c2       	vfmadd231pd %ymm2,%ymm1,%ymm0
  40238e:	c4 e2 ed b8 c8       	vfmadd231pd %ymm0,%ymm2,%ymm1
  402393:	c4 e2 fd b8 d1       	vfmadd231pd %ymm1,%ymm0,%ymm2
  402398:	c4 e2 f5 b8 c2       	vfmadd231pd %ymm2,%ymm1,%ymm0
  40239d:	c4 e2 ed b8 c8       	vfmadd231pd %ymm0,%ymm2,%ymm1
  4023a2:	c4 e2 fd b8 d1       	vfmadd231pd %ymm1,%ymm0,%ymm2
  4023a7:	c4 e2 f5 b8 c2       	vfmadd231pd %ymm2,%ymm1,%ymm0
  4023ac:	c4 e2 ed b8 c8       	vfmadd231pd %ymm0,%ymm2,%ymm1
  4023b1:	c4 e2 fd b8 d1       	vfmadd231pd %ymm1,%ymm0,%ymm2
  4023b6:	c4 e2 f5 b8 c2       	vfmadd231pd %ymm2,%ymm1,%ymm0
  4023bb:	c4 e2 ed b8 c8       	vfmadd231pd %ymm0,%ymm2,%ymm1
  4023c0:	c4 e2 fd b8 d1       	vfmadd231pd %ymm1,%ymm0,%ymm2
  4023c5:	c4 e2 f5 b8 c2       	vfmadd231pd %ymm2,%ymm1,%ymm0
  4023ca:	c4 e2 ed b8 c8       	vfmadd231pd %ymm0,%ymm2,%ymm1
  4023cf:	c4 e2 fd b8 d1       	vfmadd231pd %ymm1,%ymm0,%ymm2
  4023d4:	c4 e2 f5 b8 c2       	vfmadd231pd %ymm2,%ymm1,%ymm0
  4023d9:	c4 e2 ed b8 c8       	vfmadd231pd %ymm0,%ymm2,%ymm1
  4023de:	c4 e2 fd b8 d1       	vfmadd231pd %ymm1,%ymm0,%ymm2
  4023e3:	c4 e2 f5 b8 c2       	vfmadd231pd %ymm2,%ymm1,%ymm0
  4023e8:	c4 e2 ed b8 c8       	vfmadd231pd %ymm0,%ymm2,%ymm1
  4023ed:	c4 e2 fd b8 d1       	vfmadd231pd %ymm1,%ymm0,%ymm2
  4023f2:	c4 e2 f5 b8 c2       	vfmadd231pd %ymm2,%ymm1,%ymm0
  4023f7:	c4 e2 ed b8 c8       	vfmadd231pd %ymm0,%ymm2,%ymm1
  4023fc:	c4 e2 fd b8 d1       	vfmadd231pd %ymm1,%ymm0,%ymm2
  402401:	c4 e2 f5 b8 c2       	vfmadd231pd %ymm2,%ymm1,%ymm0
  402406:	c4 e2 ed b8 c8       	vfmadd231pd %ymm0,%ymm2,%ymm1
  40240b:	c4 e2 fd b8 d1       	vfmadd231pd %ymm1,%ymm0,%ymm2
  402410:	c4 e2 f5 b8 c2       	vfmadd231pd %ymm2,%ymm1,%ymm0
  402415:	c4 e2 ed b8 c8       	vfmadd231pd %ymm0,%ymm2,%ymm1
  40241a:	c4 e2 fd b8 d1       	vfmadd231pd %ymm1,%ymm0,%ymm2
  40241f:	c4 e2 f5 b8 c2       	vfmadd231pd %ymm2,%ymm1,%ymm0
  402424:	c4 e2 ed b8 c8       	vfmadd231pd %ymm0,%ymm2,%ymm1
  402429:	c4 e2 fd b8 d1       	vfmadd231pd %ymm1,%ymm0,%ymm2
  40242e:	c4 e2 f5 b8 c2       	vfmadd231pd %ymm2,%ymm1,%ymm0
  402433:	c4 e2 ed b8 c8       	vfmadd231pd %ymm0,%ymm2,%ymm1
  402438:	c4 e2 fd b8 d1       	vfmadd231pd %ymm1,%ymm0,%ymm2
  40243d:	c4 e2 f5 b8 c2       	vfmadd231pd %ymm2,%ymm1,%ymm0
  402442:	c4 e2 ed b8 c8       	vfmadd231pd %ymm0,%ymm2,%ymm1
  402447:	c4 e2 fd b8 d1       	vfmadd231pd %ymm1,%ymm0,%ymm2
  40244c:	c4 e2 f5 b8 c2       	vfmadd231pd %ymm2,%ymm1,%ymm0
  402451:	c4 e2 ed b8 c8       	vfmadd231pd %ymm0,%ymm2,%ymm1
  402456:	c4 e2 fd b8 d1       	vfmadd231pd %ymm1,%ymm0,%ymm2
  40245b:	c4 e2 f5 b8 c2       	vfmadd231pd %ymm2,%ymm1,%ymm0
  402460:	c4 e2 ed b8 c8       	vfmadd231pd %ymm0,%ymm2,%ymm1
  402465:	c4 e2 fd b8 d1       	vfmadd231pd %ymm1,%ymm0,%ymm2
  40246a:	c4 e2 f5 b8 c2       	vfmadd231pd %ymm2,%ymm1,%ymm0
  40246f:	c4 e2 ed b8 c8       	vfmadd231pd %ymm0,%ymm2,%ymm1
  402474:	c4 e2 fd b8 d1       	vfmadd231pd %ymm1,%ymm0,%ymm2
  402479:	c4 e2 f5 b8 c2       	vfmadd231pd %ymm2,%ymm1,%ymm0
  40247e:	c4 e2 ed b8 c8       	vfmadd231pd %ymm0,%ymm2,%ymm1
  402483:	c4 e2 fd b8 d1       	vfmadd231pd %ymm1,%ymm0,%ymm2
  402488:	c4 e2 f5 b8 c2       	vfmadd231pd %ymm2,%ymm1,%ymm0
  40248d:	c4 e2 ed b8 c8       	vfmadd231pd %ymm0,%ymm2,%ymm1
  402492:	c4 e2 fd b8 d1       	vfmadd231pd %ymm1,%ymm0,%ymm2
  402497:	c4 e2 f5 b8 c2       	vfmadd231pd %ymm2,%ymm1,%ymm0
  40249c:	c4 e2 ed b8 c8       	vfmadd231pd %ymm0,%ymm2,%ymm1
  4024a1:	c4 e2 fd b8 d1       	vfmadd231pd %ymm1,%ymm0,%ymm2
  4024a6:	c4 e2 f5 b8 c2       	vfmadd231pd %ymm2,%ymm1,%ymm0
  4024ab:	c4 e2 ed b8 c8       	vfmadd231pd %ymm0,%ymm2,%ymm1
  4024b0:	c4 e2 fd b8 d1       	vfmadd231pd %ymm1,%ymm0,%ymm2
  4024b5:	c4 e2 f5 b8 c2       	vfmadd231pd %ymm2,%ymm1,%ymm0
  4024ba:	c4 e2 ed b8 c8       	vfmadd231pd %ymm0,%ymm2,%ymm1
  4024bf:	c4 e2 fd b8 d1       	vfmadd231pd %ymm1,%ymm0,%ymm2
  4024c4:	c4 e2 f5 b8 c2       	vfmadd231pd %ymm2,%ymm1,%ymm0
  4024c9:	c4 e2 ed b8 c8       	vfmadd231pd %ymm0,%ymm2,%ymm1
  4024ce:	c4 e2 fd b8 d1       	vfmadd231pd %ymm1,%ymm0,%ymm2
  4024d3:	c4 e2 f5 b8 c2       	vfmadd231pd %ymm2,%ymm1,%ymm0
  4024d8:	c4 e2 ed b8 c8       	vfmadd231pd %ymm0,%ymm2,%ymm1
  4024dd:	c4 e2 fd b8 d1       	vfmadd231pd %ymm1,%ymm0,%ymm2
  4024e2:	c4 e2 f5 b8 c2       	vfmadd231pd %ymm2,%ymm1,%ymm0
  4024e7:	c4 e2 ed b8 c8       	vfmadd231pd %ymm0,%ymm2,%ymm1
  4024ec:	c4 e2 fd b8 d1       	vfmadd231pd %ymm1,%ymm0,%ymm2
  4024f1:	c4 e2 f5 b8 c2       	vfmadd231pd %ymm2,%ymm1,%ymm0
  4024f6:	c4 e2 ed b8 c8       	vfmadd231pd %ymm0,%ymm2,%ymm1
  4024fb:	c4 e2 fd b8 d1       	vfmadd231pd %ymm1,%ymm0,%ymm2
  402500:	c4 e2 f5 b8 c2       	vfmadd231pd %ymm2,%ymm1,%ymm0
  402505:	c4 e2 ed b8 c8       	vfmadd231pd %ymm0,%ymm2,%ymm1
  40250a:	c4 e2 fd b8 d1       	vfmadd231pd %ymm1,%ymm0,%ymm2
  40250f:	c4 e2 f5 b8 c2       	vfmadd231pd %ymm2,%ymm1,%ymm0
  402514:	c4 e2 ed b8 c8       	vfmadd231pd %ymm0,%ymm2,%ymm1
  402519:	c4 e2 fd b8 d1       	vfmadd231pd %ymm1,%ymm0,%ymm2
  40251e:	c4 e2 f5 b8 c2       	vfmadd231pd %ymm2,%ymm1,%ymm0
  402523:	c4 e2 ed b8 c8       	vfmadd231pd %ymm0,%ymm2,%ymm1
  402528:	c4 e2 fd b8 d1       	vfmadd231pd %ymm1,%ymm0,%ymm2
  40252d:	c4 e2 f5 b8 c2       	vfmadd231pd %ymm2,%ymm1,%ymm0
  402532:	c4 e2 ed b8 c8       	vfmadd231pd %ymm0,%ymm2,%ymm1
  402537:	c4 e2 fd b8 d1       	vfmadd231pd %ymm1,%ymm0,%ymm2
  40253c:	c4 e2 f5 b8 c2       	vfmadd231pd %ymm2,%ymm1,%ymm0
  402541:	c4 e2 ed b8 c8       	vfmadd231pd %ymm0,%ymm2,%ymm1
  402546:	c4 e2 fd b8 d1       	vfmadd231pd %ymm1,%ymm0,%ymm2
  40254b:	c4 e2 f5 b8 c2       	vfmadd231pd %ymm2,%ymm1,%ymm0
  402550:	c4 e2 ed b8 c8       	vfmadd231pd %ymm0,%ymm2,%ymm1
  402555:	c4 e2 fd b8 d1       	vfmadd231pd %ymm1,%ymm0,%ymm2
  40255a:	c4 e2 f5 b8 c2       	vfmadd231pd %ymm2,%ymm1,%ymm0
  40255f:	c4 e2 ed b8 c8       	vfmadd231pd %ymm0,%ymm2,%ymm1
  402564:	c4 e2 fd b8 d1       	vfmadd231pd %ymm1,%ymm0,%ymm2
  402569:	c4 e2 f5 b8 c2       	vfmadd231pd %ymm2,%ymm1,%ymm0
  40256e:	c4 e2 ed b8 c8       	vfmadd231pd %ymm0,%ymm2,%ymm1
  402573:	c4 e2 fd b8 d1       	vfmadd231pd %ymm1,%ymm0,%ymm2
  402578:	c4 e2 f5 b8 c2       	vfmadd231pd %ymm2,%ymm1,%ymm0
  40257d:	c4 e2 ed b8 c8       	vfmadd231pd %ymm0,%ymm2,%ymm1
  402582:	c4 e2 fd b8 d1       	vfmadd231pd %ymm1,%ymm0,%ymm2
  402587:	c4 e2 f5 b8 c2       	vfmadd231pd %ymm2,%ymm1,%ymm0
  40258c:	c4 e2 ed b8 c8       	vfmadd231pd %ymm0,%ymm2,%ymm1
  402591:	c4 e2 fd b8 d1       	vfmadd231pd %ymm1,%ymm0,%ymm2
  402596:	c4 e2 f5 b8 c2       	vfmadd231pd %ymm2,%ymm1,%ymm0
  40259b:	c4 e2 ed b8 c8       	vfmadd231pd %ymm0,%ymm2,%ymm1
  4025a0:	c4 e2 fd b8 d1       	vfmadd231pd %ymm1,%ymm0,%ymm2
  4025a5:	c4 e2 f5 b8 c2       	vfmadd231pd %ymm2,%ymm1,%ymm0
  4025aa:	c4 e2 ed b8 c8       	vfmadd231pd %ymm0,%ymm2,%ymm1
  4025af:	c4 e2 fd b8 d1       	vfmadd231pd %ymm1,%ymm0,%ymm2
  4025b4:	c4 e2 f5 b8 c2       	vfmadd231pd %ymm2,%ymm1,%ymm0
  4025b9:	c4 e2 ed b8 c8       	vfmadd231pd %ymm0,%ymm2,%ymm1
  4025be:	c4 e2 fd b8 d1       	vfmadd231pd %ymm1,%ymm0,%ymm2
  4025c3:	c4 e2 f5 b8 c2       	vfmadd231pd %ymm2,%ymm1,%ymm0
  4025c8:	c4 e2 ed b8 c8       	vfmadd231pd %ymm0,%ymm2,%ymm1
  4025cd:	c4 e2 fd b8 d1       	vfmadd231pd %ymm1,%ymm0,%ymm2
  4025d2:	c4 e2 f5 b8 c2       	vfmadd231pd %ymm2,%ymm1,%ymm0
  4025d7:	c4 e2 ed b8 c8       	vfmadd231pd %ymm0,%ymm2,%ymm1
  4025dc:	c4 e2 fd b8 d1       	vfmadd231pd %ymm1,%ymm0,%ymm2
  4025e1:	c4 e2 f5 b8 c2       	vfmadd231pd %ymm2,%ymm1,%ymm0
  4025e6:	c4 e2 ed b8 c8       	vfmadd231pd %ymm0,%ymm2,%ymm1
  4025eb:	c4 e2 fd b8 d1       	vfmadd231pd %ymm1,%ymm0,%ymm2
  4025f0:	c4 e2 f5 b8 c2       	vfmadd231pd %ymm2,%ymm1,%ymm0
  4025f5:	c4 e2 ed b8 c8       	vfmadd231pd %ymm0,%ymm2,%ymm1
  4025fa:	c4 e2 fd b8 d1       	vfmadd231pd %ymm1,%ymm0,%ymm2
  4025ff:	c4 e2 f5 b8 c2       	vfmadd231pd %ymm2,%ymm1,%ymm0
  402604:	c4 e2 ed b8 c8       	vfmadd231pd %ymm0,%ymm2,%ymm1
  402609:	c4 e2 fd b8 d1       	vfmadd231pd %ymm1,%ymm0,%ymm2
  40260e:	c4 e2 f5 b8 c2       	vfmadd231pd %ymm2,%ymm1,%ymm0
  402613:	c4 e2 ed b8 c8       	vfmadd231pd %ymm0,%ymm2,%ymm1
  402618:	c4 e2 fd b8 d1       	vfmadd231pd %ymm1,%ymm0,%ymm2
  40261d:	c4 e2 f5 b8 c2       	vfmadd231pd %ymm2,%ymm1,%ymm0
  402622:	c4 e2 ed b8 c8       	vfmadd231pd %ymm0,%ymm2,%ymm1
  402627:	c4 e2 fd b8 d1       	vfmadd231pd %ymm1,%ymm0,%ymm2
  40262c:	c4 e2 f5 b8 c2       	vfmadd231pd %ymm2,%ymm1,%ymm0
  402631:	c4 e2 ed b8 c8       	vfmadd231pd %ymm0,%ymm2,%ymm1
  402636:	c4 e2 fd b8 d1       	vfmadd231pd %ymm1,%ymm0,%ymm2
  40263b:	c4 e2 f5 b8 c2       	vfmadd231pd %ymm2,%ymm1,%ymm0
  402640:	c4 e2 ed b8 c8       	vfmadd231pd %ymm0,%ymm2,%ymm1
  402645:	c4 e2 fd b8 d1       	vfmadd231pd %ymm1,%ymm0,%ymm2
  40264a:	c4 e2 f5 b8 c2       	vfmadd231pd %ymm2,%ymm1,%ymm0
  40264f:	c4 e2 ed b8 c8       	vfmadd231pd %ymm0,%ymm2,%ymm1
  402654:	c4 e2 fd b8 d1       	vfmadd231pd %ymm1,%ymm0,%ymm2
  402659:	c4 e2 f5 b8 c2       	vfmadd231pd %ymm2,%ymm1,%ymm0
  40265e:	c4 e2 ed b8 c8       	vfmadd231pd %ymm0,%ymm2,%ymm1
  402663:	c4 e2 fd b8 d1       	vfmadd231pd %ymm1,%ymm0,%ymm2
  402668:	c4 e2 f5 b8 c2       	vfmadd231pd %ymm2,%ymm1,%ymm0
  40266d:	c4 e2 ed b8 c8       	vfmadd231pd %ymm0,%ymm2,%ymm1
  402672:	c4 e2 fd b8 d1       	vfmadd231pd %ymm1,%ymm0,%ymm2
  402677:	c4 e2 f5 b8 c2       	vfmadd231pd %ymm2,%ymm1,%ymm0
  40267c:	c4 e2 ed b8 c8       	vfmadd231pd %ymm0,%ymm2,%ymm1
  402681:	c4 e2 fd b8 d1       	vfmadd231pd %ymm1,%ymm0,%ymm2
  402686:	c4 e2 f5 b8 c2       	vfmadd231pd %ymm2,%ymm1,%ymm0
  40268b:	c4 e2 ed b8 c8       	vfmadd231pd %ymm0,%ymm2,%ymm1
  402690:	c4 e2 fd b8 d1       	vfmadd231pd %ymm1,%ymm0,%ymm2
  402695:	c4 e2 f5 b8 c2       	vfmadd231pd %ymm2,%ymm1,%ymm0
  40269a:	c4 e2 ed b8 c8       	vfmadd231pd %ymm0,%ymm2,%ymm1
  40269f:	c4 e2 fd b8 d1       	vfmadd231pd %ymm1,%ymm0,%ymm2
  4026a4:	c4 e2 f5 b8 c2       	vfmadd231pd %ymm2,%ymm1,%ymm0
  4026a9:	c4 e2 ed b8 c8       	vfmadd231pd %ymm0,%ymm2,%ymm1
  4026ae:	c4 e2 fd b8 d1       	vfmadd231pd %ymm1,%ymm0,%ymm2
  4026b3:	c4 e2 f5 b8 c2       	vfmadd231pd %ymm2,%ymm1,%ymm0
  4026b8:	c4 e2 ed b8 c8       	vfmadd231pd %ymm0,%ymm2,%ymm1
  4026bd:	c4 e2 fd b8 d1       	vfmadd231pd %ymm1,%ymm0,%ymm2
  4026c2:	c4 e2 f5 b8 c2       	vfmadd231pd %ymm2,%ymm1,%ymm0
  4026c7:	c4 e2 ed b8 c8       	vfmadd231pd %ymm0,%ymm2,%ymm1
  4026cc:	c4 e2 fd b8 d1       	vfmadd231pd %ymm1,%ymm0,%ymm2
  4026d1:	c4 e2 f5 b8 c2       	vfmadd231pd %ymm2,%ymm1,%ymm0
  4026d6:	c4 e2 ed b8 c8       	vfmadd231pd %ymm0,%ymm2,%ymm1
  4026db:	c4 e2 fd b8 d1       	vfmadd231pd %ymm1,%ymm0,%ymm2
  4026e0:	c4 e2 f5 b8 c2       	vfmadd231pd %ymm2,%ymm1,%ymm0
  4026e5:	c4 e2 ed b8 c8       	vfmadd231pd %ymm0,%ymm2,%ymm1
  4026ea:	c4 e2 fd b8 d1       	vfmadd231pd %ymm1,%ymm0,%ymm2
  4026ef:	c4 e2 f5 b8 c2       	vfmadd231pd %ymm2,%ymm1,%ymm0
  4026f4:	c4 e2 ed b8 c8       	vfmadd231pd %ymm0,%ymm2,%ymm1
  4026f9:	c4 e2 fd b8 d1       	vfmadd231pd %ymm1,%ymm0,%ymm2
  4026fe:	c4 e2 f5 b8 c2       	vfmadd231pd %ymm2,%ymm1,%ymm0
  402703:	c4 e2 ed b8 c8       	vfmadd231pd %ymm0,%ymm2,%ymm1
  402708:	c4 e2 fd b8 d1       	vfmadd231pd %ymm1,%ymm0,%ymm2
  40270d:	c4 e2 f5 b8 c2       	vfmadd231pd %ymm2,%ymm1,%ymm0
  402712:	c4 e2 ed b8 c8       	vfmadd231pd %ymm0,%ymm2,%ymm1
  402717:	c4 e2 fd b8 d1       	vfmadd231pd %ymm1,%ymm0,%ymm2
  40271c:	c4 e2 f5 b8 c2       	vfmadd231pd %ymm2,%ymm1,%ymm0
  402721:	c4 e2 ed b8 c8       	vfmadd231pd %ymm0,%ymm2,%ymm1
  402726:	c4 e2 fd b8 d1       	vfmadd231pd %ymm1,%ymm0,%ymm2
  40272b:	c4 e2 f5 b8 c2       	vfmadd231pd %ymm2,%ymm1,%ymm0
  402730:	c4 e2 ed b8 c8       	vfmadd231pd %ymm0,%ymm2,%ymm1
  402735:	c4 e2 fd b8 d1       	vfmadd231pd %ymm1,%ymm0,%ymm2
  40273a:	c4 e2 f5 b8 c2       	vfmadd231pd %ymm2,%ymm1,%ymm0
  40273f:	c4 e2 ed b8 c8       	vfmadd231pd %ymm0,%ymm2,%ymm1
  402744:	c4 e2 fd b8 d1       	vfmadd231pd %ymm1,%ymm0,%ymm2
  402749:	c4 e2 f5 b8 c2       	vfmadd231pd %ymm2,%ymm1,%ymm0
  40274e:	c4 e2 ed b8 c8       	vfmadd231pd %ymm0,%ymm2,%ymm1
  402753:	c4 e2 fd b8 d1       	vfmadd231pd %ymm1,%ymm0,%ymm2
  402758:	c4 e2 f5 b8 c2       	vfmadd231pd %ymm2,%ymm1,%ymm0
  40275d:	c4 e2 ed b8 c8       	vfmadd231pd %ymm0,%ymm2,%ymm1
  402762:	c4 e2 fd b8 d1       	vfmadd231pd %ymm1,%ymm0,%ymm2
  402767:	c4 e2 f5 b8 c2       	vfmadd231pd %ymm2,%ymm1,%ymm0
  40276c:	c4 e2 ed b8 c8       	vfmadd231pd %ymm0,%ymm2,%ymm1
  402771:	c4 e2 fd b8 d1       	vfmadd231pd %ymm1,%ymm0,%ymm2
  402776:	c4 e2 f5 b8 c2       	vfmadd231pd %ymm2,%ymm1,%ymm0
  40277b:	c4 e2 ed b8 c8       	vfmadd231pd %ymm0,%ymm2,%ymm1
  402780:	c4 e2 fd b8 d1       	vfmadd231pd %ymm1,%ymm0,%ymm2
  402785:	c4 e2 f5 b8 c2       	vfmadd231pd %ymm2,%ymm1,%ymm0
  40278a:	c4 e2 ed b8 c8       	vfmadd231pd %ymm0,%ymm2,%ymm1
  40278f:	c4 e2 fd b8 d1       	vfmadd231pd %ymm1,%ymm0,%ymm2
  402794:	c4 e2 f5 b8 c2       	vfmadd231pd %ymm2,%ymm1,%ymm0
  402799:	c4 e2 ed b8 c8       	vfmadd231pd %ymm0,%ymm2,%ymm1
  40279e:	c4 e2 fd b8 d1       	vfmadd231pd %ymm1,%ymm0,%ymm2
  4027a3:	c4 e2 f5 b8 c2       	vfmadd231pd %ymm2,%ymm1,%ymm0
  4027a8:	c4 e2 ed b8 c8       	vfmadd231pd %ymm0,%ymm2,%ymm1
  4027ad:	c4 e2 fd b8 d1       	vfmadd231pd %ymm1,%ymm0,%ymm2
  4027b2:	c4 e2 f5 b8 c2       	vfmadd231pd %ymm2,%ymm1,%ymm0
  4027b7:	c4 e2 ed b8 c8       	vfmadd231pd %ymm0,%ymm2,%ymm1
  4027bc:	c4 e2 fd b8 d1       	vfmadd231pd %ymm1,%ymm0,%ymm2
  4027c1:	c4 e2 f5 b8 c2       	vfmadd231pd %ymm2,%ymm1,%ymm0
  4027c6:	c4 e2 ed b8 c8       	vfmadd231pd %ymm0,%ymm2,%ymm1
  4027cb:	c4 e2 fd b8 d1       	vfmadd231pd %ymm1,%ymm0,%ymm2
  4027d0:	c4 e2 f5 b8 c2       	vfmadd231pd %ymm2,%ymm1,%ymm0
  4027d5:	c4 e2 ed b8 c8       	vfmadd231pd %ymm0,%ymm2,%ymm1
  4027da:	c4 e2 fd b8 d1       	vfmadd231pd %ymm1,%ymm0,%ymm2
  4027df:	c4 e2 f5 b8 c2       	vfmadd231pd %ymm2,%ymm1,%ymm0
  4027e4:	c4 e2 ed b8 c8       	vfmadd231pd %ymm0,%ymm2,%ymm1
  4027e9:	c4 e2 fd b8 d1       	vfmadd231pd %ymm1,%ymm0,%ymm2
  4027ee:	c4 e2 f5 b8 c2       	vfmadd231pd %ymm2,%ymm1,%ymm0
  4027f3:	c4 e2 ed b8 c8       	vfmadd231pd %ymm0,%ymm2,%ymm1
  4027f8:	c4 e2 fd b8 d1       	vfmadd231pd %ymm1,%ymm0,%ymm2
  4027fd:	c4 e2 f5 b8 c2       	vfmadd231pd %ymm2,%ymm1,%ymm0
  402802:	c4 e2 ed b8 c8       	vfmadd231pd %ymm0,%ymm2,%ymm1
  402807:	c4 e2 fd b8 d1       	vfmadd231pd %ymm1,%ymm0,%ymm2
  40280c:	c4 e2 f5 b8 c2       	vfmadd231pd %ymm2,%ymm1,%ymm0
  402811:	c4 e2 ed b8 c8       	vfmadd231pd %ymm0,%ymm2,%ymm1
  402816:	c4 e2 fd b8 d1       	vfmadd231pd %ymm1,%ymm0,%ymm2
  40281b:	c4 e2 f5 b8 c2       	vfmadd231pd %ymm2,%ymm1,%ymm0
  402820:	c4 e2 ed b8 c8       	vfmadd231pd %ymm0,%ymm2,%ymm1
  402825:	c4 e2 fd b8 d1       	vfmadd231pd %ymm1,%ymm0,%ymm2
  40282a:	c4 e2 f5 b8 c2       	vfmadd231pd %ymm2,%ymm1,%ymm0
  40282f:	c4 e2 ed b8 c8       	vfmadd231pd %ymm0,%ymm2,%ymm1
  402834:	c4 e2 fd b8 d1       	vfmadd231pd %ymm1,%ymm0,%ymm2
  402839:	c4 e2 f5 b8 c2       	vfmadd231pd %ymm2,%ymm1,%ymm0
  40283e:	c4 e2 ed b8 c8       	vfmadd231pd %ymm0,%ymm2,%ymm1
  402843:	c4 e2 fd b8 d1       	vfmadd231pd %ymm1,%ymm0,%ymm2
  402848:	c4 e2 f5 b8 c2       	vfmadd231pd %ymm2,%ymm1,%ymm0
  40284d:	c4 e2 ed b8 c8       	vfmadd231pd %ymm0,%ymm2,%ymm1
  402852:	c4 e2 fd b8 d1       	vfmadd231pd %ymm1,%ymm0,%ymm2
  402857:	c4 e2 f5 b8 c2       	vfmadd231pd %ymm2,%ymm1,%ymm0
  40285c:	c4 e2 ed b8 c8       	vfmadd231pd %ymm0,%ymm2,%ymm1
  402861:	c4 e2 fd b8 d1       	vfmadd231pd %ymm1,%ymm0,%ymm2
  402866:	c4 e2 f5 b8 c2       	vfmadd231pd %ymm2,%ymm1,%ymm0
  40286b:	c4 e2 ed b8 c8       	vfmadd231pd %ymm0,%ymm2,%ymm1
  402870:	c4 e2 fd b8 d1       	vfmadd231pd %ymm1,%ymm0,%ymm2
  402875:	c4 e2 f5 b8 c2       	vfmadd231pd %ymm2,%ymm1,%ymm0
  40287a:	c4 e2 ed b8 c8       	vfmadd231pd %ymm0,%ymm2,%ymm1
  40287f:	c4 e2 fd b8 d1       	vfmadd231pd %ymm1,%ymm0,%ymm2
  402884:	c4 e2 f5 b8 c2       	vfmadd231pd %ymm2,%ymm1,%ymm0
  402889:	c4 e2 ed b8 c8       	vfmadd231pd %ymm0,%ymm2,%ymm1
  40288e:	c4 e2 fd b8 d1       	vfmadd231pd %ymm1,%ymm0,%ymm2
  402893:	c4 e2 f5 b8 c2       	vfmadd231pd %ymm2,%ymm1,%ymm0
  402898:	c4 e2 ed b8 c8       	vfmadd231pd %ymm0,%ymm2,%ymm1
  40289d:	c4 e2 fd b8 d1       	vfmadd231pd %ymm1,%ymm0,%ymm2
  4028a2:	c4 e2 f5 b8 c2       	vfmadd231pd %ymm2,%ymm1,%ymm0
  4028a7:	c4 e2 ed b8 c8       	vfmadd231pd %ymm0,%ymm2,%ymm1
  4028ac:	c4 e2 fd b8 d1       	vfmadd231pd %ymm1,%ymm0,%ymm2
  4028b1:	c4 e2 f5 b8 c2       	vfmadd231pd %ymm2,%ymm1,%ymm0
  4028b6:	c4 e2 ed b8 c8       	vfmadd231pd %ymm0,%ymm2,%ymm1
  4028bb:	c4 e2 fd b8 d1       	vfmadd231pd %ymm1,%ymm0,%ymm2
  4028c0:	c4 e2 f5 b8 c2       	vfmadd231pd %ymm2,%ymm1,%ymm0
  4028c5:	c4 e2 ed b8 c8       	vfmadd231pd %ymm0,%ymm2,%ymm1
  4028ca:	c4 e2 fd b8 d1       	vfmadd231pd %ymm1,%ymm0,%ymm2
  4028cf:	c4 e2 f5 b8 c2       	vfmadd231pd %ymm2,%ymm1,%ymm0
  4028d4:	c4 e2 ed b8 c8       	vfmadd231pd %ymm0,%ymm2,%ymm1
  4028d9:	c4 e2 fd b8 d1       	vfmadd231pd %ymm1,%ymm0,%ymm2
  4028de:	c4 e2 f5 b8 c2       	vfmadd231pd %ymm2,%ymm1,%ymm0
  4028e3:	c4 e2 ed b8 c8       	vfmadd231pd %ymm0,%ymm2,%ymm1
  4028e8:	c4 e2 fd b8 d1       	vfmadd231pd %ymm1,%ymm0,%ymm2
  4028ed:	c4 e2 f5 b8 c2       	vfmadd231pd %ymm2,%ymm1,%ymm0
  4028f2:	c4 e2 ed b8 c8       	vfmadd231pd %ymm0,%ymm2,%ymm1
  4028f7:	c4 e2 fd b8 d1       	vfmadd231pd %ymm1,%ymm0,%ymm2
  4028fc:	c4 e2 f5 b8 c2       	vfmadd231pd %ymm2,%ymm1,%ymm0
  402901:	c4 e2 ed b8 c8       	vfmadd231pd %ymm0,%ymm2,%ymm1
  402906:	c4 e2 fd b8 d1       	vfmadd231pd %ymm1,%ymm0,%ymm2
  40290b:	c4 e2 f5 b8 c2       	vfmadd231pd %ymm2,%ymm1,%ymm0
  402910:	c4 e2 ed b8 c8       	vfmadd231pd %ymm0,%ymm2,%ymm1
  402915:	c4 e2 fd b8 d1       	vfmadd231pd %ymm1,%ymm0,%ymm2
  40291a:	c4 e2 f5 b8 c2       	vfmadd231pd %ymm2,%ymm1,%ymm0
  40291f:	c4 e2 ed b8 c8       	vfmadd231pd %ymm0,%ymm2,%ymm1
  402924:	c4 e2 fd b8 d1       	vfmadd231pd %ymm1,%ymm0,%ymm2
  402929:	c4 e2 f5 b8 c2       	vfmadd231pd %ymm2,%ymm1,%ymm0
  40292e:	c4 e2 ed b8 c8       	vfmadd231pd %ymm0,%ymm2,%ymm1
  402933:	c4 e2 fd b8 d1       	vfmadd231pd %ymm1,%ymm0,%ymm2
  402938:	c4 e2 f5 b8 c2       	vfmadd231pd %ymm2,%ymm1,%ymm0
  40293d:	c4 e2 ed b8 c8       	vfmadd231pd %ymm0,%ymm2,%ymm1
  402942:	c4 e2 fd b8 d1       	vfmadd231pd %ymm1,%ymm0,%ymm2
  402947:	c4 e2 f5 b8 c2       	vfmadd231pd %ymm2,%ymm1,%ymm0
  40294c:	c4 e2 ed b8 c8       	vfmadd231pd %ymm0,%ymm2,%ymm1
  402951:	c4 e2 fd b8 d1       	vfmadd231pd %ymm1,%ymm0,%ymm2
  402956:	c4 e2 f5 b8 c2       	vfmadd231pd %ymm2,%ymm1,%ymm0
  40295b:	c4 e2 ed b8 c8       	vfmadd231pd %ymm0,%ymm2,%ymm1
  402960:	c4 e2 fd b8 d1       	vfmadd231pd %ymm1,%ymm0,%ymm2
  402965:	c4 e2 f5 b8 c2       	vfmadd231pd %ymm2,%ymm1,%ymm0
  40296a:	c4 e2 ed b8 c8       	vfmadd231pd %ymm0,%ymm2,%ymm1
  40296f:	c4 e2 fd b8 d1       	vfmadd231pd %ymm1,%ymm0,%ymm2
  402974:	c4 e2 f5 b8 c2       	vfmadd231pd %ymm2,%ymm1,%ymm0
  402979:	c4 e2 ed b8 c8       	vfmadd231pd %ymm0,%ymm2,%ymm1
  40297e:	c4 e2 fd b8 d1       	vfmadd231pd %ymm1,%ymm0,%ymm2
  402983:	c4 e2 f5 b8 c2       	vfmadd231pd %ymm2,%ymm1,%ymm0
  402988:	c4 e2 ed b8 c8       	vfmadd231pd %ymm0,%ymm2,%ymm1
  40298d:	c4 e2 fd b8 d1       	vfmadd231pd %ymm1,%ymm0,%ymm2
  402992:	c4 e2 f5 b8 c2       	vfmadd231pd %ymm2,%ymm1,%ymm0
  402997:	c4 e2 ed b8 c8       	vfmadd231pd %ymm0,%ymm2,%ymm1
  40299c:	c4 e2 fd b8 d1       	vfmadd231pd %ymm1,%ymm0,%ymm2
  4029a1:	c4 e2 f5 b8 c2       	vfmadd231pd %ymm2,%ymm1,%ymm0
  4029a6:	c4 e2 ed b8 c8       	vfmadd231pd %ymm0,%ymm2,%ymm1
  4029ab:	c4 e2 fd b8 d1       	vfmadd231pd %ymm1,%ymm0,%ymm2
  4029b0:	c4 e2 f5 b8 c2       	vfmadd231pd %ymm2,%ymm1,%ymm0
  4029b5:	c4 e2 ed b8 c8       	vfmadd231pd %ymm0,%ymm2,%ymm1
  4029ba:	c4 e2 fd b8 d1       	vfmadd231pd %ymm1,%ymm0,%ymm2
  4029bf:	c4 e2 f5 b8 c2       	vfmadd231pd %ymm2,%ymm1,%ymm0
  4029c4:	c4 e2 ed b8 c8       	vfmadd231pd %ymm0,%ymm2,%ymm1
  4029c9:	c4 e2 fd b8 d1       	vfmadd231pd %ymm1,%ymm0,%ymm2
  4029ce:	c4 e2 f5 b8 c2       	vfmadd231pd %ymm2,%ymm1,%ymm0
  4029d3:	c4 e2 ed b8 c8       	vfmadd231pd %ymm0,%ymm2,%ymm1
  4029d8:	c4 e2 fd b8 d1       	vfmadd231pd %ymm1,%ymm0,%ymm2
  4029dd:	c4 e2 f5 b8 c2       	vfmadd231pd %ymm2,%ymm1,%ymm0
  4029e2:	c4 e2 ed b8 c8       	vfmadd231pd %ymm0,%ymm2,%ymm1
  4029e7:	c4 e2 fd b8 d1       	vfmadd231pd %ymm1,%ymm0,%ymm2
  4029ec:	c4 e2 f5 b8 c2       	vfmadd231pd %ymm2,%ymm1,%ymm0
  4029f1:	c4 e2 ed b8 c8       	vfmadd231pd %ymm0,%ymm2,%ymm1
  4029f6:	c4 e2 fd b8 d1       	vfmadd231pd %ymm1,%ymm0,%ymm2
  4029fb:	c4 e2 f5 b8 c2       	vfmadd231pd %ymm2,%ymm1,%ymm0
  402a00:	c4 e2 ed b8 c8       	vfmadd231pd %ymm0,%ymm2,%ymm1
  402a05:	c4 e2 fd b8 d1       	vfmadd231pd %ymm1,%ymm0,%ymm2
  402a0a:	c4 e2 f5 b8 c2       	vfmadd231pd %ymm2,%ymm1,%ymm0
  402a0f:	c4 e2 ed b8 c8       	vfmadd231pd %ymm0,%ymm2,%ymm1
  402a14:	c4 e2 fd b8 d1       	vfmadd231pd %ymm1,%ymm0,%ymm2
  402a19:	c4 e2 f5 b8 c2       	vfmadd231pd %ymm2,%ymm1,%ymm0
  402a1e:	c4 e2 ed b8 c8       	vfmadd231pd %ymm0,%ymm2,%ymm1
  402a23:	c4 e2 fd b8 d1       	vfmadd231pd %ymm1,%ymm0,%ymm2
  402a28:	c4 e2 f5 b8 c2       	vfmadd231pd %ymm2,%ymm1,%ymm0
  402a2d:	c4 e2 ed b8 c8       	vfmadd231pd %ymm0,%ymm2,%ymm1
  402a32:	c4 e2 fd b8 d1       	vfmadd231pd %ymm1,%ymm0,%ymm2
  402a37:	c4 e2 f5 b8 c2       	vfmadd231pd %ymm2,%ymm1,%ymm0
  402a3c:	c4 e2 ed b8 c8       	vfmadd231pd %ymm0,%ymm2,%ymm1
  402a41:	c4 e2 fd b8 d1       	vfmadd231pd %ymm1,%ymm0,%ymm2
  402a46:	c4 e2 f5 b8 c2       	vfmadd231pd %ymm2,%ymm1,%ymm0
  402a4b:	c4 e2 ed b8 c8       	vfmadd231pd %ymm0,%ymm2,%ymm1
  402a50:	c4 e2 fd b8 d1       	vfmadd231pd %ymm1,%ymm0,%ymm2
  402a55:	c4 e2 f5 b8 c2       	vfmadd231pd %ymm2,%ymm1,%ymm0
  402a5a:	c4 e2 ed b8 c8       	vfmadd231pd %ymm0,%ymm2,%ymm1
  402a5f:	c4 e2 fd b8 d1       	vfmadd231pd %ymm1,%ymm0,%ymm2
  402a64:	c4 e2 f5 b8 c2       	vfmadd231pd %ymm2,%ymm1,%ymm0
  402a69:	c4 e2 ed b8 c8       	vfmadd231pd %ymm0,%ymm2,%ymm1
  402a6e:	c4 e2 fd b8 d1       	vfmadd231pd %ymm1,%ymm0,%ymm2
  402a73:	c4 e2 f5 b8 c2       	vfmadd231pd %ymm2,%ymm1,%ymm0
  402a78:	c4 e2 ed b8 c8       	vfmadd231pd %ymm0,%ymm2,%ymm1
  402a7d:	c4 e2 fd b8 d1       	vfmadd231pd %ymm1,%ymm0,%ymm2
  402a82:	c4 e2 f5 b8 c2       	vfmadd231pd %ymm2,%ymm1,%ymm0
  402a87:	c4 e2 ed b8 c8       	vfmadd231pd %ymm0,%ymm2,%ymm1
  402a8c:	c4 e2 fd b8 d1       	vfmadd231pd %ymm1,%ymm0,%ymm2
  402a91:	c4 e2 f5 b8 c2       	vfmadd231pd %ymm2,%ymm1,%ymm0
  402a96:	c4 e2 ed b8 c8       	vfmadd231pd %ymm0,%ymm2,%ymm1
  402a9b:	c4 e2 fd b8 d1       	vfmadd231pd %ymm1,%ymm0,%ymm2
  402aa0:	c4 e2 f5 b8 c2       	vfmadd231pd %ymm2,%ymm1,%ymm0
  402aa5:	c4 e2 ed b8 c8       	vfmadd231pd %ymm0,%ymm2,%ymm1
  402aaa:	c4 e2 fd b8 d1       	vfmadd231pd %ymm1,%ymm0,%ymm2
  402aaf:	c4 e2 f5 b8 c2       	vfmadd231pd %ymm2,%ymm1,%ymm0
  402ab4:	c4 e2 ed b8 c8       	vfmadd231pd %ymm0,%ymm2,%ymm1
  402ab9:	c4 e2 fd b8 d1       	vfmadd231pd %ymm1,%ymm0,%ymm2
  402abe:	c4 e2 f5 b8 c2       	vfmadd231pd %ymm2,%ymm1,%ymm0
  402ac3:	c4 e2 ed b8 c8       	vfmadd231pd %ymm0,%ymm2,%ymm1
  402ac8:	c4 e2 fd b8 d1       	vfmadd231pd %ymm1,%ymm0,%ymm2
  402acd:	c4 e2 f5 b8 c2       	vfmadd231pd %ymm2,%ymm1,%ymm0
  402ad2:	c4 e2 ed b8 c8       	vfmadd231pd %ymm0,%ymm2,%ymm1
  402ad7:	c4 e2 fd b8 d1       	vfmadd231pd %ymm1,%ymm0,%ymm2
  402adc:	c4 e2 f5 b8 c2       	vfmadd231pd %ymm2,%ymm1,%ymm0
  402ae1:	c4 e2 ed b8 c8       	vfmadd231pd %ymm0,%ymm2,%ymm1
  402ae6:	c4 e2 fd b8 d1       	vfmadd231pd %ymm1,%ymm0,%ymm2
  402aeb:	c4 e2 f5 b8 c2       	vfmadd231pd %ymm2,%ymm1,%ymm0
  402af0:	c4 e2 ed b8 c8       	vfmadd231pd %ymm0,%ymm2,%ymm1
  402af5:	c4 e2 fd b8 d1       	vfmadd231pd %ymm1,%ymm0,%ymm2
  402afa:	c4 e2 f5 b8 c2       	vfmadd231pd %ymm2,%ymm1,%ymm0
  402aff:	c4 e2 ed b8 c8       	vfmadd231pd %ymm0,%ymm2,%ymm1
  402b04:	c4 e2 fd b8 d1       	vfmadd231pd %ymm1,%ymm0,%ymm2
  402b09:	c4 e2 f5 b8 c2       	vfmadd231pd %ymm2,%ymm1,%ymm0
  402b0e:	c4 e2 ed b8 c8       	vfmadd231pd %ymm0,%ymm2,%ymm1
  402b13:	c4 e2 fd b8 d1       	vfmadd231pd %ymm1,%ymm0,%ymm2
  402b18:	c4 e2 f5 b8 c2       	vfmadd231pd %ymm2,%ymm1,%ymm0
  402b1d:	c4 e2 ed b8 c8       	vfmadd231pd %ymm0,%ymm2,%ymm1
  402b22:	c4 e2 fd b8 d1       	vfmadd231pd %ymm1,%ymm0,%ymm2
  402b27:	c4 e2 f5 b8 c2       	vfmadd231pd %ymm2,%ymm1,%ymm0
  402b2c:	c4 e2 ed b8 c8       	vfmadd231pd %ymm0,%ymm2,%ymm1
  402b31:	c4 e2 fd b8 d1       	vfmadd231pd %ymm1,%ymm0,%ymm2
  402b36:	c4 e2 f5 b8 c2       	vfmadd231pd %ymm2,%ymm1,%ymm0
  402b3b:	c4 e2 ed b8 c8       	vfmadd231pd %ymm0,%ymm2,%ymm1
  402b40:	c4 e2 fd b8 d1       	vfmadd231pd %ymm1,%ymm0,%ymm2
  402b45:	c4 e2 f5 b8 c2       	vfmadd231pd %ymm2,%ymm1,%ymm0
  402b4a:	c4 e2 ed b8 c8       	vfmadd231pd %ymm0,%ymm2,%ymm1
  402b4f:	c4 e2 fd b8 d1       	vfmadd231pd %ymm1,%ymm0,%ymm2
  402b54:	c4 e2 f5 b8 c2       	vfmadd231pd %ymm2,%ymm1,%ymm0
  402b59:	c4 e2 ed b8 c8       	vfmadd231pd %ymm0,%ymm2,%ymm1
  402b5e:	c4 e2 fd b8 d1       	vfmadd231pd %ymm1,%ymm0,%ymm2
  402b63:	c4 e2 f5 b8 c2       	vfmadd231pd %ymm2,%ymm1,%ymm0
  402b68:	c4 e2 ed b8 c8       	vfmadd231pd %ymm0,%ymm2,%ymm1
  402b6d:	c4 e2 fd b8 d1       	vfmadd231pd %ymm1,%ymm0,%ymm2
  402b72:	c4 e2 f5 b8 c2       	vfmadd231pd %ymm2,%ymm1,%ymm0
  402b77:	c4 e2 ed b8 c8       	vfmadd231pd %ymm0,%ymm2,%ymm1
  402b7c:	c4 e2 fd b8 d1       	vfmadd231pd %ymm1,%ymm0,%ymm2
  402b81:	c4 e2 f5 b8 c2       	vfmadd231pd %ymm2,%ymm1,%ymm0
  402b86:	c4 e2 ed b8 c8       	vfmadd231pd %ymm0,%ymm2,%ymm1
  402b8b:	c4 e2 fd b8 d1       	vfmadd231pd %ymm1,%ymm0,%ymm2
  402b90:	c4 e2 f5 b8 c2       	vfmadd231pd %ymm2,%ymm1,%ymm0
  402b95:	c4 e2 ed b8 c8       	vfmadd231pd %ymm0,%ymm2,%ymm1
  402b9a:	c4 e2 fd b8 d1       	vfmadd231pd %ymm1,%ymm0,%ymm2
  402b9f:	c4 e2 f5 b8 c2       	vfmadd231pd %ymm2,%ymm1,%ymm0
  402ba4:	c4 e2 ed b8 c8       	vfmadd231pd %ymm0,%ymm2,%ymm1
  402ba9:	c4 e2 fd b8 d1       	vfmadd231pd %ymm1,%ymm0,%ymm2
  402bae:	c4 e2 f5 b8 c2       	vfmadd231pd %ymm2,%ymm1,%ymm0
  402bb3:	c4 e2 ed b8 c8       	vfmadd231pd %ymm0,%ymm2,%ymm1
  402bb8:	c4 e2 fd b8 d1       	vfmadd231pd %ymm1,%ymm0,%ymm2
  402bbd:	c4 e2 f5 b8 c2       	vfmadd231pd %ymm2,%ymm1,%ymm0
  402bc2:	c4 e2 ed b8 c8       	vfmadd231pd %ymm0,%ymm2,%ymm1
  402bc7:	c4 e2 fd b8 d1       	vfmadd231pd %ymm1,%ymm0,%ymm2
  402bcc:	c4 e2 f5 b8 c2       	vfmadd231pd %ymm2,%ymm1,%ymm0
  402bd1:	c4 e2 ed b8 c8       	vfmadd231pd %ymm0,%ymm2,%ymm1
  402bd6:	c4 e2 fd b8 d1       	vfmadd231pd %ymm1,%ymm0,%ymm2
  402bdb:	c4 e2 f5 b8 c2       	vfmadd231pd %ymm2,%ymm1,%ymm0
  402be0:	c4 e2 ed b8 c8       	vfmadd231pd %ymm0,%ymm2,%ymm1
  402be5:	c4 e2 fd b8 d1       	vfmadd231pd %ymm1,%ymm0,%ymm2
  402bea:	c4 e2 f5 b8 c2       	vfmadd231pd %ymm2,%ymm1,%ymm0
  402bef:	c4 e2 ed b8 c8       	vfmadd231pd %ymm0,%ymm2,%ymm1
  402bf4:	c4 e2 fd b8 d1       	vfmadd231pd %ymm1,%ymm0,%ymm2
  402bf9:	c4 e2 f5 b8 c2       	vfmadd231pd %ymm2,%ymm1,%ymm0
  402bfe:	c4 e2 ed b8 c8       	vfmadd231pd %ymm0,%ymm2,%ymm1
  402c03:	c4 e2 fd b8 d1       	vfmadd231pd %ymm1,%ymm0,%ymm2
  402c08:	c4 e2 f5 b8 c2       	vfmadd231pd %ymm2,%ymm1,%ymm0
  402c0d:	c4 e2 ed b8 c8       	vfmadd231pd %ymm0,%ymm2,%ymm1
  402c12:	c4 e2 fd b8 d1       	vfmadd231pd %ymm1,%ymm0,%ymm2
  402c17:	c4 e2 f5 b8 c2       	vfmadd231pd %ymm2,%ymm1,%ymm0
  402c1c:	c4 e2 ed b8 c8       	vfmadd231pd %ymm0,%ymm2,%ymm1
  402c21:	c4 e2 fd b8 d1       	vfmadd231pd %ymm1,%ymm0,%ymm2
  402c26:	c4 e2 f5 b8 c2       	vfmadd231pd %ymm2,%ymm1,%ymm0
  402c2b:	c4 e2 ed b8 c8       	vfmadd231pd %ymm0,%ymm2,%ymm1
  402c30:	c4 e2 fd b8 d1       	vfmadd231pd %ymm1,%ymm0,%ymm2
  402c35:	c4 e2 f5 b8 c2       	vfmadd231pd %ymm2,%ymm1,%ymm0
  402c3a:	c4 e2 ed b8 c8       	vfmadd231pd %ymm0,%ymm2,%ymm1
  402c3f:	c4 e2 fd b8 d1       	vfmadd231pd %ymm1,%ymm0,%ymm2
  402c44:	c4 e2 f5 b8 c2       	vfmadd231pd %ymm2,%ymm1,%ymm0
  402c49:	c4 e2 ed b8 c8       	vfmadd231pd %ymm0,%ymm2,%ymm1
  402c4e:	c4 e2 fd b8 d1       	vfmadd231pd %ymm1,%ymm0,%ymm2
  402c53:	c4 e2 f5 b8 c2       	vfmadd231pd %ymm2,%ymm1,%ymm0
  402c58:	c4 e2 ed b8 c8       	vfmadd231pd %ymm0,%ymm2,%ymm1
  402c5d:	c4 e2 fd b8 d1       	vfmadd231pd %ymm1,%ymm0,%ymm2
  402c62:	c4 e2 f5 b8 c2       	vfmadd231pd %ymm2,%ymm1,%ymm0
  402c67:	c4 e2 ed b8 c8       	vfmadd231pd %ymm0,%ymm2,%ymm1
  402c6c:	c4 e2 fd b8 d1       	vfmadd231pd %ymm1,%ymm0,%ymm2
  402c71:	c4 e2 f5 b8 c2       	vfmadd231pd %ymm2,%ymm1,%ymm0
  402c76:	c4 e2 ed b8 c8       	vfmadd231pd %ymm0,%ymm2,%ymm1
  402c7b:	c4 e2 fd b8 d1       	vfmadd231pd %ymm1,%ymm0,%ymm2
  402c80:	c4 e2 f5 b8 c2       	vfmadd231pd %ymm2,%ymm1,%ymm0
  402c85:	c4 e2 ed b8 c8       	vfmadd231pd %ymm0,%ymm2,%ymm1
  402c8a:	c4 e2 fd b8 d1       	vfmadd231pd %ymm1,%ymm0,%ymm2
  402c8f:	c4 e2 f5 b8 c2       	vfmadd231pd %ymm2,%ymm1,%ymm0
  402c94:	c4 e2 ed b8 c8       	vfmadd231pd %ymm0,%ymm2,%ymm1
  402c99:	c4 e2 fd b8 d1       	vfmadd231pd %ymm1,%ymm0,%ymm2
  402c9e:	c4 e2 f5 b8 c2       	vfmadd231pd %ymm2,%ymm1,%ymm0
  402ca3:	c4 e2 ed b8 c8       	vfmadd231pd %ymm0,%ymm2,%ymm1
  402ca8:	c4 e2 fd b8 d1       	vfmadd231pd %ymm1,%ymm0,%ymm2
  402cad:	c4 e2 f5 b8 c2       	vfmadd231pd %ymm2,%ymm1,%ymm0
  402cb2:	c4 e2 ed b8 c8       	vfmadd231pd %ymm0,%ymm2,%ymm1
  402cb7:	c4 e2 fd b8 d1       	vfmadd231pd %ymm1,%ymm0,%ymm2
  402cbc:	c4 e2 f5 b8 c2       	vfmadd231pd %ymm2,%ymm1,%ymm0
  402cc1:	c4 e2 ed b8 c8       	vfmadd231pd %ymm0,%ymm2,%ymm1
  402cc6:	c4 e2 fd b8 d1       	vfmadd231pd %ymm1,%ymm0,%ymm2
  402ccb:	c4 e2 f5 b8 c2       	vfmadd231pd %ymm2,%ymm1,%ymm0
  402cd0:	c4 e2 ed b8 c8       	vfmadd231pd %ymm0,%ymm2,%ymm1
  402cd5:	c4 e2 fd b8 d1       	vfmadd231pd %ymm1,%ymm0,%ymm2
  402cda:	c4 e2 f5 b8 c2       	vfmadd231pd %ymm2,%ymm1,%ymm0
  402cdf:	c4 e2 ed b8 c8       	vfmadd231pd %ymm0,%ymm2,%ymm1
  402ce4:	c4 e2 fd b8 d1       	vfmadd231pd %ymm1,%ymm0,%ymm2
  402ce9:	c4 e2 f5 b8 c2       	vfmadd231pd %ymm2,%ymm1,%ymm0
  402cee:	c4 e2 ed b8 c8       	vfmadd231pd %ymm0,%ymm2,%ymm1
  402cf3:	c4 e2 fd b8 d1       	vfmadd231pd %ymm1,%ymm0,%ymm2
  402cf8:	c4 e2 f5 b8 c2       	vfmadd231pd %ymm2,%ymm1,%ymm0
  402cfd:	c4 e2 ed b8 c8       	vfmadd231pd %ymm0,%ymm2,%ymm1
  402d02:	c4 e2 fd b8 d1       	vfmadd231pd %ymm1,%ymm0,%ymm2
  402d07:	c4 e2 f5 b8 c2       	vfmadd231pd %ymm2,%ymm1,%ymm0
  402d0c:	c4 e2 ed b8 c8       	vfmadd231pd %ymm0,%ymm2,%ymm1
  402d11:	c4 e2 fd b8 d1       	vfmadd231pd %ymm1,%ymm0,%ymm2
  402d16:	c4 e2 f5 b8 c2       	vfmadd231pd %ymm2,%ymm1,%ymm0
  402d1b:	c4 e2 ed b8 c8       	vfmadd231pd %ymm0,%ymm2,%ymm1
  402d20:	c4 e2 fd b8 d1       	vfmadd231pd %ymm1,%ymm0,%ymm2
  402d25:	c4 e2 f5 b8 c2       	vfmadd231pd %ymm2,%ymm1,%ymm0
  402d2a:	c4 e2 ed b8 c8       	vfmadd231pd %ymm0,%ymm2,%ymm1
  402d2f:	c4 e2 fd b8 d1       	vfmadd231pd %ymm1,%ymm0,%ymm2
  402d34:	c4 e2 f5 b8 c2       	vfmadd231pd %ymm2,%ymm1,%ymm0
  402d39:	c4 e2 ed b8 c8       	vfmadd231pd %ymm0,%ymm2,%ymm1
  402d3e:	c4 e2 fd b8 d1       	vfmadd231pd %ymm1,%ymm0,%ymm2
  402d43:	c4 e2 f5 b8 c2       	vfmadd231pd %ymm2,%ymm1,%ymm0
  402d48:	c4 e2 ed b8 c8       	vfmadd231pd %ymm0,%ymm2,%ymm1
  402d4d:	c4 e2 fd b8 d1       	vfmadd231pd %ymm1,%ymm0,%ymm2
  402d52:	c4 e2 f5 b8 c2       	vfmadd231pd %ymm2,%ymm1,%ymm0
  402d57:	c4 e2 ed b8 c8       	vfmadd231pd %ymm0,%ymm2,%ymm1
  402d5c:	c4 e2 fd b8 d1       	vfmadd231pd %ymm1,%ymm0,%ymm2
  402d61:	c4 e2 f5 b8 c2       	vfmadd231pd %ymm2,%ymm1,%ymm0
  402d66:	c4 e2 ed b8 c8       	vfmadd231pd %ymm0,%ymm2,%ymm1
  402d6b:	c4 e2 fd b8 d1       	vfmadd231pd %ymm1,%ymm0,%ymm2
  402d70:	c4 e2 f5 b8 c2       	vfmadd231pd %ymm2,%ymm1,%ymm0
  402d75:	c4 e2 ed b8 c8       	vfmadd231pd %ymm0,%ymm2,%ymm1
  402d7a:	c4 e2 fd b8 d1       	vfmadd231pd %ymm1,%ymm0,%ymm2
  402d7f:	c4 e2 f5 b8 c2       	vfmadd231pd %ymm2,%ymm1,%ymm0
  402d84:	c4 e2 ed b8 c8       	vfmadd231pd %ymm0,%ymm2,%ymm1
  402d89:	c4 e2 fd b8 d1       	vfmadd231pd %ymm1,%ymm0,%ymm2
  402d8e:	c4 e2 f5 b8 c2       	vfmadd231pd %ymm2,%ymm1,%ymm0
  402d93:	c4 e2 ed b8 c8       	vfmadd231pd %ymm0,%ymm2,%ymm1
  402d98:	c4 e2 fd b8 d1       	vfmadd231pd %ymm1,%ymm0,%ymm2
  402d9d:	c4 e2 f5 b8 c2       	vfmadd231pd %ymm2,%ymm1,%ymm0
  402da2:	c4 e2 ed b8 c8       	vfmadd231pd %ymm0,%ymm2,%ymm1
  402da7:	c4 e2 fd b8 d1       	vfmadd231pd %ymm1,%ymm0,%ymm2
  402dac:	c4 e2 f5 b8 c2       	vfmadd231pd %ymm2,%ymm1,%ymm0
  402db1:	c4 e2 ed b8 c8       	vfmadd231pd %ymm0,%ymm2,%ymm1
  402db6:	c4 e2 fd b8 d1       	vfmadd231pd %ymm1,%ymm0,%ymm2
  402dbb:	c4 e2 f5 b8 c2       	vfmadd231pd %ymm2,%ymm1,%ymm0
  402dc0:	c4 e2 ed b8 c8       	vfmadd231pd %ymm0,%ymm2,%ymm1
  402dc5:	c4 e2 fd b8 d1       	vfmadd231pd %ymm1,%ymm0,%ymm2
  402dca:	c4 e2 f5 b8 c2       	vfmadd231pd %ymm2,%ymm1,%ymm0
  402dcf:	c4 e2 ed b8 c8       	vfmadd231pd %ymm0,%ymm2,%ymm1
  402dd4:	c4 e2 fd b8 d1       	vfmadd231pd %ymm1,%ymm0,%ymm2
  402dd9:	c4 e2 f5 b8 c2       	vfmadd231pd %ymm2,%ymm1,%ymm0
  402dde:	c4 e2 ed b8 c8       	vfmadd231pd %ymm0,%ymm2,%ymm1
  402de3:	c4 e2 fd b8 d1       	vfmadd231pd %ymm1,%ymm0,%ymm2
  402de8:	c4 e2 f5 b8 c2       	vfmadd231pd %ymm2,%ymm1,%ymm0
  402ded:	c4 e2 ed b8 c8       	vfmadd231pd %ymm0,%ymm2,%ymm1
  402df2:	c4 e2 fd b8 d1       	vfmadd231pd %ymm1,%ymm0,%ymm2
  402df7:	c4 e2 f5 b8 c2       	vfmadd231pd %ymm2,%ymm1,%ymm0
  402dfc:	c4 e2 ed b8 c8       	vfmadd231pd %ymm0,%ymm2,%ymm1
  402e01:	c4 e2 fd b8 d1       	vfmadd231pd %ymm1,%ymm0,%ymm2
  402e06:	c4 e2 f5 b8 c2       	vfmadd231pd %ymm2,%ymm1,%ymm0
  402e0b:	c4 e2 ed b8 c8       	vfmadd231pd %ymm0,%ymm2,%ymm1
  402e10:	c4 e2 fd b8 d1       	vfmadd231pd %ymm1,%ymm0,%ymm2
  402e15:	c4 e2 f5 b8 c2       	vfmadd231pd %ymm2,%ymm1,%ymm0
  402e1a:	c4 e2 ed b8 c8       	vfmadd231pd %ymm0,%ymm2,%ymm1
  402e1f:	c4 e2 fd b8 d1       	vfmadd231pd %ymm1,%ymm0,%ymm2
  402e24:	c4 e2 f5 b8 c2       	vfmadd231pd %ymm2,%ymm1,%ymm0
  402e29:	c4 e2 ed b8 c8       	vfmadd231pd %ymm0,%ymm2,%ymm1
  402e2e:	c4 e2 fd b8 d1       	vfmadd231pd %ymm1,%ymm0,%ymm2
  402e33:	c4 e2 f5 b8 c2       	vfmadd231pd %ymm2,%ymm1,%ymm0
  402e38:	c4 e2 ed b8 c8       	vfmadd231pd %ymm0,%ymm2,%ymm1
  402e3d:	c4 e2 fd b8 d1       	vfmadd231pd %ymm1,%ymm0,%ymm2
  402e42:	c4 e2 f5 b8 c2       	vfmadd231pd %ymm2,%ymm1,%ymm0
  402e47:	c4 e2 ed b8 c8       	vfmadd231pd %ymm0,%ymm2,%ymm1
  402e4c:	c4 e2 fd b8 d1       	vfmadd231pd %ymm1,%ymm0,%ymm2
  402e51:	c4 e2 f5 b8 c2       	vfmadd231pd %ymm2,%ymm1,%ymm0
  402e56:	c4 e2 ed b8 c8       	vfmadd231pd %ymm0,%ymm2,%ymm1
  402e5b:	c4 e2 fd b8 d1       	vfmadd231pd %ymm1,%ymm0,%ymm2
  402e60:	c4 e2 f5 b8 c2       	vfmadd231pd %ymm2,%ymm1,%ymm0
  402e65:	c4 e2 ed b8 c8       	vfmadd231pd %ymm0,%ymm2,%ymm1
  402e6a:	c4 e2 fd b8 d1       	vfmadd231pd %ymm1,%ymm0,%ymm2
  402e6f:	c4 e2 f5 b8 c2       	vfmadd231pd %ymm2,%ymm1,%ymm0
  402e74:	c4 e2 ed b8 c8       	vfmadd231pd %ymm0,%ymm2,%ymm1
  402e79:	c4 e2 fd b8 d1       	vfmadd231pd %ymm1,%ymm0,%ymm2
  402e7e:	c4 e2 f5 b8 c2       	vfmadd231pd %ymm2,%ymm1,%ymm0
  402e83:	c4 e2 ed b8 c8       	vfmadd231pd %ymm0,%ymm2,%ymm1
  402e88:	c4 e2 fd b8 d1       	vfmadd231pd %ymm1,%ymm0,%ymm2
  402e8d:	c4 e2 f5 b8 c2       	vfmadd231pd %ymm2,%ymm1,%ymm0
  402e92:	c4 e2 ed b8 c8       	vfmadd231pd %ymm0,%ymm2,%ymm1
  402e97:	c4 e2 fd b8 d1       	vfmadd231pd %ymm1,%ymm0,%ymm2
  402e9c:	c4 e2 f5 b8 c2       	vfmadd231pd %ymm2,%ymm1,%ymm0
  402ea1:	c4 e2 ed b8 c8       	vfmadd231pd %ymm0,%ymm2,%ymm1
  402ea6:	c4 e2 fd b8 d1       	vfmadd231pd %ymm1,%ymm0,%ymm2
  402eab:	c4 e2 f5 b8 c2       	vfmadd231pd %ymm2,%ymm1,%ymm0
  402eb0:	c4 e2 ed b8 c8       	vfmadd231pd %ymm0,%ymm2,%ymm1
  402eb5:	c4 e2 fd b8 d1       	vfmadd231pd %ymm1,%ymm0,%ymm2
  402eba:	c4 e2 f5 b8 c2       	vfmadd231pd %ymm2,%ymm1,%ymm0
  402ebf:	c4 e2 ed b8 c8       	vfmadd231pd %ymm0,%ymm2,%ymm1
  402ec4:	c4 e2 fd b8 d1       	vfmadd231pd %ymm1,%ymm0,%ymm2
  402ec9:	c4 e2 f5 b8 c2       	vfmadd231pd %ymm2,%ymm1,%ymm0
  402ece:	c4 e2 ed b8 c8       	vfmadd231pd %ymm0,%ymm2,%ymm1
  402ed3:	c4 e2 fd b8 d1       	vfmadd231pd %ymm1,%ymm0,%ymm2
  402ed8:	c4 e2 f5 b8 c2       	vfmadd231pd %ymm2,%ymm1,%ymm0
  402edd:	c4 e2 ed b8 c8       	vfmadd231pd %ymm0,%ymm2,%ymm1
  402ee2:	c4 e2 fd b8 d1       	vfmadd231pd %ymm1,%ymm0,%ymm2
  402ee7:	c4 e2 f5 b8 c2       	vfmadd231pd %ymm2,%ymm1,%ymm0
  402eec:	c4 e2 ed b8 c8       	vfmadd231pd %ymm0,%ymm2,%ymm1
  402ef1:	c4 e2 fd b8 d1       	vfmadd231pd %ymm1,%ymm0,%ymm2
  402ef6:	c4 e2 f5 b8 c2       	vfmadd231pd %ymm2,%ymm1,%ymm0
  402efb:	c4 e2 ed b8 c8       	vfmadd231pd %ymm0,%ymm2,%ymm1
  402f00:	c4 e2 fd b8 d1       	vfmadd231pd %ymm1,%ymm0,%ymm2
  402f05:	c4 e2 f5 b8 c2       	vfmadd231pd %ymm2,%ymm1,%ymm0
  402f0a:	c4 e2 ed b8 c8       	vfmadd231pd %ymm0,%ymm2,%ymm1
  402f0f:	c4 e2 fd b8 d1       	vfmadd231pd %ymm1,%ymm0,%ymm2
  402f14:	c4 e2 f5 b8 c2       	vfmadd231pd %ymm2,%ymm1,%ymm0
  402f19:	c4 e2 ed b8 c8       	vfmadd231pd %ymm0,%ymm2,%ymm1
  402f1e:	c4 e2 fd b8 d1       	vfmadd231pd %ymm1,%ymm0,%ymm2
  402f23:	c4 e2 f5 b8 c2       	vfmadd231pd %ymm2,%ymm1,%ymm0
  402f28:	c4 e2 ed b8 c8       	vfmadd231pd %ymm0,%ymm2,%ymm1
  402f2d:	c4 e2 fd b8 d1       	vfmadd231pd %ymm1,%ymm0,%ymm2
  402f32:	c4 e2 f5 b8 c2       	vfmadd231pd %ymm2,%ymm1,%ymm0
  402f37:	c4 e2 ed b8 c8       	vfmadd231pd %ymm0,%ymm2,%ymm1
  402f3c:	c4 e2 fd b8 d1       	vfmadd231pd %ymm1,%ymm0,%ymm2
  402f41:	c4 e2 f5 b8 c2       	vfmadd231pd %ymm2,%ymm1,%ymm0
  402f46:	c4 e2 ed b8 c8       	vfmadd231pd %ymm0,%ymm2,%ymm1
  402f4b:	c4 e2 fd b8 d1       	vfmadd231pd %ymm1,%ymm0,%ymm2
  402f50:	c4 e2 f5 b8 c2       	vfmadd231pd %ymm2,%ymm1,%ymm0
  402f55:	c4 e2 ed b8 c8       	vfmadd231pd %ymm0,%ymm2,%ymm1
  402f5a:	c4 e2 fd b8 d1       	vfmadd231pd %ymm1,%ymm0,%ymm2
  402f5f:	c4 e2 f5 b8 c2       	vfmadd231pd %ymm2,%ymm1,%ymm0
  402f64:	c4 e2 ed b8 c8       	vfmadd231pd %ymm0,%ymm2,%ymm1
  402f69:	c4 e2 fd b8 d1       	vfmadd231pd %ymm1,%ymm0,%ymm2
  402f6e:	c4 e2 f5 b8 c2       	vfmadd231pd %ymm2,%ymm1,%ymm0
  402f73:	c4 e2 ed b8 c8       	vfmadd231pd %ymm0,%ymm2,%ymm1
  402f78:	c4 e2 fd b8 d1       	vfmadd231pd %ymm1,%ymm0,%ymm2
  402f7d:	c4 e2 f5 b8 c2       	vfmadd231pd %ymm2,%ymm1,%ymm0
  402f82:	c4 e2 ed b8 c8       	vfmadd231pd %ymm0,%ymm2,%ymm1
  402f87:	c4 e2 fd b8 d1       	vfmadd231pd %ymm1,%ymm0,%ymm2
  402f8c:	c4 e2 f5 b8 c2       	vfmadd231pd %ymm2,%ymm1,%ymm0
  402f91:	c4 e2 ed b8 c8       	vfmadd231pd %ymm0,%ymm2,%ymm1
  402f96:	c4 e2 fd b8 d1       	vfmadd231pd %ymm1,%ymm0,%ymm2
  402f9b:	c4 e2 f5 b8 c2       	vfmadd231pd %ymm2,%ymm1,%ymm0
  402fa0:	c4 e2 ed b8 c8       	vfmadd231pd %ymm0,%ymm2,%ymm1
  402fa5:	c4 e2 fd b8 d1       	vfmadd231pd %ymm1,%ymm0,%ymm2
  402faa:	c4 e2 f5 b8 c2       	vfmadd231pd %ymm2,%ymm1,%ymm0
  402faf:	c4 e2 ed b8 c8       	vfmadd231pd %ymm0,%ymm2,%ymm1
  402fb4:	c4 e2 fd b8 d1       	vfmadd231pd %ymm1,%ymm0,%ymm2
  402fb9:	c4 e2 f5 b8 c2       	vfmadd231pd %ymm2,%ymm1,%ymm0
  402fbe:	c4 e2 ed b8 c8       	vfmadd231pd %ymm0,%ymm2,%ymm1
  402fc3:	c4 e2 fd b8 d1       	vfmadd231pd %ymm1,%ymm0,%ymm2
  402fc8:	c4 e2 f5 b8 c2       	vfmadd231pd %ymm2,%ymm1,%ymm0
  402fcd:	c4 e2 ed b8 c8       	vfmadd231pd %ymm0,%ymm2,%ymm1
  402fd2:	c4 e2 fd b8 d1       	vfmadd231pd %ymm1,%ymm0,%ymm2
  402fd7:	c4 e2 f5 b8 c2       	vfmadd231pd %ymm2,%ymm1,%ymm0
  402fdc:	c4 e2 ed b8 c8       	vfmadd231pd %ymm0,%ymm2,%ymm1
  402fe1:	c4 e2 fd b8 d1       	vfmadd231pd %ymm1,%ymm0,%ymm2
  402fe6:	c4 e2 f5 b8 c2       	vfmadd231pd %ymm2,%ymm1,%ymm0
  402feb:	c4 e2 ed b8 c8       	vfmadd231pd %ymm0,%ymm2,%ymm1
  402ff0:	c4 e2 fd b8 d1       	vfmadd231pd %ymm1,%ymm0,%ymm2
  402ff5:	c4 e2 f5 b8 c2       	vfmadd231pd %ymm2,%ymm1,%ymm0
  402ffa:	c4 e2 ed b8 c8       	vfmadd231pd %ymm0,%ymm2,%ymm1
  402fff:	c4 e2 fd b8 d1       	vfmadd231pd %ymm1,%ymm0,%ymm2
  403004:	c4 e2 f5 b8 c2       	vfmadd231pd %ymm2,%ymm1,%ymm0
  403009:	c4 e2 ed b8 c8       	vfmadd231pd %ymm0,%ymm2,%ymm1
  40300e:	c4 e2 fd b8 d1       	vfmadd231pd %ymm1,%ymm0,%ymm2
  403013:	c4 e2 f5 b8 c2       	vfmadd231pd %ymm2,%ymm1,%ymm0
  403018:	c4 e2 ed b8 c8       	vfmadd231pd %ymm0,%ymm2,%ymm1
  40301d:	c4 e2 fd b8 d1       	vfmadd231pd %ymm1,%ymm0,%ymm2
  403022:	c4 e2 f5 b8 c2       	vfmadd231pd %ymm2,%ymm1,%ymm0
  403027:	c4 e2 ed b8 c8       	vfmadd231pd %ymm0,%ymm2,%ymm1
  40302c:	c4 e2 fd b8 d1       	vfmadd231pd %ymm1,%ymm0,%ymm2
  403031:	c4 e2 f5 b8 c2       	vfmadd231pd %ymm2,%ymm1,%ymm0
  403036:	c4 e2 ed b8 c8       	vfmadd231pd %ymm0,%ymm2,%ymm1
  40303b:	c4 e2 fd b8 d1       	vfmadd231pd %ymm1,%ymm0,%ymm2
  403040:	c4 e2 f5 b8 c2       	vfmadd231pd %ymm2,%ymm1,%ymm0
  403045:	c4 e2 ed b8 c8       	vfmadd231pd %ymm0,%ymm2,%ymm1
  40304a:	c4 e2 fd b8 d1       	vfmadd231pd %ymm1,%ymm0,%ymm2
  40304f:	c4 e2 f5 b8 c2       	vfmadd231pd %ymm2,%ymm1,%ymm0
  403054:	c4 e2 ed b8 c8       	vfmadd231pd %ymm0,%ymm2,%ymm1
  403059:	c4 e2 fd b8 d1       	vfmadd231pd %ymm1,%ymm0,%ymm2
  40305e:	c4 e2 f5 b8 c2       	vfmadd231pd %ymm2,%ymm1,%ymm0
  403063:	c4 e2 ed b8 c8       	vfmadd231pd %ymm0,%ymm2,%ymm1
  403068:	c4 e2 fd b8 d1       	vfmadd231pd %ymm1,%ymm0,%ymm2
  40306d:	c4 e2 f5 b8 c2       	vfmadd231pd %ymm2,%ymm1,%ymm0
  403072:	c4 e2 ed b8 c8       	vfmadd231pd %ymm0,%ymm2,%ymm1
  403077:	c4 e2 fd b8 d1       	vfmadd231pd %ymm1,%ymm0,%ymm2
  40307c:	c4 e2 f5 b8 c2       	vfmadd231pd %ymm2,%ymm1,%ymm0
  403081:	c4 e2 ed b8 c8       	vfmadd231pd %ymm0,%ymm2,%ymm1
  403086:	c4 e2 fd b8 d1       	vfmadd231pd %ymm1,%ymm0,%ymm2
  40308b:	c4 e2 f5 b8 c2       	vfmadd231pd %ymm2,%ymm1,%ymm0
  403090:	c4 e2 ed b8 c8       	vfmadd231pd %ymm0,%ymm2,%ymm1
  403095:	c4 e2 fd b8 d1       	vfmadd231pd %ymm1,%ymm0,%ymm2
  40309a:	c4 e2 f5 b8 c2       	vfmadd231pd %ymm2,%ymm1,%ymm0
  40309f:	c4 e2 ed b8 c8       	vfmadd231pd %ymm0,%ymm2,%ymm1
  4030a4:	c4 e2 fd b8 d1       	vfmadd231pd %ymm1,%ymm0,%ymm2
  4030a9:	c4 e2 f5 b8 c2       	vfmadd231pd %ymm2,%ymm1,%ymm0
  4030ae:	c4 e2 ed b8 c8       	vfmadd231pd %ymm0,%ymm2,%ymm1
  4030b3:	c4 e2 fd b8 d1       	vfmadd231pd %ymm1,%ymm0,%ymm2
  4030b8:	c4 e2 f5 b8 c2       	vfmadd231pd %ymm2,%ymm1,%ymm0
  4030bd:	c4 e2 ed b8 c8       	vfmadd231pd %ymm0,%ymm2,%ymm1
  4030c2:	c4 e2 fd b8 d1       	vfmadd231pd %ymm1,%ymm0,%ymm2
  4030c7:	c4 e2 f5 b8 c2       	vfmadd231pd %ymm2,%ymm1,%ymm0
  4030cc:	c4 e2 ed b8 c8       	vfmadd231pd %ymm0,%ymm2,%ymm1
  4030d1:	c4 e2 fd b8 d1       	vfmadd231pd %ymm1,%ymm0,%ymm2
  4030d6:	c4 e2 f5 b8 c2       	vfmadd231pd %ymm2,%ymm1,%ymm0
  4030db:	c4 e2 ed b8 c8       	vfmadd231pd %ymm0,%ymm2,%ymm1
  4030e0:	c4 e2 fd b8 d1       	vfmadd231pd %ymm1,%ymm0,%ymm2
  4030e5:	c4 e2 f5 b8 c2       	vfmadd231pd %ymm2,%ymm1,%ymm0
  4030ea:	c4 e2 ed b8 c8       	vfmadd231pd %ymm0,%ymm2,%ymm1
  4030ef:	c4 e2 fd b8 d1       	vfmadd231pd %ymm1,%ymm0,%ymm2
  4030f4:	c4 e2 f5 b8 c2       	vfmadd231pd %ymm2,%ymm1,%ymm0
  4030f9:	c4 e2 ed b8 c8       	vfmadd231pd %ymm0,%ymm2,%ymm1
  4030fe:	c4 e2 fd b8 d1       	vfmadd231pd %ymm1,%ymm0,%ymm2
  403103:	c4 e2 f5 b8 c2       	vfmadd231pd %ymm2,%ymm1,%ymm0
  403108:	c4 e2 ed b8 c8       	vfmadd231pd %ymm0,%ymm2,%ymm1
  40310d:	c4 e2 fd b8 d1       	vfmadd231pd %ymm1,%ymm0,%ymm2
  403112:	c4 e2 f5 b8 c2       	vfmadd231pd %ymm2,%ymm1,%ymm0
  403117:	c4 e2 ed b8 c8       	vfmadd231pd %ymm0,%ymm2,%ymm1
  40311c:	c4 e2 fd b8 d1       	vfmadd231pd %ymm1,%ymm0,%ymm2
  403121:	c4 e2 f5 b8 c2       	vfmadd231pd %ymm2,%ymm1,%ymm0
  403126:	c4 e2 ed b8 c8       	vfmadd231pd %ymm0,%ymm2,%ymm1
  40312b:	c4 e2 fd b8 d1       	vfmadd231pd %ymm1,%ymm0,%ymm2
  403130:	c4 e2 f5 b8 c2       	vfmadd231pd %ymm2,%ymm1,%ymm0
  403135:	c4 e2 ed b8 c8       	vfmadd231pd %ymm0,%ymm2,%ymm1
  40313a:	c4 e2 fd b8 d1       	vfmadd231pd %ymm1,%ymm0,%ymm2
  40313f:	c4 e2 f5 b8 c2       	vfmadd231pd %ymm2,%ymm1,%ymm0
  403144:	c4 e2 ed b8 c8       	vfmadd231pd %ymm0,%ymm2,%ymm1
  403149:	c4 e2 fd b8 d1       	vfmadd231pd %ymm1,%ymm0,%ymm2
  40314e:	c4 e2 f5 b8 c2       	vfmadd231pd %ymm2,%ymm1,%ymm0
  403153:	c4 e2 ed b8 c8       	vfmadd231pd %ymm0,%ymm2,%ymm1
  403158:	c4 e2 fd b8 d1       	vfmadd231pd %ymm1,%ymm0,%ymm2
  40315d:	c4 e2 f5 b8 c2       	vfmadd231pd %ymm2,%ymm1,%ymm0
  403162:	c4 e2 ed b8 c8       	vfmadd231pd %ymm0,%ymm2,%ymm1
  403167:	c4 e2 fd b8 d1       	vfmadd231pd %ymm1,%ymm0,%ymm2
  40316c:	c4 e2 f5 b8 c2       	vfmadd231pd %ymm2,%ymm1,%ymm0
  403171:	c4 e2 ed b8 c8       	vfmadd231pd %ymm0,%ymm2,%ymm1
  403176:	c4 e2 fd b8 d1       	vfmadd231pd %ymm1,%ymm0,%ymm2
  40317b:	c4 e2 f5 b8 c2       	vfmadd231pd %ymm2,%ymm1,%ymm0
  403180:	c4 e2 ed b8 c8       	vfmadd231pd %ymm0,%ymm2,%ymm1
  403185:	c4 e2 fd b8 d1       	vfmadd231pd %ymm1,%ymm0,%ymm2
  40318a:	c4 e2 f5 b8 c2       	vfmadd231pd %ymm2,%ymm1,%ymm0
  40318f:	c4 e2 ed b8 c8       	vfmadd231pd %ymm0,%ymm2,%ymm1
  403194:	c4 e2 fd b8 d1       	vfmadd231pd %ymm1,%ymm0,%ymm2
  403199:	c4 e2 f5 b8 c2       	vfmadd231pd %ymm2,%ymm1,%ymm0
  40319e:	c4 e2 ed b8 c8       	vfmadd231pd %ymm0,%ymm2,%ymm1
  4031a3:	c4 e2 fd b8 d1       	vfmadd231pd %ymm1,%ymm0,%ymm2
  4031a8:	c4 e2 f5 b8 c2       	vfmadd231pd %ymm2,%ymm1,%ymm0
  4031ad:	c4 e2 ed b8 c8       	vfmadd231pd %ymm0,%ymm2,%ymm1
  4031b2:	c4 e2 fd b8 d1       	vfmadd231pd %ymm1,%ymm0,%ymm2
  4031b7:	c4 e2 f5 b8 c2       	vfmadd231pd %ymm2,%ymm1,%ymm0
  4031bc:	c4 e2 ed b8 c8       	vfmadd231pd %ymm0,%ymm2,%ymm1
  4031c1:	c4 e2 fd b8 d1       	vfmadd231pd %ymm1,%ymm0,%ymm2
  4031c6:	c4 e2 f5 b8 c2       	vfmadd231pd %ymm2,%ymm1,%ymm0
  4031cb:	c4 e2 ed b8 c8       	vfmadd231pd %ymm0,%ymm2,%ymm1
  4031d0:	c4 e2 fd b8 d1       	vfmadd231pd %ymm1,%ymm0,%ymm2
  4031d5:	c4 e2 f5 b8 c2       	vfmadd231pd %ymm2,%ymm1,%ymm0
  4031da:	c4 e2 ed b8 c8       	vfmadd231pd %ymm0,%ymm2,%ymm1
  4031df:	c4 e2 fd b8 d1       	vfmadd231pd %ymm1,%ymm0,%ymm2
  4031e4:	c4 e2 f5 b8 c2       	vfmadd231pd %ymm2,%ymm1,%ymm0
  4031e9:	c4 e2 ed b8 c8       	vfmadd231pd %ymm0,%ymm2,%ymm1
  4031ee:	c4 e2 fd b8 d1       	vfmadd231pd %ymm1,%ymm0,%ymm2
  4031f3:	c4 e2 f5 b8 c2       	vfmadd231pd %ymm2,%ymm1,%ymm0
  4031f8:	c4 e2 ed b8 c8       	vfmadd231pd %ymm0,%ymm2,%ymm1
  4031fd:	c4 e2 fd b8 d1       	vfmadd231pd %ymm1,%ymm0,%ymm2
  403202:	c4 e2 f5 b8 c2       	vfmadd231pd %ymm2,%ymm1,%ymm0
  403207:	c4 e2 ed b8 c8       	vfmadd231pd %ymm0,%ymm2,%ymm1
  40320c:	c4 e2 fd b8 d1       	vfmadd231pd %ymm1,%ymm0,%ymm2
  403211:	c4 e2 f5 b8 c2       	vfmadd231pd %ymm2,%ymm1,%ymm0
  403216:	c4 e2 ed b8 c8       	vfmadd231pd %ymm0,%ymm2,%ymm1
  40321b:	c4 e2 fd b8 d1       	vfmadd231pd %ymm1,%ymm0,%ymm2
  403220:	c4 e2 f5 b8 c2       	vfmadd231pd %ymm2,%ymm1,%ymm0
  403225:	c4 e2 ed b8 c8       	vfmadd231pd %ymm0,%ymm2,%ymm1
  40322a:	c4 e2 fd b8 d1       	vfmadd231pd %ymm1,%ymm0,%ymm2
  40322f:	c4 e2 f5 b8 c2       	vfmadd231pd %ymm2,%ymm1,%ymm0
  403234:	c4 e2 ed b8 c8       	vfmadd231pd %ymm0,%ymm2,%ymm1
  403239:	c4 e2 fd b8 d1       	vfmadd231pd %ymm1,%ymm0,%ymm2
  40323e:	c4 e2 f5 b8 c2       	vfmadd231pd %ymm2,%ymm1,%ymm0
  403243:	c4 e2 ed b8 c8       	vfmadd231pd %ymm0,%ymm2,%ymm1
  403248:	c4 e2 fd b8 d1       	vfmadd231pd %ymm1,%ymm0,%ymm2
  40324d:	c4 e2 f5 b8 c2       	vfmadd231pd %ymm2,%ymm1,%ymm0
  403252:	c4 e2 ed b8 c8       	vfmadd231pd %ymm0,%ymm2,%ymm1
  403257:	c4 e2 fd b8 d1       	vfmadd231pd %ymm1,%ymm0,%ymm2
  40325c:	c4 e2 f5 b8 c2       	vfmadd231pd %ymm2,%ymm1,%ymm0
  403261:	c4 e2 ed b8 c8       	vfmadd231pd %ymm0,%ymm2,%ymm1
  403266:	c4 e2 fd b8 d1       	vfmadd231pd %ymm1,%ymm0,%ymm2
  40326b:	c4 e2 f5 b8 c2       	vfmadd231pd %ymm2,%ymm1,%ymm0
  403270:	c4 e2 ed b8 c8       	vfmadd231pd %ymm0,%ymm2,%ymm1
  403275:	c4 e2 fd b8 d1       	vfmadd231pd %ymm1,%ymm0,%ymm2
  40327a:	c4 e2 f5 b8 c2       	vfmadd231pd %ymm2,%ymm1,%ymm0
  40327f:	c4 e2 ed b8 c8       	vfmadd231pd %ymm0,%ymm2,%ymm1
  403284:	c4 e2 fd b8 d1       	vfmadd231pd %ymm1,%ymm0,%ymm2
  403289:	c4 e2 f5 b8 c2       	vfmadd231pd %ymm2,%ymm1,%ymm0
  40328e:	c4 e2 ed b8 c8       	vfmadd231pd %ymm0,%ymm2,%ymm1
  403293:	c4 e2 fd b8 d1       	vfmadd231pd %ymm1,%ymm0,%ymm2
  403298:	c4 e2 f5 b8 c2       	vfmadd231pd %ymm2,%ymm1,%ymm0
  40329d:	c4 e2 ed b8 c8       	vfmadd231pd %ymm0,%ymm2,%ymm1
  4032a2:	c4 e2 fd b8 d1       	vfmadd231pd %ymm1,%ymm0,%ymm2
  4032a7:	c4 e2 f5 b8 c2       	vfmadd231pd %ymm2,%ymm1,%ymm0
  4032ac:	c4 e2 ed b8 c8       	vfmadd231pd %ymm0,%ymm2,%ymm1
  4032b1:	c4 e2 fd b8 d1       	vfmadd231pd %ymm1,%ymm0,%ymm2
  4032b6:	c4 e2 f5 b8 c2       	vfmadd231pd %ymm2,%ymm1,%ymm0
  4032bb:	c4 e2 ed b8 c8       	vfmadd231pd %ymm0,%ymm2,%ymm1
  4032c0:	c4 e2 fd b8 d1       	vfmadd231pd %ymm1,%ymm0,%ymm2
  4032c5:	c4 e2 f5 b8 c2       	vfmadd231pd %ymm2,%ymm1,%ymm0
  4032ca:	c4 e2 ed b8 c8       	vfmadd231pd %ymm0,%ymm2,%ymm1
  4032cf:	c4 e2 fd b8 d1       	vfmadd231pd %ymm1,%ymm0,%ymm2
  4032d4:	c4 e2 f5 b8 c2       	vfmadd231pd %ymm2,%ymm1,%ymm0
  4032d9:	c4 e2 ed b8 c8       	vfmadd231pd %ymm0,%ymm2,%ymm1
  4032de:	c4 e2 fd b8 d1       	vfmadd231pd %ymm1,%ymm0,%ymm2
  4032e3:	c4 e2 f5 b8 c2       	vfmadd231pd %ymm2,%ymm1,%ymm0
  4032e8:	c4 e2 ed b8 c8       	vfmadd231pd %ymm0,%ymm2,%ymm1
  4032ed:	c4 e2 fd b8 d1       	vfmadd231pd %ymm1,%ymm0,%ymm2
  4032f2:	c4 e2 f5 b8 c2       	vfmadd231pd %ymm2,%ymm1,%ymm0
  4032f7:	c4 e2 ed b8 c8       	vfmadd231pd %ymm0,%ymm2,%ymm1
  4032fc:	c4 e2 fd b8 d1       	vfmadd231pd %ymm1,%ymm0,%ymm2
  403301:	c4 e2 f5 b8 c2       	vfmadd231pd %ymm2,%ymm1,%ymm0
  403306:	c4 e2 ed b8 c8       	vfmadd231pd %ymm0,%ymm2,%ymm1
  40330b:	c4 e2 fd b8 d1       	vfmadd231pd %ymm1,%ymm0,%ymm2
  403310:	c4 e2 f5 b8 c2       	vfmadd231pd %ymm2,%ymm1,%ymm0
  403315:	c4 e2 ed b8 c8       	vfmadd231pd %ymm0,%ymm2,%ymm1
  40331a:	c4 e2 fd b8 d1       	vfmadd231pd %ymm1,%ymm0,%ymm2
  40331f:	c4 e2 f5 b8 c2       	vfmadd231pd %ymm2,%ymm1,%ymm0
  403324:	c4 e2 ed b8 c8       	vfmadd231pd %ymm0,%ymm2,%ymm1
  403329:	c4 e2 fd b8 d1       	vfmadd231pd %ymm1,%ymm0,%ymm2
  40332e:	c4 e2 f5 b8 c2       	vfmadd231pd %ymm2,%ymm1,%ymm0
  403333:	c4 e2 ed b8 c8       	vfmadd231pd %ymm0,%ymm2,%ymm1
  403338:	c4 e2 fd b8 d1       	vfmadd231pd %ymm1,%ymm0,%ymm2
  40333d:	c4 e2 f5 b8 c2       	vfmadd231pd %ymm2,%ymm1,%ymm0
  403342:	c4 e2 ed b8 c8       	vfmadd231pd %ymm0,%ymm2,%ymm1
  403347:	c4 e2 fd b8 d1       	vfmadd231pd %ymm1,%ymm0,%ymm2
  40334c:	c4 e2 f5 b8 c2       	vfmadd231pd %ymm2,%ymm1,%ymm0
  403351:	c4 e2 ed b8 c8       	vfmadd231pd %ymm0,%ymm2,%ymm1
  403356:	c4 e2 fd b8 d1       	vfmadd231pd %ymm1,%ymm0,%ymm2
  40335b:	c4 e2 f5 b8 c2       	vfmadd231pd %ymm2,%ymm1,%ymm0
  403360:	c4 e2 ed b8 c8       	vfmadd231pd %ymm0,%ymm2,%ymm1
  403365:	c4 e2 fd b8 d1       	vfmadd231pd %ymm1,%ymm0,%ymm2
  40336a:	c4 e2 f5 b8 c2       	vfmadd231pd %ymm2,%ymm1,%ymm0
  40336f:	c4 e2 ed b8 c8       	vfmadd231pd %ymm0,%ymm2,%ymm1
  403374:	c4 e2 fd b8 d1       	vfmadd231pd %ymm1,%ymm0,%ymm2
  403379:	c4 e2 f5 b8 c2       	vfmadd231pd %ymm2,%ymm1,%ymm0
  40337e:	c4 e2 ed b8 c8       	vfmadd231pd %ymm0,%ymm2,%ymm1
  403383:	c4 e2 fd b8 d1       	vfmadd231pd %ymm1,%ymm0,%ymm2
  403388:	c4 e2 f5 b8 c2       	vfmadd231pd %ymm2,%ymm1,%ymm0
  40338d:	c4 e2 ed b8 c8       	vfmadd231pd %ymm0,%ymm2,%ymm1
  403392:	c4 e2 fd b8 d1       	vfmadd231pd %ymm1,%ymm0,%ymm2
  403397:	c4 e2 f5 b8 c2       	vfmadd231pd %ymm2,%ymm1,%ymm0
  40339c:	c4 e2 ed b8 c8       	vfmadd231pd %ymm0,%ymm2,%ymm1
  4033a1:	c4 e2 fd b8 d1       	vfmadd231pd %ymm1,%ymm0,%ymm2
  4033a6:	c4 e2 f5 b8 c2       	vfmadd231pd %ymm2,%ymm1,%ymm0
  4033ab:	c4 e2 ed b8 c8       	vfmadd231pd %ymm0,%ymm2,%ymm1
  4033b0:	c4 e2 fd b8 d1       	vfmadd231pd %ymm1,%ymm0,%ymm2
  4033b5:	c4 e2 f5 b8 c2       	vfmadd231pd %ymm2,%ymm1,%ymm0
  4033ba:	c4 e2 ed b8 c8       	vfmadd231pd %ymm0,%ymm2,%ymm1
  4033bf:	c4 e2 fd b8 d1       	vfmadd231pd %ymm1,%ymm0,%ymm2
  4033c4:	c4 e2 f5 b8 c2       	vfmadd231pd %ymm2,%ymm1,%ymm0
  4033c9:	c4 e2 ed b8 c8       	vfmadd231pd %ymm0,%ymm2,%ymm1
  4033ce:	c4 e2 fd b8 d1       	vfmadd231pd %ymm1,%ymm0,%ymm2
  4033d3:	c4 e2 f5 b8 c2       	vfmadd231pd %ymm2,%ymm1,%ymm0
  4033d8:	c4 e2 ed b8 c8       	vfmadd231pd %ymm0,%ymm2,%ymm1
  4033dd:	c4 e2 fd b8 d1       	vfmadd231pd %ymm1,%ymm0,%ymm2
  4033e2:	c4 e2 f5 b8 c2       	vfmadd231pd %ymm2,%ymm1,%ymm0
  4033e7:	c4 e2 ed b8 c8       	vfmadd231pd %ymm0,%ymm2,%ymm1
  4033ec:	c4 e2 fd b8 d1       	vfmadd231pd %ymm1,%ymm0,%ymm2
  4033f1:	c4 e2 f5 b8 c2       	vfmadd231pd %ymm2,%ymm1,%ymm0
  4033f6:	c4 e2 ed b8 c8       	vfmadd231pd %ymm0,%ymm2,%ymm1
  4033fb:	c4 e2 fd b8 d1       	vfmadd231pd %ymm1,%ymm0,%ymm2
  403400:	c4 e2 f5 b8 c2       	vfmadd231pd %ymm2,%ymm1,%ymm0
  403405:	c4 e2 ed b8 c8       	vfmadd231pd %ymm0,%ymm2,%ymm1
  40340a:	c4 e2 fd b8 d1       	vfmadd231pd %ymm1,%ymm0,%ymm2
  40340f:	c4 e2 f5 b8 c2       	vfmadd231pd %ymm2,%ymm1,%ymm0
  403414:	c4 e2 ed b8 c8       	vfmadd231pd %ymm0,%ymm2,%ymm1
  403419:	c4 e2 fd b8 d1       	vfmadd231pd %ymm1,%ymm0,%ymm2
  40341e:	c4 e2 f5 b8 c2       	vfmadd231pd %ymm2,%ymm1,%ymm0
  403423:	c4 e2 ed b8 c8       	vfmadd231pd %ymm0,%ymm2,%ymm1
  403428:	c4 e2 fd b8 d1       	vfmadd231pd %ymm1,%ymm0,%ymm2
  40342d:	c4 e2 f5 b8 c2       	vfmadd231pd %ymm2,%ymm1,%ymm0
  403432:	c4 e2 ed b8 c8       	vfmadd231pd %ymm0,%ymm2,%ymm1
  403437:	c4 e2 fd b8 d1       	vfmadd231pd %ymm1,%ymm0,%ymm2
  40343c:	c4 e2 f5 b8 c2       	vfmadd231pd %ymm2,%ymm1,%ymm0
  403441:	c4 e2 ed b8 c8       	vfmadd231pd %ymm0,%ymm2,%ymm1
  403446:	c4 e2 fd b8 d1       	vfmadd231pd %ymm1,%ymm0,%ymm2
  40344b:	c4 e2 f5 b8 c2       	vfmadd231pd %ymm2,%ymm1,%ymm0
  403450:	c4 e2 ed b8 c8       	vfmadd231pd %ymm0,%ymm2,%ymm1
  403455:	c4 e2 fd b8 d1       	vfmadd231pd %ymm1,%ymm0,%ymm2
  40345a:	c4 e2 f5 b8 c2       	vfmadd231pd %ymm2,%ymm1,%ymm0
  40345f:	c4 e2 ed b8 c8       	vfmadd231pd %ymm0,%ymm2,%ymm1
  403464:	c4 e2 fd b8 d1       	vfmadd231pd %ymm1,%ymm0,%ymm2
  403469:	c4 e2 f5 b8 c2       	vfmadd231pd %ymm2,%ymm1,%ymm0
  40346e:	c4 e2 ed b8 c8       	vfmadd231pd %ymm0,%ymm2,%ymm1
  403473:	c4 e2 fd b8 d1       	vfmadd231pd %ymm1,%ymm0,%ymm2
  403478:	c4 e2 f5 b8 c2       	vfmadd231pd %ymm2,%ymm1,%ymm0
  40347d:	c4 e2 ed b8 c8       	vfmadd231pd %ymm0,%ymm2,%ymm1
  403482:	c4 e2 fd b8 d1       	vfmadd231pd %ymm1,%ymm0,%ymm2
  403487:	c4 e2 f5 b8 c2       	vfmadd231pd %ymm2,%ymm1,%ymm0
  40348c:	c4 e2 ed b8 c8       	vfmadd231pd %ymm0,%ymm2,%ymm1
  403491:	c4 e2 fd b8 d1       	vfmadd231pd %ymm1,%ymm0,%ymm2
  403496:	c4 e2 f5 b8 c2       	vfmadd231pd %ymm2,%ymm1,%ymm0
  40349b:	c4 e2 ed b8 c8       	vfmadd231pd %ymm0,%ymm2,%ymm1
  4034a0:	c4 e2 fd b8 d1       	vfmadd231pd %ymm1,%ymm0,%ymm2
  4034a5:	c4 e2 f5 b8 c2       	vfmadd231pd %ymm2,%ymm1,%ymm0
  4034aa:	c4 e2 ed b8 c8       	vfmadd231pd %ymm0,%ymm2,%ymm1
  4034af:	c4 e2 fd b8 d1       	vfmadd231pd %ymm1,%ymm0,%ymm2
  4034b4:	c4 e2 f5 b8 c2       	vfmadd231pd %ymm2,%ymm1,%ymm0
  4034b9:	c4 e2 ed b8 c8       	vfmadd231pd %ymm0,%ymm2,%ymm1
  4034be:	c4 e2 fd b8 d1       	vfmadd231pd %ymm1,%ymm0,%ymm2
  4034c3:	c4 e2 f5 b8 c2       	vfmadd231pd %ymm2,%ymm1,%ymm0
  4034c8:	c4 e2 ed b8 c8       	vfmadd231pd %ymm0,%ymm2,%ymm1
  4034cd:	c4 e2 fd b8 d1       	vfmadd231pd %ymm1,%ymm0,%ymm2
  4034d2:	c4 e2 f5 b8 c2       	vfmadd231pd %ymm2,%ymm1,%ymm0
  4034d7:	c4 e2 ed b8 c8       	vfmadd231pd %ymm0,%ymm2,%ymm1
  4034dc:	c4 e2 fd b8 d1       	vfmadd231pd %ymm1,%ymm0,%ymm2
  4034e1:	c4 e2 f5 b8 c2       	vfmadd231pd %ymm2,%ymm1,%ymm0
  4034e6:	c4 e2 ed b8 c8       	vfmadd231pd %ymm0,%ymm2,%ymm1
  4034eb:	c4 e2 fd b8 d1       	vfmadd231pd %ymm1,%ymm0,%ymm2
  4034f0:	c4 e2 f5 b8 c2       	vfmadd231pd %ymm2,%ymm1,%ymm0
  4034f5:	c4 e2 ed b8 c8       	vfmadd231pd %ymm0,%ymm2,%ymm1
  4034fa:	c4 e2 fd b8 d1       	vfmadd231pd %ymm1,%ymm0,%ymm2
  4034ff:	c4 e2 f5 b8 c2       	vfmadd231pd %ymm2,%ymm1,%ymm0
  403504:	c4 e2 ed b8 c8       	vfmadd231pd %ymm0,%ymm2,%ymm1
  403509:	c4 e2 fd b8 d1       	vfmadd231pd %ymm1,%ymm0,%ymm2
  40350e:	c4 e2 f5 b8 c2       	vfmadd231pd %ymm2,%ymm1,%ymm0
  403513:	c4 e2 ed b8 c8       	vfmadd231pd %ymm0,%ymm2,%ymm1
  403518:	c4 e2 fd b8 d1       	vfmadd231pd %ymm1,%ymm0,%ymm2
  40351d:	c4 e2 f5 b8 c2       	vfmadd231pd %ymm2,%ymm1,%ymm0
  403522:	c4 e2 ed b8 c8       	vfmadd231pd %ymm0,%ymm2,%ymm1
  403527:	c4 e2 fd b8 d1       	vfmadd231pd %ymm1,%ymm0,%ymm2
  40352c:	c4 e2 f5 b8 c2       	vfmadd231pd %ymm2,%ymm1,%ymm0
  403531:	c4 e2 ed b8 c8       	vfmadd231pd %ymm0,%ymm2,%ymm1
  403536:	c4 e2 fd b8 d1       	vfmadd231pd %ymm1,%ymm0,%ymm2
  40353b:	c4 e2 f5 b8 c2       	vfmadd231pd %ymm2,%ymm1,%ymm0
  403540:	c4 e2 ed b8 c8       	vfmadd231pd %ymm0,%ymm2,%ymm1
  403545:	c4 e2 fd b8 d1       	vfmadd231pd %ymm1,%ymm0,%ymm2
  40354a:	c4 e2 f5 b8 c2       	vfmadd231pd %ymm2,%ymm1,%ymm0
  40354f:	c4 e2 ed b8 c8       	vfmadd231pd %ymm0,%ymm2,%ymm1
  403554:	c4 e2 fd b8 d1       	vfmadd231pd %ymm1,%ymm0,%ymm2
  403559:	c4 e2 f5 b8 c2       	vfmadd231pd %ymm2,%ymm1,%ymm0
  40355e:	c4 e2 ed b8 c8       	vfmadd231pd %ymm0,%ymm2,%ymm1
  403563:	c4 e2 fd b8 d1       	vfmadd231pd %ymm1,%ymm0,%ymm2
  403568:	c4 e2 f5 b8 c2       	vfmadd231pd %ymm2,%ymm1,%ymm0
  40356d:	c4 e2 ed b8 c8       	vfmadd231pd %ymm0,%ymm2,%ymm1
  403572:	c4 e2 fd b8 d1       	vfmadd231pd %ymm1,%ymm0,%ymm2
  403577:	c4 e2 f5 b8 c2       	vfmadd231pd %ymm2,%ymm1,%ymm0
  40357c:	c4 e2 ed b8 c8       	vfmadd231pd %ymm0,%ymm2,%ymm1
  403581:	c4 e2 fd b8 d1       	vfmadd231pd %ymm1,%ymm0,%ymm2
  403586:	c4 e2 f5 b8 c2       	vfmadd231pd %ymm2,%ymm1,%ymm0
  40358b:	c4 e2 ed b8 c8       	vfmadd231pd %ymm0,%ymm2,%ymm1
  403590:	c4 e2 fd b8 d1       	vfmadd231pd %ymm1,%ymm0,%ymm2
  403595:	c4 e2 f5 b8 c2       	vfmadd231pd %ymm2,%ymm1,%ymm0
  40359a:	c4 e2 ed b8 c8       	vfmadd231pd %ymm0,%ymm2,%ymm1
  40359f:	c4 e2 fd b8 d1       	vfmadd231pd %ymm1,%ymm0,%ymm2
  4035a4:	c4 e2 f5 b8 c2       	vfmadd231pd %ymm2,%ymm1,%ymm0
  4035a9:	c4 e2 ed b8 c8       	vfmadd231pd %ymm0,%ymm2,%ymm1
  4035ae:	c4 e2 fd b8 d1       	vfmadd231pd %ymm1,%ymm0,%ymm2
  4035b3:	c4 e2 f5 b8 c2       	vfmadd231pd %ymm2,%ymm1,%ymm0
  4035b8:	c4 e2 ed b8 c8       	vfmadd231pd %ymm0,%ymm2,%ymm1
  4035bd:	c4 e2 fd b8 d1       	vfmadd231pd %ymm1,%ymm0,%ymm2
  4035c2:	c4 e2 f5 b8 c2       	vfmadd231pd %ymm2,%ymm1,%ymm0
  4035c7:	c4 e2 ed b8 c8       	vfmadd231pd %ymm0,%ymm2,%ymm1
  4035cc:	c4 e2 fd b8 d1       	vfmadd231pd %ymm1,%ymm0,%ymm2
  4035d1:	c4 e2 f5 b8 c2       	vfmadd231pd %ymm2,%ymm1,%ymm0
  4035d6:	c4 e2 ed b8 c8       	vfmadd231pd %ymm0,%ymm2,%ymm1
  4035db:	c4 e2 fd b8 d1       	vfmadd231pd %ymm1,%ymm0,%ymm2
  4035e0:	c4 e2 f5 b8 c2       	vfmadd231pd %ymm2,%ymm1,%ymm0
  4035e5:	c4 e2 ed b8 c8       	vfmadd231pd %ymm0,%ymm2,%ymm1
  4035ea:	c4 e2 fd b8 d1       	vfmadd231pd %ymm1,%ymm0,%ymm2
  4035ef:	c4 e2 f5 b8 c2       	vfmadd231pd %ymm2,%ymm1,%ymm0
  4035f4:	c4 e2 ed b8 c8       	vfmadd231pd %ymm0,%ymm2,%ymm1
  4035f9:	c4 e2 fd b8 d1       	vfmadd231pd %ymm1,%ymm0,%ymm2
  4035fe:	c4 e2 f5 b8 c2       	vfmadd231pd %ymm2,%ymm1,%ymm0
  403603:	c4 e2 ed b8 c8       	vfmadd231pd %ymm0,%ymm2,%ymm1
  403608:	c4 e2 fd b8 d1       	vfmadd231pd %ymm1,%ymm0,%ymm2
  40360d:	c4 e2 f5 b8 c2       	vfmadd231pd %ymm2,%ymm1,%ymm0
  403612:	c4 e2 ed b8 c8       	vfmadd231pd %ymm0,%ymm2,%ymm1
  403617:	c4 e2 fd b8 d1       	vfmadd231pd %ymm1,%ymm0,%ymm2
  40361c:	c4 e2 f5 b8 c2       	vfmadd231pd %ymm2,%ymm1,%ymm0
  403621:	c4 e2 ed b8 c8       	vfmadd231pd %ymm0,%ymm2,%ymm1
  403626:	c4 e2 fd b8 d1       	vfmadd231pd %ymm1,%ymm0,%ymm2
  40362b:	c4 e2 f5 b8 c2       	vfmadd231pd %ymm2,%ymm1,%ymm0
  403630:	c4 e2 ed b8 c8       	vfmadd231pd %ymm0,%ymm2,%ymm1
  403635:	c4 e2 fd b8 d1       	vfmadd231pd %ymm1,%ymm0,%ymm2
  40363a:	c4 e2 f5 b8 c2       	vfmadd231pd %ymm2,%ymm1,%ymm0
  40363f:	c4 e2 ed b8 c8       	vfmadd231pd %ymm0,%ymm2,%ymm1
  403644:	c4 e2 fd b8 d1       	vfmadd231pd %ymm1,%ymm0,%ymm2
  403649:	c4 e2 f5 b8 c2       	vfmadd231pd %ymm2,%ymm1,%ymm0
  40364e:	c4 e2 ed b8 c8       	vfmadd231pd %ymm0,%ymm2,%ymm1
  403653:	c4 e2 fd b8 d1       	vfmadd231pd %ymm1,%ymm0,%ymm2
  403658:	c4 e2 f5 b8 c2       	vfmadd231pd %ymm2,%ymm1,%ymm0
  40365d:	c4 e2 ed b8 c8       	vfmadd231pd %ymm0,%ymm2,%ymm1
  403662:	c4 e2 fd b8 d1       	vfmadd231pd %ymm1,%ymm0,%ymm2
  403667:	c4 e2 f5 b8 c2       	vfmadd231pd %ymm2,%ymm1,%ymm0
  40366c:	c4 e2 ed b8 c8       	vfmadd231pd %ymm0,%ymm2,%ymm1
  403671:	c4 e2 fd b8 d1       	vfmadd231pd %ymm1,%ymm0,%ymm2
  403676:	c4 e2 f5 b8 c2       	vfmadd231pd %ymm2,%ymm1,%ymm0
  40367b:	c4 e2 ed b8 c8       	vfmadd231pd %ymm0,%ymm2,%ymm1
  403680:	c4 e2 fd b8 d1       	vfmadd231pd %ymm1,%ymm0,%ymm2
  403685:	c4 e2 f5 b8 c2       	vfmadd231pd %ymm2,%ymm1,%ymm0
  40368a:	c4 e2 ed b8 c8       	vfmadd231pd %ymm0,%ymm2,%ymm1
  40368f:	c4 e2 fd b8 d1       	vfmadd231pd %ymm1,%ymm0,%ymm2
  403694:	c4 e2 f5 b8 c2       	vfmadd231pd %ymm2,%ymm1,%ymm0
  403699:	c4 e2 ed b8 c8       	vfmadd231pd %ymm0,%ymm2,%ymm1
  40369e:	c4 e2 fd b8 d1       	vfmadd231pd %ymm1,%ymm0,%ymm2
  4036a3:	c4 e2 f5 b8 c2       	vfmadd231pd %ymm2,%ymm1,%ymm0
  4036a8:	c4 e2 ed b8 c8       	vfmadd231pd %ymm0,%ymm2,%ymm1
  4036ad:	c4 e2 fd b8 d1       	vfmadd231pd %ymm1,%ymm0,%ymm2
  4036b2:	c4 e2 f5 b8 c2       	vfmadd231pd %ymm2,%ymm1,%ymm0
  4036b7:	c4 e2 ed b8 c8       	vfmadd231pd %ymm0,%ymm2,%ymm1
  4036bc:	c4 e2 fd b8 d1       	vfmadd231pd %ymm1,%ymm0,%ymm2
  4036c1:	c4 e2 f5 b8 c2       	vfmadd231pd %ymm2,%ymm1,%ymm0
  4036c6:	c4 e2 ed b8 c8       	vfmadd231pd %ymm0,%ymm2,%ymm1
  4036cb:	c4 e2 fd b8 d1       	vfmadd231pd %ymm1,%ymm0,%ymm2
  4036d0:	c4 e2 f5 b8 c2       	vfmadd231pd %ymm2,%ymm1,%ymm0
  4036d5:	c4 e2 ed b8 c8       	vfmadd231pd %ymm0,%ymm2,%ymm1
  4036da:	c4 e2 fd b8 d1       	vfmadd231pd %ymm1,%ymm0,%ymm2
  4036df:	c4 e2 f5 b8 c2       	vfmadd231pd %ymm2,%ymm1,%ymm0
  4036e4:	c4 e2 ed b8 c8       	vfmadd231pd %ymm0,%ymm2,%ymm1
  4036e9:	c4 e2 fd b8 d1       	vfmadd231pd %ymm1,%ymm0,%ymm2
  4036ee:	c4 e2 f5 b8 c2       	vfmadd231pd %ymm2,%ymm1,%ymm0
  4036f3:	c4 e2 ed b8 c8       	vfmadd231pd %ymm0,%ymm2,%ymm1
  4036f8:	c4 e2 fd b8 d1       	vfmadd231pd %ymm1,%ymm0,%ymm2
  4036fd:	c4 e2 f5 b8 c2       	vfmadd231pd %ymm2,%ymm1,%ymm0
  403702:	c4 e2 ed b8 c8       	vfmadd231pd %ymm0,%ymm2,%ymm1
  403707:	c4 e2 fd b8 d1       	vfmadd231pd %ymm1,%ymm0,%ymm2
  40370c:	c4 e2 f5 b8 c2       	vfmadd231pd %ymm2,%ymm1,%ymm0
  403711:	c4 e2 ed b8 c8       	vfmadd231pd %ymm0,%ymm2,%ymm1
  403716:	c4 e2 fd b8 d1       	vfmadd231pd %ymm1,%ymm0,%ymm2
  40371b:	c4 e2 f5 b8 c2       	vfmadd231pd %ymm2,%ymm1,%ymm0
  403720:	c4 e2 ed b8 c8       	vfmadd231pd %ymm0,%ymm2,%ymm1
  403725:	c4 e2 fd b8 d1       	vfmadd231pd %ymm1,%ymm0,%ymm2
  40372a:	c4 e2 f5 b8 c2       	vfmadd231pd %ymm2,%ymm1,%ymm0
  40372f:	c4 e2 ed b8 c8       	vfmadd231pd %ymm0,%ymm2,%ymm1
  403734:	c4 e2 fd b8 d1       	vfmadd231pd %ymm1,%ymm0,%ymm2
  403739:	c4 e2 f5 b8 c2       	vfmadd231pd %ymm2,%ymm1,%ymm0
  40373e:	c4 e2 ed b8 c8       	vfmadd231pd %ymm0,%ymm2,%ymm1
  403743:	c4 e2 fd b8 d1       	vfmadd231pd %ymm1,%ymm0,%ymm2
  403748:	c4 e2 f5 b8 c2       	vfmadd231pd %ymm2,%ymm1,%ymm0
  40374d:	c4 e2 ed b8 c8       	vfmadd231pd %ymm0,%ymm2,%ymm1
  403752:	c4 e2 fd b8 d1       	vfmadd231pd %ymm1,%ymm0,%ymm2
  403757:	c4 e2 f5 b8 c2       	vfmadd231pd %ymm2,%ymm1,%ymm0
  40375c:	c4 e2 ed b8 c8       	vfmadd231pd %ymm0,%ymm2,%ymm1
  403761:	c4 e2 fd b8 d1       	vfmadd231pd %ymm1,%ymm0,%ymm2
  403766:	c4 e2 f5 b8 c2       	vfmadd231pd %ymm2,%ymm1,%ymm0
  40376b:	c4 e2 ed b8 c8       	vfmadd231pd %ymm0,%ymm2,%ymm1
  403770:	c4 e2 fd b8 d1       	vfmadd231pd %ymm1,%ymm0,%ymm2
  403775:	c4 e2 f5 b8 c2       	vfmadd231pd %ymm2,%ymm1,%ymm0
  40377a:	c4 e2 ed b8 c8       	vfmadd231pd %ymm0,%ymm2,%ymm1
  40377f:	c4 e2 fd b8 d1       	vfmadd231pd %ymm1,%ymm0,%ymm2
  403784:	c4 e2 f5 b8 c2       	vfmadd231pd %ymm2,%ymm1,%ymm0
  403789:	c4 e2 ed b8 c8       	vfmadd231pd %ymm0,%ymm2,%ymm1
  40378e:	c4 e2 fd b8 d1       	vfmadd231pd %ymm1,%ymm0,%ymm2
  403793:	c4 e2 f5 b8 c2       	vfmadd231pd %ymm2,%ymm1,%ymm0
  403798:	c4 e2 ed b8 c8       	vfmadd231pd %ymm0,%ymm2,%ymm1
  40379d:	c4 e2 fd b8 d1       	vfmadd231pd %ymm1,%ymm0,%ymm2
  4037a2:	c4 e2 f5 b8 c2       	vfmadd231pd %ymm2,%ymm1,%ymm0
  4037a7:	c4 e2 ed b8 c8       	vfmadd231pd %ymm0,%ymm2,%ymm1
  4037ac:	c4 e2 fd b8 d1       	vfmadd231pd %ymm1,%ymm0,%ymm2
  4037b1:	c4 e2 f5 b8 c2       	vfmadd231pd %ymm2,%ymm1,%ymm0
  4037b6:	c4 e2 ed b8 c8       	vfmadd231pd %ymm0,%ymm2,%ymm1
  4037bb:	c4 e2 fd b8 d1       	vfmadd231pd %ymm1,%ymm0,%ymm2
  4037c0:	c4 e2 f5 b8 c2       	vfmadd231pd %ymm2,%ymm1,%ymm0
  4037c5:	c4 e2 ed b8 c8       	vfmadd231pd %ymm0,%ymm2,%ymm1
  4037ca:	c4 e2 fd b8 d1       	vfmadd231pd %ymm1,%ymm0,%ymm2
  4037cf:	c4 e2 f5 b8 c2       	vfmadd231pd %ymm2,%ymm1,%ymm0
  4037d4:	c4 e2 ed b8 c8       	vfmadd231pd %ymm0,%ymm2,%ymm1
  4037d9:	c4 e2 fd b8 d1       	vfmadd231pd %ymm1,%ymm0,%ymm2
  4037de:	c4 e2 f5 b8 c2       	vfmadd231pd %ymm2,%ymm1,%ymm0
  4037e3:	c4 e2 ed b8 c8       	vfmadd231pd %ymm0,%ymm2,%ymm1
  4037e8:	c4 e2 fd b8 d1       	vfmadd231pd %ymm1,%ymm0,%ymm2
  4037ed:	c4 e2 f5 b8 c2       	vfmadd231pd %ymm2,%ymm1,%ymm0
  4037f2:	c4 e2 ed b8 c8       	vfmadd231pd %ymm0,%ymm2,%ymm1
  4037f7:	c4 e2 fd b8 d1       	vfmadd231pd %ymm1,%ymm0,%ymm2
  4037fc:	c4 e2 f5 b8 c2       	vfmadd231pd %ymm2,%ymm1,%ymm0
  403801:	c4 e2 ed b8 c8       	vfmadd231pd %ymm0,%ymm2,%ymm1
  403806:	c4 e2 fd b8 d1       	vfmadd231pd %ymm1,%ymm0,%ymm2
  40380b:	c4 e2 f5 b8 c2       	vfmadd231pd %ymm2,%ymm1,%ymm0
  403810:	c4 e2 ed b8 c8       	vfmadd231pd %ymm0,%ymm2,%ymm1
  403815:	c4 e2 fd b8 d1       	vfmadd231pd %ymm1,%ymm0,%ymm2
  40381a:	c4 e2 f5 b8 c2       	vfmadd231pd %ymm2,%ymm1,%ymm0
  40381f:	c4 e2 ed b8 c8       	vfmadd231pd %ymm0,%ymm2,%ymm1
  403824:	c4 e2 fd b8 d1       	vfmadd231pd %ymm1,%ymm0,%ymm2
  403829:	c4 e2 f5 b8 c2       	vfmadd231pd %ymm2,%ymm1,%ymm0
  40382e:	c4 e2 ed b8 c8       	vfmadd231pd %ymm0,%ymm2,%ymm1
  403833:	c4 e2 fd b8 d1       	vfmadd231pd %ymm1,%ymm0,%ymm2
  403838:	c4 e2 f5 b8 c2       	vfmadd231pd %ymm2,%ymm1,%ymm0
  40383d:	c4 e2 ed b8 c8       	vfmadd231pd %ymm0,%ymm2,%ymm1
  403842:	c4 e2 fd b8 d1       	vfmadd231pd %ymm1,%ymm0,%ymm2
  403847:	c4 e2 f5 b8 c2       	vfmadd231pd %ymm2,%ymm1,%ymm0
  40384c:	c4 e2 ed b8 c8       	vfmadd231pd %ymm0,%ymm2,%ymm1
  403851:	c4 e2 fd b8 d1       	vfmadd231pd %ymm1,%ymm0,%ymm2
  403856:	c4 e2 f5 b8 c2       	vfmadd231pd %ymm2,%ymm1,%ymm0
  40385b:	c4 e2 ed b8 c8       	vfmadd231pd %ymm0,%ymm2,%ymm1
  403860:	c4 e2 fd b8 d1       	vfmadd231pd %ymm1,%ymm0,%ymm2
  403865:	c4 e2 f5 b8 c2       	vfmadd231pd %ymm2,%ymm1,%ymm0
  40386a:	c4 e2 ed b8 c8       	vfmadd231pd %ymm0,%ymm2,%ymm1
  40386f:	c4 e2 fd b8 d1       	vfmadd231pd %ymm1,%ymm0,%ymm2
  403874:	c4 e2 f5 b8 c2       	vfmadd231pd %ymm2,%ymm1,%ymm0
  403879:	c4 e2 ed b8 c8       	vfmadd231pd %ymm0,%ymm2,%ymm1
  40387e:	c4 e2 fd b8 d1       	vfmadd231pd %ymm1,%ymm0,%ymm2
  403883:	c4 e2 f5 b8 c2       	vfmadd231pd %ymm2,%ymm1,%ymm0
  403888:	c4 e2 ed b8 c8       	vfmadd231pd %ymm0,%ymm2,%ymm1
  40388d:	c4 e2 fd b8 d1       	vfmadd231pd %ymm1,%ymm0,%ymm2
  403892:	c4 e2 f5 b8 c2       	vfmadd231pd %ymm2,%ymm1,%ymm0
  403897:	c4 e2 ed b8 c8       	vfmadd231pd %ymm0,%ymm2,%ymm1
  40389c:	c4 e2 fd b8 d1       	vfmadd231pd %ymm1,%ymm0,%ymm2
  4038a1:	c4 e2 f5 b8 c2       	vfmadd231pd %ymm2,%ymm1,%ymm0
  4038a6:	c4 e2 ed b8 c8       	vfmadd231pd %ymm0,%ymm2,%ymm1
  4038ab:	c4 e2 fd b8 d1       	vfmadd231pd %ymm1,%ymm0,%ymm2
  4038b0:	c4 e2 f5 b8 c2       	vfmadd231pd %ymm2,%ymm1,%ymm0
  4038b5:	c4 e2 ed b8 c8       	vfmadd231pd %ymm0,%ymm2,%ymm1
  4038ba:	c4 e2 fd b8 d1       	vfmadd231pd %ymm1,%ymm0,%ymm2
  4038bf:	c4 e2 f5 b8 c2       	vfmadd231pd %ymm2,%ymm1,%ymm0
  4038c4:	c4 e2 ed b8 c8       	vfmadd231pd %ymm0,%ymm2,%ymm1
  4038c9:	c4 e2 fd b8 d1       	vfmadd231pd %ymm1,%ymm0,%ymm2
  4038ce:	c4 e2 f5 b8 c2       	vfmadd231pd %ymm2,%ymm1,%ymm0
  4038d3:	c4 e2 ed b8 c8       	vfmadd231pd %ymm0,%ymm2,%ymm1
  4038d8:	c4 e2 fd b8 d1       	vfmadd231pd %ymm1,%ymm0,%ymm2
  4038dd:	c4 e2 f5 b8 c2       	vfmadd231pd %ymm2,%ymm1,%ymm0
  4038e2:	c4 e2 ed b8 c8       	vfmadd231pd %ymm0,%ymm2,%ymm1
  4038e7:	c4 e2 fd b8 d1       	vfmadd231pd %ymm1,%ymm0,%ymm2
  4038ec:	c4 e2 f5 b8 c2       	vfmadd231pd %ymm2,%ymm1,%ymm0
  4038f1:	c4 e2 ed b8 c8       	vfmadd231pd %ymm0,%ymm2,%ymm1
  4038f6:	c4 e2 fd b8 d1       	vfmadd231pd %ymm1,%ymm0,%ymm2
  4038fb:	c4 e2 f5 b8 c2       	vfmadd231pd %ymm2,%ymm1,%ymm0
  403900:	c4 e2 ed b8 c8       	vfmadd231pd %ymm0,%ymm2,%ymm1
  403905:	c4 e2 fd b8 d1       	vfmadd231pd %ymm1,%ymm0,%ymm2
  40390a:	c4 e2 f5 b8 c2       	vfmadd231pd %ymm2,%ymm1,%ymm0
  40390f:	c4 e2 ed b8 c8       	vfmadd231pd %ymm0,%ymm2,%ymm1
  403914:	c4 e2 fd b8 d1       	vfmadd231pd %ymm1,%ymm0,%ymm2
  403919:	c4 e2 f5 b8 c2       	vfmadd231pd %ymm2,%ymm1,%ymm0
  40391e:	c4 e2 ed b8 c8       	vfmadd231pd %ymm0,%ymm2,%ymm1
  403923:	c4 e2 fd b8 d1       	vfmadd231pd %ymm1,%ymm0,%ymm2
  403928:	c4 e2 f5 b8 c2       	vfmadd231pd %ymm2,%ymm1,%ymm0
  40392d:	c4 e2 ed b8 c8       	vfmadd231pd %ymm0,%ymm2,%ymm1
  403932:	c4 e2 fd b8 d1       	vfmadd231pd %ymm1,%ymm0,%ymm2
  403937:	c4 e2 f5 b8 c2       	vfmadd231pd %ymm2,%ymm1,%ymm0
  40393c:	c4 e2 ed b8 c8       	vfmadd231pd %ymm0,%ymm2,%ymm1
  403941:	c4 e2 fd b8 d1       	vfmadd231pd %ymm1,%ymm0,%ymm2
  403946:	c4 e2 f5 b8 c2       	vfmadd231pd %ymm2,%ymm1,%ymm0
  40394b:	c4 e2 ed b8 c8       	vfmadd231pd %ymm0,%ymm2,%ymm1
  403950:	c4 e2 fd b8 d1       	vfmadd231pd %ymm1,%ymm0,%ymm2
  403955:	c4 e2 f5 b8 c2       	vfmadd231pd %ymm2,%ymm1,%ymm0
  40395a:	c4 e2 ed b8 c8       	vfmadd231pd %ymm0,%ymm2,%ymm1
  40395f:	c4 e2 fd b8 d1       	vfmadd231pd %ymm1,%ymm0,%ymm2
  403964:	c4 e2 f5 b8 c2       	vfmadd231pd %ymm2,%ymm1,%ymm0
  403969:	c4 e2 ed b8 c8       	vfmadd231pd %ymm0,%ymm2,%ymm1
  40396e:	c4 e2 fd b8 d1       	vfmadd231pd %ymm1,%ymm0,%ymm2
  403973:	c4 e2 f5 b8 c2       	vfmadd231pd %ymm2,%ymm1,%ymm0
  403978:	c4 e2 ed b8 c8       	vfmadd231pd %ymm0,%ymm2,%ymm1
  40397d:	c4 e2 fd b8 d1       	vfmadd231pd %ymm1,%ymm0,%ymm2
  403982:	c4 e2 f5 b8 c2       	vfmadd231pd %ymm2,%ymm1,%ymm0
  403987:	c4 e2 ed b8 c8       	vfmadd231pd %ymm0,%ymm2,%ymm1
  40398c:	c4 e2 fd b8 d1       	vfmadd231pd %ymm1,%ymm0,%ymm2
  403991:	c4 e2 f5 b8 c2       	vfmadd231pd %ymm2,%ymm1,%ymm0
  403996:	c4 e2 ed b8 c8       	vfmadd231pd %ymm0,%ymm2,%ymm1
  40399b:	c4 e2 fd b8 d1       	vfmadd231pd %ymm1,%ymm0,%ymm2
  4039a0:	c4 e2 f5 b8 c2       	vfmadd231pd %ymm2,%ymm1,%ymm0
  4039a5:	c4 e2 ed b8 c8       	vfmadd231pd %ymm0,%ymm2,%ymm1
  4039aa:	c4 e2 fd b8 d1       	vfmadd231pd %ymm1,%ymm0,%ymm2
  4039af:	c4 e2 f5 b8 c2       	vfmadd231pd %ymm2,%ymm1,%ymm0
  4039b4:	c4 e2 ed b8 c8       	vfmadd231pd %ymm0,%ymm2,%ymm1
  4039b9:	c4 e2 fd b8 d1       	vfmadd231pd %ymm1,%ymm0,%ymm2
  4039be:	c4 e2 f5 b8 c2       	vfmadd231pd %ymm2,%ymm1,%ymm0
  4039c3:	c4 e2 ed b8 c8       	vfmadd231pd %ymm0,%ymm2,%ymm1
  4039c8:	c4 e2 fd b8 d1       	vfmadd231pd %ymm1,%ymm0,%ymm2
  4039cd:	c4 e2 f5 b8 c2       	vfmadd231pd %ymm2,%ymm1,%ymm0
  4039d2:	c4 e2 ed b8 c8       	vfmadd231pd %ymm0,%ymm2,%ymm1
  4039d7:	c4 e2 fd b8 d1       	vfmadd231pd %ymm1,%ymm0,%ymm2
  4039dc:	c4 e2 f5 b8 c2       	vfmadd231pd %ymm2,%ymm1,%ymm0
  4039e1:	c4 e2 ed b8 c8       	vfmadd231pd %ymm0,%ymm2,%ymm1
  4039e6:	c4 e2 fd b8 d1       	vfmadd231pd %ymm1,%ymm0,%ymm2
  4039eb:	c4 e2 f5 b8 c2       	vfmadd231pd %ymm2,%ymm1,%ymm0
  4039f0:	c4 e2 ed b8 c8       	vfmadd231pd %ymm0,%ymm2,%ymm1
  4039f5:	c4 e2 fd b8 d1       	vfmadd231pd %ymm1,%ymm0,%ymm2
  4039fa:	c4 e2 f5 b8 c2       	vfmadd231pd %ymm2,%ymm1,%ymm0
  4039ff:	c4 e2 ed b8 c8       	vfmadd231pd %ymm0,%ymm2,%ymm1
  403a04:	c4 e2 fd b8 d1       	vfmadd231pd %ymm1,%ymm0,%ymm2
  403a09:	c4 e2 f5 b8 c2       	vfmadd231pd %ymm2,%ymm1,%ymm0
  403a0e:	c4 e2 ed b8 c8       	vfmadd231pd %ymm0,%ymm2,%ymm1
  403a13:	c4 e2 fd b8 d1       	vfmadd231pd %ymm1,%ymm0,%ymm2
  403a18:	c4 e2 f5 b8 c2       	vfmadd231pd %ymm2,%ymm1,%ymm0
  403a1d:	c4 e2 ed b8 c8       	vfmadd231pd %ymm0,%ymm2,%ymm1
  403a22:	c4 e2 fd b8 d1       	vfmadd231pd %ymm1,%ymm0,%ymm2
  403a27:	c4 e2 f5 b8 c2       	vfmadd231pd %ymm2,%ymm1,%ymm0
  403a2c:	c4 e2 ed b8 c8       	vfmadd231pd %ymm0,%ymm2,%ymm1
  403a31:	c4 e2 fd b8 d1       	vfmadd231pd %ymm1,%ymm0,%ymm2
  403a36:	c4 e2 f5 b8 c2       	vfmadd231pd %ymm2,%ymm1,%ymm0
  403a3b:	c4 e2 ed b8 c8       	vfmadd231pd %ymm0,%ymm2,%ymm1
  403a40:	c4 e2 fd b8 d1       	vfmadd231pd %ymm1,%ymm0,%ymm2
  403a45:	c4 e2 f5 b8 c2       	vfmadd231pd %ymm2,%ymm1,%ymm0
  403a4a:	c4 e2 ed b8 c8       	vfmadd231pd %ymm0,%ymm2,%ymm1
  403a4f:	c4 e2 fd b8 d1       	vfmadd231pd %ymm1,%ymm0,%ymm2
  403a54:	c4 e2 f5 b8 c2       	vfmadd231pd %ymm2,%ymm1,%ymm0
  403a59:	c4 e2 ed b8 c8       	vfmadd231pd %ymm0,%ymm2,%ymm1
  403a5e:	c4 e2 fd b8 d1       	vfmadd231pd %ymm1,%ymm0,%ymm2
  403a63:	c4 e2 f5 b8 c2       	vfmadd231pd %ymm2,%ymm1,%ymm0
  403a68:	c4 e2 ed b8 c8       	vfmadd231pd %ymm0,%ymm2,%ymm1
  403a6d:	c4 e2 fd b8 d1       	vfmadd231pd %ymm1,%ymm0,%ymm2
  403a72:	c4 e2 f5 b8 c2       	vfmadd231pd %ymm2,%ymm1,%ymm0
  403a77:	c4 e2 ed b8 c8       	vfmadd231pd %ymm0,%ymm2,%ymm1
  403a7c:	c4 e2 fd b8 d1       	vfmadd231pd %ymm1,%ymm0,%ymm2
  403a81:	c4 e2 f5 b8 c2       	vfmadd231pd %ymm2,%ymm1,%ymm0
  403a86:	c4 e2 ed b8 c8       	vfmadd231pd %ymm0,%ymm2,%ymm1
  403a8b:	c4 e2 fd b8 d1       	vfmadd231pd %ymm1,%ymm0,%ymm2
  403a90:	c4 e2 f5 b8 c2       	vfmadd231pd %ymm2,%ymm1,%ymm0
  403a95:	c4 e2 ed b8 c8       	vfmadd231pd %ymm0,%ymm2,%ymm1
  403a9a:	c4 e2 fd b8 d1       	vfmadd231pd %ymm1,%ymm0,%ymm2
  403a9f:	c4 e2 f5 b8 c2       	vfmadd231pd %ymm2,%ymm1,%ymm0
  403aa4:	c4 e2 ed b8 c8       	vfmadd231pd %ymm0,%ymm2,%ymm1
  403aa9:	c4 e2 fd b8 d1       	vfmadd231pd %ymm1,%ymm0,%ymm2
  403aae:	c4 e2 f5 b8 c2       	vfmadd231pd %ymm2,%ymm1,%ymm0
  403ab3:	c4 e2 ed b8 c8       	vfmadd231pd %ymm0,%ymm2,%ymm1
  403ab8:	c4 e2 fd b8 d1       	vfmadd231pd %ymm1,%ymm0,%ymm2
  403abd:	c4 e2 f5 b8 c2       	vfmadd231pd %ymm2,%ymm1,%ymm0
  403ac2:	c4 e2 ed b8 c8       	vfmadd231pd %ymm0,%ymm2,%ymm1
  403ac7:	c4 e2 fd b8 d1       	vfmadd231pd %ymm1,%ymm0,%ymm2
  403acc:	c4 e2 f5 b8 c2       	vfmadd231pd %ymm2,%ymm1,%ymm0
  403ad1:	c4 e2 ed b8 c8       	vfmadd231pd %ymm0,%ymm2,%ymm1
  403ad6:	c4 e2 fd b8 d1       	vfmadd231pd %ymm1,%ymm0,%ymm2
  403adb:	c4 e2 f5 b8 c2       	vfmadd231pd %ymm2,%ymm1,%ymm0
  403ae0:	c4 e2 ed b8 c8       	vfmadd231pd %ymm0,%ymm2,%ymm1
  403ae5:	c4 e2 fd b8 d1       	vfmadd231pd %ymm1,%ymm0,%ymm2
  403aea:	c4 e2 f5 b8 c2       	vfmadd231pd %ymm2,%ymm1,%ymm0
  403aef:	c4 e2 ed b8 c8       	vfmadd231pd %ymm0,%ymm2,%ymm1
  403af4:	c4 e2 fd b8 d1       	vfmadd231pd %ymm1,%ymm0,%ymm2
  403af9:	c4 e2 f5 b8 c2       	vfmadd231pd %ymm2,%ymm1,%ymm0
  403afe:	c4 e2 ed b8 c8       	vfmadd231pd %ymm0,%ymm2,%ymm1
  403b03:	c4 e2 fd b8 d1       	vfmadd231pd %ymm1,%ymm0,%ymm2
  403b08:	c4 e2 f5 b8 c2       	vfmadd231pd %ymm2,%ymm1,%ymm0
  403b0d:	c4 e2 ed b8 c8       	vfmadd231pd %ymm0,%ymm2,%ymm1
  403b12:	c4 e2 fd b8 d1       	vfmadd231pd %ymm1,%ymm0,%ymm2
  403b17:	c4 e2 f5 b8 c2       	vfmadd231pd %ymm2,%ymm1,%ymm0
  403b1c:	c4 e2 ed b8 c8       	vfmadd231pd %ymm0,%ymm2,%ymm1
  403b21:	c4 e2 fd b8 d1       	vfmadd231pd %ymm1,%ymm0,%ymm2
  403b26:	c4 e2 f5 b8 c2       	vfmadd231pd %ymm2,%ymm1,%ymm0
  403b2b:	c4 e2 ed b8 c8       	vfmadd231pd %ymm0,%ymm2,%ymm1
  403b30:	c4 e2 fd b8 d1       	vfmadd231pd %ymm1,%ymm0,%ymm2
  403b35:	c4 e2 f5 b8 c2       	vfmadd231pd %ymm2,%ymm1,%ymm0
  403b3a:	c4 e2 ed b8 c8       	vfmadd231pd %ymm0,%ymm2,%ymm1
  403b3f:	c4 e2 fd b8 d1       	vfmadd231pd %ymm1,%ymm0,%ymm2
  403b44:	c4 e2 f5 b8 c2       	vfmadd231pd %ymm2,%ymm1,%ymm0
  403b49:	c4 e2 ed b8 c8       	vfmadd231pd %ymm0,%ymm2,%ymm1
  403b4e:	c4 e2 fd b8 d1       	vfmadd231pd %ymm1,%ymm0,%ymm2
  403b53:	c4 e2 f5 b8 c2       	vfmadd231pd %ymm2,%ymm1,%ymm0
  403b58:	c4 e2 ed b8 c8       	vfmadd231pd %ymm0,%ymm2,%ymm1
  403b5d:	c4 e2 fd b8 d1       	vfmadd231pd %ymm1,%ymm0,%ymm2
  403b62:	c4 e2 f5 b8 c2       	vfmadd231pd %ymm2,%ymm1,%ymm0
  403b67:	c4 e2 ed b8 c8       	vfmadd231pd %ymm0,%ymm2,%ymm1
  403b6c:	c4 e2 fd b8 d1       	vfmadd231pd %ymm1,%ymm0,%ymm2
  403b71:	c4 e2 f5 b8 c2       	vfmadd231pd %ymm2,%ymm1,%ymm0
  403b76:	c4 e2 ed b8 c8       	vfmadd231pd %ymm0,%ymm2,%ymm1
  403b7b:	c4 e2 fd b8 d1       	vfmadd231pd %ymm1,%ymm0,%ymm2
  403b80:	c4 e2 f5 b8 c2       	vfmadd231pd %ymm2,%ymm1,%ymm0
  403b85:	c4 e2 ed b8 c8       	vfmadd231pd %ymm0,%ymm2,%ymm1
  403b8a:	c4 e2 fd b8 d1       	vfmadd231pd %ymm1,%ymm0,%ymm2
  403b8f:	c4 e2 f5 b8 c2       	vfmadd231pd %ymm2,%ymm1,%ymm0
  403b94:	c4 e2 ed b8 c8       	vfmadd231pd %ymm0,%ymm2,%ymm1
  403b99:	c4 e2 fd b8 d1       	vfmadd231pd %ymm1,%ymm0,%ymm2
  403b9e:	c4 e2 f5 b8 c2       	vfmadd231pd %ymm2,%ymm1,%ymm0
  403ba3:	c4 e2 ed b8 c8       	vfmadd231pd %ymm0,%ymm2,%ymm1
  403ba8:	c4 e2 fd b8 d1       	vfmadd231pd %ymm1,%ymm0,%ymm2
  403bad:	c4 e2 f5 b8 c2       	vfmadd231pd %ymm2,%ymm1,%ymm0
  403bb2:	c4 e2 ed b8 c8       	vfmadd231pd %ymm0,%ymm2,%ymm1
  403bb7:	c4 e2 fd b8 d1       	vfmadd231pd %ymm1,%ymm0,%ymm2
  403bbc:	c4 e2 f5 b8 c2       	vfmadd231pd %ymm2,%ymm1,%ymm0
  403bc1:	c4 e2 ed b8 c8       	vfmadd231pd %ymm0,%ymm2,%ymm1
  403bc6:	c4 e2 fd b8 d1       	vfmadd231pd %ymm1,%ymm0,%ymm2
  403bcb:	c4 e2 f5 b8 c2       	vfmadd231pd %ymm2,%ymm1,%ymm0
  403bd0:	c4 e2 ed b8 c8       	vfmadd231pd %ymm0,%ymm2,%ymm1
  403bd5:	c4 e2 fd b8 d1       	vfmadd231pd %ymm1,%ymm0,%ymm2
  403bda:	c4 e2 f5 b8 c2       	vfmadd231pd %ymm2,%ymm1,%ymm0
  403bdf:	c4 e2 ed b8 c8       	vfmadd231pd %ymm0,%ymm2,%ymm1
  403be4:	c4 e2 fd b8 d1       	vfmadd231pd %ymm1,%ymm0,%ymm2
  403be9:	c4 e2 f5 b8 c2       	vfmadd231pd %ymm2,%ymm1,%ymm0
  403bee:	c4 e2 ed b8 c8       	vfmadd231pd %ymm0,%ymm2,%ymm1
  403bf3:	c4 e2 fd b8 d1       	vfmadd231pd %ymm1,%ymm0,%ymm2
  403bf8:	c4 e2 f5 b8 c2       	vfmadd231pd %ymm2,%ymm1,%ymm0
  403bfd:	c4 e2 ed b8 c8       	vfmadd231pd %ymm0,%ymm2,%ymm1
  403c02:	c4 e2 fd b8 d1       	vfmadd231pd %ymm1,%ymm0,%ymm2
  403c07:	c4 e2 f5 b8 c2       	vfmadd231pd %ymm2,%ymm1,%ymm0
  403c0c:	c4 e2 ed b8 c8       	vfmadd231pd %ymm0,%ymm2,%ymm1
  403c11:	c4 e2 fd b8 d1       	vfmadd231pd %ymm1,%ymm0,%ymm2
  403c16:	c4 e2 f5 b8 c2       	vfmadd231pd %ymm2,%ymm1,%ymm0
  403c1b:	c4 e2 ed b8 c8       	vfmadd231pd %ymm0,%ymm2,%ymm1
  403c20:	c4 e2 fd b8 d1       	vfmadd231pd %ymm1,%ymm0,%ymm2
  403c25:	c4 e2 f5 b8 c2       	vfmadd231pd %ymm2,%ymm1,%ymm0
  403c2a:	c4 e2 ed b8 c8       	vfmadd231pd %ymm0,%ymm2,%ymm1
  403c2f:	c4 e2 fd b8 d1       	vfmadd231pd %ymm1,%ymm0,%ymm2
  403c34:	c4 e2 f5 b8 c2       	vfmadd231pd %ymm2,%ymm1,%ymm0
  403c39:	c4 e2 ed b8 c8       	vfmadd231pd %ymm0,%ymm2,%ymm1
  403c3e:	c4 e2 fd b8 d1       	vfmadd231pd %ymm1,%ymm0,%ymm2
  403c43:	c4 e2 f5 b8 c2       	vfmadd231pd %ymm2,%ymm1,%ymm0
  403c48:	c4 e2 ed b8 c8       	vfmadd231pd %ymm0,%ymm2,%ymm1
  403c4d:	c4 e2 fd b8 d1       	vfmadd231pd %ymm1,%ymm0,%ymm2
  403c52:	c4 e2 f5 b8 c2       	vfmadd231pd %ymm2,%ymm1,%ymm0
  403c57:	c4 e2 ed b8 c8       	vfmadd231pd %ymm0,%ymm2,%ymm1
  403c5c:	c4 e2 fd b8 d1       	vfmadd231pd %ymm1,%ymm0,%ymm2
  403c61:	c4 e2 f5 b8 c2       	vfmadd231pd %ymm2,%ymm1,%ymm0
  403c66:	c4 e2 ed b8 c8       	vfmadd231pd %ymm0,%ymm2,%ymm1
  403c6b:	c4 e2 fd b8 d1       	vfmadd231pd %ymm1,%ymm0,%ymm2
  403c70:	c4 e2 f5 b8 c2       	vfmadd231pd %ymm2,%ymm1,%ymm0
  403c75:	c4 e2 ed b8 c8       	vfmadd231pd %ymm0,%ymm2,%ymm1
  403c7a:	c4 e2 fd b8 d1       	vfmadd231pd %ymm1,%ymm0,%ymm2
  403c7f:	c4 e2 f5 b8 c2       	vfmadd231pd %ymm2,%ymm1,%ymm0
  403c84:	c4 e2 ed b8 c8       	vfmadd231pd %ymm0,%ymm2,%ymm1
  403c89:	c4 e2 fd b8 d1       	vfmadd231pd %ymm1,%ymm0,%ymm2
  403c8e:	c4 e2 f5 b8 c2       	vfmadd231pd %ymm2,%ymm1,%ymm0
  403c93:	c4 e2 ed b8 c8       	vfmadd231pd %ymm0,%ymm2,%ymm1
  403c98:	c4 e2 fd b8 d1       	vfmadd231pd %ymm1,%ymm0,%ymm2
  403c9d:	c4 e2 f5 b8 c2       	vfmadd231pd %ymm2,%ymm1,%ymm0
  403ca2:	c4 e2 ed b8 c8       	vfmadd231pd %ymm0,%ymm2,%ymm1
  403ca7:	c4 e2 fd b8 d1       	vfmadd231pd %ymm1,%ymm0,%ymm2
  403cac:	c4 e2 f5 b8 c2       	vfmadd231pd %ymm2,%ymm1,%ymm0
  403cb1:	c4 e2 ed b8 c8       	vfmadd231pd %ymm0,%ymm2,%ymm1
  403cb6:	c4 e2 fd b8 d1       	vfmadd231pd %ymm1,%ymm0,%ymm2
  403cbb:	c4 e2 f5 b8 c2       	vfmadd231pd %ymm2,%ymm1,%ymm0
  403cc0:	c4 e2 ed b8 c8       	vfmadd231pd %ymm0,%ymm2,%ymm1
  403cc5:	c4 e2 fd b8 d1       	vfmadd231pd %ymm1,%ymm0,%ymm2
  403cca:	c4 e2 f5 b8 c2       	vfmadd231pd %ymm2,%ymm1,%ymm0
  403ccf:	c4 e2 ed b8 c8       	vfmadd231pd %ymm0,%ymm2,%ymm1
  403cd4:	c4 e2 fd b8 d1       	vfmadd231pd %ymm1,%ymm0,%ymm2
  403cd9:	c4 e2 f5 b8 c2       	vfmadd231pd %ymm2,%ymm1,%ymm0
  403cde:	c4 e2 ed b8 c8       	vfmadd231pd %ymm0,%ymm2,%ymm1
  403ce3:	c4 e2 fd b8 d1       	vfmadd231pd %ymm1,%ymm0,%ymm2
  403ce8:	c4 e2 f5 b8 c2       	vfmadd231pd %ymm2,%ymm1,%ymm0
  403ced:	c4 e2 ed b8 c8       	vfmadd231pd %ymm0,%ymm2,%ymm1
  403cf2:	c4 e2 fd b8 d1       	vfmadd231pd %ymm1,%ymm0,%ymm2
  403cf7:	c4 e2 f5 b8 c2       	vfmadd231pd %ymm2,%ymm1,%ymm0
  403cfc:	c4 e2 ed b8 c8       	vfmadd231pd %ymm0,%ymm2,%ymm1
  403d01:	c4 e2 fd b8 d1       	vfmadd231pd %ymm1,%ymm0,%ymm2
  403d06:	c4 e2 f5 b8 c2       	vfmadd231pd %ymm2,%ymm1,%ymm0
  403d0b:	c4 e2 ed b8 c8       	vfmadd231pd %ymm0,%ymm2,%ymm1
  403d10:	c4 e2 fd b8 d1       	vfmadd231pd %ymm1,%ymm0,%ymm2
  403d15:	c4 e2 f5 b8 c2       	vfmadd231pd %ymm2,%ymm1,%ymm0
  403d1a:	c4 e2 ed b8 c8       	vfmadd231pd %ymm0,%ymm2,%ymm1
  403d1f:	c4 e2 fd b8 d1       	vfmadd231pd %ymm1,%ymm0,%ymm2
  403d24:	c4 e2 f5 b8 c2       	vfmadd231pd %ymm2,%ymm1,%ymm0
  403d29:	c4 e2 ed b8 c8       	vfmadd231pd %ymm0,%ymm2,%ymm1
  403d2e:	c4 e2 fd b8 d1       	vfmadd231pd %ymm1,%ymm0,%ymm2
  403d33:	c4 e2 f5 b8 c2       	vfmadd231pd %ymm2,%ymm1,%ymm0
  403d38:	c4 e2 ed b8 c8       	vfmadd231pd %ymm0,%ymm2,%ymm1
  403d3d:	c4 e2 fd b8 d1       	vfmadd231pd %ymm1,%ymm0,%ymm2
  403d42:	c4 e2 f5 b8 c2       	vfmadd231pd %ymm2,%ymm1,%ymm0
  403d47:	c4 e2 ed b8 c8       	vfmadd231pd %ymm0,%ymm2,%ymm1
  403d4c:	c4 e2 fd b8 d1       	vfmadd231pd %ymm1,%ymm0,%ymm2
  403d51:	c4 e2 f5 b8 c2       	vfmadd231pd %ymm2,%ymm1,%ymm0
  403d56:	c4 e2 ed b8 c8       	vfmadd231pd %ymm0,%ymm2,%ymm1
  403d5b:	c4 e2 fd b8 d1       	vfmadd231pd %ymm1,%ymm0,%ymm2
  403d60:	c4 e2 f5 b8 c2       	vfmadd231pd %ymm2,%ymm1,%ymm0
  403d65:	c4 e2 ed b8 c8       	vfmadd231pd %ymm0,%ymm2,%ymm1
  403d6a:	c4 e2 fd b8 d1       	vfmadd231pd %ymm1,%ymm0,%ymm2
  403d6f:	c4 e2 f5 b8 c2       	vfmadd231pd %ymm2,%ymm1,%ymm0
  403d74:	c4 e2 ed b8 c8       	vfmadd231pd %ymm0,%ymm2,%ymm1
  403d79:	c4 e2 fd b8 d1       	vfmadd231pd %ymm1,%ymm0,%ymm2
  403d7e:	c4 e2 f5 b8 c2       	vfmadd231pd %ymm2,%ymm1,%ymm0
  403d83:	c4 e2 ed b8 c8       	vfmadd231pd %ymm0,%ymm2,%ymm1
  403d88:	c4 e2 fd b8 d1       	vfmadd231pd %ymm1,%ymm0,%ymm2
  403d8d:	c4 e2 f5 b8 c2       	vfmadd231pd %ymm2,%ymm1,%ymm0
  403d92:	c4 e2 ed b8 c8       	vfmadd231pd %ymm0,%ymm2,%ymm1
  403d97:	c4 e2 fd b8 d1       	vfmadd231pd %ymm1,%ymm0,%ymm2
  403d9c:	c4 e2 f5 b8 c2       	vfmadd231pd %ymm2,%ymm1,%ymm0
  403da1:	c4 e2 ed b8 c8       	vfmadd231pd %ymm0,%ymm2,%ymm1
  403da6:	c4 e2 fd b8 d1       	vfmadd231pd %ymm1,%ymm0,%ymm2
  403dab:	c4 e2 f5 b8 c2       	vfmadd231pd %ymm2,%ymm1,%ymm0
  403db0:	c4 e2 ed b8 c8       	vfmadd231pd %ymm0,%ymm2,%ymm1
  403db5:	c4 e2 fd b8 d1       	vfmadd231pd %ymm1,%ymm0,%ymm2
  403dba:	c4 e2 f5 b8 c2       	vfmadd231pd %ymm2,%ymm1,%ymm0
  403dbf:	c4 e2 ed b8 c8       	vfmadd231pd %ymm0,%ymm2,%ymm1
  403dc4:	c4 e2 fd b8 d1       	vfmadd231pd %ymm1,%ymm0,%ymm2
  403dc9:	c4 e2 f5 b8 c2       	vfmadd231pd %ymm2,%ymm1,%ymm0
  403dce:	c4 e2 ed b8 c8       	vfmadd231pd %ymm0,%ymm2,%ymm1
  403dd3:	c4 e2 fd b8 d1       	vfmadd231pd %ymm1,%ymm0,%ymm2
  403dd8:	c4 e2 f5 b8 c2       	vfmadd231pd %ymm2,%ymm1,%ymm0
  403ddd:	c4 e2 ed b8 c8       	vfmadd231pd %ymm0,%ymm2,%ymm1
  403de2:	c4 e2 fd b8 d1       	vfmadd231pd %ymm1,%ymm0,%ymm2
  403de7:	c4 e2 f5 b8 c2       	vfmadd231pd %ymm2,%ymm1,%ymm0
  403dec:	c4 e2 ed b8 c8       	vfmadd231pd %ymm0,%ymm2,%ymm1
  403df1:	c4 e2 fd b8 d1       	vfmadd231pd %ymm1,%ymm0,%ymm2
  403df6:	c4 e2 f5 b8 c2       	vfmadd231pd %ymm2,%ymm1,%ymm0
  403dfb:	c4 e2 ed b8 c8       	vfmadd231pd %ymm0,%ymm2,%ymm1
  403e00:	c4 e2 fd b8 d1       	vfmadd231pd %ymm1,%ymm0,%ymm2
  403e05:	c4 e2 f5 b8 c2       	vfmadd231pd %ymm2,%ymm1,%ymm0
  403e0a:	c4 e2 ed b8 c8       	vfmadd231pd %ymm0,%ymm2,%ymm1
  403e0f:	c4 e2 fd b8 d1       	vfmadd231pd %ymm1,%ymm0,%ymm2
  403e14:	c4 e2 f5 b8 c2       	vfmadd231pd %ymm2,%ymm1,%ymm0
  403e19:	c4 e2 ed b8 c8       	vfmadd231pd %ymm0,%ymm2,%ymm1
  403e1e:	c4 e2 fd b8 d1       	vfmadd231pd %ymm1,%ymm0,%ymm2
  403e23:	c4 e2 f5 b8 c2       	vfmadd231pd %ymm2,%ymm1,%ymm0
  403e28:	c4 e2 ed b8 c8       	vfmadd231pd %ymm0,%ymm2,%ymm1
  403e2d:	c4 e2 fd b8 d1       	vfmadd231pd %ymm1,%ymm0,%ymm2
  403e32:	c4 e2 f5 b8 c2       	vfmadd231pd %ymm2,%ymm1,%ymm0
  403e37:	c4 e2 ed b8 c8       	vfmadd231pd %ymm0,%ymm2,%ymm1
  403e3c:	c4 e2 fd b8 d1       	vfmadd231pd %ymm1,%ymm0,%ymm2
  403e41:	c4 e2 f5 b8 c2       	vfmadd231pd %ymm2,%ymm1,%ymm0
  403e46:	c4 e2 ed b8 c8       	vfmadd231pd %ymm0,%ymm2,%ymm1
  403e4b:	c4 e2 fd b8 d1       	vfmadd231pd %ymm1,%ymm0,%ymm2
  403e50:	c4 e2 f5 b8 c2       	vfmadd231pd %ymm2,%ymm1,%ymm0
  403e55:	c4 e2 ed b8 c8       	vfmadd231pd %ymm0,%ymm2,%ymm1
  403e5a:	c4 e2 fd b8 d1       	vfmadd231pd %ymm1,%ymm0,%ymm2
  403e5f:	c4 e2 f5 b8 c2       	vfmadd231pd %ymm2,%ymm1,%ymm0
  403e64:	c4 e2 ed b8 c8       	vfmadd231pd %ymm0,%ymm2,%ymm1
  403e69:	c4 e2 fd b8 d1       	vfmadd231pd %ymm1,%ymm0,%ymm2
  403e6e:	c4 e2 f5 b8 c2       	vfmadd231pd %ymm2,%ymm1,%ymm0
  403e73:	c4 e2 ed b8 c8       	vfmadd231pd %ymm0,%ymm2,%ymm1
  403e78:	c4 e2 fd b8 d1       	vfmadd231pd %ymm1,%ymm0,%ymm2
  403e7d:	c4 e2 f5 b8 c2       	vfmadd231pd %ymm2,%ymm1,%ymm0
  403e82:	c4 e2 ed b8 c8       	vfmadd231pd %ymm0,%ymm2,%ymm1
  403e87:	c4 e2 fd b8 d1       	vfmadd231pd %ymm1,%ymm0,%ymm2
  403e8c:	c4 e2 f5 b8 c2       	vfmadd231pd %ymm2,%ymm1,%ymm0
  403e91:	c4 e2 ed b8 c8       	vfmadd231pd %ymm0,%ymm2,%ymm1
  403e96:	c4 e2 fd b8 d1       	vfmadd231pd %ymm1,%ymm0,%ymm2
  403e9b:	c4 e2 f5 b8 c2       	vfmadd231pd %ymm2,%ymm1,%ymm0
  403ea0:	c4 e2 ed b8 c8       	vfmadd231pd %ymm0,%ymm2,%ymm1
  403ea5:	c4 e2 fd b8 d1       	vfmadd231pd %ymm1,%ymm0,%ymm2
  403eaa:	c4 e2 f5 b8 c2       	vfmadd231pd %ymm2,%ymm1,%ymm0
  403eaf:	c4 e2 ed b8 c8       	vfmadd231pd %ymm0,%ymm2,%ymm1
  403eb4:	c4 e2 fd b8 d1       	vfmadd231pd %ymm1,%ymm0,%ymm2
  403eb9:	c4 e2 f5 b8 c2       	vfmadd231pd %ymm2,%ymm1,%ymm0
  403ebe:	c4 e2 ed b8 c8       	vfmadd231pd %ymm0,%ymm2,%ymm1
  403ec3:	c4 e2 fd b8 d1       	vfmadd231pd %ymm1,%ymm0,%ymm2
  403ec8:	c4 e2 f5 b8 c2       	vfmadd231pd %ymm2,%ymm1,%ymm0
  403ecd:	c4 e2 ed b8 c8       	vfmadd231pd %ymm0,%ymm2,%ymm1
  403ed2:	c4 e2 fd b8 d1       	vfmadd231pd %ymm1,%ymm0,%ymm2
  403ed7:	c4 e2 f5 b8 c2       	vfmadd231pd %ymm2,%ymm1,%ymm0
  403edc:	c4 e2 ed b8 c8       	vfmadd231pd %ymm0,%ymm2,%ymm1
  403ee1:	c4 e2 fd b8 d1       	vfmadd231pd %ymm1,%ymm0,%ymm2
  403ee6:	c4 e2 f5 b8 c2       	vfmadd231pd %ymm2,%ymm1,%ymm0
  403eeb:	c4 e2 ed b8 c8       	vfmadd231pd %ymm0,%ymm2,%ymm1
  403ef0:	c4 e2 fd b8 d1       	vfmadd231pd %ymm1,%ymm0,%ymm2
  403ef5:	c4 e2 f5 b8 c2       	vfmadd231pd %ymm2,%ymm1,%ymm0
  403efa:	c4 e2 ed b8 c8       	vfmadd231pd %ymm0,%ymm2,%ymm1
  403eff:	c4 e2 fd b8 d1       	vfmadd231pd %ymm1,%ymm0,%ymm2
  403f04:	c4 e2 f5 b8 c2       	vfmadd231pd %ymm2,%ymm1,%ymm0
  403f09:	c4 e2 ed b8 c8       	vfmadd231pd %ymm0,%ymm2,%ymm1
  403f0e:	c4 e2 fd b8 d1       	vfmadd231pd %ymm1,%ymm0,%ymm2
  403f13:	c4 e2 f5 b8 c2       	vfmadd231pd %ymm2,%ymm1,%ymm0
  403f18:	c4 e2 ed b8 c8       	vfmadd231pd %ymm0,%ymm2,%ymm1
  403f1d:	c4 e2 fd b8 d1       	vfmadd231pd %ymm1,%ymm0,%ymm2
  403f22:	c4 e2 f5 b8 c2       	vfmadd231pd %ymm2,%ymm1,%ymm0
  403f27:	c4 e2 ed b8 c8       	vfmadd231pd %ymm0,%ymm2,%ymm1
  403f2c:	c4 e2 fd b8 d1       	vfmadd231pd %ymm1,%ymm0,%ymm2
  403f31:	c4 e2 f5 b8 c2       	vfmadd231pd %ymm2,%ymm1,%ymm0
  403f36:	c4 e2 ed b8 c8       	vfmadd231pd %ymm0,%ymm2,%ymm1
  403f3b:	c4 e2 fd b8 d1       	vfmadd231pd %ymm1,%ymm0,%ymm2
  403f40:	c4 e2 f5 b8 c2       	vfmadd231pd %ymm2,%ymm1,%ymm0
  403f45:	c4 e2 ed b8 c8       	vfmadd231pd %ymm0,%ymm2,%ymm1
  403f4a:	c4 e2 fd b8 d1       	vfmadd231pd %ymm1,%ymm0,%ymm2
  403f4f:	c4 e2 f5 b8 c2       	vfmadd231pd %ymm2,%ymm1,%ymm0
  403f54:	c4 e2 ed b8 c8       	vfmadd231pd %ymm0,%ymm2,%ymm1
  403f59:	c4 e2 fd b8 d1       	vfmadd231pd %ymm1,%ymm0,%ymm2
  403f5e:	c4 e2 f5 b8 c2       	vfmadd231pd %ymm2,%ymm1,%ymm0
  403f63:	c4 e2 ed b8 c8       	vfmadd231pd %ymm0,%ymm2,%ymm1
  403f68:	c4 e2 fd b8 d1       	vfmadd231pd %ymm1,%ymm0,%ymm2
  403f6d:	c4 e2 f5 b8 c2       	vfmadd231pd %ymm2,%ymm1,%ymm0
  403f72:	c4 e2 ed b8 c8       	vfmadd231pd %ymm0,%ymm2,%ymm1
  403f77:	c4 e2 fd b8 d1       	vfmadd231pd %ymm1,%ymm0,%ymm2
  403f7c:	c4 e2 f5 b8 c2       	vfmadd231pd %ymm2,%ymm1,%ymm0
  403f81:	c4 e2 ed b8 c8       	vfmadd231pd %ymm0,%ymm2,%ymm1
  403f86:	c4 e2 fd b8 d1       	vfmadd231pd %ymm1,%ymm0,%ymm2
  403f8b:	c4 e2 f5 b8 c2       	vfmadd231pd %ymm2,%ymm1,%ymm0
  403f90:	c4 e2 ed b8 c8       	vfmadd231pd %ymm0,%ymm2,%ymm1
  403f95:	c4 e2 fd b8 d1       	vfmadd231pd %ymm1,%ymm0,%ymm2
  403f9a:	c4 e2 f5 b8 c2       	vfmadd231pd %ymm2,%ymm1,%ymm0
  403f9f:	c4 e2 ed b8 c8       	vfmadd231pd %ymm0,%ymm2,%ymm1
  403fa4:	c4 e2 fd b8 d1       	vfmadd231pd %ymm1,%ymm0,%ymm2
  403fa9:	c4 e2 f5 b8 c2       	vfmadd231pd %ymm2,%ymm1,%ymm0
  403fae:	c4 e2 ed b8 c8       	vfmadd231pd %ymm0,%ymm2,%ymm1
  403fb3:	c4 e2 fd b8 d1       	vfmadd231pd %ymm1,%ymm0,%ymm2
  403fb8:	c4 e2 f5 b8 c2       	vfmadd231pd %ymm2,%ymm1,%ymm0
  403fbd:	c4 e2 ed b8 c8       	vfmadd231pd %ymm0,%ymm2,%ymm1
  403fc2:	c4 e2 fd b8 d1       	vfmadd231pd %ymm1,%ymm0,%ymm2
  403fc7:	c4 e2 f5 b8 c2       	vfmadd231pd %ymm2,%ymm1,%ymm0
  403fcc:	c4 e2 ed b8 c8       	vfmadd231pd %ymm0,%ymm2,%ymm1
  403fd1:	c4 e2 fd b8 d1       	vfmadd231pd %ymm1,%ymm0,%ymm2
  403fd6:	c4 e2 f5 b8 c2       	vfmadd231pd %ymm2,%ymm1,%ymm0
  403fdb:	c4 e2 ed b8 c8       	vfmadd231pd %ymm0,%ymm2,%ymm1
  403fe0:	c4 e2 fd b8 d1       	vfmadd231pd %ymm1,%ymm0,%ymm2
  403fe5:	c4 e2 f5 b8 c2       	vfmadd231pd %ymm2,%ymm1,%ymm0
  403fea:	c4 e2 ed b8 c8       	vfmadd231pd %ymm0,%ymm2,%ymm1
  403fef:	c4 e2 fd b8 d1       	vfmadd231pd %ymm1,%ymm0,%ymm2
  403ff4:	c4 e2 f5 b8 c2       	vfmadd231pd %ymm2,%ymm1,%ymm0
  403ff9:	c4 e2 ed b8 c8       	vfmadd231pd %ymm0,%ymm2,%ymm1
  403ffe:	c4 e2 fd b8 d1       	vfmadd231pd %ymm1,%ymm0,%ymm2
  404003:	c4 e2 f5 b8 c2       	vfmadd231pd %ymm2,%ymm1,%ymm0
  404008:	c4 e2 ed b8 c8       	vfmadd231pd %ymm0,%ymm2,%ymm1
  40400d:	c4 e2 fd b8 d1       	vfmadd231pd %ymm1,%ymm0,%ymm2
  404012:	c4 e2 f5 b8 c2       	vfmadd231pd %ymm2,%ymm1,%ymm0
  404017:	c4 e2 ed b8 c8       	vfmadd231pd %ymm0,%ymm2,%ymm1
  40401c:	c4 e2 fd b8 d1       	vfmadd231pd %ymm1,%ymm0,%ymm2
  404021:	c4 e2 f5 b8 c2       	vfmadd231pd %ymm2,%ymm1,%ymm0
  404026:	c4 e2 ed b8 c8       	vfmadd231pd %ymm0,%ymm2,%ymm1
  40402b:	c4 e2 fd b8 d1       	vfmadd231pd %ymm1,%ymm0,%ymm2
  404030:	c4 e2 f5 b8 c2       	vfmadd231pd %ymm2,%ymm1,%ymm0
  404035:	c4 e2 ed b8 c8       	vfmadd231pd %ymm0,%ymm2,%ymm1
  40403a:	c4 e2 fd b8 d1       	vfmadd231pd %ymm1,%ymm0,%ymm2
  40403f:	c4 e2 f5 b8 c2       	vfmadd231pd %ymm2,%ymm1,%ymm0
  404044:	c4 e2 ed b8 c8       	vfmadd231pd %ymm0,%ymm2,%ymm1
  404049:	c4 e2 fd b8 d1       	vfmadd231pd %ymm1,%ymm0,%ymm2
  40404e:	c4 e2 f5 b8 c2       	vfmadd231pd %ymm2,%ymm1,%ymm0
  404053:	c4 e2 ed b8 c8       	vfmadd231pd %ymm0,%ymm2,%ymm1
  404058:	c4 e2 fd b8 d1       	vfmadd231pd %ymm1,%ymm0,%ymm2
  40405d:	c4 e2 f5 b8 c2       	vfmadd231pd %ymm2,%ymm1,%ymm0
  404062:	c4 e2 ed b8 c8       	vfmadd231pd %ymm0,%ymm2,%ymm1
  404067:	c4 e2 fd b8 d1       	vfmadd231pd %ymm1,%ymm0,%ymm2
  40406c:	c4 e2 f5 b8 c2       	vfmadd231pd %ymm2,%ymm1,%ymm0
  404071:	c4 e2 ed b8 c8       	vfmadd231pd %ymm0,%ymm2,%ymm1
  404076:	c4 e2 fd b8 d1       	vfmadd231pd %ymm1,%ymm0,%ymm2
  40407b:	c4 e2 f5 b8 c2       	vfmadd231pd %ymm2,%ymm1,%ymm0
  404080:	c4 e2 ed b8 c8       	vfmadd231pd %ymm0,%ymm2,%ymm1
  404085:	c4 e2 fd b8 d1       	vfmadd231pd %ymm1,%ymm0,%ymm2
  40408a:	c4 e2 f5 b8 c2       	vfmadd231pd %ymm2,%ymm1,%ymm0
  40408f:	c4 e2 ed b8 c8       	vfmadd231pd %ymm0,%ymm2,%ymm1
  404094:	c4 e2 fd b8 d1       	vfmadd231pd %ymm1,%ymm0,%ymm2
  404099:	c4 e2 f5 b8 c2       	vfmadd231pd %ymm2,%ymm1,%ymm0
  40409e:	c4 e2 ed b8 c8       	vfmadd231pd %ymm0,%ymm2,%ymm1
  4040a3:	c4 e2 fd b8 d1       	vfmadd231pd %ymm1,%ymm0,%ymm2
  4040a8:	c4 e2 f5 b8 c2       	vfmadd231pd %ymm2,%ymm1,%ymm0
  4040ad:	c4 e2 ed b8 c8       	vfmadd231pd %ymm0,%ymm2,%ymm1
  4040b2:	c4 e2 fd b8 d1       	vfmadd231pd %ymm1,%ymm0,%ymm2
  4040b7:	c4 e2 f5 b8 c2       	vfmadd231pd %ymm2,%ymm1,%ymm0
  4040bc:	c4 e2 ed b8 c8       	vfmadd231pd %ymm0,%ymm2,%ymm1
  4040c1:	c4 e2 fd b8 d1       	vfmadd231pd %ymm1,%ymm0,%ymm2
  4040c6:	c4 e2 f5 b8 c2       	vfmadd231pd %ymm2,%ymm1,%ymm0
  4040cb:	c4 e2 ed b8 c8       	vfmadd231pd %ymm0,%ymm2,%ymm1
  4040d0:	c4 e2 fd b8 d1       	vfmadd231pd %ymm1,%ymm0,%ymm2
  4040d5:	c4 e2 f5 b8 c2       	vfmadd231pd %ymm2,%ymm1,%ymm0
  4040da:	c4 e2 ed b8 c8       	vfmadd231pd %ymm0,%ymm2,%ymm1
  4040df:	c4 e2 fd b8 d1       	vfmadd231pd %ymm1,%ymm0,%ymm2
  4040e4:	c4 e2 f5 b8 c2       	vfmadd231pd %ymm2,%ymm1,%ymm0
  4040e9:	c4 e2 ed b8 c8       	vfmadd231pd %ymm0,%ymm2,%ymm1
  4040ee:	c4 e2 fd b8 d1       	vfmadd231pd %ymm1,%ymm0,%ymm2
  4040f3:	c4 e2 f5 b8 c2       	vfmadd231pd %ymm2,%ymm1,%ymm0
  4040f8:	c4 e2 ed b8 c8       	vfmadd231pd %ymm0,%ymm2,%ymm1
  4040fd:	c4 e2 fd b8 d1       	vfmadd231pd %ymm1,%ymm0,%ymm2
  404102:	c4 e2 f5 b8 c2       	vfmadd231pd %ymm2,%ymm1,%ymm0
  404107:	c4 e2 ed b8 c8       	vfmadd231pd %ymm0,%ymm2,%ymm1
  40410c:	c4 e2 fd b8 d1       	vfmadd231pd %ymm1,%ymm0,%ymm2
  404111:	c4 e2 f5 b8 c2       	vfmadd231pd %ymm2,%ymm1,%ymm0
  404116:	c4 e2 ed b8 c8       	vfmadd231pd %ymm0,%ymm2,%ymm1
  40411b:	c4 e2 fd b8 d1       	vfmadd231pd %ymm1,%ymm0,%ymm2
  404120:	c4 e2 f5 b8 c2       	vfmadd231pd %ymm2,%ymm1,%ymm0
  404125:	c4 e2 ed b8 c8       	vfmadd231pd %ymm0,%ymm2,%ymm1
  40412a:	c4 e2 fd b8 d1       	vfmadd231pd %ymm1,%ymm0,%ymm2
  40412f:	c4 e2 f5 b8 c2       	vfmadd231pd %ymm2,%ymm1,%ymm0
  404134:	c4 e2 ed b8 c8       	vfmadd231pd %ymm0,%ymm2,%ymm1
  404139:	c4 e2 fd b8 d1       	vfmadd231pd %ymm1,%ymm0,%ymm2
  40413e:	c4 e2 f5 b8 c2       	vfmadd231pd %ymm2,%ymm1,%ymm0
  404143:	c4 e2 ed b8 c8       	vfmadd231pd %ymm0,%ymm2,%ymm1
  404148:	c4 e2 fd b8 d1       	vfmadd231pd %ymm1,%ymm0,%ymm2
  40414d:	c4 e2 f5 b8 c2       	vfmadd231pd %ymm2,%ymm1,%ymm0
  404152:	c4 e2 ed b8 c8       	vfmadd231pd %ymm0,%ymm2,%ymm1
  404157:	c4 e2 fd b8 d1       	vfmadd231pd %ymm1,%ymm0,%ymm2
  40415c:	c4 e2 f5 b8 c2       	vfmadd231pd %ymm2,%ymm1,%ymm0
  404161:	c4 e2 ed b8 c8       	vfmadd231pd %ymm0,%ymm2,%ymm1
  404166:	c4 e2 fd b8 d1       	vfmadd231pd %ymm1,%ymm0,%ymm2
  40416b:	c4 e2 f5 b8 c2       	vfmadd231pd %ymm2,%ymm1,%ymm0
  404170:	c4 e2 ed b8 c8       	vfmadd231pd %ymm0,%ymm2,%ymm1
  404175:	c4 e2 fd b8 d1       	vfmadd231pd %ymm1,%ymm0,%ymm2
  40417a:	c4 e2 f5 b8 c2       	vfmadd231pd %ymm2,%ymm1,%ymm0
  40417f:	c4 e2 ed b8 c8       	vfmadd231pd %ymm0,%ymm2,%ymm1
  404184:	c4 e2 fd b8 d1       	vfmadd231pd %ymm1,%ymm0,%ymm2
  404189:	c4 e2 f5 b8 c2       	vfmadd231pd %ymm2,%ymm1,%ymm0
  40418e:	c4 e2 ed b8 c8       	vfmadd231pd %ymm0,%ymm2,%ymm1
  404193:	c4 e2 fd b8 d1       	vfmadd231pd %ymm1,%ymm0,%ymm2
  404198:	c4 e2 f5 b8 c2       	vfmadd231pd %ymm2,%ymm1,%ymm0
  40419d:	c4 e2 ed b8 c8       	vfmadd231pd %ymm0,%ymm2,%ymm1
  4041a2:	c4 e2 fd b8 d1       	vfmadd231pd %ymm1,%ymm0,%ymm2
  4041a7:	c4 e2 f5 b8 c2       	vfmadd231pd %ymm2,%ymm1,%ymm0
  4041ac:	c4 e2 ed b8 c8       	vfmadd231pd %ymm0,%ymm2,%ymm1
  4041b1:	c4 e2 fd b8 d1       	vfmadd231pd %ymm1,%ymm0,%ymm2
  4041b6:	c4 e2 f5 b8 c2       	vfmadd231pd %ymm2,%ymm1,%ymm0
  4041bb:	c4 e2 ed b8 c8       	vfmadd231pd %ymm0,%ymm2,%ymm1
  4041c0:	c4 e2 fd b8 d1       	vfmadd231pd %ymm1,%ymm0,%ymm2
  4041c5:	c4 e2 f5 b8 c2       	vfmadd231pd %ymm2,%ymm1,%ymm0
  4041ca:	c4 e2 ed b8 c8       	vfmadd231pd %ymm0,%ymm2,%ymm1
  4041cf:	c4 e2 fd b8 d1       	vfmadd231pd %ymm1,%ymm0,%ymm2
  4041d4:	c4 e2 f5 b8 c2       	vfmadd231pd %ymm2,%ymm1,%ymm0
  4041d9:	c4 e2 ed b8 c8       	vfmadd231pd %ymm0,%ymm2,%ymm1
  4041de:	c4 e2 fd b8 d1       	vfmadd231pd %ymm1,%ymm0,%ymm2
  4041e3:	c4 e2 f5 b8 c2       	vfmadd231pd %ymm2,%ymm1,%ymm0
  4041e8:	c4 e2 ed b8 c8       	vfmadd231pd %ymm0,%ymm2,%ymm1
  4041ed:	c4 e2 fd b8 d1       	vfmadd231pd %ymm1,%ymm0,%ymm2
  4041f2:	c4 e2 f5 b8 c2       	vfmadd231pd %ymm2,%ymm1,%ymm0
  4041f7:	c4 e2 ed b8 c8       	vfmadd231pd %ymm0,%ymm2,%ymm1
  4041fc:	c4 e2 fd b8 d1       	vfmadd231pd %ymm1,%ymm0,%ymm2
  404201:	c4 e2 f5 b8 c2       	vfmadd231pd %ymm2,%ymm1,%ymm0
  404206:	c4 e2 ed b8 c8       	vfmadd231pd %ymm0,%ymm2,%ymm1
  40420b:	c4 e2 fd b8 d1       	vfmadd231pd %ymm1,%ymm0,%ymm2
  404210:	c4 e2 f5 b8 c2       	vfmadd231pd %ymm2,%ymm1,%ymm0
  404215:	c4 e2 ed b8 c8       	vfmadd231pd %ymm0,%ymm2,%ymm1
  40421a:	c4 e2 fd b8 d1       	vfmadd231pd %ymm1,%ymm0,%ymm2
  40421f:	c4 e2 f5 b8 c2       	vfmadd231pd %ymm2,%ymm1,%ymm0
  404224:	c4 e2 ed b8 c8       	vfmadd231pd %ymm0,%ymm2,%ymm1
  404229:	c4 e2 fd b8 d1       	vfmadd231pd %ymm1,%ymm0,%ymm2
  40422e:	c4 e2 f5 b8 c2       	vfmadd231pd %ymm2,%ymm1,%ymm0
  404233:	c4 e2 ed b8 c8       	vfmadd231pd %ymm0,%ymm2,%ymm1
  404238:	c4 e2 fd b8 d1       	vfmadd231pd %ymm1,%ymm0,%ymm2
  40423d:	c4 e2 f5 b8 c2       	vfmadd231pd %ymm2,%ymm1,%ymm0
  404242:	c4 e2 ed b8 c8       	vfmadd231pd %ymm0,%ymm2,%ymm1
  404247:	c4 e2 fd b8 d1       	vfmadd231pd %ymm1,%ymm0,%ymm2
  40424c:	c4 e2 f5 b8 c2       	vfmadd231pd %ymm2,%ymm1,%ymm0
  404251:	c4 e2 ed b8 c8       	vfmadd231pd %ymm0,%ymm2,%ymm1
  404256:	c4 e2 fd b8 d1       	vfmadd231pd %ymm1,%ymm0,%ymm2
  40425b:	c4 e2 f5 b8 c2       	vfmadd231pd %ymm2,%ymm1,%ymm0
  404260:	c4 e2 ed b8 c8       	vfmadd231pd %ymm0,%ymm2,%ymm1
  404265:	c4 e2 fd b8 d1       	vfmadd231pd %ymm1,%ymm0,%ymm2
  40426a:	c4 e2 f5 b8 c2       	vfmadd231pd %ymm2,%ymm1,%ymm0
  40426f:	c4 e2 ed b8 c8       	vfmadd231pd %ymm0,%ymm2,%ymm1
  404274:	c4 e2 fd b8 d1       	vfmadd231pd %ymm1,%ymm0,%ymm2
  404279:	c4 e2 f5 b8 c2       	vfmadd231pd %ymm2,%ymm1,%ymm0
  40427e:	c4 e2 ed b8 c8       	vfmadd231pd %ymm0,%ymm2,%ymm1
  404283:	c4 e2 fd b8 d1       	vfmadd231pd %ymm1,%ymm0,%ymm2
  404288:	c4 e2 f5 b8 c2       	vfmadd231pd %ymm2,%ymm1,%ymm0
  40428d:	c4 e2 ed b8 c8       	vfmadd231pd %ymm0,%ymm2,%ymm1
  404292:	c4 e2 fd b8 d1       	vfmadd231pd %ymm1,%ymm0,%ymm2
  404297:	c4 e2 f5 b8 c2       	vfmadd231pd %ymm2,%ymm1,%ymm0
  40429c:	c4 e2 ed b8 c8       	vfmadd231pd %ymm0,%ymm2,%ymm1
  4042a1:	c4 e2 fd b8 d1       	vfmadd231pd %ymm1,%ymm0,%ymm2
  4042a6:	c4 e2 f5 b8 c2       	vfmadd231pd %ymm2,%ymm1,%ymm0
  4042ab:	c4 e2 ed b8 c8       	vfmadd231pd %ymm0,%ymm2,%ymm1
  4042b0:	c4 e2 fd b8 d1       	vfmadd231pd %ymm1,%ymm0,%ymm2
  4042b5:	c4 e2 f5 b8 c2       	vfmadd231pd %ymm2,%ymm1,%ymm0
  4042ba:	c4 e2 ed b8 c8       	vfmadd231pd %ymm0,%ymm2,%ymm1
  4042bf:	c4 e2 fd b8 d1       	vfmadd231pd %ymm1,%ymm0,%ymm2
  4042c4:	c4 e2 f5 b8 c2       	vfmadd231pd %ymm2,%ymm1,%ymm0
  4042c9:	c4 e2 ed b8 c8       	vfmadd231pd %ymm0,%ymm2,%ymm1
  4042ce:	c4 e2 fd b8 d1       	vfmadd231pd %ymm1,%ymm0,%ymm2
  4042d3:	c4 e2 f5 b8 c2       	vfmadd231pd %ymm2,%ymm1,%ymm0
  4042d8:	c4 e2 ed b8 c8       	vfmadd231pd %ymm0,%ymm2,%ymm1
  4042dd:	c4 e2 fd b8 d1       	vfmadd231pd %ymm1,%ymm0,%ymm2
  4042e2:	c4 e2 f5 b8 c2       	vfmadd231pd %ymm2,%ymm1,%ymm0
  4042e7:	c4 e2 ed b8 c8       	vfmadd231pd %ymm0,%ymm2,%ymm1
  4042ec:	c4 e2 fd b8 d1       	vfmadd231pd %ymm1,%ymm0,%ymm2
  4042f1:	c4 e2 f5 b8 c2       	vfmadd231pd %ymm2,%ymm1,%ymm0
  4042f6:	c4 e2 ed b8 c8       	vfmadd231pd %ymm0,%ymm2,%ymm1
  4042fb:	c4 e2 fd b8 d1       	vfmadd231pd %ymm1,%ymm0,%ymm2
  404300:	c4 e2 f5 b8 c2       	vfmadd231pd %ymm2,%ymm1,%ymm0
  404305:	c4 e2 ed b8 c8       	vfmadd231pd %ymm0,%ymm2,%ymm1
  40430a:	c4 e2 fd b8 d1       	vfmadd231pd %ymm1,%ymm0,%ymm2
  40430f:	c4 e2 f5 b8 c2       	vfmadd231pd %ymm2,%ymm1,%ymm0
  404314:	c4 e2 ed b8 c8       	vfmadd231pd %ymm0,%ymm2,%ymm1
  404319:	c4 e2 fd b8 d1       	vfmadd231pd %ymm1,%ymm0,%ymm2
  40431e:	c4 e2 f5 b8 c2       	vfmadd231pd %ymm2,%ymm1,%ymm0
  404323:	c4 e2 ed b8 c8       	vfmadd231pd %ymm0,%ymm2,%ymm1
  404328:	c4 e2 fd b8 d1       	vfmadd231pd %ymm1,%ymm0,%ymm2
  40432d:	c4 e2 f5 b8 c2       	vfmadd231pd %ymm2,%ymm1,%ymm0
  404332:	c4 e2 ed b8 c8       	vfmadd231pd %ymm0,%ymm2,%ymm1
  404337:	c4 e2 fd b8 d1       	vfmadd231pd %ymm1,%ymm0,%ymm2
  40433c:	c4 e2 f5 b8 c2       	vfmadd231pd %ymm2,%ymm1,%ymm0
  404341:	c4 e2 ed b8 c8       	vfmadd231pd %ymm0,%ymm2,%ymm1
  404346:	c4 e2 fd b8 d1       	vfmadd231pd %ymm1,%ymm0,%ymm2
  40434b:	c4 e2 f5 b8 c2       	vfmadd231pd %ymm2,%ymm1,%ymm0
  404350:	c4 e2 ed b8 c8       	vfmadd231pd %ymm0,%ymm2,%ymm1
  404355:	c4 e2 fd b8 d1       	vfmadd231pd %ymm1,%ymm0,%ymm2
  40435a:	c4 e2 f5 b8 c2       	vfmadd231pd %ymm2,%ymm1,%ymm0
  40435f:	c4 e2 ed b8 c8       	vfmadd231pd %ymm0,%ymm2,%ymm1
  404364:	c4 e2 fd b8 d1       	vfmadd231pd %ymm1,%ymm0,%ymm2
  404369:	c4 e2 f5 b8 c2       	vfmadd231pd %ymm2,%ymm1,%ymm0
  40436e:	c4 e2 ed b8 c8       	vfmadd231pd %ymm0,%ymm2,%ymm1
  404373:	c4 e2 fd b8 d1       	vfmadd231pd %ymm1,%ymm0,%ymm2
  404378:	c4 e2 f5 b8 c2       	vfmadd231pd %ymm2,%ymm1,%ymm0
  40437d:	c4 e2 ed b8 c8       	vfmadd231pd %ymm0,%ymm2,%ymm1
  404382:	c4 e2 fd b8 d1       	vfmadd231pd %ymm1,%ymm0,%ymm2
  404387:	c4 e2 f5 b8 c2       	vfmadd231pd %ymm2,%ymm1,%ymm0
  40438c:	c4 e2 ed b8 c8       	vfmadd231pd %ymm0,%ymm2,%ymm1
  404391:	c4 e2 fd b8 d1       	vfmadd231pd %ymm1,%ymm0,%ymm2
  404396:	c4 e2 f5 b8 c2       	vfmadd231pd %ymm2,%ymm1,%ymm0
  40439b:	c4 e2 ed b8 c8       	vfmadd231pd %ymm0,%ymm2,%ymm1
  4043a0:	c4 e2 fd b8 d1       	vfmadd231pd %ymm1,%ymm0,%ymm2
  4043a5:	c4 e2 f5 b8 c2       	vfmadd231pd %ymm2,%ymm1,%ymm0
  4043aa:	c4 e2 ed b8 c8       	vfmadd231pd %ymm0,%ymm2,%ymm1
  4043af:	c4 e2 fd b8 d1       	vfmadd231pd %ymm1,%ymm0,%ymm2
  4043b4:	c4 e2 f5 b8 c2       	vfmadd231pd %ymm2,%ymm1,%ymm0
  4043b9:	c4 e2 ed b8 c8       	vfmadd231pd %ymm0,%ymm2,%ymm1
  4043be:	c4 e2 fd b8 d1       	vfmadd231pd %ymm1,%ymm0,%ymm2
  4043c3:	c4 e2 f5 b8 c2       	vfmadd231pd %ymm2,%ymm1,%ymm0
  4043c8:	c4 e2 ed b8 c8       	vfmadd231pd %ymm0,%ymm2,%ymm1
  4043cd:	c4 e2 fd b8 d1       	vfmadd231pd %ymm1,%ymm0,%ymm2
  4043d2:	c4 e2 f5 b8 c2       	vfmadd231pd %ymm2,%ymm1,%ymm0
  4043d7:	c4 e2 ed b8 c8       	vfmadd231pd %ymm0,%ymm2,%ymm1
  4043dc:	c4 e2 fd b8 d1       	vfmadd231pd %ymm1,%ymm0,%ymm2
  4043e1:	c4 e2 f5 b8 c2       	vfmadd231pd %ymm2,%ymm1,%ymm0
  4043e6:	c4 e2 ed b8 c8       	vfmadd231pd %ymm0,%ymm2,%ymm1
  4043eb:	c4 e2 fd b8 d1       	vfmadd231pd %ymm1,%ymm0,%ymm2
  4043f0:	c4 e2 f5 b8 c2       	vfmadd231pd %ymm2,%ymm1,%ymm0
  4043f5:	c4 e2 ed b8 c8       	vfmadd231pd %ymm0,%ymm2,%ymm1
  4043fa:	c4 e2 fd b8 d1       	vfmadd231pd %ymm1,%ymm0,%ymm2
  4043ff:	c4 e2 f5 b8 c2       	vfmadd231pd %ymm2,%ymm1,%ymm0
  404404:	c4 e2 ed b8 c8       	vfmadd231pd %ymm0,%ymm2,%ymm1
  404409:	c4 e2 fd b8 d1       	vfmadd231pd %ymm1,%ymm0,%ymm2
  40440e:	c4 e2 f5 b8 c2       	vfmadd231pd %ymm2,%ymm1,%ymm0
  404413:	c4 e2 ed b8 c8       	vfmadd231pd %ymm0,%ymm2,%ymm1
  404418:	c4 e2 fd b8 d1       	vfmadd231pd %ymm1,%ymm0,%ymm2
  40441d:	c4 e2 f5 b8 c2       	vfmadd231pd %ymm2,%ymm1,%ymm0
  404422:	c4 e2 ed b8 c8       	vfmadd231pd %ymm0,%ymm2,%ymm1
  404427:	c4 e2 fd b8 d1       	vfmadd231pd %ymm1,%ymm0,%ymm2
  40442c:	c4 e2 f5 b8 c2       	vfmadd231pd %ymm2,%ymm1,%ymm0
  404431:	c4 e2 ed b8 c8       	vfmadd231pd %ymm0,%ymm2,%ymm1
  404436:	c4 e2 fd b8 d1       	vfmadd231pd %ymm1,%ymm0,%ymm2
  40443b:	c4 e2 f5 b8 c2       	vfmadd231pd %ymm2,%ymm1,%ymm0
  404440:	c4 e2 ed b8 c8       	vfmadd231pd %ymm0,%ymm2,%ymm1
  404445:	c4 e2 fd b8 d1       	vfmadd231pd %ymm1,%ymm0,%ymm2
  40444a:	c4 e2 f5 b8 c2       	vfmadd231pd %ymm2,%ymm1,%ymm0
  40444f:	c4 e2 ed b8 c8       	vfmadd231pd %ymm0,%ymm2,%ymm1
  404454:	c4 e2 fd b8 d1       	vfmadd231pd %ymm1,%ymm0,%ymm2
  404459:	c4 e2 f5 b8 c2       	vfmadd231pd %ymm2,%ymm1,%ymm0
  40445e:	c4 e2 ed b8 c8       	vfmadd231pd %ymm0,%ymm2,%ymm1
  404463:	c4 e2 fd b8 d1       	vfmadd231pd %ymm1,%ymm0,%ymm2
  404468:	c4 e2 f5 b8 c2       	vfmadd231pd %ymm2,%ymm1,%ymm0
  40446d:	c4 e2 ed b8 c8       	vfmadd231pd %ymm0,%ymm2,%ymm1
  404472:	c4 e2 fd b8 d1       	vfmadd231pd %ymm1,%ymm0,%ymm2
  404477:	c4 e2 f5 b8 c2       	vfmadd231pd %ymm2,%ymm1,%ymm0
  40447c:	c4 e2 ed b8 c8       	vfmadd231pd %ymm0,%ymm2,%ymm1
  404481:	c4 e2 fd b8 d1       	vfmadd231pd %ymm1,%ymm0,%ymm2
  404486:	c4 e2 f5 b8 c2       	vfmadd231pd %ymm2,%ymm1,%ymm0
  40448b:	c4 e2 ed b8 c8       	vfmadd231pd %ymm0,%ymm2,%ymm1
  404490:	c4 e2 fd b8 d1       	vfmadd231pd %ymm1,%ymm0,%ymm2
  404495:	c4 e2 f5 b8 c2       	vfmadd231pd %ymm2,%ymm1,%ymm0
  40449a:	c4 e2 ed b8 c8       	vfmadd231pd %ymm0,%ymm2,%ymm1
  40449f:	c4 e2 fd b8 d1       	vfmadd231pd %ymm1,%ymm0,%ymm2
  4044a4:	c4 e2 f5 b8 c2       	vfmadd231pd %ymm2,%ymm1,%ymm0
  4044a9:	c4 e2 ed b8 c8       	vfmadd231pd %ymm0,%ymm2,%ymm1
  4044ae:	c4 e2 fd b8 d1       	vfmadd231pd %ymm1,%ymm0,%ymm2
  4044b3:	c4 e2 f5 b8 c2       	vfmadd231pd %ymm2,%ymm1,%ymm0
  4044b8:	c4 e2 ed b8 c8       	vfmadd231pd %ymm0,%ymm2,%ymm1
  4044bd:	c4 e2 fd b8 d1       	vfmadd231pd %ymm1,%ymm0,%ymm2
  4044c2:	c4 e2 f5 b8 c2       	vfmadd231pd %ymm2,%ymm1,%ymm0
  4044c7:	c4 e2 ed b8 c8       	vfmadd231pd %ymm0,%ymm2,%ymm1
  4044cc:	c4 e2 fd b8 d1       	vfmadd231pd %ymm1,%ymm0,%ymm2
  4044d1:	c4 e2 f5 b8 c2       	vfmadd231pd %ymm2,%ymm1,%ymm0
  4044d6:	c4 e2 ed b8 c8       	vfmadd231pd %ymm0,%ymm2,%ymm1
  4044db:	c4 e2 fd b8 d1       	vfmadd231pd %ymm1,%ymm0,%ymm2
  4044e0:	c4 e2 f5 b8 c2       	vfmadd231pd %ymm2,%ymm1,%ymm0
  4044e5:	c4 e2 ed b8 c8       	vfmadd231pd %ymm0,%ymm2,%ymm1
  4044ea:	c4 e2 fd b8 d1       	vfmadd231pd %ymm1,%ymm0,%ymm2
  4044ef:	c4 e2 f5 b8 c2       	vfmadd231pd %ymm2,%ymm1,%ymm0
  4044f4:	c4 e2 ed b8 c8       	vfmadd231pd %ymm0,%ymm2,%ymm1
  4044f9:	c4 e2 fd b8 d1       	vfmadd231pd %ymm1,%ymm0,%ymm2
  4044fe:	c4 e2 f5 b8 c2       	vfmadd231pd %ymm2,%ymm1,%ymm0
  404503:	c4 e2 ed b8 c8       	vfmadd231pd %ymm0,%ymm2,%ymm1
  404508:	c4 e2 fd b8 d1       	vfmadd231pd %ymm1,%ymm0,%ymm2
  40450d:	c4 e2 f5 b8 c2       	vfmadd231pd %ymm2,%ymm1,%ymm0
  404512:	c4 e2 ed b8 c8       	vfmadd231pd %ymm0,%ymm2,%ymm1
  404517:	c4 e2 fd b8 d1       	vfmadd231pd %ymm1,%ymm0,%ymm2
  40451c:	c4 e2 f5 b8 c2       	vfmadd231pd %ymm2,%ymm1,%ymm0
  404521:	c4 e2 ed b8 c8       	vfmadd231pd %ymm0,%ymm2,%ymm1
  404526:	c4 e2 fd b8 d1       	vfmadd231pd %ymm1,%ymm0,%ymm2
  40452b:	c4 e2 f5 b8 c2       	vfmadd231pd %ymm2,%ymm1,%ymm0
  404530:	c4 e2 ed b8 c8       	vfmadd231pd %ymm0,%ymm2,%ymm1
  404535:	c4 e2 fd b8 d1       	vfmadd231pd %ymm1,%ymm0,%ymm2
  40453a:	c4 e2 f5 b8 c2       	vfmadd231pd %ymm2,%ymm1,%ymm0
  40453f:	c4 e2 ed b8 c8       	vfmadd231pd %ymm0,%ymm2,%ymm1
  404544:	c4 e2 fd b8 d1       	vfmadd231pd %ymm1,%ymm0,%ymm2
  404549:	c4 e2 f5 b8 c2       	vfmadd231pd %ymm2,%ymm1,%ymm0
  40454e:	c4 e2 ed b8 c8       	vfmadd231pd %ymm0,%ymm2,%ymm1
  404553:	c4 e2 fd b8 d1       	vfmadd231pd %ymm1,%ymm0,%ymm2
  404558:	c4 e2 f5 b8 c2       	vfmadd231pd %ymm2,%ymm1,%ymm0
  40455d:	c4 e2 ed b8 c8       	vfmadd231pd %ymm0,%ymm2,%ymm1
  404562:	c4 e2 fd b8 d1       	vfmadd231pd %ymm1,%ymm0,%ymm2
  404567:	c4 e2 f5 b8 c2       	vfmadd231pd %ymm2,%ymm1,%ymm0
  40456c:	c4 e2 ed b8 c8       	vfmadd231pd %ymm0,%ymm2,%ymm1
  404571:	c4 e2 fd b8 d1       	vfmadd231pd %ymm1,%ymm0,%ymm2
  404576:	c4 e2 f5 b8 c2       	vfmadd231pd %ymm2,%ymm1,%ymm0
  40457b:	c4 e2 ed b8 c8       	vfmadd231pd %ymm0,%ymm2,%ymm1
  404580:	c4 e2 fd b8 d1       	vfmadd231pd %ymm1,%ymm0,%ymm2
  404585:	c4 e2 f5 b8 c2       	vfmadd231pd %ymm2,%ymm1,%ymm0
  40458a:	c4 e2 ed b8 c8       	vfmadd231pd %ymm0,%ymm2,%ymm1
  40458f:	c4 e2 fd b8 d1       	vfmadd231pd %ymm1,%ymm0,%ymm2
  404594:	c4 e2 f5 b8 c2       	vfmadd231pd %ymm2,%ymm1,%ymm0
  404599:	c4 e2 ed b8 c8       	vfmadd231pd %ymm0,%ymm2,%ymm1
  40459e:	c4 e2 fd b8 d1       	vfmadd231pd %ymm1,%ymm0,%ymm2
  4045a3:	c4 e2 f5 b8 c2       	vfmadd231pd %ymm2,%ymm1,%ymm0
  4045a8:	c4 e2 ed b8 c8       	vfmadd231pd %ymm0,%ymm2,%ymm1
  4045ad:	c4 e2 fd b8 d1       	vfmadd231pd %ymm1,%ymm0,%ymm2
  4045b2:	c4 e2 f5 b8 c2       	vfmadd231pd %ymm2,%ymm1,%ymm0
  4045b7:	c4 e2 ed b8 c8       	vfmadd231pd %ymm0,%ymm2,%ymm1
  4045bc:	c4 e2 fd b8 d1       	vfmadd231pd %ymm1,%ymm0,%ymm2
  4045c1:	c4 e2 f5 b8 c2       	vfmadd231pd %ymm2,%ymm1,%ymm0
  4045c6:	c4 e2 ed b8 c8       	vfmadd231pd %ymm0,%ymm2,%ymm1
  4045cb:	c4 e2 fd b8 d1       	vfmadd231pd %ymm1,%ymm0,%ymm2
  4045d0:	c4 e2 f5 b8 c2       	vfmadd231pd %ymm2,%ymm1,%ymm0
  4045d5:	c4 e2 ed b8 c8       	vfmadd231pd %ymm0,%ymm2,%ymm1
  4045da:	c4 e2 fd b8 d1       	vfmadd231pd %ymm1,%ymm0,%ymm2
  4045df:	c4 e2 f5 b8 c2       	vfmadd231pd %ymm2,%ymm1,%ymm0
  4045e4:	c4 e2 ed b8 c8       	vfmadd231pd %ymm0,%ymm2,%ymm1
  4045e9:	c4 e2 fd b8 d1       	vfmadd231pd %ymm1,%ymm0,%ymm2
  4045ee:	c4 e2 f5 b8 c2       	vfmadd231pd %ymm2,%ymm1,%ymm0
  4045f3:	c4 e2 ed b8 c8       	vfmadd231pd %ymm0,%ymm2,%ymm1
  4045f8:	c4 e2 fd b8 d1       	vfmadd231pd %ymm1,%ymm0,%ymm2
  4045fd:	c4 e2 f5 b8 c2       	vfmadd231pd %ymm2,%ymm1,%ymm0
  404602:	c4 e2 ed b8 c8       	vfmadd231pd %ymm0,%ymm2,%ymm1
  404607:	c4 e2 fd b8 d1       	vfmadd231pd %ymm1,%ymm0,%ymm2
  40460c:	c4 e2 f5 b8 c2       	vfmadd231pd %ymm2,%ymm1,%ymm0
  404611:	c4 e2 ed b8 c8       	vfmadd231pd %ymm0,%ymm2,%ymm1
  404616:	c4 e2 fd b8 d1       	vfmadd231pd %ymm1,%ymm0,%ymm2
  40461b:	c4 e2 f5 b8 c2       	vfmadd231pd %ymm2,%ymm1,%ymm0
  404620:	c4 e2 ed b8 c8       	vfmadd231pd %ymm0,%ymm2,%ymm1
  404625:	c4 e2 fd b8 d1       	vfmadd231pd %ymm1,%ymm0,%ymm2
  40462a:	c4 e2 f5 b8 c2       	vfmadd231pd %ymm2,%ymm1,%ymm0
  40462f:	c4 e2 ed b8 c8       	vfmadd231pd %ymm0,%ymm2,%ymm1
  404634:	c4 e2 fd b8 d1       	vfmadd231pd %ymm1,%ymm0,%ymm2
  404639:	c4 e2 f5 b8 c2       	vfmadd231pd %ymm2,%ymm1,%ymm0
  40463e:	c4 e2 ed b8 c8       	vfmadd231pd %ymm0,%ymm2,%ymm1
  404643:	c4 e2 fd b8 d1       	vfmadd231pd %ymm1,%ymm0,%ymm2
  404648:	c4 e2 f5 b8 c2       	vfmadd231pd %ymm2,%ymm1,%ymm0
  40464d:	c4 e2 ed b8 c8       	vfmadd231pd %ymm0,%ymm2,%ymm1
  404652:	c4 e2 fd b8 d1       	vfmadd231pd %ymm1,%ymm0,%ymm2
  404657:	c4 e2 f5 b8 c2       	vfmadd231pd %ymm2,%ymm1,%ymm0
  40465c:	c4 e2 ed b8 c8       	vfmadd231pd %ymm0,%ymm2,%ymm1
  404661:	c4 e2 fd b8 d1       	vfmadd231pd %ymm1,%ymm0,%ymm2
  404666:	c4 e2 f5 b8 c2       	vfmadd231pd %ymm2,%ymm1,%ymm0
  40466b:	c4 e2 ed b8 c8       	vfmadd231pd %ymm0,%ymm2,%ymm1
  404670:	c4 e2 fd b8 d1       	vfmadd231pd %ymm1,%ymm0,%ymm2
  404675:	c4 e2 f5 b8 c2       	vfmadd231pd %ymm2,%ymm1,%ymm0
  40467a:	c4 e2 ed b8 c8       	vfmadd231pd %ymm0,%ymm2,%ymm1
  40467f:	c4 e2 fd b8 d1       	vfmadd231pd %ymm1,%ymm0,%ymm2
  404684:	c4 e2 f5 b8 c2       	vfmadd231pd %ymm2,%ymm1,%ymm0
  404689:	c4 e2 ed b8 c8       	vfmadd231pd %ymm0,%ymm2,%ymm1
  40468e:	c4 e2 fd b8 d1       	vfmadd231pd %ymm1,%ymm0,%ymm2
  404693:	c4 e2 f5 b8 c2       	vfmadd231pd %ymm2,%ymm1,%ymm0
  404698:	c4 e2 ed b8 c8       	vfmadd231pd %ymm0,%ymm2,%ymm1
  40469d:	c4 e2 fd b8 d1       	vfmadd231pd %ymm1,%ymm0,%ymm2
  4046a2:	c4 e2 f5 b8 c2       	vfmadd231pd %ymm2,%ymm1,%ymm0
  4046a7:	c4 e2 ed b8 c8       	vfmadd231pd %ymm0,%ymm2,%ymm1
  4046ac:	c4 e2 fd b8 d1       	vfmadd231pd %ymm1,%ymm0,%ymm2
  4046b1:	c4 e2 f5 b8 c2       	vfmadd231pd %ymm2,%ymm1,%ymm0
  4046b6:	c4 e2 ed b8 c8       	vfmadd231pd %ymm0,%ymm2,%ymm1
  4046bb:	c4 e2 fd b8 d1       	vfmadd231pd %ymm1,%ymm0,%ymm2
  4046c0:	c4 e2 f5 b8 c2       	vfmadd231pd %ymm2,%ymm1,%ymm0
  4046c5:	c4 e2 ed b8 c8       	vfmadd231pd %ymm0,%ymm2,%ymm1
  4046ca:	c4 e2 fd b8 d1       	vfmadd231pd %ymm1,%ymm0,%ymm2
  4046cf:	c4 e2 f5 b8 c2       	vfmadd231pd %ymm2,%ymm1,%ymm0
  4046d4:	c4 e2 ed b8 c8       	vfmadd231pd %ymm0,%ymm2,%ymm1
  4046d9:	c4 e2 fd b8 d1       	vfmadd231pd %ymm1,%ymm0,%ymm2
  4046de:	c4 e2 f5 b8 c2       	vfmadd231pd %ymm2,%ymm1,%ymm0
  4046e3:	c4 e2 ed b8 c8       	vfmadd231pd %ymm0,%ymm2,%ymm1
  4046e8:	c4 e2 fd b8 d1       	vfmadd231pd %ymm1,%ymm0,%ymm2
  4046ed:	c4 e2 f5 b8 c2       	vfmadd231pd %ymm2,%ymm1,%ymm0
  4046f2:	c4 e2 ed b8 c8       	vfmadd231pd %ymm0,%ymm2,%ymm1
  4046f7:	c4 e2 fd b8 d1       	vfmadd231pd %ymm1,%ymm0,%ymm2
  4046fc:	c4 e2 f5 b8 c2       	vfmadd231pd %ymm2,%ymm1,%ymm0
  404701:	c4 e2 ed b8 c8       	vfmadd231pd %ymm0,%ymm2,%ymm1
  404706:	c4 e2 fd b8 d1       	vfmadd231pd %ymm1,%ymm0,%ymm2
  40470b:	c4 e2 f5 b8 c2       	vfmadd231pd %ymm2,%ymm1,%ymm0
  404710:	c4 e2 ed b8 c8       	vfmadd231pd %ymm0,%ymm2,%ymm1
  404715:	c4 e2 fd b8 d1       	vfmadd231pd %ymm1,%ymm0,%ymm2
  40471a:	c4 e2 f5 b8 c2       	vfmadd231pd %ymm2,%ymm1,%ymm0
  40471f:	c4 e2 ed b8 c8       	vfmadd231pd %ymm0,%ymm2,%ymm1
  404724:	c4 e2 fd b8 d1       	vfmadd231pd %ymm1,%ymm0,%ymm2
  404729:	c4 e2 f5 b8 c2       	vfmadd231pd %ymm2,%ymm1,%ymm0
  40472e:	c4 e2 ed b8 c8       	vfmadd231pd %ymm0,%ymm2,%ymm1
  404733:	c4 e2 fd b8 d1       	vfmadd231pd %ymm1,%ymm0,%ymm2
  404738:	c4 e2 f5 b8 c2       	vfmadd231pd %ymm2,%ymm1,%ymm0
  40473d:	c4 e2 ed b8 c8       	vfmadd231pd %ymm0,%ymm2,%ymm1
  404742:	c4 e2 fd b8 d1       	vfmadd231pd %ymm1,%ymm0,%ymm2
  404747:	c4 e2 f5 b8 c2       	vfmadd231pd %ymm2,%ymm1,%ymm0
  40474c:	c4 e2 ed b8 c8       	vfmadd231pd %ymm0,%ymm2,%ymm1
  404751:	c4 e2 fd b8 d1       	vfmadd231pd %ymm1,%ymm0,%ymm2
  404756:	c4 e2 f5 b8 c2       	vfmadd231pd %ymm2,%ymm1,%ymm0
  40475b:	c4 e2 ed b8 c8       	vfmadd231pd %ymm0,%ymm2,%ymm1
  404760:	c4 e2 fd b8 d1       	vfmadd231pd %ymm1,%ymm0,%ymm2
  404765:	c4 e2 f5 b8 c2       	vfmadd231pd %ymm2,%ymm1,%ymm0
  40476a:	c4 e2 ed b8 c8       	vfmadd231pd %ymm0,%ymm2,%ymm1
  40476f:	c4 e2 fd b8 d1       	vfmadd231pd %ymm1,%ymm0,%ymm2
  404774:	c4 e2 f5 b8 c2       	vfmadd231pd %ymm2,%ymm1,%ymm0
  404779:	c4 e2 ed b8 c8       	vfmadd231pd %ymm0,%ymm2,%ymm1
  40477e:	c4 e2 fd b8 d1       	vfmadd231pd %ymm1,%ymm0,%ymm2
  404783:	c4 e2 f5 b8 c2       	vfmadd231pd %ymm2,%ymm1,%ymm0
  404788:	c4 e2 ed b8 c8       	vfmadd231pd %ymm0,%ymm2,%ymm1
  40478d:	c4 e2 fd b8 d1       	vfmadd231pd %ymm1,%ymm0,%ymm2
  404792:	c4 e2 f5 b8 c2       	vfmadd231pd %ymm2,%ymm1,%ymm0
  404797:	c4 e2 ed b8 c8       	vfmadd231pd %ymm0,%ymm2,%ymm1
  40479c:	c4 e2 fd b8 d1       	vfmadd231pd %ymm1,%ymm0,%ymm2
  4047a1:	c4 e2 f5 b8 c2       	vfmadd231pd %ymm2,%ymm1,%ymm0
  4047a6:	c4 e2 ed b8 c8       	vfmadd231pd %ymm0,%ymm2,%ymm1
  4047ab:	c4 e2 fd b8 d1       	vfmadd231pd %ymm1,%ymm0,%ymm2
  4047b0:	c4 e2 f5 b8 c2       	vfmadd231pd %ymm2,%ymm1,%ymm0
  4047b5:	c4 e2 ed b8 c8       	vfmadd231pd %ymm0,%ymm2,%ymm1
  4047ba:	c4 e2 fd b8 d1       	vfmadd231pd %ymm1,%ymm0,%ymm2
  4047bf:	c4 e2 f5 b8 c2       	vfmadd231pd %ymm2,%ymm1,%ymm0
  4047c4:	c4 e2 ed b8 c8       	vfmadd231pd %ymm0,%ymm2,%ymm1
  4047c9:	c4 e2 fd b8 d1       	vfmadd231pd %ymm1,%ymm0,%ymm2
  4047ce:	c4 e2 f5 b8 c2       	vfmadd231pd %ymm2,%ymm1,%ymm0
  4047d3:	c4 e2 ed b8 c8       	vfmadd231pd %ymm0,%ymm2,%ymm1
  4047d8:	c4 e2 fd b8 d1       	vfmadd231pd %ymm1,%ymm0,%ymm2
  4047dd:	c4 e2 f5 b8 c2       	vfmadd231pd %ymm2,%ymm1,%ymm0
  4047e2:	c4 e2 ed b8 c8       	vfmadd231pd %ymm0,%ymm2,%ymm1
  4047e7:	c4 e2 fd b8 d1       	vfmadd231pd %ymm1,%ymm0,%ymm2
  4047ec:	c4 e2 f5 b8 c2       	vfmadd231pd %ymm2,%ymm1,%ymm0
  4047f1:	c4 e2 ed b8 c8       	vfmadd231pd %ymm0,%ymm2,%ymm1
  4047f6:	c4 e2 fd b8 d1       	vfmadd231pd %ymm1,%ymm0,%ymm2
  4047fb:	c4 e2 f5 b8 c2       	vfmadd231pd %ymm2,%ymm1,%ymm0
  404800:	c4 e2 ed b8 c8       	vfmadd231pd %ymm0,%ymm2,%ymm1
  404805:	c4 e2 fd b8 d1       	vfmadd231pd %ymm1,%ymm0,%ymm2
  40480a:	c4 e2 f5 b8 c2       	vfmadd231pd %ymm2,%ymm1,%ymm0
  40480f:	c4 e2 ed b8 c8       	vfmadd231pd %ymm0,%ymm2,%ymm1
  404814:	c4 e2 fd b8 d1       	vfmadd231pd %ymm1,%ymm0,%ymm2
  404819:	c4 e2 f5 b8 c2       	vfmadd231pd %ymm2,%ymm1,%ymm0
  40481e:	c4 e2 ed b8 c8       	vfmadd231pd %ymm0,%ymm2,%ymm1
  404823:	c4 e2 fd b8 d1       	vfmadd231pd %ymm1,%ymm0,%ymm2
  404828:	c4 e2 f5 b8 c2       	vfmadd231pd %ymm2,%ymm1,%ymm0
  40482d:	c4 e2 ed b8 c8       	vfmadd231pd %ymm0,%ymm2,%ymm1
  404832:	c4 e2 fd b8 d1       	vfmadd231pd %ymm1,%ymm0,%ymm2
  404837:	c4 e2 f5 b8 c2       	vfmadd231pd %ymm2,%ymm1,%ymm0
  40483c:	c4 e2 ed b8 c8       	vfmadd231pd %ymm0,%ymm2,%ymm1
  404841:	c4 e2 fd b8 d1       	vfmadd231pd %ymm1,%ymm0,%ymm2
  404846:	c4 e2 f5 b8 c2       	vfmadd231pd %ymm2,%ymm1,%ymm0
  40484b:	c4 e2 ed b8 c8       	vfmadd231pd %ymm0,%ymm2,%ymm1
  404850:	c4 e2 fd b8 d1       	vfmadd231pd %ymm1,%ymm0,%ymm2
  404855:	c4 e2 f5 b8 c2       	vfmadd231pd %ymm2,%ymm1,%ymm0
  40485a:	c4 e2 ed b8 c8       	vfmadd231pd %ymm0,%ymm2,%ymm1
  40485f:	c4 e2 fd b8 d1       	vfmadd231pd %ymm1,%ymm0,%ymm2
  404864:	c4 e2 f5 b8 c2       	vfmadd231pd %ymm2,%ymm1,%ymm0
  404869:	c4 e2 ed b8 c8       	vfmadd231pd %ymm0,%ymm2,%ymm1
  40486e:	c4 e2 fd b8 d1       	vfmadd231pd %ymm1,%ymm0,%ymm2
  404873:	c4 e2 f5 b8 c2       	vfmadd231pd %ymm2,%ymm1,%ymm0
  404878:	c4 e2 ed b8 c8       	vfmadd231pd %ymm0,%ymm2,%ymm1
  40487d:	c4 e2 fd b8 d1       	vfmadd231pd %ymm1,%ymm0,%ymm2
  404882:	c4 e2 f5 b8 c2       	vfmadd231pd %ymm2,%ymm1,%ymm0
  404887:	c4 e2 ed b8 c8       	vfmadd231pd %ymm0,%ymm2,%ymm1
  40488c:	c4 e2 fd b8 d1       	vfmadd231pd %ymm1,%ymm0,%ymm2
  404891:	c4 e2 f5 b8 c2       	vfmadd231pd %ymm2,%ymm1,%ymm0
  404896:	c4 e2 ed b8 c8       	vfmadd231pd %ymm0,%ymm2,%ymm1
  40489b:	c4 e2 fd b8 d1       	vfmadd231pd %ymm1,%ymm0,%ymm2
  4048a0:	c4 e2 f5 b8 c2       	vfmadd231pd %ymm2,%ymm1,%ymm0
  4048a5:	c4 e2 ed b8 c8       	vfmadd231pd %ymm0,%ymm2,%ymm1
  4048aa:	c4 e2 fd b8 d1       	vfmadd231pd %ymm1,%ymm0,%ymm2
  4048af:	c4 e2 f5 b8 c2       	vfmadd231pd %ymm2,%ymm1,%ymm0
  4048b4:	c4 e2 ed b8 c8       	vfmadd231pd %ymm0,%ymm2,%ymm1
  4048b9:	c4 e2 fd b8 d1       	vfmadd231pd %ymm1,%ymm0,%ymm2
  4048be:	c4 e2 f5 b8 c2       	vfmadd231pd %ymm2,%ymm1,%ymm0
  4048c3:	c4 e2 ed b8 c8       	vfmadd231pd %ymm0,%ymm2,%ymm1
  4048c8:	c4 e2 fd b8 d1       	vfmadd231pd %ymm1,%ymm0,%ymm2
  4048cd:	c4 e2 f5 b8 c2       	vfmadd231pd %ymm2,%ymm1,%ymm0
  4048d2:	c4 e2 ed b8 c8       	vfmadd231pd %ymm0,%ymm2,%ymm1
  4048d7:	c4 e2 fd b8 d1       	vfmadd231pd %ymm1,%ymm0,%ymm2
  4048dc:	c4 e2 f5 b8 c2       	vfmadd231pd %ymm2,%ymm1,%ymm0
  4048e1:	c4 e2 ed b8 c8       	vfmadd231pd %ymm0,%ymm2,%ymm1
  4048e6:	c4 e2 fd b8 d1       	vfmadd231pd %ymm1,%ymm0,%ymm2
  4048eb:	c4 e2 f5 b8 c2       	vfmadd231pd %ymm2,%ymm1,%ymm0
  4048f0:	c4 e2 ed b8 c8       	vfmadd231pd %ymm0,%ymm2,%ymm1
  4048f5:	c4 e2 fd b8 d1       	vfmadd231pd %ymm1,%ymm0,%ymm2
  4048fa:	c4 e2 f5 b8 c2       	vfmadd231pd %ymm2,%ymm1,%ymm0
  4048ff:	c4 e2 ed b8 c8       	vfmadd231pd %ymm0,%ymm2,%ymm1
  404904:	c4 e2 fd b8 d1       	vfmadd231pd %ymm1,%ymm0,%ymm2
  404909:	c4 e2 f5 b8 c2       	vfmadd231pd %ymm2,%ymm1,%ymm0
  40490e:	c4 e2 ed b8 c8       	vfmadd231pd %ymm0,%ymm2,%ymm1
  404913:	c4 e2 fd b8 d1       	vfmadd231pd %ymm1,%ymm0,%ymm2
  404918:	c4 e2 f5 b8 c2       	vfmadd231pd %ymm2,%ymm1,%ymm0
  40491d:	c4 e2 ed b8 c8       	vfmadd231pd %ymm0,%ymm2,%ymm1
  404922:	c4 e2 fd b8 d1       	vfmadd231pd %ymm1,%ymm0,%ymm2
  404927:	c4 e2 f5 b8 c2       	vfmadd231pd %ymm2,%ymm1,%ymm0
  40492c:	c4 e2 ed b8 c8       	vfmadd231pd %ymm0,%ymm2,%ymm1
  404931:	c4 e2 fd b8 d1       	vfmadd231pd %ymm1,%ymm0,%ymm2
  404936:	c4 e2 f5 b8 c2       	vfmadd231pd %ymm2,%ymm1,%ymm0
  40493b:	c4 e2 ed b8 c8       	vfmadd231pd %ymm0,%ymm2,%ymm1
  404940:	c4 e2 fd b8 d1       	vfmadd231pd %ymm1,%ymm0,%ymm2
  404945:	c4 e2 f5 b8 c2       	vfmadd231pd %ymm2,%ymm1,%ymm0
  40494a:	c4 e2 ed b8 c8       	vfmadd231pd %ymm0,%ymm2,%ymm1
  40494f:	c4 e2 fd b8 d1       	vfmadd231pd %ymm1,%ymm0,%ymm2
  404954:	c4 e2 f5 b8 c2       	vfmadd231pd %ymm2,%ymm1,%ymm0
  404959:	c4 e2 ed b8 c8       	vfmadd231pd %ymm0,%ymm2,%ymm1
  40495e:	c4 e2 fd b8 d1       	vfmadd231pd %ymm1,%ymm0,%ymm2
  404963:	c4 e2 f5 b8 c2       	vfmadd231pd %ymm2,%ymm1,%ymm0
  404968:	c4 e2 ed b8 c8       	vfmadd231pd %ymm0,%ymm2,%ymm1
  40496d:	c4 e2 fd b8 d1       	vfmadd231pd %ymm1,%ymm0,%ymm2
  404972:	c4 e2 f5 b8 c2       	vfmadd231pd %ymm2,%ymm1,%ymm0
  404977:	c4 e2 ed b8 c8       	vfmadd231pd %ymm0,%ymm2,%ymm1
  40497c:	c4 e2 fd b8 d1       	vfmadd231pd %ymm1,%ymm0,%ymm2
  404981:	c4 e2 f5 b8 c2       	vfmadd231pd %ymm2,%ymm1,%ymm0
  404986:	c4 e2 ed b8 c8       	vfmadd231pd %ymm0,%ymm2,%ymm1
  40498b:	c4 e2 fd b8 d1       	vfmadd231pd %ymm1,%ymm0,%ymm2
  404990:	c4 e2 f5 b8 c2       	vfmadd231pd %ymm2,%ymm1,%ymm0
  404995:	c4 e2 ed b8 c8       	vfmadd231pd %ymm0,%ymm2,%ymm1
  40499a:	c4 e2 fd b8 d1       	vfmadd231pd %ymm1,%ymm0,%ymm2
  40499f:	c4 e2 f5 b8 c2       	vfmadd231pd %ymm2,%ymm1,%ymm0
  4049a4:	c4 e2 ed b8 c8       	vfmadd231pd %ymm0,%ymm2,%ymm1
  4049a9:	c4 e2 fd b8 d1       	vfmadd231pd %ymm1,%ymm0,%ymm2
  4049ae:	c4 e2 f5 b8 c2       	vfmadd231pd %ymm2,%ymm1,%ymm0
  4049b3:	c4 e2 ed b8 c8       	vfmadd231pd %ymm0,%ymm2,%ymm1
  4049b8:	c4 e2 fd b8 d1       	vfmadd231pd %ymm1,%ymm0,%ymm2
  4049bd:	c4 e2 f5 b8 c2       	vfmadd231pd %ymm2,%ymm1,%ymm0
  4049c2:	c4 e2 ed b8 c8       	vfmadd231pd %ymm0,%ymm2,%ymm1
  4049c7:	c4 e2 fd b8 d1       	vfmadd231pd %ymm1,%ymm0,%ymm2
  4049cc:	c4 e2 f5 b8 c2       	vfmadd231pd %ymm2,%ymm1,%ymm0
  4049d1:	c4 e2 ed b8 c8       	vfmadd231pd %ymm0,%ymm2,%ymm1
  4049d6:	c4 e2 fd b8 d1       	vfmadd231pd %ymm1,%ymm0,%ymm2
  4049db:	c4 e2 f5 b8 c2       	vfmadd231pd %ymm2,%ymm1,%ymm0
  4049e0:	c4 e2 ed b8 c8       	vfmadd231pd %ymm0,%ymm2,%ymm1
  4049e5:	c4 e2 fd b8 d1       	vfmadd231pd %ymm1,%ymm0,%ymm2
  4049ea:	c4 e2 f5 b8 c2       	vfmadd231pd %ymm2,%ymm1,%ymm0
  4049ef:	c4 e2 ed b8 c8       	vfmadd231pd %ymm0,%ymm2,%ymm1
  4049f4:	c4 e2 fd b8 d1       	vfmadd231pd %ymm1,%ymm0,%ymm2
  4049f9:	c4 e2 f5 b8 c2       	vfmadd231pd %ymm2,%ymm1,%ymm0
  4049fe:	c4 e2 ed b8 c8       	vfmadd231pd %ymm0,%ymm2,%ymm1
  404a03:	c4 e2 fd b8 d1       	vfmadd231pd %ymm1,%ymm0,%ymm2
  404a08:	c4 e2 f5 b8 c2       	vfmadd231pd %ymm2,%ymm1,%ymm0
  404a0d:	c4 e2 ed b8 c8       	vfmadd231pd %ymm0,%ymm2,%ymm1
  404a12:	c4 e2 fd b8 d1       	vfmadd231pd %ymm1,%ymm0,%ymm2
  404a17:	c4 e2 f5 b8 c2       	vfmadd231pd %ymm2,%ymm1,%ymm0
  404a1c:	c4 e2 ed b8 c8       	vfmadd231pd %ymm0,%ymm2,%ymm1
  404a21:	c4 e2 fd b8 d1       	vfmadd231pd %ymm1,%ymm0,%ymm2
  404a26:	c4 e2 f5 b8 c2       	vfmadd231pd %ymm2,%ymm1,%ymm0
  404a2b:	c4 e2 ed b8 c8       	vfmadd231pd %ymm0,%ymm2,%ymm1
  404a30:	c4 e2 fd b8 d1       	vfmadd231pd %ymm1,%ymm0,%ymm2
  404a35:	c4 e2 f5 b8 c2       	vfmadd231pd %ymm2,%ymm1,%ymm0
  404a3a:	c4 e2 ed b8 c8       	vfmadd231pd %ymm0,%ymm2,%ymm1
  404a3f:	c4 e2 fd b8 d1       	vfmadd231pd %ymm1,%ymm0,%ymm2
  404a44:	c4 e2 f5 b8 c2       	vfmadd231pd %ymm2,%ymm1,%ymm0
  404a49:	c4 e2 ed b8 c8       	vfmadd231pd %ymm0,%ymm2,%ymm1
  404a4e:	c4 e2 fd b8 d1       	vfmadd231pd %ymm1,%ymm0,%ymm2
  404a53:	c4 e2 f5 b8 c2       	vfmadd231pd %ymm2,%ymm1,%ymm0
  404a58:	c4 e2 ed b8 c8       	vfmadd231pd %ymm0,%ymm2,%ymm1
  404a5d:	c4 e2 fd b8 d1       	vfmadd231pd %ymm1,%ymm0,%ymm2
  404a62:	c4 e2 f5 b8 c2       	vfmadd231pd %ymm2,%ymm1,%ymm0
  404a67:	c4 e2 ed b8 c8       	vfmadd231pd %ymm0,%ymm2,%ymm1
  404a6c:	c4 e2 fd b8 d1       	vfmadd231pd %ymm1,%ymm0,%ymm2
  404a71:	c4 e2 f5 b8 c2       	vfmadd231pd %ymm2,%ymm1,%ymm0
  404a76:	c4 e2 ed b8 c8       	vfmadd231pd %ymm0,%ymm2,%ymm1
  404a7b:	c4 e2 fd b8 d1       	vfmadd231pd %ymm1,%ymm0,%ymm2
  404a80:	c4 e2 f5 b8 c2       	vfmadd231pd %ymm2,%ymm1,%ymm0
  404a85:	c4 e2 ed b8 c8       	vfmadd231pd %ymm0,%ymm2,%ymm1
  404a8a:	c4 e2 fd b8 d1       	vfmadd231pd %ymm1,%ymm0,%ymm2
  404a8f:	c4 e2 f5 b8 c2       	vfmadd231pd %ymm2,%ymm1,%ymm0
  404a94:	c4 e2 ed b8 c8       	vfmadd231pd %ymm0,%ymm2,%ymm1
  404a99:	c4 e2 fd b8 d1       	vfmadd231pd %ymm1,%ymm0,%ymm2
  404a9e:	c4 e2 f5 b8 c2       	vfmadd231pd %ymm2,%ymm1,%ymm0
  404aa3:	c4 e2 ed b8 c8       	vfmadd231pd %ymm0,%ymm2,%ymm1
  404aa8:	c4 e2 fd b8 d1       	vfmadd231pd %ymm1,%ymm0,%ymm2
  404aad:	c4 e2 f5 b8 c2       	vfmadd231pd %ymm2,%ymm1,%ymm0
  404ab2:	c4 e2 ed b8 c8       	vfmadd231pd %ymm0,%ymm2,%ymm1
  404ab7:	c4 e2 fd b8 d1       	vfmadd231pd %ymm1,%ymm0,%ymm2
  404abc:	c4 e2 f5 b8 c2       	vfmadd231pd %ymm2,%ymm1,%ymm0
  404ac1:	c4 e2 ed b8 c8       	vfmadd231pd %ymm0,%ymm2,%ymm1
  404ac6:	c4 e2 fd b8 d1       	vfmadd231pd %ymm1,%ymm0,%ymm2
  404acb:	c4 e2 f5 b8 c2       	vfmadd231pd %ymm2,%ymm1,%ymm0
  404ad0:	c4 e2 ed b8 c8       	vfmadd231pd %ymm0,%ymm2,%ymm1
  404ad5:	c4 e2 fd b8 d1       	vfmadd231pd %ymm1,%ymm0,%ymm2
  404ada:	c4 e2 f5 b8 c2       	vfmadd231pd %ymm2,%ymm1,%ymm0
  404adf:	c4 e2 ed b8 c8       	vfmadd231pd %ymm0,%ymm2,%ymm1
  404ae4:	c4 e2 fd b8 d1       	vfmadd231pd %ymm1,%ymm0,%ymm2
  404ae9:	c4 e2 f5 b8 c2       	vfmadd231pd %ymm2,%ymm1,%ymm0
  404aee:	c4 e2 ed b8 c8       	vfmadd231pd %ymm0,%ymm2,%ymm1
  404af3:	c4 e2 fd b8 d1       	vfmadd231pd %ymm1,%ymm0,%ymm2
  404af8:	c4 e2 f5 b8 c2       	vfmadd231pd %ymm2,%ymm1,%ymm0
  404afd:	c4 e2 ed b8 c8       	vfmadd231pd %ymm0,%ymm2,%ymm1
  404b02:	c4 e2 fd b8 d1       	vfmadd231pd %ymm1,%ymm0,%ymm2
  404b07:	c4 e2 f5 b8 c2       	vfmadd231pd %ymm2,%ymm1,%ymm0
  404b0c:	c4 e2 ed b8 c8       	vfmadd231pd %ymm0,%ymm2,%ymm1
  404b11:	c4 e2 fd b8 d1       	vfmadd231pd %ymm1,%ymm0,%ymm2
  404b16:	c4 e2 f5 b8 c2       	vfmadd231pd %ymm2,%ymm1,%ymm0
  404b1b:	c4 e2 ed b8 c8       	vfmadd231pd %ymm0,%ymm2,%ymm1
  404b20:	c4 e2 fd b8 d1       	vfmadd231pd %ymm1,%ymm0,%ymm2
  404b25:	c4 e2 f5 b8 c2       	vfmadd231pd %ymm2,%ymm1,%ymm0
  404b2a:	c4 e2 ed b8 c8       	vfmadd231pd %ymm0,%ymm2,%ymm1
  404b2f:	c4 e2 fd b8 d1       	vfmadd231pd %ymm1,%ymm0,%ymm2
  404b34:	c4 e2 f5 b8 c2       	vfmadd231pd %ymm2,%ymm1,%ymm0
  404b39:	c4 e2 ed b8 c8       	vfmadd231pd %ymm0,%ymm2,%ymm1
  404b3e:	c4 e2 fd b8 d1       	vfmadd231pd %ymm1,%ymm0,%ymm2
  404b43:	c4 e2 f5 b8 c2       	vfmadd231pd %ymm2,%ymm1,%ymm0
  404b48:	c4 e2 ed b8 c8       	vfmadd231pd %ymm0,%ymm2,%ymm1
  404b4d:	c4 e2 fd b8 d1       	vfmadd231pd %ymm1,%ymm0,%ymm2
  404b52:	c4 e2 f5 b8 c2       	vfmadd231pd %ymm2,%ymm1,%ymm0
  404b57:	c4 e2 ed b8 c8       	vfmadd231pd %ymm0,%ymm2,%ymm1
  404b5c:	c4 e2 fd b8 d1       	vfmadd231pd %ymm1,%ymm0,%ymm2
  404b61:	c4 e2 f5 b8 c2       	vfmadd231pd %ymm2,%ymm1,%ymm0
  404b66:	c4 e2 ed b8 c8       	vfmadd231pd %ymm0,%ymm2,%ymm1
  404b6b:	c4 e2 fd b8 d1       	vfmadd231pd %ymm1,%ymm0,%ymm2
  404b70:	c4 e2 f5 b8 c2       	vfmadd231pd %ymm2,%ymm1,%ymm0
  404b75:	c4 e2 ed b8 c8       	vfmadd231pd %ymm0,%ymm2,%ymm1
  404b7a:	c4 e2 fd b8 d1       	vfmadd231pd %ymm1,%ymm0,%ymm2
  404b7f:	c4 e2 f5 b8 c2       	vfmadd231pd %ymm2,%ymm1,%ymm0
  404b84:	c4 e2 ed b8 c8       	vfmadd231pd %ymm0,%ymm2,%ymm1
  404b89:	c4 e2 fd b8 d1       	vfmadd231pd %ymm1,%ymm0,%ymm2
  404b8e:	c4 e2 f5 b8 c2       	vfmadd231pd %ymm2,%ymm1,%ymm0
  404b93:	c4 e2 ed b8 c8       	vfmadd231pd %ymm0,%ymm2,%ymm1
  404b98:	c4 e2 fd b8 d1       	vfmadd231pd %ymm1,%ymm0,%ymm2
  404b9d:	c4 e2 f5 b8 c2       	vfmadd231pd %ymm2,%ymm1,%ymm0
  404ba2:	c4 e2 ed b8 c8       	vfmadd231pd %ymm0,%ymm2,%ymm1
  404ba7:	c4 e2 fd b8 d1       	vfmadd231pd %ymm1,%ymm0,%ymm2
  404bac:	c4 e2 f5 b8 c2       	vfmadd231pd %ymm2,%ymm1,%ymm0
  404bb1:	c4 e2 ed b8 c8       	vfmadd231pd %ymm0,%ymm2,%ymm1
  404bb6:	c4 e2 fd b8 d1       	vfmadd231pd %ymm1,%ymm0,%ymm2
  404bbb:	c4 e2 f5 b8 c2       	vfmadd231pd %ymm2,%ymm1,%ymm0
  404bc0:	c4 e2 ed b8 c8       	vfmadd231pd %ymm0,%ymm2,%ymm1
  404bc5:	c4 e2 fd b8 d1       	vfmadd231pd %ymm1,%ymm0,%ymm2
  404bca:	c4 e2 f5 b8 c2       	vfmadd231pd %ymm2,%ymm1,%ymm0
  404bcf:	c4 e2 ed b8 c8       	vfmadd231pd %ymm0,%ymm2,%ymm1
  404bd4:	c4 e2 fd b8 d1       	vfmadd231pd %ymm1,%ymm0,%ymm2
  404bd9:	c4 e2 f5 b8 c2       	vfmadd231pd %ymm2,%ymm1,%ymm0
  404bde:	c4 e2 ed b8 c8       	vfmadd231pd %ymm0,%ymm2,%ymm1
  404be3:	c4 e2 fd b8 d1       	vfmadd231pd %ymm1,%ymm0,%ymm2
  404be8:	c4 e2 f5 b8 c2       	vfmadd231pd %ymm2,%ymm1,%ymm0
  404bed:	c4 e2 ed b8 c8       	vfmadd231pd %ymm0,%ymm2,%ymm1
  404bf2:	c4 e2 fd b8 d1       	vfmadd231pd %ymm1,%ymm0,%ymm2
  404bf7:	c4 e2 f5 b8 c2       	vfmadd231pd %ymm2,%ymm1,%ymm0
  404bfc:	c4 e2 ed b8 c8       	vfmadd231pd %ymm0,%ymm2,%ymm1
  404c01:	c4 e2 fd b8 d1       	vfmadd231pd %ymm1,%ymm0,%ymm2
  404c06:	c4 e2 f5 b8 c2       	vfmadd231pd %ymm2,%ymm1,%ymm0
  404c0b:	c4 e2 ed b8 c8       	vfmadd231pd %ymm0,%ymm2,%ymm1
  404c10:	c4 e2 fd b8 d1       	vfmadd231pd %ymm1,%ymm0,%ymm2
  404c15:	c4 e2 f5 b8 c2       	vfmadd231pd %ymm2,%ymm1,%ymm0
  404c1a:	c4 e2 ed b8 c8       	vfmadd231pd %ymm0,%ymm2,%ymm1
  404c1f:	c4 e2 fd b8 d1       	vfmadd231pd %ymm1,%ymm0,%ymm2
  404c24:	c4 e2 f5 b8 c2       	vfmadd231pd %ymm2,%ymm1,%ymm0
  404c29:	c4 e2 ed b8 c8       	vfmadd231pd %ymm0,%ymm2,%ymm1
  404c2e:	c4 e2 fd b8 d1       	vfmadd231pd %ymm1,%ymm0,%ymm2
  404c33:	c4 e2 f5 b8 c2       	vfmadd231pd %ymm2,%ymm1,%ymm0
  404c38:	c4 e2 ed b8 c8       	vfmadd231pd %ymm0,%ymm2,%ymm1
  404c3d:	c4 e2 fd b8 d1       	vfmadd231pd %ymm1,%ymm0,%ymm2
  404c42:	c4 e2 f5 b8 c2       	vfmadd231pd %ymm2,%ymm1,%ymm0
  404c47:	c4 e2 ed b8 c8       	vfmadd231pd %ymm0,%ymm2,%ymm1
  404c4c:	c4 e2 fd b8 d1       	vfmadd231pd %ymm1,%ymm0,%ymm2
  404c51:	c4 e2 f5 b8 c2       	vfmadd231pd %ymm2,%ymm1,%ymm0
  404c56:	c4 e2 ed b8 c8       	vfmadd231pd %ymm0,%ymm2,%ymm1
  404c5b:	c4 e2 fd b8 d1       	vfmadd231pd %ymm1,%ymm0,%ymm2
  404c60:	c4 e2 f5 b8 c2       	vfmadd231pd %ymm2,%ymm1,%ymm0
  404c65:	c4 e2 ed b8 c8       	vfmadd231pd %ymm0,%ymm2,%ymm1
  404c6a:	c4 e2 fd b8 d1       	vfmadd231pd %ymm1,%ymm0,%ymm2
  404c6f:	c4 e2 f5 b8 c2       	vfmadd231pd %ymm2,%ymm1,%ymm0
  404c74:	c4 e2 ed b8 c8       	vfmadd231pd %ymm0,%ymm2,%ymm1
  404c79:	c4 e2 fd b8 d1       	vfmadd231pd %ymm1,%ymm0,%ymm2
  404c7e:	c4 e2 f5 b8 c2       	vfmadd231pd %ymm2,%ymm1,%ymm0
  404c83:	c4 e2 ed b8 c8       	vfmadd231pd %ymm0,%ymm2,%ymm1
  404c88:	c4 e2 fd b8 d1       	vfmadd231pd %ymm1,%ymm0,%ymm2
  404c8d:	c4 e2 f5 b8 c2       	vfmadd231pd %ymm2,%ymm1,%ymm0
  404c92:	c4 e2 ed b8 c8       	vfmadd231pd %ymm0,%ymm2,%ymm1
  404c97:	c4 e2 fd b8 d1       	vfmadd231pd %ymm1,%ymm0,%ymm2
  404c9c:	c4 e2 f5 b8 c2       	vfmadd231pd %ymm2,%ymm1,%ymm0
  404ca1:	c4 e2 ed b8 c8       	vfmadd231pd %ymm0,%ymm2,%ymm1
  404ca6:	c4 e2 fd b8 d1       	vfmadd231pd %ymm1,%ymm0,%ymm2
  404cab:	c4 e2 f5 b8 c2       	vfmadd231pd %ymm2,%ymm1,%ymm0
  404cb0:	c4 e2 ed b8 c8       	vfmadd231pd %ymm0,%ymm2,%ymm1
  404cb5:	c4 e2 fd b8 d1       	vfmadd231pd %ymm1,%ymm0,%ymm2
  404cba:	c4 e2 f5 b8 c2       	vfmadd231pd %ymm2,%ymm1,%ymm0
  404cbf:	c4 e2 ed b8 c8       	vfmadd231pd %ymm0,%ymm2,%ymm1
  404cc4:	c4 e2 fd b8 d1       	vfmadd231pd %ymm1,%ymm0,%ymm2
  404cc9:	c4 e2 f5 b8 c2       	vfmadd231pd %ymm2,%ymm1,%ymm0
  404cce:	c4 e2 ed b8 c8       	vfmadd231pd %ymm0,%ymm2,%ymm1
  404cd3:	c4 e2 fd b8 d1       	vfmadd231pd %ymm1,%ymm0,%ymm2
  404cd8:	c4 e2 f5 b8 c2       	vfmadd231pd %ymm2,%ymm1,%ymm0
  404cdd:	c4 e2 ed b8 c8       	vfmadd231pd %ymm0,%ymm2,%ymm1
  404ce2:	c4 e2 fd b8 d1       	vfmadd231pd %ymm1,%ymm0,%ymm2
  404ce7:	c4 e2 f5 b8 c2       	vfmadd231pd %ymm2,%ymm1,%ymm0
  404cec:	c4 e2 ed b8 c8       	vfmadd231pd %ymm0,%ymm2,%ymm1
  404cf1:	c4 e2 fd b8 d1       	vfmadd231pd %ymm1,%ymm0,%ymm2
  404cf6:	c4 e2 f5 b8 c2       	vfmadd231pd %ymm2,%ymm1,%ymm0
  404cfb:	c4 e2 ed b8 c8       	vfmadd231pd %ymm0,%ymm2,%ymm1
  404d00:	c4 e2 fd b8 d1       	vfmadd231pd %ymm1,%ymm0,%ymm2
  404d05:	c4 e2 f5 b8 c2       	vfmadd231pd %ymm2,%ymm1,%ymm0
  404d0a:	c4 e2 ed b8 c8       	vfmadd231pd %ymm0,%ymm2,%ymm1
  404d0f:	c4 e2 fd b8 d1       	vfmadd231pd %ymm1,%ymm0,%ymm2
  404d14:	c4 e2 f5 b8 c2       	vfmadd231pd %ymm2,%ymm1,%ymm0
  404d19:	c4 e2 ed b8 c8       	vfmadd231pd %ymm0,%ymm2,%ymm1
  404d1e:	c4 e2 fd b8 d1       	vfmadd231pd %ymm1,%ymm0,%ymm2
  404d23:	c4 e2 f5 b8 c2       	vfmadd231pd %ymm2,%ymm1,%ymm0
  404d28:	c4 e2 ed b8 c8       	vfmadd231pd %ymm0,%ymm2,%ymm1
  404d2d:	c4 e2 fd b8 d1       	vfmadd231pd %ymm1,%ymm0,%ymm2
  404d32:	c4 e2 f5 b8 c2       	vfmadd231pd %ymm2,%ymm1,%ymm0
  404d37:	c4 e2 ed b8 c8       	vfmadd231pd %ymm0,%ymm2,%ymm1
  404d3c:	c4 e2 fd b8 d1       	vfmadd231pd %ymm1,%ymm0,%ymm2
  404d41:	c4 e2 f5 b8 c2       	vfmadd231pd %ymm2,%ymm1,%ymm0
  404d46:	c4 e2 ed b8 c8       	vfmadd231pd %ymm0,%ymm2,%ymm1
  404d4b:	c4 e2 fd b8 d1       	vfmadd231pd %ymm1,%ymm0,%ymm2
  404d50:	c4 e2 f5 b8 c2       	vfmadd231pd %ymm2,%ymm1,%ymm0
  404d55:	c4 e2 ed b8 c8       	vfmadd231pd %ymm0,%ymm2,%ymm1
  404d5a:	c4 e2 fd b8 d1       	vfmadd231pd %ymm1,%ymm0,%ymm2
  404d5f:	c4 e2 f5 b8 c2       	vfmadd231pd %ymm2,%ymm1,%ymm0
  404d64:	c4 e2 ed b8 c8       	vfmadd231pd %ymm0,%ymm2,%ymm1
  404d69:	c4 e2 fd b8 d1       	vfmadd231pd %ymm1,%ymm0,%ymm2
  404d6e:	c4 e2 f5 b8 c2       	vfmadd231pd %ymm2,%ymm1,%ymm0
  404d73:	c4 e2 ed b8 c8       	vfmadd231pd %ymm0,%ymm2,%ymm1
  404d78:	c4 e2 fd b8 d1       	vfmadd231pd %ymm1,%ymm0,%ymm2
  404d7d:	c4 e2 f5 b8 c2       	vfmadd231pd %ymm2,%ymm1,%ymm0
  404d82:	c4 e2 ed b8 c8       	vfmadd231pd %ymm0,%ymm2,%ymm1
  404d87:	c4 e2 fd b8 d1       	vfmadd231pd %ymm1,%ymm0,%ymm2
  404d8c:	c4 e2 f5 b8 c2       	vfmadd231pd %ymm2,%ymm1,%ymm0
  404d91:	c4 e2 ed b8 c8       	vfmadd231pd %ymm0,%ymm2,%ymm1
  404d96:	c4 e2 fd b8 d1       	vfmadd231pd %ymm1,%ymm0,%ymm2
  404d9b:	c4 e2 f5 b8 c2       	vfmadd231pd %ymm2,%ymm1,%ymm0
  404da0:	c4 e2 ed b8 c8       	vfmadd231pd %ymm0,%ymm2,%ymm1
  404da5:	c4 e2 fd b8 d1       	vfmadd231pd %ymm1,%ymm0,%ymm2
  404daa:	c4 e2 f5 b8 c2       	vfmadd231pd %ymm2,%ymm1,%ymm0
  404daf:	c4 e2 ed b8 c8       	vfmadd231pd %ymm0,%ymm2,%ymm1
  404db4:	c4 e2 fd b8 d1       	vfmadd231pd %ymm1,%ymm0,%ymm2
  404db9:	c4 e2 f5 b8 c2       	vfmadd231pd %ymm2,%ymm1,%ymm0
  404dbe:	c4 e2 ed b8 c8       	vfmadd231pd %ymm0,%ymm2,%ymm1
  404dc3:	c4 e2 fd b8 d1       	vfmadd231pd %ymm1,%ymm0,%ymm2
  404dc8:	c4 e2 f5 b8 c2       	vfmadd231pd %ymm2,%ymm1,%ymm0
  404dcd:	c4 e2 ed b8 c8       	vfmadd231pd %ymm0,%ymm2,%ymm1
  404dd2:	c4 e2 fd b8 d1       	vfmadd231pd %ymm1,%ymm0,%ymm2
  404dd7:	c4 e2 f5 b8 c2       	vfmadd231pd %ymm2,%ymm1,%ymm0
  404ddc:	c4 e2 ed b8 c8       	vfmadd231pd %ymm0,%ymm2,%ymm1
  404de1:	c4 e2 fd b8 d1       	vfmadd231pd %ymm1,%ymm0,%ymm2
  404de6:	c4 e2 f5 b8 c2       	vfmadd231pd %ymm2,%ymm1,%ymm0
  404deb:	c4 e2 ed b8 c8       	vfmadd231pd %ymm0,%ymm2,%ymm1
  404df0:	c4 e2 fd b8 d1       	vfmadd231pd %ymm1,%ymm0,%ymm2
  404df5:	c4 e2 f5 b8 c2       	vfmadd231pd %ymm2,%ymm1,%ymm0
  404dfa:	c4 e2 ed b8 c8       	vfmadd231pd %ymm0,%ymm2,%ymm1
  404dff:	c4 e2 fd b8 d1       	vfmadd231pd %ymm1,%ymm0,%ymm2
  404e04:	c4 e2 f5 b8 c2       	vfmadd231pd %ymm2,%ymm1,%ymm0
  404e09:	c4 e2 ed b8 c8       	vfmadd231pd %ymm0,%ymm2,%ymm1
  404e0e:	c4 e2 fd b8 d1       	vfmadd231pd %ymm1,%ymm0,%ymm2
  404e13:	c4 e2 f5 b8 c2       	vfmadd231pd %ymm2,%ymm1,%ymm0
  404e18:	c4 e2 ed b8 c8       	vfmadd231pd %ymm0,%ymm2,%ymm1
  404e1d:	c4 e2 fd b8 d1       	vfmadd231pd %ymm1,%ymm0,%ymm2
  404e22:	c4 e2 f5 b8 c2       	vfmadd231pd %ymm2,%ymm1,%ymm0
  404e27:	c4 e2 ed b8 c8       	vfmadd231pd %ymm0,%ymm2,%ymm1
  404e2c:	c4 e2 fd b8 d1       	vfmadd231pd %ymm1,%ymm0,%ymm2
  404e31:	c4 e2 f5 b8 c2       	vfmadd231pd %ymm2,%ymm1,%ymm0
  404e36:	c4 e2 ed b8 c8       	vfmadd231pd %ymm0,%ymm2,%ymm1
  404e3b:	c4 e2 fd b8 d1       	vfmadd231pd %ymm1,%ymm0,%ymm2
  404e40:	c4 e2 f5 b8 c2       	vfmadd231pd %ymm2,%ymm1,%ymm0
  404e45:	c4 e2 ed b8 c8       	vfmadd231pd %ymm0,%ymm2,%ymm1
  404e4a:	c4 e2 fd b8 d1       	vfmadd231pd %ymm1,%ymm0,%ymm2
  404e4f:	c4 e2 f5 b8 c2       	vfmadd231pd %ymm2,%ymm1,%ymm0
  404e54:	c4 e2 ed b8 c8       	vfmadd231pd %ymm0,%ymm2,%ymm1
  404e59:	c4 e2 fd b8 d1       	vfmadd231pd %ymm1,%ymm0,%ymm2
  404e5e:	c4 e2 f5 b8 c2       	vfmadd231pd %ymm2,%ymm1,%ymm0
  404e63:	c4 e2 ed b8 c8       	vfmadd231pd %ymm0,%ymm2,%ymm1
  404e68:	c4 e2 fd b8 d1       	vfmadd231pd %ymm1,%ymm0,%ymm2
  404e6d:	c4 e2 f5 b8 c2       	vfmadd231pd %ymm2,%ymm1,%ymm0
  404e72:	c4 e2 ed b8 c8       	vfmadd231pd %ymm0,%ymm2,%ymm1
  404e77:	c4 e2 fd b8 d1       	vfmadd231pd %ymm1,%ymm0,%ymm2
  404e7c:	c4 e2 f5 b8 c2       	vfmadd231pd %ymm2,%ymm1,%ymm0
  404e81:	c4 e2 ed b8 c8       	vfmadd231pd %ymm0,%ymm2,%ymm1
  404e86:	c4 e2 fd b8 d1       	vfmadd231pd %ymm1,%ymm0,%ymm2
  404e8b:	c4 e2 f5 b8 c2       	vfmadd231pd %ymm2,%ymm1,%ymm0
  404e90:	c4 e2 ed b8 c8       	vfmadd231pd %ymm0,%ymm2,%ymm1
  404e95:	c4 e2 fd b8 d1       	vfmadd231pd %ymm1,%ymm0,%ymm2
  404e9a:	c4 e2 f5 b8 c2       	vfmadd231pd %ymm2,%ymm1,%ymm0
  404e9f:	c4 e2 ed b8 c8       	vfmadd231pd %ymm0,%ymm2,%ymm1
  404ea4:	c4 e2 fd b8 d1       	vfmadd231pd %ymm1,%ymm0,%ymm2
  404ea9:	c4 e2 f5 b8 c2       	vfmadd231pd %ymm2,%ymm1,%ymm0
  404eae:	c4 e2 ed b8 c8       	vfmadd231pd %ymm0,%ymm2,%ymm1
  404eb3:	c4 e2 fd b8 d1       	vfmadd231pd %ymm1,%ymm0,%ymm2
  404eb8:	c4 e2 f5 b8 c2       	vfmadd231pd %ymm2,%ymm1,%ymm0
  404ebd:	c4 e2 ed b8 c8       	vfmadd231pd %ymm0,%ymm2,%ymm1
  404ec2:	c4 e2 fd b8 d1       	vfmadd231pd %ymm1,%ymm0,%ymm2
  404ec7:	c4 e2 f5 b8 c2       	vfmadd231pd %ymm2,%ymm1,%ymm0
  404ecc:	c4 e2 ed b8 c8       	vfmadd231pd %ymm0,%ymm2,%ymm1
  404ed1:	c4 e2 fd b8 d1       	vfmadd231pd %ymm1,%ymm0,%ymm2
  404ed6:	c4 e2 f5 b8 c2       	vfmadd231pd %ymm2,%ymm1,%ymm0
  404edb:	c4 e2 ed b8 c8       	vfmadd231pd %ymm0,%ymm2,%ymm1
  404ee0:	c4 e2 fd b8 d1       	vfmadd231pd %ymm1,%ymm0,%ymm2
  404ee5:	c4 e2 f5 b8 c2       	vfmadd231pd %ymm2,%ymm1,%ymm0
  404eea:	c4 e2 ed b8 c8       	vfmadd231pd %ymm0,%ymm2,%ymm1
  404eef:	c4 e2 fd b8 d1       	vfmadd231pd %ymm1,%ymm0,%ymm2
  404ef4:	c4 e2 f5 b8 c2       	vfmadd231pd %ymm2,%ymm1,%ymm0
  404ef9:	c4 e2 ed b8 c8       	vfmadd231pd %ymm0,%ymm2,%ymm1
  404efe:	c4 e2 fd b8 d1       	vfmadd231pd %ymm1,%ymm0,%ymm2
  404f03:	c4 e2 f5 b8 c2       	vfmadd231pd %ymm2,%ymm1,%ymm0
  404f08:	c4 e2 ed b8 c8       	vfmadd231pd %ymm0,%ymm2,%ymm1
  404f0d:	c4 e2 fd b8 d1       	vfmadd231pd %ymm1,%ymm0,%ymm2
  404f12:	c4 e2 f5 b8 c2       	vfmadd231pd %ymm2,%ymm1,%ymm0
  404f17:	c4 e2 ed b8 c8       	vfmadd231pd %ymm0,%ymm2,%ymm1
  404f1c:	c4 e2 fd b8 d1       	vfmadd231pd %ymm1,%ymm0,%ymm2
  404f21:	c4 e2 f5 b8 c2       	vfmadd231pd %ymm2,%ymm1,%ymm0
  404f26:	c4 e2 ed b8 c8       	vfmadd231pd %ymm0,%ymm2,%ymm1
  404f2b:	c4 e2 fd b8 d1       	vfmadd231pd %ymm1,%ymm0,%ymm2
  404f30:	c4 e2 f5 b8 c2       	vfmadd231pd %ymm2,%ymm1,%ymm0
  404f35:	c4 e2 ed b8 c8       	vfmadd231pd %ymm0,%ymm2,%ymm1
  404f3a:	c4 e2 fd b8 d1       	vfmadd231pd %ymm1,%ymm0,%ymm2
  404f3f:	c4 e2 f5 b8 c2       	vfmadd231pd %ymm2,%ymm1,%ymm0
  404f44:	c4 e2 ed b8 c8       	vfmadd231pd %ymm0,%ymm2,%ymm1
  404f49:	c4 e2 fd b8 d1       	vfmadd231pd %ymm1,%ymm0,%ymm2
  404f4e:	c4 e2 f5 b8 c2       	vfmadd231pd %ymm2,%ymm1,%ymm0
  404f53:	c4 e2 ed b8 c8       	vfmadd231pd %ymm0,%ymm2,%ymm1
  404f58:	c4 e2 fd b8 d1       	vfmadd231pd %ymm1,%ymm0,%ymm2
  404f5d:	c4 e2 f5 b8 c2       	vfmadd231pd %ymm2,%ymm1,%ymm0
  404f62:	c4 e2 ed b8 c8       	vfmadd231pd %ymm0,%ymm2,%ymm1
  404f67:	c4 e2 fd b8 d1       	vfmadd231pd %ymm1,%ymm0,%ymm2
  404f6c:	c4 e2 f5 b8 c2       	vfmadd231pd %ymm2,%ymm1,%ymm0
  404f71:	c4 e2 ed b8 c8       	vfmadd231pd %ymm0,%ymm2,%ymm1
  404f76:	c4 e2 fd b8 d1       	vfmadd231pd %ymm1,%ymm0,%ymm2
  404f7b:	c4 e2 f5 b8 c2       	vfmadd231pd %ymm2,%ymm1,%ymm0
  404f80:	c4 e2 ed b8 c8       	vfmadd231pd %ymm0,%ymm2,%ymm1
  404f85:	c4 e2 fd b8 d1       	vfmadd231pd %ymm1,%ymm0,%ymm2
  404f8a:	c4 e2 f5 b8 c2       	vfmadd231pd %ymm2,%ymm1,%ymm0
  404f8f:	c4 e2 ed b8 c8       	vfmadd231pd %ymm0,%ymm2,%ymm1
  404f94:	c4 e2 fd b8 d1       	vfmadd231pd %ymm1,%ymm0,%ymm2
  404f99:	c4 e2 f5 b8 c2       	vfmadd231pd %ymm2,%ymm1,%ymm0
  404f9e:	c4 e2 ed b8 c8       	vfmadd231pd %ymm0,%ymm2,%ymm1
  404fa3:	c4 e2 fd b8 d1       	vfmadd231pd %ymm1,%ymm0,%ymm2
  404fa8:	c4 e2 f5 b8 c2       	vfmadd231pd %ymm2,%ymm1,%ymm0
  404fad:	c4 e2 ed b8 c8       	vfmadd231pd %ymm0,%ymm2,%ymm1
  404fb2:	c4 e2 fd b8 d1       	vfmadd231pd %ymm1,%ymm0,%ymm2
  404fb7:	c4 e2 f5 b8 c2       	vfmadd231pd %ymm2,%ymm1,%ymm0
  404fbc:	c4 e2 ed b8 c8       	vfmadd231pd %ymm0,%ymm2,%ymm1
  404fc1:	c4 e2 fd b8 d1       	vfmadd231pd %ymm1,%ymm0,%ymm2
  404fc6:	c4 e2 f5 b8 c2       	vfmadd231pd %ymm2,%ymm1,%ymm0
  404fcb:	c4 e2 ed b8 c8       	vfmadd231pd %ymm0,%ymm2,%ymm1
  404fd0:	c4 e2 fd b8 d1       	vfmadd231pd %ymm1,%ymm0,%ymm2
  404fd5:	c4 e2 f5 b8 c2       	vfmadd231pd %ymm2,%ymm1,%ymm0
  404fda:	c4 e2 ed b8 c8       	vfmadd231pd %ymm0,%ymm2,%ymm1
  404fdf:	c4 e2 fd b8 d1       	vfmadd231pd %ymm1,%ymm0,%ymm2
  404fe4:	c4 e2 f5 b8 c2       	vfmadd231pd %ymm2,%ymm1,%ymm0
  404fe9:	c4 e2 ed b8 c8       	vfmadd231pd %ymm0,%ymm2,%ymm1
  404fee:	c4 e2 fd b8 d1       	vfmadd231pd %ymm1,%ymm0,%ymm2
  404ff3:	c4 e2 f5 b8 c2       	vfmadd231pd %ymm2,%ymm1,%ymm0
  404ff8:	c4 e2 ed b8 c8       	vfmadd231pd %ymm0,%ymm2,%ymm1
  404ffd:	c4 e2 fd b8 d1       	vfmadd231pd %ymm1,%ymm0,%ymm2
  405002:	c4 e2 f5 b8 c2       	vfmadd231pd %ymm2,%ymm1,%ymm0
  405007:	c4 e2 ed b8 c8       	vfmadd231pd %ymm0,%ymm2,%ymm1
  40500c:	c4 e2 fd b8 d1       	vfmadd231pd %ymm1,%ymm0,%ymm2
  405011:	c4 e2 f5 b8 c2       	vfmadd231pd %ymm2,%ymm1,%ymm0
  405016:	c4 e2 ed b8 c8       	vfmadd231pd %ymm0,%ymm2,%ymm1
  40501b:	c4 e2 fd b8 d1       	vfmadd231pd %ymm1,%ymm0,%ymm2
  405020:	c4 e2 f5 b8 c2       	vfmadd231pd %ymm2,%ymm1,%ymm0
  405025:	c4 e2 ed b8 c8       	vfmadd231pd %ymm0,%ymm2,%ymm1
  40502a:	c4 e2 fd b8 d1       	vfmadd231pd %ymm1,%ymm0,%ymm2
  40502f:	c4 e2 f5 b8 c2       	vfmadd231pd %ymm2,%ymm1,%ymm0
  405034:	c4 e2 ed b8 c8       	vfmadd231pd %ymm0,%ymm2,%ymm1
  405039:	c4 e2 fd b8 d1       	vfmadd231pd %ymm1,%ymm0,%ymm2
  40503e:	c4 e2 f5 b8 c2       	vfmadd231pd %ymm2,%ymm1,%ymm0
  405043:	c4 e2 ed b8 c8       	vfmadd231pd %ymm0,%ymm2,%ymm1
  405048:	c4 e2 fd b8 d1       	vfmadd231pd %ymm1,%ymm0,%ymm2
  40504d:	c4 e2 f5 b8 c2       	vfmadd231pd %ymm2,%ymm1,%ymm0
  405052:	c4 e2 ed b8 c8       	vfmadd231pd %ymm0,%ymm2,%ymm1
  405057:	c4 e2 fd b8 d1       	vfmadd231pd %ymm1,%ymm0,%ymm2
  40505c:	c4 e2 f5 b8 c2       	vfmadd231pd %ymm2,%ymm1,%ymm0
  405061:	c4 e2 ed b8 c8       	vfmadd231pd %ymm0,%ymm2,%ymm1
  405066:	c4 e2 fd b8 d1       	vfmadd231pd %ymm1,%ymm0,%ymm2
  40506b:	c4 e2 f5 b8 c2       	vfmadd231pd %ymm2,%ymm1,%ymm0
  405070:	c4 e2 ed b8 c8       	vfmadd231pd %ymm0,%ymm2,%ymm1
  405075:	c4 e2 fd b8 d1       	vfmadd231pd %ymm1,%ymm0,%ymm2
  40507a:	c4 e2 f5 b8 c2       	vfmadd231pd %ymm2,%ymm1,%ymm0
  40507f:	c4 e2 ed b8 c8       	vfmadd231pd %ymm0,%ymm2,%ymm1
  405084:	c4 e2 fd b8 d1       	vfmadd231pd %ymm1,%ymm0,%ymm2
  405089:	c4 e2 f5 b8 c2       	vfmadd231pd %ymm2,%ymm1,%ymm0
  40508e:	c4 e2 ed b8 c8       	vfmadd231pd %ymm0,%ymm2,%ymm1
  405093:	c4 e2 fd b8 d1       	vfmadd231pd %ymm1,%ymm0,%ymm2
  405098:	c4 e2 f5 b8 c2       	vfmadd231pd %ymm2,%ymm1,%ymm0
  40509d:	c4 e2 ed b8 c8       	vfmadd231pd %ymm0,%ymm2,%ymm1
  4050a2:	c4 e2 fd b8 d1       	vfmadd231pd %ymm1,%ymm0,%ymm2
  4050a7:	c4 e2 f5 b8 c2       	vfmadd231pd %ymm2,%ymm1,%ymm0
  4050ac:	c4 e2 ed b8 c8       	vfmadd231pd %ymm0,%ymm2,%ymm1
  4050b1:	c4 e2 fd b8 d1       	vfmadd231pd %ymm1,%ymm0,%ymm2
  4050b6:	c4 e2 f5 b8 c2       	vfmadd231pd %ymm2,%ymm1,%ymm0
  4050bb:	c4 e2 ed b8 c8       	vfmadd231pd %ymm0,%ymm2,%ymm1
  4050c0:	c4 e2 fd b8 d1       	vfmadd231pd %ymm1,%ymm0,%ymm2
  4050c5:	c4 e2 f5 b8 c2       	vfmadd231pd %ymm2,%ymm1,%ymm0
  4050ca:	c4 e2 ed b8 c8       	vfmadd231pd %ymm0,%ymm2,%ymm1
  4050cf:	c4 e2 fd b8 d1       	vfmadd231pd %ymm1,%ymm0,%ymm2
  4050d4:	c4 e2 f5 b8 c2       	vfmadd231pd %ymm2,%ymm1,%ymm0
  4050d9:	c4 e2 ed b8 c8       	vfmadd231pd %ymm0,%ymm2,%ymm1
  4050de:	c4 e2 fd b8 d1       	vfmadd231pd %ymm1,%ymm0,%ymm2
  4050e3:	c4 e2 f5 b8 c2       	vfmadd231pd %ymm2,%ymm1,%ymm0
  4050e8:	c4 e2 ed b8 c8       	vfmadd231pd %ymm0,%ymm2,%ymm1
  4050ed:	c4 e2 fd b8 d1       	vfmadd231pd %ymm1,%ymm0,%ymm2
  4050f2:	c4 e2 f5 b8 c2       	vfmadd231pd %ymm2,%ymm1,%ymm0
  4050f7:	c4 e2 ed b8 c8       	vfmadd231pd %ymm0,%ymm2,%ymm1
  4050fc:	c4 e2 fd b8 d1       	vfmadd231pd %ymm1,%ymm0,%ymm2
  405101:	c4 e2 f5 b8 c2       	vfmadd231pd %ymm2,%ymm1,%ymm0
  405106:	c4 e2 ed b8 c8       	vfmadd231pd %ymm0,%ymm2,%ymm1
  40510b:	c4 e2 fd b8 d1       	vfmadd231pd %ymm1,%ymm0,%ymm2
  405110:	c4 e2 f5 b8 c2       	vfmadd231pd %ymm2,%ymm1,%ymm0
  405115:	c4 e2 ed b8 c8       	vfmadd231pd %ymm0,%ymm2,%ymm1
  40511a:	c4 e2 fd b8 d1       	vfmadd231pd %ymm1,%ymm0,%ymm2
  40511f:	c4 e2 f5 b8 c2       	vfmadd231pd %ymm2,%ymm1,%ymm0
  405124:	c4 e2 ed b8 c8       	vfmadd231pd %ymm0,%ymm2,%ymm1
  405129:	c4 e2 fd b8 d1       	vfmadd231pd %ymm1,%ymm0,%ymm2
  40512e:	c4 e2 f5 b8 c2       	vfmadd231pd %ymm2,%ymm1,%ymm0
  405133:	c4 e2 ed b8 c8       	vfmadd231pd %ymm0,%ymm2,%ymm1
  405138:	c4 e2 fd b8 d1       	vfmadd231pd %ymm1,%ymm0,%ymm2
  40513d:	c4 e2 f5 b8 c2       	vfmadd231pd %ymm2,%ymm1,%ymm0
  405142:	c4 e2 ed b8 c8       	vfmadd231pd %ymm0,%ymm2,%ymm1
  405147:	c4 e2 fd b8 d1       	vfmadd231pd %ymm1,%ymm0,%ymm2
  40514c:	c4 e2 f5 b8 c2       	vfmadd231pd %ymm2,%ymm1,%ymm0
  405151:	c4 e2 ed b8 c8       	vfmadd231pd %ymm0,%ymm2,%ymm1
  405156:	c4 e2 fd b8 d1       	vfmadd231pd %ymm1,%ymm0,%ymm2
  40515b:	c4 e2 f5 b8 c2       	vfmadd231pd %ymm2,%ymm1,%ymm0
  405160:	c4 e2 ed b8 c8       	vfmadd231pd %ymm0,%ymm2,%ymm1
  405165:	c4 e2 fd b8 d1       	vfmadd231pd %ymm1,%ymm0,%ymm2
  40516a:	c4 e2 f5 b8 c2       	vfmadd231pd %ymm2,%ymm1,%ymm0
  40516f:	c4 e2 ed b8 c8       	vfmadd231pd %ymm0,%ymm2,%ymm1
  405174:	c4 e2 fd b8 d1       	vfmadd231pd %ymm1,%ymm0,%ymm2
  405179:	c4 e2 f5 b8 c2       	vfmadd231pd %ymm2,%ymm1,%ymm0
  40517e:	c4 e2 ed b8 c8       	vfmadd231pd %ymm0,%ymm2,%ymm1
  405183:	c4 e2 fd b8 d1       	vfmadd231pd %ymm1,%ymm0,%ymm2
  405188:	c4 e2 f5 b8 c2       	vfmadd231pd %ymm2,%ymm1,%ymm0
  40518d:	c4 e2 ed b8 c8       	vfmadd231pd %ymm0,%ymm2,%ymm1
  405192:	c4 e2 fd b8 d1       	vfmadd231pd %ymm1,%ymm0,%ymm2
  405197:	c4 e2 f5 b8 c2       	vfmadd231pd %ymm2,%ymm1,%ymm0
  40519c:	c4 e2 ed b8 c8       	vfmadd231pd %ymm0,%ymm2,%ymm1
  4051a1:	c4 e2 fd b8 d1       	vfmadd231pd %ymm1,%ymm0,%ymm2
  4051a6:	c4 e2 f5 b8 c2       	vfmadd231pd %ymm2,%ymm1,%ymm0
  4051ab:	c4 e2 ed b8 c8       	vfmadd231pd %ymm0,%ymm2,%ymm1
  4051b0:	c4 e2 fd b8 d1       	vfmadd231pd %ymm1,%ymm0,%ymm2
  4051b5:	c4 e2 f5 b8 c2       	vfmadd231pd %ymm2,%ymm1,%ymm0
  4051ba:	c4 e2 ed b8 c8       	vfmadd231pd %ymm0,%ymm2,%ymm1
  4051bf:	c4 e2 fd b8 d1       	vfmadd231pd %ymm1,%ymm0,%ymm2
  4051c4:	c4 e2 f5 b8 c2       	vfmadd231pd %ymm2,%ymm1,%ymm0
  4051c9:	c4 e2 ed b8 c8       	vfmadd231pd %ymm0,%ymm2,%ymm1
  4051ce:	c4 e2 fd b8 d1       	vfmadd231pd %ymm1,%ymm0,%ymm2
  4051d3:	c4 e2 f5 b8 c2       	vfmadd231pd %ymm2,%ymm1,%ymm0
  4051d8:	c4 e2 ed b8 c8       	vfmadd231pd %ymm0,%ymm2,%ymm1
  4051dd:	c4 e2 fd b8 d1       	vfmadd231pd %ymm1,%ymm0,%ymm2
  4051e2:	c4 e2 f5 b8 c2       	vfmadd231pd %ymm2,%ymm1,%ymm0
  4051e7:	c4 e2 ed b8 c8       	vfmadd231pd %ymm0,%ymm2,%ymm1
  4051ec:	c4 e2 fd b8 d1       	vfmadd231pd %ymm1,%ymm0,%ymm2
  4051f1:	c4 e2 f5 b8 c2       	vfmadd231pd %ymm2,%ymm1,%ymm0
  4051f6:	c4 e2 ed b8 c8       	vfmadd231pd %ymm0,%ymm2,%ymm1
  4051fb:	c4 e2 fd b8 d1       	vfmadd231pd %ymm1,%ymm0,%ymm2
  405200:	c4 e2 f5 b8 c2       	vfmadd231pd %ymm2,%ymm1,%ymm0
  405205:	c4 e2 ed b8 c8       	vfmadd231pd %ymm0,%ymm2,%ymm1
  40520a:	c4 e2 fd b8 d1       	vfmadd231pd %ymm1,%ymm0,%ymm2
  40520f:	c4 e2 f5 b8 c2       	vfmadd231pd %ymm2,%ymm1,%ymm0
  405214:	c4 e2 ed b8 c8       	vfmadd231pd %ymm0,%ymm2,%ymm1
  405219:	c4 e2 fd b8 d1       	vfmadd231pd %ymm1,%ymm0,%ymm2
  40521e:	c4 e2 f5 b8 c2       	vfmadd231pd %ymm2,%ymm1,%ymm0
  405223:	c4 e2 ed b8 c8       	vfmadd231pd %ymm0,%ymm2,%ymm1
  405228:	c4 e2 fd b8 d1       	vfmadd231pd %ymm1,%ymm0,%ymm2
  40522d:	c4 e2 f5 b8 c2       	vfmadd231pd %ymm2,%ymm1,%ymm0
  405232:	c4 e2 ed b8 c8       	vfmadd231pd %ymm0,%ymm2,%ymm1
  405237:	c4 e2 fd b8 d1       	vfmadd231pd %ymm1,%ymm0,%ymm2
  40523c:	c4 e2 f5 b8 c2       	vfmadd231pd %ymm2,%ymm1,%ymm0
  405241:	c4 e2 ed b8 c8       	vfmadd231pd %ymm0,%ymm2,%ymm1
  405246:	c4 e2 fd b8 d1       	vfmadd231pd %ymm1,%ymm0,%ymm2
  40524b:	c4 e2 f5 b8 c2       	vfmadd231pd %ymm2,%ymm1,%ymm0
  405250:	c4 e2 ed b8 c8       	vfmadd231pd %ymm0,%ymm2,%ymm1
  405255:	c4 e2 fd b8 d1       	vfmadd231pd %ymm1,%ymm0,%ymm2
  40525a:	c4 e2 f5 b8 c2       	vfmadd231pd %ymm2,%ymm1,%ymm0
  40525f:	c4 e2 ed b8 c8       	vfmadd231pd %ymm0,%ymm2,%ymm1
  405264:	c4 e2 fd b8 d1       	vfmadd231pd %ymm1,%ymm0,%ymm2
  405269:	c4 e2 f5 b8 c2       	vfmadd231pd %ymm2,%ymm1,%ymm0
  40526e:	c4 e2 ed b8 c8       	vfmadd231pd %ymm0,%ymm2,%ymm1
  405273:	c4 e2 fd b8 d1       	vfmadd231pd %ymm1,%ymm0,%ymm2
  405278:	c4 e2 f5 b8 c2       	vfmadd231pd %ymm2,%ymm1,%ymm0
  40527d:	c4 e2 ed b8 c8       	vfmadd231pd %ymm0,%ymm2,%ymm1
  405282:	c4 e2 fd b8 d1       	vfmadd231pd %ymm1,%ymm0,%ymm2
  405287:	c4 e2 f5 b8 c2       	vfmadd231pd %ymm2,%ymm1,%ymm0
  40528c:	c4 e2 ed b8 c8       	vfmadd231pd %ymm0,%ymm2,%ymm1
  405291:	c4 e2 fd b8 d1       	vfmadd231pd %ymm1,%ymm0,%ymm2
  405296:	c4 e2 f5 b8 c2       	vfmadd231pd %ymm2,%ymm1,%ymm0
  40529b:	c4 e2 ed b8 c8       	vfmadd231pd %ymm0,%ymm2,%ymm1
  4052a0:	c4 e2 fd b8 d1       	vfmadd231pd %ymm1,%ymm0,%ymm2
  4052a5:	c4 e2 f5 b8 c2       	vfmadd231pd %ymm2,%ymm1,%ymm0
  4052aa:	c4 e2 ed b8 c8       	vfmadd231pd %ymm0,%ymm2,%ymm1
  4052af:	c4 e2 fd b8 d1       	vfmadd231pd %ymm1,%ymm0,%ymm2
  4052b4:	c4 e2 f5 b8 c2       	vfmadd231pd %ymm2,%ymm1,%ymm0
  4052b9:	c4 e2 ed b8 c8       	vfmadd231pd %ymm0,%ymm2,%ymm1
  4052be:	c4 e2 fd b8 d1       	vfmadd231pd %ymm1,%ymm0,%ymm2
  4052c3:	c4 e2 f5 b8 c2       	vfmadd231pd %ymm2,%ymm1,%ymm0
  4052c8:	c4 e2 ed b8 c8       	vfmadd231pd %ymm0,%ymm2,%ymm1
  4052cd:	c4 e2 fd b8 d1       	vfmadd231pd %ymm1,%ymm0,%ymm2
  4052d2:	c4 e2 f5 b8 c2       	vfmadd231pd %ymm2,%ymm1,%ymm0
  4052d7:	c4 e2 ed b8 c8       	vfmadd231pd %ymm0,%ymm2,%ymm1
  4052dc:	c4 e2 fd b8 d1       	vfmadd231pd %ymm1,%ymm0,%ymm2
  4052e1:	c4 e2 f5 b8 c2       	vfmadd231pd %ymm2,%ymm1,%ymm0
  4052e6:	c4 e2 ed b8 c8       	vfmadd231pd %ymm0,%ymm2,%ymm1
  4052eb:	c4 e2 fd b8 d1       	vfmadd231pd %ymm1,%ymm0,%ymm2
  4052f0:	c4 e2 f5 b8 c2       	vfmadd231pd %ymm2,%ymm1,%ymm0
  4052f5:	c4 e2 ed b8 c8       	vfmadd231pd %ymm0,%ymm2,%ymm1
  4052fa:	c4 e2 fd b8 d1       	vfmadd231pd %ymm1,%ymm0,%ymm2
  4052ff:	c4 e2 f5 b8 c2       	vfmadd231pd %ymm2,%ymm1,%ymm0
  405304:	c4 e2 ed b8 c8       	vfmadd231pd %ymm0,%ymm2,%ymm1
