
latency_simd_fma.x:     file format elf64-x86-64


Disassembly of section .init:

0000000000400468 <_init>:
  400468:	f3 0f 1e fa          	endbr64 
  40046c:	48 83 ec 08          	sub    $0x8,%rsp
  400470:	48 8b 05 79 bb 20 00 	mov    0x20bb79(%rip),%rax        # 60bff0 <__gmon_start__@Base>
  400477:	48 85 c0             	test   %rax,%rax
  40047a:	74 02                	je     40047e <_init+0x16>
  40047c:	ff d0                	callq  *%rax
  40047e:	48 83 c4 08          	add    $0x8,%rsp
  400482:	c3                   	retq   

Disassembly of section .plt:

0000000000400490 <.plt>:
  400490:	ff 35 72 bb 20 00    	pushq  0x20bb72(%rip)        # 60c008 <_GLOBAL_OFFSET_TABLE_+0x8>
  400496:	ff 25 74 bb 20 00    	jmpq   *0x20bb74(%rip)        # 60c010 <_GLOBAL_OFFSET_TABLE_+0x10>
  40049c:	0f 1f 40 00          	nopl   0x0(%rax)

00000000004004a0 <printf@plt>:
  4004a0:	ff 25 72 bb 20 00    	jmpq   *0x20bb72(%rip)        # 60c018 <printf@GLIBC_2.2.5>
  4004a6:	68 00 00 00 00       	pushq  $0x0
  4004ab:	e9 e0 ff ff ff       	jmpq   400490 <.plt>

Disassembly of section .text:

00000000004004b0 <main>:
  4004b0:	4c 8d 54 24 08       	lea    0x8(%rsp),%r10
  4004b5:	48 83 e4 e0          	and    $0xffffffffffffffe0,%rsp
  4004b9:	bf 64 00 00 00       	mov    $0x64,%edi
  4004be:	c5 fd 28 05 5a b2 00 	vmovapd 0xb25a(%rip),%ymm0        # 40b720 <__dso_handle+0x58>
  4004c5:	00 
  4004c6:	41 ff 72 f8          	pushq  -0x8(%r10)
  4004ca:	55                   	push   %rbp
  4004cb:	c5 fd 28 c8          	vmovapd %ymm0,%ymm1
  4004cf:	c5 fd 28 d0          	vmovapd %ymm0,%ymm2
  4004d3:	48 89 e5             	mov    %rsp,%rbp
  4004d6:	41 52                	push   %r10
  4004d8:	53                   	push   %rbx
  4004d9:	31 db                	xor    %ebx,%ebx
  4004db:	0f 1f 44 00 00       	nopl   0x0(%rax,%rax,1)
  4004e0:	0f 31                	rdtsc  
  4004e2:	89 d1                	mov    %edx,%ecx
  4004e4:	89 c6                	mov    %eax,%esi
  4004e6:	c4 e2 f5 b8 c2       	vfmadd231pd %ymm2,%ymm1,%ymm0
  4004eb:	c4 e2 ed b8 c8       	vfmadd231pd %ymm0,%ymm2,%ymm1
  4004f0:	c4 e2 fd b8 d1       	vfmadd231pd %ymm1,%ymm0,%ymm2
  4004f5:	c4 e2 f5 b8 c2       	vfmadd231pd %ymm2,%ymm1,%ymm0
  4004fa:	c4 e2 ed b8 c8       	vfmadd231pd %ymm0,%ymm2,%ymm1
  4004ff:	c4 e2 fd b8 d1       	vfmadd231pd %ymm1,%ymm0,%ymm2
  400504:	c4 e2 f5 b8 c2       	vfmadd231pd %ymm2,%ymm1,%ymm0
  400509:	c4 e2 ed b8 c8       	vfmadd231pd %ymm0,%ymm2,%ymm1
  40050e:	c4 e2 fd b8 d1       	vfmadd231pd %ymm1,%ymm0,%ymm2
  400513:	c4 e2 f5 b8 c2       	vfmadd231pd %ymm2,%ymm1,%ymm0
  400518:	c4 e2 ed b8 c8       	vfmadd231pd %ymm0,%ymm2,%ymm1
  40051d:	c4 e2 fd b8 d1       	vfmadd231pd %ymm1,%ymm0,%ymm2
  400522:	c4 e2 f5 b8 c2       	vfmadd231pd %ymm2,%ymm1,%ymm0
  400527:	c4 e2 ed b8 c8       	vfmadd231pd %ymm0,%ymm2,%ymm1
  40052c:	c4 e2 fd b8 d1       	vfmadd231pd %ymm1,%ymm0,%ymm2
  400531:	c4 e2 f5 b8 c2       	vfmadd231pd %ymm2,%ymm1,%ymm0
  400536:	c4 e2 ed b8 c8       	vfmadd231pd %ymm0,%ymm2,%ymm1
  40053b:	c4 e2 fd b8 d1       	vfmadd231pd %ymm1,%ymm0,%ymm2
  400540:	c4 e2 f5 b8 c2       	vfmadd231pd %ymm2,%ymm1,%ymm0
  400545:	c4 e2 ed b8 c8       	vfmadd231pd %ymm0,%ymm2,%ymm1
  40054a:	c4 e2 fd b8 d1       	vfmadd231pd %ymm1,%ymm0,%ymm2
  40054f:	c4 e2 f5 b8 c2       	vfmadd231pd %ymm2,%ymm1,%ymm0
  400554:	c4 e2 ed b8 c8       	vfmadd231pd %ymm0,%ymm2,%ymm1
  400559:	c4 e2 fd b8 d1       	vfmadd231pd %ymm1,%ymm0,%ymm2
  40055e:	c4 e2 f5 b8 c2       	vfmadd231pd %ymm2,%ymm1,%ymm0
  400563:	c4 e2 ed b8 c8       	vfmadd231pd %ymm0,%ymm2,%ymm1
  400568:	c4 e2 fd b8 d1       	vfmadd231pd %ymm1,%ymm0,%ymm2
  40056d:	c4 e2 f5 b8 c2       	vfmadd231pd %ymm2,%ymm1,%ymm0
  400572:	c4 e2 ed b8 c8       	vfmadd231pd %ymm0,%ymm2,%ymm1
  400577:	c4 e2 fd b8 d1       	vfmadd231pd %ymm1,%ymm0,%ymm2
  40057c:	c4 e2 f5 b8 c2       	vfmadd231pd %ymm2,%ymm1,%ymm0
  400581:	c4 e2 ed b8 c8       	vfmadd231pd %ymm0,%ymm2,%ymm1
  400586:	c4 e2 fd b8 d1       	vfmadd231pd %ymm1,%ymm0,%ymm2
  40058b:	c4 e2 f5 b8 c2       	vfmadd231pd %ymm2,%ymm1,%ymm0
  400590:	c4 e2 ed b8 c8       	vfmadd231pd %ymm0,%ymm2,%ymm1
  400595:	c4 e2 fd b8 d1       	vfmadd231pd %ymm1,%ymm0,%ymm2
  40059a:	c4 e2 f5 b8 c2       	vfmadd231pd %ymm2,%ymm1,%ymm0
  40059f:	c4 e2 ed b8 c8       	vfmadd231pd %ymm0,%ymm2,%ymm1
  4005a4:	c4 e2 fd b8 d1       	vfmadd231pd %ymm1,%ymm0,%ymm2
  4005a9:	c4 e2 f5 b8 c2       	vfmadd231pd %ymm2,%ymm1,%ymm0
  4005ae:	c4 e2 ed b8 c8       	vfmadd231pd %ymm0,%ymm2,%ymm1
  4005b3:	c4 e2 fd b8 d1       	vfmadd231pd %ymm1,%ymm0,%ymm2
  4005b8:	c4 e2 f5 b8 c2       	vfmadd231pd %ymm2,%ymm1,%ymm0
  4005bd:	c4 e2 ed b8 c8       	vfmadd231pd %ymm0,%ymm2,%ymm1
  4005c2:	c4 e2 fd b8 d1       	vfmadd231pd %ymm1,%ymm0,%ymm2
  4005c7:	c4 e2 f5 b8 c2       	vfmadd231pd %ymm2,%ymm1,%ymm0
  4005cc:	c4 e2 ed b8 c8       	vfmadd231pd %ymm0,%ymm2,%ymm1
  4005d1:	c4 e2 fd b8 d1       	vfmadd231pd %ymm1,%ymm0,%ymm2
  4005d6:	c4 e2 f5 b8 c2       	vfmadd231pd %ymm2,%ymm1,%ymm0
  4005db:	c4 e2 ed b8 c8       	vfmadd231pd %ymm0,%ymm2,%ymm1
  4005e0:	c4 e2 fd b8 d1       	vfmadd231pd %ymm1,%ymm0,%ymm2
  4005e5:	c4 e2 f5 b8 c2       	vfmadd231pd %ymm2,%ymm1,%ymm0
  4005ea:	c4 e2 ed b8 c8       	vfmadd231pd %ymm0,%ymm2,%ymm1
  4005ef:	c4 e2 fd b8 d1       	vfmadd231pd %ymm1,%ymm0,%ymm2
  4005f4:	c4 e2 f5 b8 c2       	vfmadd231pd %ymm2,%ymm1,%ymm0
  4005f9:	c4 e2 ed b8 c8       	vfmadd231pd %ymm0,%ymm2,%ymm1
  4005fe:	c4 e2 fd b8 d1       	vfmadd231pd %ymm1,%ymm0,%ymm2
  400603:	c4 e2 f5 b8 c2       	vfmadd231pd %ymm2,%ymm1,%ymm0
  400608:	c4 e2 ed b8 c8       	vfmadd231pd %ymm0,%ymm2,%ymm1
  40060d:	c4 e2 fd b8 d1       	vfmadd231pd %ymm1,%ymm0,%ymm2
  400612:	c4 e2 f5 b8 c2       	vfmadd231pd %ymm2,%ymm1,%ymm0
  400617:	c4 e2 ed b8 c8       	vfmadd231pd %ymm0,%ymm2,%ymm1
  40061c:	c4 e2 fd b8 d1       	vfmadd231pd %ymm1,%ymm0,%ymm2
  400621:	c4 e2 f5 b8 c2       	vfmadd231pd %ymm2,%ymm1,%ymm0
  400626:	c4 e2 ed b8 c8       	vfmadd231pd %ymm0,%ymm2,%ymm1
  40062b:	c4 e2 fd b8 d1       	vfmadd231pd %ymm1,%ymm0,%ymm2
  400630:	c4 e2 f5 b8 c2       	vfmadd231pd %ymm2,%ymm1,%ymm0
  400635:	c4 e2 ed b8 c8       	vfmadd231pd %ymm0,%ymm2,%ymm1
  40063a:	c4 e2 fd b8 d1       	vfmadd231pd %ymm1,%ymm0,%ymm2
  40063f:	c4 e2 f5 b8 c2       	vfmadd231pd %ymm2,%ymm1,%ymm0
  400644:	c4 e2 ed b8 c8       	vfmadd231pd %ymm0,%ymm2,%ymm1
  400649:	c4 e2 fd b8 d1       	vfmadd231pd %ymm1,%ymm0,%ymm2
  40064e:	c4 e2 f5 b8 c2       	vfmadd231pd %ymm2,%ymm1,%ymm0
  400653:	c4 e2 ed b8 c8       	vfmadd231pd %ymm0,%ymm2,%ymm1
  400658:	c4 e2 fd b8 d1       	vfmadd231pd %ymm1,%ymm0,%ymm2
  40065d:	c4 e2 f5 b8 c2       	vfmadd231pd %ymm2,%ymm1,%ymm0
  400662:	c4 e2 ed b8 c8       	vfmadd231pd %ymm0,%ymm2,%ymm1
  400667:	c4 e2 fd b8 d1       	vfmadd231pd %ymm1,%ymm0,%ymm2
  40066c:	c4 e2 f5 b8 c2       	vfmadd231pd %ymm2,%ymm1,%ymm0
  400671:	c4 e2 ed b8 c8       	vfmadd231pd %ymm0,%ymm2,%ymm1
  400676:	c4 e2 fd b8 d1       	vfmadd231pd %ymm1,%ymm0,%ymm2
  40067b:	c4 e2 f5 b8 c2       	vfmadd231pd %ymm2,%ymm1,%ymm0
  400680:	c4 e2 ed b8 c8       	vfmadd231pd %ymm0,%ymm2,%ymm1
  400685:	c4 e2 fd b8 d1       	vfmadd231pd %ymm1,%ymm0,%ymm2
  40068a:	c4 e2 f5 b8 c2       	vfmadd231pd %ymm2,%ymm1,%ymm0
  40068f:	c4 e2 ed b8 c8       	vfmadd231pd %ymm0,%ymm2,%ymm1
  400694:	c4 e2 fd b8 d1       	vfmadd231pd %ymm1,%ymm0,%ymm2
  400699:	c4 e2 f5 b8 c2       	vfmadd231pd %ymm2,%ymm1,%ymm0
  40069e:	c4 e2 ed b8 c8       	vfmadd231pd %ymm0,%ymm2,%ymm1
  4006a3:	c4 e2 fd b8 d1       	vfmadd231pd %ymm1,%ymm0,%ymm2
  4006a8:	c4 e2 f5 b8 c2       	vfmadd231pd %ymm2,%ymm1,%ymm0
  4006ad:	c4 e2 ed b8 c8       	vfmadd231pd %ymm0,%ymm2,%ymm1
  4006b2:	c4 e2 fd b8 d1       	vfmadd231pd %ymm1,%ymm0,%ymm2
  4006b7:	c4 e2 f5 b8 c2       	vfmadd231pd %ymm2,%ymm1,%ymm0
  4006bc:	c4 e2 ed b8 c8       	vfmadd231pd %ymm0,%ymm2,%ymm1
  4006c1:	c4 e2 fd b8 d1       	vfmadd231pd %ymm1,%ymm0,%ymm2
  4006c6:	c4 e2 f5 b8 c2       	vfmadd231pd %ymm2,%ymm1,%ymm0
  4006cb:	c4 e2 ed b8 c8       	vfmadd231pd %ymm0,%ymm2,%ymm1
  4006d0:	c4 e2 fd b8 d1       	vfmadd231pd %ymm1,%ymm0,%ymm2
  4006d5:	c4 e2 f5 b8 c2       	vfmadd231pd %ymm2,%ymm1,%ymm0
  4006da:	c4 e2 ed b8 c8       	vfmadd231pd %ymm0,%ymm2,%ymm1
  4006df:	c4 e2 fd b8 d1       	vfmadd231pd %ymm1,%ymm0,%ymm2
  4006e4:	c4 e2 f5 b8 c2       	vfmadd231pd %ymm2,%ymm1,%ymm0
  4006e9:	c4 e2 ed b8 c8       	vfmadd231pd %ymm0,%ymm2,%ymm1
  4006ee:	c4 e2 fd b8 d1       	vfmadd231pd %ymm1,%ymm0,%ymm2
  4006f3:	c4 e2 f5 b8 c2       	vfmadd231pd %ymm2,%ymm1,%ymm0
  4006f8:	c4 e2 ed b8 c8       	vfmadd231pd %ymm0,%ymm2,%ymm1
  4006fd:	c4 e2 fd b8 d1       	vfmadd231pd %ymm1,%ymm0,%ymm2
  400702:	c4 e2 f5 b8 c2       	vfmadd231pd %ymm2,%ymm1,%ymm0
  400707:	c4 e2 ed b8 c8       	vfmadd231pd %ymm0,%ymm2,%ymm1
  40070c:	c4 e2 fd b8 d1       	vfmadd231pd %ymm1,%ymm0,%ymm2
  400711:	c4 e2 f5 b8 c2       	vfmadd231pd %ymm2,%ymm1,%ymm0
  400716:	c4 e2 ed b8 c8       	vfmadd231pd %ymm0,%ymm2,%ymm1
  40071b:	c4 e2 fd b8 d1       	vfmadd231pd %ymm1,%ymm0,%ymm2
  400720:	c4 e2 f5 b8 c2       	vfmadd231pd %ymm2,%ymm1,%ymm0
  400725:	c4 e2 ed b8 c8       	vfmadd231pd %ymm0,%ymm2,%ymm1
  40072a:	c4 e2 fd b8 d1       	vfmadd231pd %ymm1,%ymm0,%ymm2
  40072f:	c4 e2 f5 b8 c2       	vfmadd231pd %ymm2,%ymm1,%ymm0
  400734:	c4 e2 ed b8 c8       	vfmadd231pd %ymm0,%ymm2,%ymm1
  400739:	c4 e2 fd b8 d1       	vfmadd231pd %ymm1,%ymm0,%ymm2
  40073e:	c4 e2 f5 b8 c2       	vfmadd231pd %ymm2,%ymm1,%ymm0
  400743:	c4 e2 ed b8 c8       	vfmadd231pd %ymm0,%ymm2,%ymm1
  400748:	c4 e2 fd b8 d1       	vfmadd231pd %ymm1,%ymm0,%ymm2
  40074d:	c4 e2 f5 b8 c2       	vfmadd231pd %ymm2,%ymm1,%ymm0
  400752:	c4 e2 ed b8 c8       	vfmadd231pd %ymm0,%ymm2,%ymm1
  400757:	c4 e2 fd b8 d1       	vfmadd231pd %ymm1,%ymm0,%ymm2
  40075c:	c4 e2 f5 b8 c2       	vfmadd231pd %ymm2,%ymm1,%ymm0
  400761:	c4 e2 ed b8 c8       	vfmadd231pd %ymm0,%ymm2,%ymm1
  400766:	c4 e2 fd b8 d1       	vfmadd231pd %ymm1,%ymm0,%ymm2
  40076b:	c4 e2 f5 b8 c2       	vfmadd231pd %ymm2,%ymm1,%ymm0
  400770:	c4 e2 ed b8 c8       	vfmadd231pd %ymm0,%ymm2,%ymm1
  400775:	c4 e2 fd b8 d1       	vfmadd231pd %ymm1,%ymm0,%ymm2
  40077a:	c4 e2 f5 b8 c2       	vfmadd231pd %ymm2,%ymm1,%ymm0
  40077f:	c4 e2 ed b8 c8       	vfmadd231pd %ymm0,%ymm2,%ymm1
  400784:	c4 e2 fd b8 d1       	vfmadd231pd %ymm1,%ymm0,%ymm2
  400789:	c4 e2 f5 b8 c2       	vfmadd231pd %ymm2,%ymm1,%ymm0
  40078e:	c4 e2 ed b8 c8       	vfmadd231pd %ymm0,%ymm2,%ymm1
  400793:	c4 e2 fd b8 d1       	vfmadd231pd %ymm1,%ymm0,%ymm2
  400798:	c4 e2 f5 b8 c2       	vfmadd231pd %ymm2,%ymm1,%ymm0
  40079d:	c4 e2 ed b8 c8       	vfmadd231pd %ymm0,%ymm2,%ymm1
  4007a2:	c4 e2 fd b8 d1       	vfmadd231pd %ymm1,%ymm0,%ymm2
  4007a7:	c4 e2 f5 b8 c2       	vfmadd231pd %ymm2,%ymm1,%ymm0
  4007ac:	c4 e2 ed b8 c8       	vfmadd231pd %ymm0,%ymm2,%ymm1
  4007b1:	c4 e2 fd b8 d1       	vfmadd231pd %ymm1,%ymm0,%ymm2
  4007b6:	c4 e2 f5 b8 c2       	vfmadd231pd %ymm2,%ymm1,%ymm0
  4007bb:	c4 e2 ed b8 c8       	vfmadd231pd %ymm0,%ymm2,%ymm1
  4007c0:	c4 e2 fd b8 d1       	vfmadd231pd %ymm1,%ymm0,%ymm2
  4007c5:	c4 e2 f5 b8 c2       	vfmadd231pd %ymm2,%ymm1,%ymm0
  4007ca:	c4 e2 ed b8 c8       	vfmadd231pd %ymm0,%ymm2,%ymm1
  4007cf:	c4 e2 fd b8 d1       	vfmadd231pd %ymm1,%ymm0,%ymm2
  4007d4:	c4 e2 f5 b8 c2       	vfmadd231pd %ymm2,%ymm1,%ymm0
  4007d9:	c4 e2 ed b8 c8       	vfmadd231pd %ymm0,%ymm2,%ymm1
  4007de:	c4 e2 fd b8 d1       	vfmadd231pd %ymm1,%ymm0,%ymm2
  4007e3:	c4 e2 f5 b8 c2       	vfmadd231pd %ymm2,%ymm1,%ymm0
  4007e8:	c4 e2 ed b8 c8       	vfmadd231pd %ymm0,%ymm2,%ymm1
  4007ed:	c4 e2 fd b8 d1       	vfmadd231pd %ymm1,%ymm0,%ymm2
  4007f2:	c4 e2 f5 b8 c2       	vfmadd231pd %ymm2,%ymm1,%ymm0
  4007f7:	c4 e2 ed b8 c8       	vfmadd231pd %ymm0,%ymm2,%ymm1
  4007fc:	c4 e2 fd b8 d1       	vfmadd231pd %ymm1,%ymm0,%ymm2
  400801:	c4 e2 f5 b8 c2       	vfmadd231pd %ymm2,%ymm1,%ymm0
  400806:	c4 e2 ed b8 c8       	vfmadd231pd %ymm0,%ymm2,%ymm1
  40080b:	c4 e2 fd b8 d1       	vfmadd231pd %ymm1,%ymm0,%ymm2
  400810:	c4 e2 f5 b8 c2       	vfmadd231pd %ymm2,%ymm1,%ymm0
  400815:	c4 e2 ed b8 c8       	vfmadd231pd %ymm0,%ymm2,%ymm1
  40081a:	c4 e2 fd b8 d1       	vfmadd231pd %ymm1,%ymm0,%ymm2
  40081f:	c4 e2 f5 b8 c2       	vfmadd231pd %ymm2,%ymm1,%ymm0
  400824:	c4 e2 ed b8 c8       	vfmadd231pd %ymm0,%ymm2,%ymm1
  400829:	c4 e2 fd b8 d1       	vfmadd231pd %ymm1,%ymm0,%ymm2
  40082e:	c4 e2 f5 b8 c2       	vfmadd231pd %ymm2,%ymm1,%ymm0
  400833:	c4 e2 ed b8 c8       	vfmadd231pd %ymm0,%ymm2,%ymm1
  400838:	c4 e2 fd b8 d1       	vfmadd231pd %ymm1,%ymm0,%ymm2
  40083d:	c4 e2 f5 b8 c2       	vfmadd231pd %ymm2,%ymm1,%ymm0
  400842:	c4 e2 ed b8 c8       	vfmadd231pd %ymm0,%ymm2,%ymm1
  400847:	c4 e2 fd b8 d1       	vfmadd231pd %ymm1,%ymm0,%ymm2
  40084c:	c4 e2 f5 b8 c2       	vfmadd231pd %ymm2,%ymm1,%ymm0
  400851:	c4 e2 ed b8 c8       	vfmadd231pd %ymm0,%ymm2,%ymm1
  400856:	c4 e2 fd b8 d1       	vfmadd231pd %ymm1,%ymm0,%ymm2
  40085b:	c4 e2 f5 b8 c2       	vfmadd231pd %ymm2,%ymm1,%ymm0
  400860:	c4 e2 ed b8 c8       	vfmadd231pd %ymm0,%ymm2,%ymm1
  400865:	c4 e2 fd b8 d1       	vfmadd231pd %ymm1,%ymm0,%ymm2
  40086a:	c4 e2 f5 b8 c2       	vfmadd231pd %ymm2,%ymm1,%ymm0
  40086f:	c4 e2 ed b8 c8       	vfmadd231pd %ymm0,%ymm2,%ymm1
  400874:	c4 e2 fd b8 d1       	vfmadd231pd %ymm1,%ymm0,%ymm2
  400879:	c4 e2 f5 b8 c2       	vfmadd231pd %ymm2,%ymm1,%ymm0
  40087e:	c4 e2 ed b8 c8       	vfmadd231pd %ymm0,%ymm2,%ymm1
  400883:	c4 e2 fd b8 d1       	vfmadd231pd %ymm1,%ymm0,%ymm2
  400888:	c4 e2 f5 b8 c2       	vfmadd231pd %ymm2,%ymm1,%ymm0
  40088d:	c4 e2 ed b8 c8       	vfmadd231pd %ymm0,%ymm2,%ymm1
  400892:	c4 e2 fd b8 d1       	vfmadd231pd %ymm1,%ymm0,%ymm2
  400897:	c4 e2 f5 b8 c2       	vfmadd231pd %ymm2,%ymm1,%ymm0
  40089c:	c4 e2 ed b8 c8       	vfmadd231pd %ymm0,%ymm2,%ymm1
  4008a1:	c4 e2 fd b8 d1       	vfmadd231pd %ymm1,%ymm0,%ymm2
  4008a6:	c4 e2 f5 b8 c2       	vfmadd231pd %ymm2,%ymm1,%ymm0
  4008ab:	c4 e2 ed b8 c8       	vfmadd231pd %ymm0,%ymm2,%ymm1
  4008b0:	c4 e2 fd b8 d1       	vfmadd231pd %ymm1,%ymm0,%ymm2
  4008b5:	c4 e2 f5 b8 c2       	vfmadd231pd %ymm2,%ymm1,%ymm0
  4008ba:	c4 e2 ed b8 c8       	vfmadd231pd %ymm0,%ymm2,%ymm1
  4008bf:	c4 e2 fd b8 d1       	vfmadd231pd %ymm1,%ymm0,%ymm2
  4008c4:	c4 e2 f5 b8 c2       	vfmadd231pd %ymm2,%ymm1,%ymm0
  4008c9:	c4 e2 ed b8 c8       	vfmadd231pd %ymm0,%ymm2,%ymm1
  4008ce:	c4 e2 fd b8 d1       	vfmadd231pd %ymm1,%ymm0,%ymm2
  4008d3:	c4 e2 f5 b8 c2       	vfmadd231pd %ymm2,%ymm1,%ymm0
  4008d8:	c4 e2 ed b8 c8       	vfmadd231pd %ymm0,%ymm2,%ymm1
  4008dd:	c4 e2 fd b8 d1       	vfmadd231pd %ymm1,%ymm0,%ymm2
  4008e2:	c4 e2 f5 b8 c2       	vfmadd231pd %ymm2,%ymm1,%ymm0
  4008e7:	c4 e2 ed b8 c8       	vfmadd231pd %ymm0,%ymm2,%ymm1
  4008ec:	c4 e2 fd b8 d1       	vfmadd231pd %ymm1,%ymm0,%ymm2
  4008f1:	c4 e2 f5 b8 c2       	vfmadd231pd %ymm2,%ymm1,%ymm0
  4008f6:	c4 e2 ed b8 c8       	vfmadd231pd %ymm0,%ymm2,%ymm1
  4008fb:	c4 e2 fd b8 d1       	vfmadd231pd %ymm1,%ymm0,%ymm2
  400900:	c4 e2 f5 b8 c2       	vfmadd231pd %ymm2,%ymm1,%ymm0
  400905:	c4 e2 ed b8 c8       	vfmadd231pd %ymm0,%ymm2,%ymm1
  40090a:	c4 e2 fd b8 d1       	vfmadd231pd %ymm1,%ymm0,%ymm2
  40090f:	c4 e2 f5 b8 c2       	vfmadd231pd %ymm2,%ymm1,%ymm0
  400914:	c4 e2 ed b8 c8       	vfmadd231pd %ymm0,%ymm2,%ymm1
  400919:	c4 e2 fd b8 d1       	vfmadd231pd %ymm1,%ymm0,%ymm2
  40091e:	c4 e2 f5 b8 c2       	vfmadd231pd %ymm2,%ymm1,%ymm0
  400923:	c4 e2 ed b8 c8       	vfmadd231pd %ymm0,%ymm2,%ymm1
  400928:	c4 e2 fd b8 d1       	vfmadd231pd %ymm1,%ymm0,%ymm2
  40092d:	c4 e2 f5 b8 c2       	vfmadd231pd %ymm2,%ymm1,%ymm0
  400932:	c4 e2 ed b8 c8       	vfmadd231pd %ymm0,%ymm2,%ymm1
  400937:	c4 e2 fd b8 d1       	vfmadd231pd %ymm1,%ymm0,%ymm2
  40093c:	c4 e2 f5 b8 c2       	vfmadd231pd %ymm2,%ymm1,%ymm0
  400941:	c4 e2 ed b8 c8       	vfmadd231pd %ymm0,%ymm2,%ymm1
  400946:	c4 e2 fd b8 d1       	vfmadd231pd %ymm1,%ymm0,%ymm2
  40094b:	c4 e2 f5 b8 c2       	vfmadd231pd %ymm2,%ymm1,%ymm0
  400950:	c4 e2 ed b8 c8       	vfmadd231pd %ymm0,%ymm2,%ymm1
  400955:	c4 e2 fd b8 d1       	vfmadd231pd %ymm1,%ymm0,%ymm2
  40095a:	c4 e2 f5 b8 c2       	vfmadd231pd %ymm2,%ymm1,%ymm0
  40095f:	c4 e2 ed b8 c8       	vfmadd231pd %ymm0,%ymm2,%ymm1
  400964:	c4 e2 fd b8 d1       	vfmadd231pd %ymm1,%ymm0,%ymm2
  400969:	c4 e2 f5 b8 c2       	vfmadd231pd %ymm2,%ymm1,%ymm0
  40096e:	c4 e2 ed b8 c8       	vfmadd231pd %ymm0,%ymm2,%ymm1
  400973:	c4 e2 fd b8 d1       	vfmadd231pd %ymm1,%ymm0,%ymm2
  400978:	c4 e2 f5 b8 c2       	vfmadd231pd %ymm2,%ymm1,%ymm0
  40097d:	c4 e2 ed b8 c8       	vfmadd231pd %ymm0,%ymm2,%ymm1
  400982:	c4 e2 fd b8 d1       	vfmadd231pd %ymm1,%ymm0,%ymm2
  400987:	c4 e2 f5 b8 c2       	vfmadd231pd %ymm2,%ymm1,%ymm0
  40098c:	c4 e2 ed b8 c8       	vfmadd231pd %ymm0,%ymm2,%ymm1
  400991:	c4 e2 fd b8 d1       	vfmadd231pd %ymm1,%ymm0,%ymm2
  400996:	c4 e2 f5 b8 c2       	vfmadd231pd %ymm2,%ymm1,%ymm0
  40099b:	c4 e2 ed b8 c8       	vfmadd231pd %ymm0,%ymm2,%ymm1
  4009a0:	c4 e2 fd b8 d1       	vfmadd231pd %ymm1,%ymm0,%ymm2
  4009a5:	c4 e2 f5 b8 c2       	vfmadd231pd %ymm2,%ymm1,%ymm0
  4009aa:	c4 e2 ed b8 c8       	vfmadd231pd %ymm0,%ymm2,%ymm1
  4009af:	c4 e2 fd b8 d1       	vfmadd231pd %ymm1,%ymm0,%ymm2
  4009b4:	c4 e2 f5 b8 c2       	vfmadd231pd %ymm2,%ymm1,%ymm0
  4009b9:	c4 e2 ed b8 c8       	vfmadd231pd %ymm0,%ymm2,%ymm1
  4009be:	c4 e2 fd b8 d1       	vfmadd231pd %ymm1,%ymm0,%ymm2
  4009c3:	c4 e2 f5 b8 c2       	vfmadd231pd %ymm2,%ymm1,%ymm0
  4009c8:	c4 e2 ed b8 c8       	vfmadd231pd %ymm0,%ymm2,%ymm1
  4009cd:	c4 e2 fd b8 d1       	vfmadd231pd %ymm1,%ymm0,%ymm2
  4009d2:	c4 e2 f5 b8 c2       	vfmadd231pd %ymm2,%ymm1,%ymm0
  4009d7:	c4 e2 ed b8 c8       	vfmadd231pd %ymm0,%ymm2,%ymm1
  4009dc:	c4 e2 fd b8 d1       	vfmadd231pd %ymm1,%ymm0,%ymm2
  4009e1:	c4 e2 f5 b8 c2       	vfmadd231pd %ymm2,%ymm1,%ymm0
  4009e6:	c4 e2 ed b8 c8       	vfmadd231pd %ymm0,%ymm2,%ymm1
  4009eb:	c4 e2 fd b8 d1       	vfmadd231pd %ymm1,%ymm0,%ymm2
  4009f0:	c4 e2 f5 b8 c2       	vfmadd231pd %ymm2,%ymm1,%ymm0
  4009f5:	c4 e2 ed b8 c8       	vfmadd231pd %ymm0,%ymm2,%ymm1
  4009fa:	c4 e2 fd b8 d1       	vfmadd231pd %ymm1,%ymm0,%ymm2
  4009ff:	c4 e2 f5 b8 c2       	vfmadd231pd %ymm2,%ymm1,%ymm0
  400a04:	c4 e2 ed b8 c8       	vfmadd231pd %ymm0,%ymm2,%ymm1
  400a09:	c4 e2 fd b8 d1       	vfmadd231pd %ymm1,%ymm0,%ymm2
  400a0e:	c4 e2 f5 b8 c2       	vfmadd231pd %ymm2,%ymm1,%ymm0
  400a13:	c4 e2 ed b8 c8       	vfmadd231pd %ymm0,%ymm2,%ymm1
  400a18:	c4 e2 fd b8 d1       	vfmadd231pd %ymm1,%ymm0,%ymm2
  400a1d:	c4 e2 f5 b8 c2       	vfmadd231pd %ymm2,%ymm1,%ymm0
  400a22:	c4 e2 ed b8 c8       	vfmadd231pd %ymm0,%ymm2,%ymm1
  400a27:	c4 e2 fd b8 d1       	vfmadd231pd %ymm1,%ymm0,%ymm2
  400a2c:	c4 e2 f5 b8 c2       	vfmadd231pd %ymm2,%ymm1,%ymm0
  400a31:	c4 e2 ed b8 c8       	vfmadd231pd %ymm0,%ymm2,%ymm1
  400a36:	c4 e2 fd b8 d1       	vfmadd231pd %ymm1,%ymm0,%ymm2
  400a3b:	c4 e2 f5 b8 c2       	vfmadd231pd %ymm2,%ymm1,%ymm0
  400a40:	c4 e2 ed b8 c8       	vfmadd231pd %ymm0,%ymm2,%ymm1
  400a45:	c4 e2 fd b8 d1       	vfmadd231pd %ymm1,%ymm0,%ymm2
  400a4a:	c4 e2 f5 b8 c2       	vfmadd231pd %ymm2,%ymm1,%ymm0
  400a4f:	c4 e2 ed b8 c8       	vfmadd231pd %ymm0,%ymm2,%ymm1
  400a54:	c4 e2 fd b8 d1       	vfmadd231pd %ymm1,%ymm0,%ymm2
  400a59:	c4 e2 f5 b8 c2       	vfmadd231pd %ymm2,%ymm1,%ymm0
  400a5e:	c4 e2 ed b8 c8       	vfmadd231pd %ymm0,%ymm2,%ymm1
  400a63:	c4 e2 fd b8 d1       	vfmadd231pd %ymm1,%ymm0,%ymm2
  400a68:	c4 e2 f5 b8 c2       	vfmadd231pd %ymm2,%ymm1,%ymm0
  400a6d:	c4 e2 ed b8 c8       	vfmadd231pd %ymm0,%ymm2,%ymm1
  400a72:	c4 e2 fd b8 d1       	vfmadd231pd %ymm1,%ymm0,%ymm2
  400a77:	c4 e2 f5 b8 c2       	vfmadd231pd %ymm2,%ymm1,%ymm0
  400a7c:	c4 e2 ed b8 c8       	vfmadd231pd %ymm0,%ymm2,%ymm1
  400a81:	c4 e2 fd b8 d1       	vfmadd231pd %ymm1,%ymm0,%ymm2
  400a86:	c4 e2 f5 b8 c2       	vfmadd231pd %ymm2,%ymm1,%ymm0
  400a8b:	c4 e2 ed b8 c8       	vfmadd231pd %ymm0,%ymm2,%ymm1
  400a90:	c4 e2 fd b8 d1       	vfmadd231pd %ymm1,%ymm0,%ymm2
  400a95:	c4 e2 f5 b8 c2       	vfmadd231pd %ymm2,%ymm1,%ymm0
  400a9a:	c4 e2 ed b8 c8       	vfmadd231pd %ymm0,%ymm2,%ymm1
  400a9f:	c4 e2 fd b8 d1       	vfmadd231pd %ymm1,%ymm0,%ymm2
  400aa4:	c4 e2 f5 b8 c2       	vfmadd231pd %ymm2,%ymm1,%ymm0
  400aa9:	c4 e2 ed b8 c8       	vfmadd231pd %ymm0,%ymm2,%ymm1
  400aae:	c4 e2 fd b8 d1       	vfmadd231pd %ymm1,%ymm0,%ymm2
  400ab3:	c4 e2 f5 b8 c2       	vfmadd231pd %ymm2,%ymm1,%ymm0
  400ab8:	c4 e2 ed b8 c8       	vfmadd231pd %ymm0,%ymm2,%ymm1
  400abd:	c4 e2 fd b8 d1       	vfmadd231pd %ymm1,%ymm0,%ymm2
  400ac2:	c4 e2 f5 b8 c2       	vfmadd231pd %ymm2,%ymm1,%ymm0
  400ac7:	c4 e2 ed b8 c8       	vfmadd231pd %ymm0,%ymm2,%ymm1
  400acc:	c4 e2 fd b8 d1       	vfmadd231pd %ymm1,%ymm0,%ymm2
  400ad1:	c4 e2 f5 b8 c2       	vfmadd231pd %ymm2,%ymm1,%ymm0
  400ad6:	c4 e2 ed b8 c8       	vfmadd231pd %ymm0,%ymm2,%ymm1
  400adb:	c4 e2 fd b8 d1       	vfmadd231pd %ymm1,%ymm0,%ymm2
  400ae0:	c4 e2 f5 b8 c2       	vfmadd231pd %ymm2,%ymm1,%ymm0
  400ae5:	c4 e2 ed b8 c8       	vfmadd231pd %ymm0,%ymm2,%ymm1
  400aea:	c4 e2 fd b8 d1       	vfmadd231pd %ymm1,%ymm0,%ymm2
  400aef:	c4 e2 f5 b8 c2       	vfmadd231pd %ymm2,%ymm1,%ymm0
  400af4:	c4 e2 ed b8 c8       	vfmadd231pd %ymm0,%ymm2,%ymm1
  400af9:	c4 e2 fd b8 d1       	vfmadd231pd %ymm1,%ymm0,%ymm2
  400afe:	c4 e2 f5 b8 c2       	vfmadd231pd %ymm2,%ymm1,%ymm0
  400b03:	c4 e2 ed b8 c8       	vfmadd231pd %ymm0,%ymm2,%ymm1
  400b08:	c4 e2 fd b8 d1       	vfmadd231pd %ymm1,%ymm0,%ymm2
  400b0d:	c4 e2 f5 b8 c2       	vfmadd231pd %ymm2,%ymm1,%ymm0
  400b12:	c4 e2 ed b8 c8       	vfmadd231pd %ymm0,%ymm2,%ymm1
  400b17:	c4 e2 fd b8 d1       	vfmadd231pd %ymm1,%ymm0,%ymm2
  400b1c:	c4 e2 f5 b8 c2       	vfmadd231pd %ymm2,%ymm1,%ymm0
  400b21:	c4 e2 ed b8 c8       	vfmadd231pd %ymm0,%ymm2,%ymm1
  400b26:	c4 e2 fd b8 d1       	vfmadd231pd %ymm1,%ymm0,%ymm2
  400b2b:	c4 e2 f5 b8 c2       	vfmadd231pd %ymm2,%ymm1,%ymm0
  400b30:	c4 e2 ed b8 c8       	vfmadd231pd %ymm0,%ymm2,%ymm1
  400b35:	c4 e2 fd b8 d1       	vfmadd231pd %ymm1,%ymm0,%ymm2
  400b3a:	c4 e2 f5 b8 c2       	vfmadd231pd %ymm2,%ymm1,%ymm0
  400b3f:	c4 e2 ed b8 c8       	vfmadd231pd %ymm0,%ymm2,%ymm1
  400b44:	c4 e2 fd b8 d1       	vfmadd231pd %ymm1,%ymm0,%ymm2
  400b49:	c4 e2 f5 b8 c2       	vfmadd231pd %ymm2,%ymm1,%ymm0
  400b4e:	c4 e2 ed b8 c8       	vfmadd231pd %ymm0,%ymm2,%ymm1
  400b53:	c4 e2 fd b8 d1       	vfmadd231pd %ymm1,%ymm0,%ymm2
  400b58:	c4 e2 f5 b8 c2       	vfmadd231pd %ymm2,%ymm1,%ymm0
  400b5d:	c4 e2 ed b8 c8       	vfmadd231pd %ymm0,%ymm2,%ymm1
  400b62:	c4 e2 fd b8 d1       	vfmadd231pd %ymm1,%ymm0,%ymm2
  400b67:	c4 e2 f5 b8 c2       	vfmadd231pd %ymm2,%ymm1,%ymm0
  400b6c:	c4 e2 ed b8 c8       	vfmadd231pd %ymm0,%ymm2,%ymm1
  400b71:	c4 e2 fd b8 d1       	vfmadd231pd %ymm1,%ymm0,%ymm2
  400b76:	c4 e2 f5 b8 c2       	vfmadd231pd %ymm2,%ymm1,%ymm0
  400b7b:	c4 e2 ed b8 c8       	vfmadd231pd %ymm0,%ymm2,%ymm1
  400b80:	c4 e2 fd b8 d1       	vfmadd231pd %ymm1,%ymm0,%ymm2
  400b85:	c4 e2 f5 b8 c2       	vfmadd231pd %ymm2,%ymm1,%ymm0
  400b8a:	c4 e2 ed b8 c8       	vfmadd231pd %ymm0,%ymm2,%ymm1
  400b8f:	c4 e2 fd b8 d1       	vfmadd231pd %ymm1,%ymm0,%ymm2
  400b94:	c4 e2 f5 b8 c2       	vfmadd231pd %ymm2,%ymm1,%ymm0
  400b99:	c4 e2 ed b8 c8       	vfmadd231pd %ymm0,%ymm2,%ymm1
  400b9e:	c4 e2 fd b8 d1       	vfmadd231pd %ymm1,%ymm0,%ymm2
  400ba3:	c4 e2 f5 b8 c2       	vfmadd231pd %ymm2,%ymm1,%ymm0
  400ba8:	c4 e2 ed b8 c8       	vfmadd231pd %ymm0,%ymm2,%ymm1
  400bad:	c4 e2 fd b8 d1       	vfmadd231pd %ymm1,%ymm0,%ymm2
  400bb2:	c4 e2 f5 b8 c2       	vfmadd231pd %ymm2,%ymm1,%ymm0
  400bb7:	c4 e2 ed b8 c8       	vfmadd231pd %ymm0,%ymm2,%ymm1
  400bbc:	c4 e2 fd b8 d1       	vfmadd231pd %ymm1,%ymm0,%ymm2
  400bc1:	c4 e2 f5 b8 c2       	vfmadd231pd %ymm2,%ymm1,%ymm0
  400bc6:	c4 e2 ed b8 c8       	vfmadd231pd %ymm0,%ymm2,%ymm1
  400bcb:	c4 e2 fd b8 d1       	vfmadd231pd %ymm1,%ymm0,%ymm2
  400bd0:	c4 e2 f5 b8 c2       	vfmadd231pd %ymm2,%ymm1,%ymm0
  400bd5:	c4 e2 ed b8 c8       	vfmadd231pd %ymm0,%ymm2,%ymm1
  400bda:	c4 e2 fd b8 d1       	vfmadd231pd %ymm1,%ymm0,%ymm2
  400bdf:	c4 e2 f5 b8 c2       	vfmadd231pd %ymm2,%ymm1,%ymm0
  400be4:	c4 e2 ed b8 c8       	vfmadd231pd %ymm0,%ymm2,%ymm1
  400be9:	c4 e2 fd b8 d1       	vfmadd231pd %ymm1,%ymm0,%ymm2
  400bee:	c4 e2 f5 b8 c2       	vfmadd231pd %ymm2,%ymm1,%ymm0
  400bf3:	c4 e2 ed b8 c8       	vfmadd231pd %ymm0,%ymm2,%ymm1
  400bf8:	c4 e2 fd b8 d1       	vfmadd231pd %ymm1,%ymm0,%ymm2
  400bfd:	c4 e2 f5 b8 c2       	vfmadd231pd %ymm2,%ymm1,%ymm0
  400c02:	c4 e2 ed b8 c8       	vfmadd231pd %ymm0,%ymm2,%ymm1
  400c07:	c4 e2 fd b8 d1       	vfmadd231pd %ymm1,%ymm0,%ymm2
  400c0c:	c4 e2 f5 b8 c2       	vfmadd231pd %ymm2,%ymm1,%ymm0
  400c11:	c4 e2 ed b8 c8       	vfmadd231pd %ymm0,%ymm2,%ymm1
  400c16:	c4 e2 fd b8 d1       	vfmadd231pd %ymm1,%ymm0,%ymm2
  400c1b:	c4 e2 f5 b8 c2       	vfmadd231pd %ymm2,%ymm1,%ymm0
  400c20:	c4 e2 ed b8 c8       	vfmadd231pd %ymm0,%ymm2,%ymm1
  400c25:	c4 e2 fd b8 d1       	vfmadd231pd %ymm1,%ymm0,%ymm2
  400c2a:	c4 e2 f5 b8 c2       	vfmadd231pd %ymm2,%ymm1,%ymm0
  400c2f:	c4 e2 ed b8 c8       	vfmadd231pd %ymm0,%ymm2,%ymm1
  400c34:	c4 e2 fd b8 d1       	vfmadd231pd %ymm1,%ymm0,%ymm2
  400c39:	c4 e2 f5 b8 c2       	vfmadd231pd %ymm2,%ymm1,%ymm0
  400c3e:	c4 e2 ed b8 c8       	vfmadd231pd %ymm0,%ymm2,%ymm1
  400c43:	c4 e2 fd b8 d1       	vfmadd231pd %ymm1,%ymm0,%ymm2
  400c48:	c4 e2 f5 b8 c2       	vfmadd231pd %ymm2,%ymm1,%ymm0
  400c4d:	c4 e2 ed b8 c8       	vfmadd231pd %ymm0,%ymm2,%ymm1
  400c52:	c4 e2 fd b8 d1       	vfmadd231pd %ymm1,%ymm0,%ymm2
  400c57:	c4 e2 f5 b8 c2       	vfmadd231pd %ymm2,%ymm1,%ymm0
  400c5c:	c4 e2 ed b8 c8       	vfmadd231pd %ymm0,%ymm2,%ymm1
  400c61:	c4 e2 fd b8 d1       	vfmadd231pd %ymm1,%ymm0,%ymm2
  400c66:	c4 e2 f5 b8 c2       	vfmadd231pd %ymm2,%ymm1,%ymm0
  400c6b:	c4 e2 ed b8 c8       	vfmadd231pd %ymm0,%ymm2,%ymm1
  400c70:	c4 e2 fd b8 d1       	vfmadd231pd %ymm1,%ymm0,%ymm2
  400c75:	c4 e2 f5 b8 c2       	vfmadd231pd %ymm2,%ymm1,%ymm0
  400c7a:	c4 e2 ed b8 c8       	vfmadd231pd %ymm0,%ymm2,%ymm1
  400c7f:	c4 e2 fd b8 d1       	vfmadd231pd %ymm1,%ymm0,%ymm2
  400c84:	c4 e2 f5 b8 c2       	vfmadd231pd %ymm2,%ymm1,%ymm0
  400c89:	c4 e2 ed b8 c8       	vfmadd231pd %ymm0,%ymm2,%ymm1
  400c8e:	c4 e2 fd b8 d1       	vfmadd231pd %ymm1,%ymm0,%ymm2
  400c93:	c4 e2 f5 b8 c2       	vfmadd231pd %ymm2,%ymm1,%ymm0
  400c98:	c4 e2 ed b8 c8       	vfmadd231pd %ymm0,%ymm2,%ymm1
  400c9d:	c4 e2 fd b8 d1       	vfmadd231pd %ymm1,%ymm0,%ymm2
  400ca2:	c4 e2 f5 b8 c2       	vfmadd231pd %ymm2,%ymm1,%ymm0
  400ca7:	c4 e2 ed b8 c8       	vfmadd231pd %ymm0,%ymm2,%ymm1
  400cac:	c4 e2 fd b8 d1       	vfmadd231pd %ymm1,%ymm0,%ymm2
  400cb1:	c4 e2 f5 b8 c2       	vfmadd231pd %ymm2,%ymm1,%ymm0
  400cb6:	c4 e2 ed b8 c8       	vfmadd231pd %ymm0,%ymm2,%ymm1
  400cbb:	c4 e2 fd b8 d1       	vfmadd231pd %ymm1,%ymm0,%ymm2
  400cc0:	c4 e2 f5 b8 c2       	vfmadd231pd %ymm2,%ymm1,%ymm0
  400cc5:	c4 e2 ed b8 c8       	vfmadd231pd %ymm0,%ymm2,%ymm1
  400cca:	c4 e2 fd b8 d1       	vfmadd231pd %ymm1,%ymm0,%ymm2
  400ccf:	c4 e2 f5 b8 c2       	vfmadd231pd %ymm2,%ymm1,%ymm0
  400cd4:	c4 e2 ed b8 c8       	vfmadd231pd %ymm0,%ymm2,%ymm1
  400cd9:	c4 e2 fd b8 d1       	vfmadd231pd %ymm1,%ymm0,%ymm2
  400cde:	c4 e2 f5 b8 c2       	vfmadd231pd %ymm2,%ymm1,%ymm0
  400ce3:	c4 e2 ed b8 c8       	vfmadd231pd %ymm0,%ymm2,%ymm1
  400ce8:	c4 e2 fd b8 d1       	vfmadd231pd %ymm1,%ymm0,%ymm2
  400ced:	c4 e2 f5 b8 c2       	vfmadd231pd %ymm2,%ymm1,%ymm0
  400cf2:	c4 e2 ed b8 c8       	vfmadd231pd %ymm0,%ymm2,%ymm1
  400cf7:	c4 e2 fd b8 d1       	vfmadd231pd %ymm1,%ymm0,%ymm2
  400cfc:	c4 e2 f5 b8 c2       	vfmadd231pd %ymm2,%ymm1,%ymm0
  400d01:	c4 e2 ed b8 c8       	vfmadd231pd %ymm0,%ymm2,%ymm1
  400d06:	c4 e2 fd b8 d1       	vfmadd231pd %ymm1,%ymm0,%ymm2
  400d0b:	c4 e2 f5 b8 c2       	vfmadd231pd %ymm2,%ymm1,%ymm0
  400d10:	c4 e2 ed b8 c8       	vfmadd231pd %ymm0,%ymm2,%ymm1
  400d15:	c4 e2 fd b8 d1       	vfmadd231pd %ymm1,%ymm0,%ymm2
  400d1a:	c4 e2 f5 b8 c2       	vfmadd231pd %ymm2,%ymm1,%ymm0
  400d1f:	c4 e2 ed b8 c8       	vfmadd231pd %ymm0,%ymm2,%ymm1
  400d24:	c4 e2 fd b8 d1       	vfmadd231pd %ymm1,%ymm0,%ymm2
  400d29:	c4 e2 f5 b8 c2       	vfmadd231pd %ymm2,%ymm1,%ymm0
  400d2e:	c4 e2 ed b8 c8       	vfmadd231pd %ymm0,%ymm2,%ymm1
  400d33:	c4 e2 fd b8 d1       	vfmadd231pd %ymm1,%ymm0,%ymm2
  400d38:	c4 e2 f5 b8 c2       	vfmadd231pd %ymm2,%ymm1,%ymm0
  400d3d:	c4 e2 ed b8 c8       	vfmadd231pd %ymm0,%ymm2,%ymm1
  400d42:	c4 e2 fd b8 d1       	vfmadd231pd %ymm1,%ymm0,%ymm2
  400d47:	c4 e2 f5 b8 c2       	vfmadd231pd %ymm2,%ymm1,%ymm0
  400d4c:	c4 e2 ed b8 c8       	vfmadd231pd %ymm0,%ymm2,%ymm1
  400d51:	c4 e2 fd b8 d1       	vfmadd231pd %ymm1,%ymm0,%ymm2
  400d56:	c4 e2 f5 b8 c2       	vfmadd231pd %ymm2,%ymm1,%ymm0
  400d5b:	c4 e2 ed b8 c8       	vfmadd231pd %ymm0,%ymm2,%ymm1
  400d60:	c4 e2 fd b8 d1       	vfmadd231pd %ymm1,%ymm0,%ymm2
  400d65:	c4 e2 f5 b8 c2       	vfmadd231pd %ymm2,%ymm1,%ymm0
  400d6a:	c4 e2 ed b8 c8       	vfmadd231pd %ymm0,%ymm2,%ymm1
  400d6f:	c4 e2 fd b8 d1       	vfmadd231pd %ymm1,%ymm0,%ymm2
  400d74:	c4 e2 f5 b8 c2       	vfmadd231pd %ymm2,%ymm1,%ymm0
  400d79:	c4 e2 ed b8 c8       	vfmadd231pd %ymm0,%ymm2,%ymm1
  400d7e:	c4 e2 fd b8 d1       	vfmadd231pd %ymm1,%ymm0,%ymm2
  400d83:	c4 e2 f5 b8 c2       	vfmadd231pd %ymm2,%ymm1,%ymm0
  400d88:	c4 e2 ed b8 c8       	vfmadd231pd %ymm0,%ymm2,%ymm1
  400d8d:	c4 e2 fd b8 d1       	vfmadd231pd %ymm1,%ymm0,%ymm2
  400d92:	c4 e2 f5 b8 c2       	vfmadd231pd %ymm2,%ymm1,%ymm0
  400d97:	c4 e2 ed b8 c8       	vfmadd231pd %ymm0,%ymm2,%ymm1
  400d9c:	c4 e2 fd b8 d1       	vfmadd231pd %ymm1,%ymm0,%ymm2
  400da1:	c4 e2 f5 b8 c2       	vfmadd231pd %ymm2,%ymm1,%ymm0
  400da6:	c4 e2 ed b8 c8       	vfmadd231pd %ymm0,%ymm2,%ymm1
  400dab:	c4 e2 fd b8 d1       	vfmadd231pd %ymm1,%ymm0,%ymm2
  400db0:	c4 e2 f5 b8 c2       	vfmadd231pd %ymm2,%ymm1,%ymm0
  400db5:	c4 e2 ed b8 c8       	vfmadd231pd %ymm0,%ymm2,%ymm1
  400dba:	c4 e2 fd b8 d1       	vfmadd231pd %ymm1,%ymm0,%ymm2
  400dbf:	c4 e2 f5 b8 c2       	vfmadd231pd %ymm2,%ymm1,%ymm0
  400dc4:	c4 e2 ed b8 c8       	vfmadd231pd %ymm0,%ymm2,%ymm1
  400dc9:	c4 e2 fd b8 d1       	vfmadd231pd %ymm1,%ymm0,%ymm2
  400dce:	c4 e2 f5 b8 c2       	vfmadd231pd %ymm2,%ymm1,%ymm0
  400dd3:	c4 e2 ed b8 c8       	vfmadd231pd %ymm0,%ymm2,%ymm1
  400dd8:	c4 e2 fd b8 d1       	vfmadd231pd %ymm1,%ymm0,%ymm2
  400ddd:	c4 e2 f5 b8 c2       	vfmadd231pd %ymm2,%ymm1,%ymm0
  400de2:	c4 e2 ed b8 c8       	vfmadd231pd %ymm0,%ymm2,%ymm1
  400de7:	c4 e2 fd b8 d1       	vfmadd231pd %ymm1,%ymm0,%ymm2
  400dec:	c4 e2 f5 b8 c2       	vfmadd231pd %ymm2,%ymm1,%ymm0
  400df1:	c4 e2 ed b8 c8       	vfmadd231pd %ymm0,%ymm2,%ymm1
  400df6:	c4 e2 fd b8 d1       	vfmadd231pd %ymm1,%ymm0,%ymm2
  400dfb:	c4 e2 f5 b8 c2       	vfmadd231pd %ymm2,%ymm1,%ymm0
  400e00:	c4 e2 ed b8 c8       	vfmadd231pd %ymm0,%ymm2,%ymm1
  400e05:	c4 e2 fd b8 d1       	vfmadd231pd %ymm1,%ymm0,%ymm2
  400e0a:	c4 e2 f5 b8 c2       	vfmadd231pd %ymm2,%ymm1,%ymm0
  400e0f:	c4 e2 ed b8 c8       	vfmadd231pd %ymm0,%ymm2,%ymm1
  400e14:	c4 e2 fd b8 d1       	vfmadd231pd %ymm1,%ymm0,%ymm2
  400e19:	c4 e2 f5 b8 c2       	vfmadd231pd %ymm2,%ymm1,%ymm0
  400e1e:	c4 e2 ed b8 c8       	vfmadd231pd %ymm0,%ymm2,%ymm1
  400e23:	c4 e2 fd b8 d1       	vfmadd231pd %ymm1,%ymm0,%ymm2
  400e28:	c4 e2 f5 b8 c2       	vfmadd231pd %ymm2,%ymm1,%ymm0
  400e2d:	c4 e2 ed b8 c8       	vfmadd231pd %ymm0,%ymm2,%ymm1
  400e32:	c4 e2 fd b8 d1       	vfmadd231pd %ymm1,%ymm0,%ymm2
  400e37:	c4 e2 f5 b8 c2       	vfmadd231pd %ymm2,%ymm1,%ymm0
  400e3c:	c4 e2 ed b8 c8       	vfmadd231pd %ymm0,%ymm2,%ymm1
  400e41:	c4 e2 fd b8 d1       	vfmadd231pd %ymm1,%ymm0,%ymm2
  400e46:	c4 e2 f5 b8 c2       	vfmadd231pd %ymm2,%ymm1,%ymm0
  400e4b:	c4 e2 ed b8 c8       	vfmadd231pd %ymm0,%ymm2,%ymm1
  400e50:	c4 e2 fd b8 d1       	vfmadd231pd %ymm1,%ymm0,%ymm2
  400e55:	c4 e2 f5 b8 c2       	vfmadd231pd %ymm2,%ymm1,%ymm0
  400e5a:	c4 e2 ed b8 c8       	vfmadd231pd %ymm0,%ymm2,%ymm1
  400e5f:	c4 e2 fd b8 d1       	vfmadd231pd %ymm1,%ymm0,%ymm2
  400e64:	c4 e2 f5 b8 c2       	vfmadd231pd %ymm2,%ymm1,%ymm0
  400e69:	c4 e2 ed b8 c8       	vfmadd231pd %ymm0,%ymm2,%ymm1
  400e6e:	c4 e2 fd b8 d1       	vfmadd231pd %ymm1,%ymm0,%ymm2
  400e73:	c4 e2 f5 b8 c2       	vfmadd231pd %ymm2,%ymm1,%ymm0
  400e78:	c4 e2 ed b8 c8       	vfmadd231pd %ymm0,%ymm2,%ymm1
  400e7d:	c4 e2 fd b8 d1       	vfmadd231pd %ymm1,%ymm0,%ymm2
  400e82:	c4 e2 f5 b8 c2       	vfmadd231pd %ymm2,%ymm1,%ymm0
  400e87:	c4 e2 ed b8 c8       	vfmadd231pd %ymm0,%ymm2,%ymm1
  400e8c:	c4 e2 fd b8 d1       	vfmadd231pd %ymm1,%ymm0,%ymm2
  400e91:	c4 e2 f5 b8 c2       	vfmadd231pd %ymm2,%ymm1,%ymm0
  400e96:	c4 e2 ed b8 c8       	vfmadd231pd %ymm0,%ymm2,%ymm1
  400e9b:	c4 e2 fd b8 d1       	vfmadd231pd %ymm1,%ymm0,%ymm2
  400ea0:	c4 e2 f5 b8 c2       	vfmadd231pd %ymm2,%ymm1,%ymm0
  400ea5:	c4 e2 ed b8 c8       	vfmadd231pd %ymm0,%ymm2,%ymm1
  400eaa:	c4 e2 fd b8 d1       	vfmadd231pd %ymm1,%ymm0,%ymm2
  400eaf:	c4 e2 f5 b8 c2       	vfmadd231pd %ymm2,%ymm1,%ymm0
  400eb4:	c4 e2 ed b8 c8       	vfmadd231pd %ymm0,%ymm2,%ymm1
  400eb9:	c4 e2 fd b8 d1       	vfmadd231pd %ymm1,%ymm0,%ymm2
  400ebe:	c4 e2 f5 b8 c2       	vfmadd231pd %ymm2,%ymm1,%ymm0
  400ec3:	c4 e2 ed b8 c8       	vfmadd231pd %ymm0,%ymm2,%ymm1
  400ec8:	c4 e2 fd b8 d1       	vfmadd231pd %ymm1,%ymm0,%ymm2
  400ecd:	c4 e2 f5 b8 c2       	vfmadd231pd %ymm2,%ymm1,%ymm0
  400ed2:	c4 e2 ed b8 c8       	vfmadd231pd %ymm0,%ymm2,%ymm1
  400ed7:	c4 e2 fd b8 d1       	vfmadd231pd %ymm1,%ymm0,%ymm2
  400edc:	c4 e2 f5 b8 c2       	vfmadd231pd %ymm2,%ymm1,%ymm0
  400ee1:	c4 e2 ed b8 c8       	vfmadd231pd %ymm0,%ymm2,%ymm1
  400ee6:	c4 e2 fd b8 d1       	vfmadd231pd %ymm1,%ymm0,%ymm2
  400eeb:	c4 e2 f5 b8 c2       	vfmadd231pd %ymm2,%ymm1,%ymm0
  400ef0:	c4 e2 ed b8 c8       	vfmadd231pd %ymm0,%ymm2,%ymm1
  400ef5:	c4 e2 fd b8 d1       	vfmadd231pd %ymm1,%ymm0,%ymm2
  400efa:	c4 e2 f5 b8 c2       	vfmadd231pd %ymm2,%ymm1,%ymm0
  400eff:	c4 e2 ed b8 c8       	vfmadd231pd %ymm0,%ymm2,%ymm1
  400f04:	c4 e2 fd b8 d1       	vfmadd231pd %ymm1,%ymm0,%ymm2
  400f09:	c4 e2 f5 b8 c2       	vfmadd231pd %ymm2,%ymm1,%ymm0
  400f0e:	c4 e2 ed b8 c8       	vfmadd231pd %ymm0,%ymm2,%ymm1
  400f13:	c4 e2 fd b8 d1       	vfmadd231pd %ymm1,%ymm0,%ymm2
  400f18:	c4 e2 f5 b8 c2       	vfmadd231pd %ymm2,%ymm1,%ymm0
  400f1d:	c4 e2 ed b8 c8       	vfmadd231pd %ymm0,%ymm2,%ymm1
  400f22:	c4 e2 fd b8 d1       	vfmadd231pd %ymm1,%ymm0,%ymm2
  400f27:	c4 e2 f5 b8 c2       	vfmadd231pd %ymm2,%ymm1,%ymm0
  400f2c:	c4 e2 ed b8 c8       	vfmadd231pd %ymm0,%ymm2,%ymm1
  400f31:	c4 e2 fd b8 d1       	vfmadd231pd %ymm1,%ymm0,%ymm2
  400f36:	c4 e2 f5 b8 c2       	vfmadd231pd %ymm2,%ymm1,%ymm0
  400f3b:	c4 e2 ed b8 c8       	vfmadd231pd %ymm0,%ymm2,%ymm1
  400f40:	c4 e2 fd b8 d1       	vfmadd231pd %ymm1,%ymm0,%ymm2
  400f45:	c4 e2 f5 b8 c2       	vfmadd231pd %ymm2,%ymm1,%ymm0
  400f4a:	c4 e2 ed b8 c8       	vfmadd231pd %ymm0,%ymm2,%ymm1
  400f4f:	c4 e2 fd b8 d1       	vfmadd231pd %ymm1,%ymm0,%ymm2
  400f54:	c4 e2 f5 b8 c2       	vfmadd231pd %ymm2,%ymm1,%ymm0
  400f59:	c4 e2 ed b8 c8       	vfmadd231pd %ymm0,%ymm2,%ymm1
  400f5e:	c4 e2 fd b8 d1       	vfmadd231pd %ymm1,%ymm0,%ymm2
  400f63:	c4 e2 f5 b8 c2       	vfmadd231pd %ymm2,%ymm1,%ymm0
  400f68:	c4 e2 ed b8 c8       	vfmadd231pd %ymm0,%ymm2,%ymm1
  400f6d:	c4 e2 fd b8 d1       	vfmadd231pd %ymm1,%ymm0,%ymm2
  400f72:	c4 e2 f5 b8 c2       	vfmadd231pd %ymm2,%ymm1,%ymm0
  400f77:	c4 e2 ed b8 c8       	vfmadd231pd %ymm0,%ymm2,%ymm1
  400f7c:	c4 e2 fd b8 d1       	vfmadd231pd %ymm1,%ymm0,%ymm2
  400f81:	c4 e2 f5 b8 c2       	vfmadd231pd %ymm2,%ymm1,%ymm0
  400f86:	c4 e2 ed b8 c8       	vfmadd231pd %ymm0,%ymm2,%ymm1
  400f8b:	c4 e2 fd b8 d1       	vfmadd231pd %ymm1,%ymm0,%ymm2
  400f90:	c4 e2 f5 b8 c2       	vfmadd231pd %ymm2,%ymm1,%ymm0
  400f95:	c4 e2 ed b8 c8       	vfmadd231pd %ymm0,%ymm2,%ymm1
  400f9a:	c4 e2 fd b8 d1       	vfmadd231pd %ymm1,%ymm0,%ymm2
  400f9f:	c4 e2 f5 b8 c2       	vfmadd231pd %ymm2,%ymm1,%ymm0
  400fa4:	c4 e2 ed b8 c8       	vfmadd231pd %ymm0,%ymm2,%ymm1
  400fa9:	c4 e2 fd b8 d1       	vfmadd231pd %ymm1,%ymm0,%ymm2
  400fae:	c4 e2 f5 b8 c2       	vfmadd231pd %ymm2,%ymm1,%ymm0
  400fb3:	c4 e2 ed b8 c8       	vfmadd231pd %ymm0,%ymm2,%ymm1
  400fb8:	c4 e2 fd b8 d1       	vfmadd231pd %ymm1,%ymm0,%ymm2
  400fbd:	c4 e2 f5 b8 c2       	vfmadd231pd %ymm2,%ymm1,%ymm0
  400fc2:	c4 e2 ed b8 c8       	vfmadd231pd %ymm0,%ymm2,%ymm1
  400fc7:	c4 e2 fd b8 d1       	vfmadd231pd %ymm1,%ymm0,%ymm2
  400fcc:	c4 e2 f5 b8 c2       	vfmadd231pd %ymm2,%ymm1,%ymm0
  400fd1:	c4 e2 ed b8 c8       	vfmadd231pd %ymm0,%ymm2,%ymm1
  400fd6:	c4 e2 fd b8 d1       	vfmadd231pd %ymm1,%ymm0,%ymm2
  400fdb:	c4 e2 f5 b8 c2       	vfmadd231pd %ymm2,%ymm1,%ymm0
  400fe0:	c4 e2 ed b8 c8       	vfmadd231pd %ymm0,%ymm2,%ymm1
  400fe5:	c4 e2 fd b8 d1       	vfmadd231pd %ymm1,%ymm0,%ymm2
  400fea:	c4 e2 f5 b8 c2       	vfmadd231pd %ymm2,%ymm1,%ymm0
  400fef:	c4 e2 ed b8 c8       	vfmadd231pd %ymm0,%ymm2,%ymm1
  400ff4:	c4 e2 fd b8 d1       	vfmadd231pd %ymm1,%ymm0,%ymm2
  400ff9:	c4 e2 f5 b8 c2       	vfmadd231pd %ymm2,%ymm1,%ymm0
  400ffe:	c4 e2 ed b8 c8       	vfmadd231pd %ymm0,%ymm2,%ymm1
  401003:	c4 e2 fd b8 d1       	vfmadd231pd %ymm1,%ymm0,%ymm2
  401008:	c4 e2 f5 b8 c2       	vfmadd231pd %ymm2,%ymm1,%ymm0
  40100d:	c4 e2 ed b8 c8       	vfmadd231pd %ymm0,%ymm2,%ymm1
  401012:	c4 e2 fd b8 d1       	vfmadd231pd %ymm1,%ymm0,%ymm2
  401017:	c4 e2 f5 b8 c2       	vfmadd231pd %ymm2,%ymm1,%ymm0
  40101c:	c4 e2 ed b8 c8       	vfmadd231pd %ymm0,%ymm2,%ymm1
  401021:	c4 e2 fd b8 d1       	vfmadd231pd %ymm1,%ymm0,%ymm2
  401026:	c4 e2 f5 b8 c2       	vfmadd231pd %ymm2,%ymm1,%ymm0
  40102b:	c4 e2 ed b8 c8       	vfmadd231pd %ymm0,%ymm2,%ymm1
  401030:	c4 e2 fd b8 d1       	vfmadd231pd %ymm1,%ymm0,%ymm2
  401035:	c4 e2 f5 b8 c2       	vfmadd231pd %ymm2,%ymm1,%ymm0
  40103a:	c4 e2 ed b8 c8       	vfmadd231pd %ymm0,%ymm2,%ymm1
  40103f:	c4 e2 fd b8 d1       	vfmadd231pd %ymm1,%ymm0,%ymm2
  401044:	c4 e2 f5 b8 c2       	vfmadd231pd %ymm2,%ymm1,%ymm0
  401049:	c4 e2 ed b8 c8       	vfmadd231pd %ymm0,%ymm2,%ymm1
  40104e:	c4 e2 fd b8 d1       	vfmadd231pd %ymm1,%ymm0,%ymm2
  401053:	c4 e2 f5 b8 c2       	vfmadd231pd %ymm2,%ymm1,%ymm0
  401058:	c4 e2 ed b8 c8       	vfmadd231pd %ymm0,%ymm2,%ymm1
  40105d:	c4 e2 fd b8 d1       	vfmadd231pd %ymm1,%ymm0,%ymm2
  401062:	c4 e2 f5 b8 c2       	vfmadd231pd %ymm2,%ymm1,%ymm0
  401067:	c4 e2 ed b8 c8       	vfmadd231pd %ymm0,%ymm2,%ymm1
  40106c:	c4 e2 fd b8 d1       	vfmadd231pd %ymm1,%ymm0,%ymm2
  401071:	c4 e2 f5 b8 c2       	vfmadd231pd %ymm2,%ymm1,%ymm0
  401076:	c4 e2 ed b8 c8       	vfmadd231pd %ymm0,%ymm2,%ymm1
  40107b:	c4 e2 fd b8 d1       	vfmadd231pd %ymm1,%ymm0,%ymm2
  401080:	c4 e2 f5 b8 c2       	vfmadd231pd %ymm2,%ymm1,%ymm0
  401085:	c4 e2 ed b8 c8       	vfmadd231pd %ymm0,%ymm2,%ymm1
  40108a:	c4 e2 fd b8 d1       	vfmadd231pd %ymm1,%ymm0,%ymm2
  40108f:	c4 e2 f5 b8 c2       	vfmadd231pd %ymm2,%ymm1,%ymm0
  401094:	c4 e2 ed b8 c8       	vfmadd231pd %ymm0,%ymm2,%ymm1
  401099:	c4 e2 fd b8 d1       	vfmadd231pd %ymm1,%ymm0,%ymm2
  40109e:	c4 e2 f5 b8 c2       	vfmadd231pd %ymm2,%ymm1,%ymm0
  4010a3:	c4 e2 ed b8 c8       	vfmadd231pd %ymm0,%ymm2,%ymm1
  4010a8:	c4 e2 fd b8 d1       	vfmadd231pd %ymm1,%ymm0,%ymm2
  4010ad:	c4 e2 f5 b8 c2       	vfmadd231pd %ymm2,%ymm1,%ymm0
  4010b2:	c4 e2 ed b8 c8       	vfmadd231pd %ymm0,%ymm2,%ymm1
  4010b7:	c4 e2 fd b8 d1       	vfmadd231pd %ymm1,%ymm0,%ymm2
  4010bc:	c4 e2 f5 b8 c2       	vfmadd231pd %ymm2,%ymm1,%ymm0
  4010c1:	c4 e2 ed b8 c8       	vfmadd231pd %ymm0,%ymm2,%ymm1
  4010c6:	c4 e2 fd b8 d1       	vfmadd231pd %ymm1,%ymm0,%ymm2
  4010cb:	c4 e2 f5 b8 c2       	vfmadd231pd %ymm2,%ymm1,%ymm0
  4010d0:	c4 e2 ed b8 c8       	vfmadd231pd %ymm0,%ymm2,%ymm1
  4010d5:	c4 e2 fd b8 d1       	vfmadd231pd %ymm1,%ymm0,%ymm2
  4010da:	c4 e2 f5 b8 c2       	vfmadd231pd %ymm2,%ymm1,%ymm0
  4010df:	c4 e2 ed b8 c8       	vfmadd231pd %ymm0,%ymm2,%ymm1
  4010e4:	c4 e2 fd b8 d1       	vfmadd231pd %ymm1,%ymm0,%ymm2
  4010e9:	c4 e2 f5 b8 c2       	vfmadd231pd %ymm2,%ymm1,%ymm0
  4010ee:	c4 e2 ed b8 c8       	vfmadd231pd %ymm0,%ymm2,%ymm1
  4010f3:	c4 e2 fd b8 d1       	vfmadd231pd %ymm1,%ymm0,%ymm2
  4010f8:	c4 e2 f5 b8 c2       	vfmadd231pd %ymm2,%ymm1,%ymm0
  4010fd:	c4 e2 ed b8 c8       	vfmadd231pd %ymm0,%ymm2,%ymm1
  401102:	c4 e2 fd b8 d1       	vfmadd231pd %ymm1,%ymm0,%ymm2
  401107:	c4 e2 f5 b8 c2       	vfmadd231pd %ymm2,%ymm1,%ymm0
  40110c:	c4 e2 ed b8 c8       	vfmadd231pd %ymm0,%ymm2,%ymm1
  401111:	c4 e2 fd b8 d1       	vfmadd231pd %ymm1,%ymm0,%ymm2
  401116:	c4 e2 f5 b8 c2       	vfmadd231pd %ymm2,%ymm1,%ymm0
  40111b:	c4 e2 ed b8 c8       	vfmadd231pd %ymm0,%ymm2,%ymm1
  401120:	c4 e2 fd b8 d1       	vfmadd231pd %ymm1,%ymm0,%ymm2
  401125:	c4 e2 f5 b8 c2       	vfmadd231pd %ymm2,%ymm1,%ymm0
  40112a:	c4 e2 ed b8 c8       	vfmadd231pd %ymm0,%ymm2,%ymm1
  40112f:	c4 e2 fd b8 d1       	vfmadd231pd %ymm1,%ymm0,%ymm2
  401134:	c4 e2 f5 b8 c2       	vfmadd231pd %ymm2,%ymm1,%ymm0
  401139:	c4 e2 ed b8 c8       	vfmadd231pd %ymm0,%ymm2,%ymm1
  40113e:	c4 e2 fd b8 d1       	vfmadd231pd %ymm1,%ymm0,%ymm2
  401143:	c4 e2 f5 b8 c2       	vfmadd231pd %ymm2,%ymm1,%ymm0
  401148:	c4 e2 ed b8 c8       	vfmadd231pd %ymm0,%ymm2,%ymm1
  40114d:	c4 e2 fd b8 d1       	vfmadd231pd %ymm1,%ymm0,%ymm2
  401152:	c4 e2 f5 b8 c2       	vfmadd231pd %ymm2,%ymm1,%ymm0
  401157:	c4 e2 ed b8 c8       	vfmadd231pd %ymm0,%ymm2,%ymm1
  40115c:	c4 e2 fd b8 d1       	vfmadd231pd %ymm1,%ymm0,%ymm2
  401161:	c4 e2 f5 b8 c2       	vfmadd231pd %ymm2,%ymm1,%ymm0
  401166:	c4 e2 ed b8 c8       	vfmadd231pd %ymm0,%ymm2,%ymm1
  40116b:	c4 e2 fd b8 d1       	vfmadd231pd %ymm1,%ymm0,%ymm2
  401170:	c4 e2 f5 b8 c2       	vfmadd231pd %ymm2,%ymm1,%ymm0
  401175:	c4 e2 ed b8 c8       	vfmadd231pd %ymm0,%ymm2,%ymm1
  40117a:	c4 e2 fd b8 d1       	vfmadd231pd %ymm1,%ymm0,%ymm2
  40117f:	c4 e2 f5 b8 c2       	vfmadd231pd %ymm2,%ymm1,%ymm0
  401184:	c4 e2 ed b8 c8       	vfmadd231pd %ymm0,%ymm2,%ymm1
  401189:	c4 e2 fd b8 d1       	vfmadd231pd %ymm1,%ymm0,%ymm2
  40118e:	c4 e2 f5 b8 c2       	vfmadd231pd %ymm2,%ymm1,%ymm0
  401193:	c4 e2 ed b8 c8       	vfmadd231pd %ymm0,%ymm2,%ymm1
  401198:	c4 e2 fd b8 d1       	vfmadd231pd %ymm1,%ymm0,%ymm2
  40119d:	c4 e2 f5 b8 c2       	vfmadd231pd %ymm2,%ymm1,%ymm0
  4011a2:	c4 e2 ed b8 c8       	vfmadd231pd %ymm0,%ymm2,%ymm1
  4011a7:	c4 e2 fd b8 d1       	vfmadd231pd %ymm1,%ymm0,%ymm2
  4011ac:	c4 e2 f5 b8 c2       	vfmadd231pd %ymm2,%ymm1,%ymm0
  4011b1:	c4 e2 ed b8 c8       	vfmadd231pd %ymm0,%ymm2,%ymm1
  4011b6:	c4 e2 fd b8 d1       	vfmadd231pd %ymm1,%ymm0,%ymm2
  4011bb:	c4 e2 f5 b8 c2       	vfmadd231pd %ymm2,%ymm1,%ymm0
  4011c0:	c4 e2 ed b8 c8       	vfmadd231pd %ymm0,%ymm2,%ymm1
  4011c5:	c4 e2 fd b8 d1       	vfmadd231pd %ymm1,%ymm0,%ymm2
  4011ca:	c4 e2 f5 b8 c2       	vfmadd231pd %ymm2,%ymm1,%ymm0
  4011cf:	c4 e2 ed b8 c8       	vfmadd231pd %ymm0,%ymm2,%ymm1
  4011d4:	c4 e2 fd b8 d1       	vfmadd231pd %ymm1,%ymm0,%ymm2
  4011d9:	c4 e2 f5 b8 c2       	vfmadd231pd %ymm2,%ymm1,%ymm0
  4011de:	c4 e2 ed b8 c8       	vfmadd231pd %ymm0,%ymm2,%ymm1
  4011e3:	c4 e2 fd b8 d1       	vfmadd231pd %ymm1,%ymm0,%ymm2
  4011e8:	c4 e2 f5 b8 c2       	vfmadd231pd %ymm2,%ymm1,%ymm0
  4011ed:	c4 e2 ed b8 c8       	vfmadd231pd %ymm0,%ymm2,%ymm1
  4011f2:	c4 e2 fd b8 d1       	vfmadd231pd %ymm1,%ymm0,%ymm2
  4011f7:	c4 e2 f5 b8 c2       	vfmadd231pd %ymm2,%ymm1,%ymm0
  4011fc:	c4 e2 ed b8 c8       	vfmadd231pd %ymm0,%ymm2,%ymm1
  401201:	c4 e2 fd b8 d1       	vfmadd231pd %ymm1,%ymm0,%ymm2
  401206:	c4 e2 f5 b8 c2       	vfmadd231pd %ymm2,%ymm1,%ymm0
  40120b:	c4 e2 ed b8 c8       	vfmadd231pd %ymm0,%ymm2,%ymm1
  401210:	c4 e2 fd b8 d1       	vfmadd231pd %ymm1,%ymm0,%ymm2
  401215:	c4 e2 f5 b8 c2       	vfmadd231pd %ymm2,%ymm1,%ymm0
  40121a:	c4 e2 ed b8 c8       	vfmadd231pd %ymm0,%ymm2,%ymm1
  40121f:	c4 e2 fd b8 d1       	vfmadd231pd %ymm1,%ymm0,%ymm2
  401224:	c4 e2 f5 b8 c2       	vfmadd231pd %ymm2,%ymm1,%ymm0
  401229:	c4 e2 ed b8 c8       	vfmadd231pd %ymm0,%ymm2,%ymm1
  40122e:	c4 e2 fd b8 d1       	vfmadd231pd %ymm1,%ymm0,%ymm2
  401233:	c4 e2 f5 b8 c2       	vfmadd231pd %ymm2,%ymm1,%ymm0
  401238:	c4 e2 ed b8 c8       	vfmadd231pd %ymm0,%ymm2,%ymm1
  40123d:	c4 e2 fd b8 d1       	vfmadd231pd %ymm1,%ymm0,%ymm2
  401242:	c4 e2 f5 b8 c2       	vfmadd231pd %ymm2,%ymm1,%ymm0
  401247:	c4 e2 ed b8 c8       	vfmadd231pd %ymm0,%ymm2,%ymm1
  40124c:	c4 e2 fd b8 d1       	vfmadd231pd %ymm1,%ymm0,%ymm2
  401251:	c4 e2 f5 b8 c2       	vfmadd231pd %ymm2,%ymm1,%ymm0
  401256:	c4 e2 ed b8 c8       	vfmadd231pd %ymm0,%ymm2,%ymm1
  40125b:	c4 e2 fd b8 d1       	vfmadd231pd %ymm1,%ymm0,%ymm2
  401260:	c4 e2 f5 b8 c2       	vfmadd231pd %ymm2,%ymm1,%ymm0
  401265:	c4 e2 ed b8 c8       	vfmadd231pd %ymm0,%ymm2,%ymm1
  40126a:	c4 e2 fd b8 d1       	vfmadd231pd %ymm1,%ymm0,%ymm2
  40126f:	c4 e2 f5 b8 c2       	vfmadd231pd %ymm2,%ymm1,%ymm0
  401274:	c4 e2 ed b8 c8       	vfmadd231pd %ymm0,%ymm2,%ymm1
  401279:	c4 e2 fd b8 d1       	vfmadd231pd %ymm1,%ymm0,%ymm2
  40127e:	c4 e2 f5 b8 c2       	vfmadd231pd %ymm2,%ymm1,%ymm0
  401283:	c4 e2 ed b8 c8       	vfmadd231pd %ymm0,%ymm2,%ymm1
  401288:	c4 e2 fd b8 d1       	vfmadd231pd %ymm1,%ymm0,%ymm2
  40128d:	c4 e2 f5 b8 c2       	vfmadd231pd %ymm2,%ymm1,%ymm0
  401292:	c4 e2 ed b8 c8       	vfmadd231pd %ymm0,%ymm2,%ymm1
  401297:	c4 e2 fd b8 d1       	vfmadd231pd %ymm1,%ymm0,%ymm2
  40129c:	c4 e2 f5 b8 c2       	vfmadd231pd %ymm2,%ymm1,%ymm0
  4012a1:	c4 e2 ed b8 c8       	vfmadd231pd %ymm0,%ymm2,%ymm1
  4012a6:	c4 e2 fd b8 d1       	vfmadd231pd %ymm1,%ymm0,%ymm2
  4012ab:	c4 e2 f5 b8 c2       	vfmadd231pd %ymm2,%ymm1,%ymm0
  4012b0:	c4 e2 ed b8 c8       	vfmadd231pd %ymm0,%ymm2,%ymm1
  4012b5:	c4 e2 fd b8 d1       	vfmadd231pd %ymm1,%ymm0,%ymm2
  4012ba:	c4 e2 f5 b8 c2       	vfmadd231pd %ymm2,%ymm1,%ymm0
  4012bf:	c4 e2 ed b8 c8       	vfmadd231pd %ymm0,%ymm2,%ymm1
  4012c4:	c4 e2 fd b8 d1       	vfmadd231pd %ymm1,%ymm0,%ymm2
  4012c9:	c4 e2 f5 b8 c2       	vfmadd231pd %ymm2,%ymm1,%ymm0
  4012ce:	c4 e2 ed b8 c8       	vfmadd231pd %ymm0,%ymm2,%ymm1
  4012d3:	c4 e2 fd b8 d1       	vfmadd231pd %ymm1,%ymm0,%ymm2
  4012d8:	c4 e2 f5 b8 c2       	vfmadd231pd %ymm2,%ymm1,%ymm0
  4012dd:	c4 e2 ed b8 c8       	vfmadd231pd %ymm0,%ymm2,%ymm1
  4012e2:	c4 e2 fd b8 d1       	vfmadd231pd %ymm1,%ymm0,%ymm2
  4012e7:	c4 e2 f5 b8 c2       	vfmadd231pd %ymm2,%ymm1,%ymm0
  4012ec:	c4 e2 ed b8 c8       	vfmadd231pd %ymm0,%ymm2,%ymm1
  4012f1:	c4 e2 fd b8 d1       	vfmadd231pd %ymm1,%ymm0,%ymm2
  4012f6:	c4 e2 f5 b8 c2       	vfmadd231pd %ymm2,%ymm1,%ymm0
  4012fb:	c4 e2 ed b8 c8       	vfmadd231pd %ymm0,%ymm2,%ymm1
  401300:	c4 e2 fd b8 d1       	vfmadd231pd %ymm1,%ymm0,%ymm2
  401305:	c4 e2 f5 b8 c2       	vfmadd231pd %ymm2,%ymm1,%ymm0
  40130a:	c4 e2 ed b8 c8       	vfmadd231pd %ymm0,%ymm2,%ymm1
  40130f:	c4 e2 fd b8 d1       	vfmadd231pd %ymm1,%ymm0,%ymm2
  401314:	c4 e2 f5 b8 c2       	vfmadd231pd %ymm2,%ymm1,%ymm0
  401319:	c4 e2 ed b8 c8       	vfmadd231pd %ymm0,%ymm2,%ymm1
  40131e:	c4 e2 fd b8 d1       	vfmadd231pd %ymm1,%ymm0,%ymm2
  401323:	c4 e2 f5 b8 c2       	vfmadd231pd %ymm2,%ymm1,%ymm0
  401328:	c4 e2 ed b8 c8       	vfmadd231pd %ymm0,%ymm2,%ymm1
  40132d:	c4 e2 fd b8 d1       	vfmadd231pd %ymm1,%ymm0,%ymm2
  401332:	c4 e2 f5 b8 c2       	vfmadd231pd %ymm2,%ymm1,%ymm0
  401337:	c4 e2 ed b8 c8       	vfmadd231pd %ymm0,%ymm2,%ymm1
  40133c:	c4 e2 fd b8 d1       	vfmadd231pd %ymm1,%ymm0,%ymm2
  401341:	c4 e2 f5 b8 c2       	vfmadd231pd %ymm2,%ymm1,%ymm0
  401346:	c4 e2 ed b8 c8       	vfmadd231pd %ymm0,%ymm2,%ymm1
  40134b:	c4 e2 fd b8 d1       	vfmadd231pd %ymm1,%ymm0,%ymm2
  401350:	c4 e2 f5 b8 c2       	vfmadd231pd %ymm2,%ymm1,%ymm0
  401355:	c4 e2 ed b8 c8       	vfmadd231pd %ymm0,%ymm2,%ymm1
  40135a:	c4 e2 fd b8 d1       	vfmadd231pd %ymm1,%ymm0,%ymm2
  40135f:	c4 e2 f5 b8 c2       	vfmadd231pd %ymm2,%ymm1,%ymm0
  401364:	c4 e2 ed b8 c8       	vfmadd231pd %ymm0,%ymm2,%ymm1
  401369:	c4 e2 fd b8 d1       	vfmadd231pd %ymm1,%ymm0,%ymm2
  40136e:	c4 e2 f5 b8 c2       	vfmadd231pd %ymm2,%ymm1,%ymm0
  401373:	c4 e2 ed b8 c8       	vfmadd231pd %ymm0,%ymm2,%ymm1
  401378:	c4 e2 fd b8 d1       	vfmadd231pd %ymm1,%ymm0,%ymm2
  40137d:	c4 e2 f5 b8 c2       	vfmadd231pd %ymm2,%ymm1,%ymm0
  401382:	c4 e2 ed b8 c8       	vfmadd231pd %ymm0,%ymm2,%ymm1
  401387:	c4 e2 fd b8 d1       	vfmadd231pd %ymm1,%ymm0,%ymm2
  40138c:	c4 e2 f5 b8 c2       	vfmadd231pd %ymm2,%ymm1,%ymm0
  401391:	c4 e2 ed b8 c8       	vfmadd231pd %ymm0,%ymm2,%ymm1
  401396:	c4 e2 fd b8 d1       	vfmadd231pd %ymm1,%ymm0,%ymm2
  40139b:	c4 e2 f5 b8 c2       	vfmadd231pd %ymm2,%ymm1,%ymm0
  4013a0:	c4 e2 ed b8 c8       	vfmadd231pd %ymm0,%ymm2,%ymm1
  4013a5:	c4 e2 fd b8 d1       	vfmadd231pd %ymm1,%ymm0,%ymm2
  4013aa:	c4 e2 f5 b8 c2       	vfmadd231pd %ymm2,%ymm1,%ymm0
  4013af:	c4 e2 ed b8 c8       	vfmadd231pd %ymm0,%ymm2,%ymm1
  4013b4:	c4 e2 fd b8 d1       	vfmadd231pd %ymm1,%ymm0,%ymm2
  4013b9:	c4 e2 f5 b8 c2       	vfmadd231pd %ymm2,%ymm1,%ymm0
  4013be:	c4 e2 ed b8 c8       	vfmadd231pd %ymm0,%ymm2,%ymm1
  4013c3:	c4 e2 fd b8 d1       	vfmadd231pd %ymm1,%ymm0,%ymm2
  4013c8:	c4 e2 f5 b8 c2       	vfmadd231pd %ymm2,%ymm1,%ymm0
  4013cd:	c4 e2 ed b8 c8       	vfmadd231pd %ymm0,%ymm2,%ymm1
  4013d2:	c4 e2 fd b8 d1       	vfmadd231pd %ymm1,%ymm0,%ymm2
  4013d7:	c4 e2 f5 b8 c2       	vfmadd231pd %ymm2,%ymm1,%ymm0
  4013dc:	c4 e2 ed b8 c8       	vfmadd231pd %ymm0,%ymm2,%ymm1
  4013e1:	c4 e2 fd b8 d1       	vfmadd231pd %ymm1,%ymm0,%ymm2
  4013e6:	c4 e2 f5 b8 c2       	vfmadd231pd %ymm2,%ymm1,%ymm0
  4013eb:	c4 e2 ed b8 c8       	vfmadd231pd %ymm0,%ymm2,%ymm1
  4013f0:	c4 e2 fd b8 d1       	vfmadd231pd %ymm1,%ymm0,%ymm2
  4013f5:	c4 e2 f5 b8 c2       	vfmadd231pd %ymm2,%ymm1,%ymm0
  4013fa:	c4 e2 ed b8 c8       	vfmadd231pd %ymm0,%ymm2,%ymm1
  4013ff:	c4 e2 fd b8 d1       	vfmadd231pd %ymm1,%ymm0,%ymm2
  401404:	c4 e2 f5 b8 c2       	vfmadd231pd %ymm2,%ymm1,%ymm0
  401409:	c4 e2 ed b8 c8       	vfmadd231pd %ymm0,%ymm2,%ymm1
  40140e:	c4 e2 fd b8 d1       	vfmadd231pd %ymm1,%ymm0,%ymm2
  401413:	c4 e2 f5 b8 c2       	vfmadd231pd %ymm2,%ymm1,%ymm0
  401418:	c4 e2 ed b8 c8       	vfmadd231pd %ymm0,%ymm2,%ymm1
  40141d:	c4 e2 fd b8 d1       	vfmadd231pd %ymm1,%ymm0,%ymm2
  401422:	c4 e2 f5 b8 c2       	vfmadd231pd %ymm2,%ymm1,%ymm0
  401427:	c4 e2 ed b8 c8       	vfmadd231pd %ymm0,%ymm2,%ymm1
  40142c:	c4 e2 fd b8 d1       	vfmadd231pd %ymm1,%ymm0,%ymm2
  401431:	c4 e2 f5 b8 c2       	vfmadd231pd %ymm2,%ymm1,%ymm0
  401436:	c4 e2 ed b8 c8       	vfmadd231pd %ymm0,%ymm2,%ymm1
  40143b:	c4 e2 fd b8 d1       	vfmadd231pd %ymm1,%ymm0,%ymm2
  401440:	c4 e2 f5 b8 c2       	vfmadd231pd %ymm2,%ymm1,%ymm0
  401445:	c4 e2 ed b8 c8       	vfmadd231pd %ymm0,%ymm2,%ymm1
  40144a:	c4 e2 fd b8 d1       	vfmadd231pd %ymm1,%ymm0,%ymm2
  40144f:	c4 e2 f5 b8 c2       	vfmadd231pd %ymm2,%ymm1,%ymm0
  401454:	c4 e2 ed b8 c8       	vfmadd231pd %ymm0,%ymm2,%ymm1
  401459:	c4 e2 fd b8 d1       	vfmadd231pd %ymm1,%ymm0,%ymm2
  40145e:	c4 e2 f5 b8 c2       	vfmadd231pd %ymm2,%ymm1,%ymm0
  401463:	c4 e2 ed b8 c8       	vfmadd231pd %ymm0,%ymm2,%ymm1
  401468:	c4 e2 fd b8 d1       	vfmadd231pd %ymm1,%ymm0,%ymm2
  40146d:	c4 e2 f5 b8 c2       	vfmadd231pd %ymm2,%ymm1,%ymm0
  401472:	c4 e2 ed b8 c8       	vfmadd231pd %ymm0,%ymm2,%ymm1
  401477:	c4 e2 fd b8 d1       	vfmadd231pd %ymm1,%ymm0,%ymm2
  40147c:	c4 e2 f5 b8 c2       	vfmadd231pd %ymm2,%ymm1,%ymm0
  401481:	c4 e2 ed b8 c8       	vfmadd231pd %ymm0,%ymm2,%ymm1
  401486:	c4 e2 fd b8 d1       	vfmadd231pd %ymm1,%ymm0,%ymm2
  40148b:	c4 e2 f5 b8 c2       	vfmadd231pd %ymm2,%ymm1,%ymm0
  401490:	c4 e2 ed b8 c8       	vfmadd231pd %ymm0,%ymm2,%ymm1
  401495:	c4 e2 fd b8 d1       	vfmadd231pd %ymm1,%ymm0,%ymm2
  40149a:	c4 e2 f5 b8 c2       	vfmadd231pd %ymm2,%ymm1,%ymm0
  40149f:	c4 e2 ed b8 c8       	vfmadd231pd %ymm0,%ymm2,%ymm1
  4014a4:	c4 e2 fd b8 d1       	vfmadd231pd %ymm1,%ymm0,%ymm2
  4014a9:	c4 e2 f5 b8 c2       	vfmadd231pd %ymm2,%ymm1,%ymm0
  4014ae:	c4 e2 ed b8 c8       	vfmadd231pd %ymm0,%ymm2,%ymm1
  4014b3:	c4 e2 fd b8 d1       	vfmadd231pd %ymm1,%ymm0,%ymm2
  4014b8:	c4 e2 f5 b8 c2       	vfmadd231pd %ymm2,%ymm1,%ymm0
  4014bd:	c4 e2 ed b8 c8       	vfmadd231pd %ymm0,%ymm2,%ymm1
  4014c2:	c4 e2 fd b8 d1       	vfmadd231pd %ymm1,%ymm0,%ymm2
  4014c7:	c4 e2 f5 b8 c2       	vfmadd231pd %ymm2,%ymm1,%ymm0
  4014cc:	c4 e2 ed b8 c8       	vfmadd231pd %ymm0,%ymm2,%ymm1
  4014d1:	c4 e2 fd b8 d1       	vfmadd231pd %ymm1,%ymm0,%ymm2
  4014d6:	c4 e2 f5 b8 c2       	vfmadd231pd %ymm2,%ymm1,%ymm0
  4014db:	c4 e2 ed b8 c8       	vfmadd231pd %ymm0,%ymm2,%ymm1
  4014e0:	c4 e2 fd b8 d1       	vfmadd231pd %ymm1,%ymm0,%ymm2
  4014e5:	c4 e2 f5 b8 c2       	vfmadd231pd %ymm2,%ymm1,%ymm0
  4014ea:	c4 e2 ed b8 c8       	vfmadd231pd %ymm0,%ymm2,%ymm1
  4014ef:	c4 e2 fd b8 d1       	vfmadd231pd %ymm1,%ymm0,%ymm2
  4014f4:	c4 e2 f5 b8 c2       	vfmadd231pd %ymm2,%ymm1,%ymm0
  4014f9:	c4 e2 ed b8 c8       	vfmadd231pd %ymm0,%ymm2,%ymm1
  4014fe:	c4 e2 fd b8 d1       	vfmadd231pd %ymm1,%ymm0,%ymm2
  401503:	c4 e2 f5 b8 c2       	vfmadd231pd %ymm2,%ymm1,%ymm0
  401508:	c4 e2 ed b8 c8       	vfmadd231pd %ymm0,%ymm2,%ymm1
  40150d:	c4 e2 fd b8 d1       	vfmadd231pd %ymm1,%ymm0,%ymm2
  401512:	c4 e2 f5 b8 c2       	vfmadd231pd %ymm2,%ymm1,%ymm0
  401517:	c4 e2 ed b8 c8       	vfmadd231pd %ymm0,%ymm2,%ymm1
  40151c:	c4 e2 fd b8 d1       	vfmadd231pd %ymm1,%ymm0,%ymm2
  401521:	c4 e2 f5 b8 c2       	vfmadd231pd %ymm2,%ymm1,%ymm0
  401526:	c4 e2 ed b8 c8       	vfmadd231pd %ymm0,%ymm2,%ymm1
  40152b:	c4 e2 fd b8 d1       	vfmadd231pd %ymm1,%ymm0,%ymm2
  401530:	c4 e2 f5 b8 c2       	vfmadd231pd %ymm2,%ymm1,%ymm0
  401535:	c4 e2 ed b8 c8       	vfmadd231pd %ymm0,%ymm2,%ymm1
  40153a:	c4 e2 fd b8 d1       	vfmadd231pd %ymm1,%ymm0,%ymm2
  40153f:	c4 e2 f5 b8 c2       	vfmadd231pd %ymm2,%ymm1,%ymm0
  401544:	c4 e2 ed b8 c8       	vfmadd231pd %ymm0,%ymm2,%ymm1
  401549:	c4 e2 fd b8 d1       	vfmadd231pd %ymm1,%ymm0,%ymm2
  40154e:	c4 e2 f5 b8 c2       	vfmadd231pd %ymm2,%ymm1,%ymm0
  401553:	c4 e2 ed b8 c8       	vfmadd231pd %ymm0,%ymm2,%ymm1
  401558:	c4 e2 fd b8 d1       	vfmadd231pd %ymm1,%ymm0,%ymm2
  40155d:	c4 e2 f5 b8 c2       	vfmadd231pd %ymm2,%ymm1,%ymm0
  401562:	c4 e2 ed b8 c8       	vfmadd231pd %ymm0,%ymm2,%ymm1
  401567:	c4 e2 fd b8 d1       	vfmadd231pd %ymm1,%ymm0,%ymm2
  40156c:	c4 e2 f5 b8 c2       	vfmadd231pd %ymm2,%ymm1,%ymm0
  401571:	c4 e2 ed b8 c8       	vfmadd231pd %ymm0,%ymm2,%ymm1
  401576:	c4 e2 fd b8 d1       	vfmadd231pd %ymm1,%ymm0,%ymm2
  40157b:	c4 e2 f5 b8 c2       	vfmadd231pd %ymm2,%ymm1,%ymm0
  401580:	c4 e2 ed b8 c8       	vfmadd231pd %ymm0,%ymm2,%ymm1
  401585:	c4 e2 fd b8 d1       	vfmadd231pd %ymm1,%ymm0,%ymm2
  40158a:	c4 e2 f5 b8 c2       	vfmadd231pd %ymm2,%ymm1,%ymm0
  40158f:	c4 e2 ed b8 c8       	vfmadd231pd %ymm0,%ymm2,%ymm1
  401594:	c4 e2 fd b8 d1       	vfmadd231pd %ymm1,%ymm0,%ymm2
  401599:	c4 e2 f5 b8 c2       	vfmadd231pd %ymm2,%ymm1,%ymm0
  40159e:	c4 e2 ed b8 c8       	vfmadd231pd %ymm0,%ymm2,%ymm1
  4015a3:	c4 e2 fd b8 d1       	vfmadd231pd %ymm1,%ymm0,%ymm2
  4015a8:	c4 e2 f5 b8 c2       	vfmadd231pd %ymm2,%ymm1,%ymm0
  4015ad:	c4 e2 ed b8 c8       	vfmadd231pd %ymm0,%ymm2,%ymm1
  4015b2:	c4 e2 fd b8 d1       	vfmadd231pd %ymm1,%ymm0,%ymm2
  4015b7:	c4 e2 f5 b8 c2       	vfmadd231pd %ymm2,%ymm1,%ymm0
  4015bc:	c4 e2 ed b8 c8       	vfmadd231pd %ymm0,%ymm2,%ymm1
  4015c1:	c4 e2 fd b8 d1       	vfmadd231pd %ymm1,%ymm0,%ymm2
  4015c6:	c4 e2 f5 b8 c2       	vfmadd231pd %ymm2,%ymm1,%ymm0
  4015cb:	c4 e2 ed b8 c8       	vfmadd231pd %ymm0,%ymm2,%ymm1
  4015d0:	c4 e2 fd b8 d1       	vfmadd231pd %ymm1,%ymm0,%ymm2
  4015d5:	c4 e2 f5 b8 c2       	vfmadd231pd %ymm2,%ymm1,%ymm0
  4015da:	c4 e2 ed b8 c8       	vfmadd231pd %ymm0,%ymm2,%ymm1
  4015df:	c4 e2 fd b8 d1       	vfmadd231pd %ymm1,%ymm0,%ymm2
  4015e4:	c4 e2 f5 b8 c2       	vfmadd231pd %ymm2,%ymm1,%ymm0
  4015e9:	c4 e2 ed b8 c8       	vfmadd231pd %ymm0,%ymm2,%ymm1
  4015ee:	c4 e2 fd b8 d1       	vfmadd231pd %ymm1,%ymm0,%ymm2
  4015f3:	c4 e2 f5 b8 c2       	vfmadd231pd %ymm2,%ymm1,%ymm0
  4015f8:	c4 e2 ed b8 c8       	vfmadd231pd %ymm0,%ymm2,%ymm1
  4015fd:	c4 e2 fd b8 d1       	vfmadd231pd %ymm1,%ymm0,%ymm2
  401602:	c4 e2 f5 b8 c2       	vfmadd231pd %ymm2,%ymm1,%ymm0
  401607:	c4 e2 ed b8 c8       	vfmadd231pd %ymm0,%ymm2,%ymm1
  40160c:	c4 e2 fd b8 d1       	vfmadd231pd %ymm1,%ymm0,%ymm2
  401611:	c4 e2 f5 b8 c2       	vfmadd231pd %ymm2,%ymm1,%ymm0
  401616:	c4 e2 ed b8 c8       	vfmadd231pd %ymm0,%ymm2,%ymm1
  40161b:	c4 e2 fd b8 d1       	vfmadd231pd %ymm1,%ymm0,%ymm2
  401620:	c4 e2 f5 b8 c2       	vfmadd231pd %ymm2,%ymm1,%ymm0
  401625:	c4 e2 ed b8 c8       	vfmadd231pd %ymm0,%ymm2,%ymm1
  40162a:	c4 e2 fd b8 d1       	vfmadd231pd %ymm1,%ymm0,%ymm2
  40162f:	c4 e2 f5 b8 c2       	vfmadd231pd %ymm2,%ymm1,%ymm0
  401634:	c4 e2 ed b8 c8       	vfmadd231pd %ymm0,%ymm2,%ymm1
  401639:	c4 e2 fd b8 d1       	vfmadd231pd %ymm1,%ymm0,%ymm2
  40163e:	c4 e2 f5 b8 c2       	vfmadd231pd %ymm2,%ymm1,%ymm0
  401643:	c4 e2 ed b8 c8       	vfmadd231pd %ymm0,%ymm2,%ymm1
  401648:	c4 e2 fd b8 d1       	vfmadd231pd %ymm1,%ymm0,%ymm2
  40164d:	c4 e2 f5 b8 c2       	vfmadd231pd %ymm2,%ymm1,%ymm0
  401652:	c4 e2 ed b8 c8       	vfmadd231pd %ymm0,%ymm2,%ymm1
  401657:	c4 e2 fd b8 d1       	vfmadd231pd %ymm1,%ymm0,%ymm2
  40165c:	c4 e2 f5 b8 c2       	vfmadd231pd %ymm2,%ymm1,%ymm0
  401661:	c4 e2 ed b8 c8       	vfmadd231pd %ymm0,%ymm2,%ymm1
  401666:	c4 e2 fd b8 d1       	vfmadd231pd %ymm1,%ymm0,%ymm2
  40166b:	c4 e2 f5 b8 c2       	vfmadd231pd %ymm2,%ymm1,%ymm0
  401670:	c4 e2 ed b8 c8       	vfmadd231pd %ymm0,%ymm2,%ymm1
  401675:	c4 e2 fd b8 d1       	vfmadd231pd %ymm1,%ymm0,%ymm2
  40167a:	c4 e2 f5 b8 c2       	vfmadd231pd %ymm2,%ymm1,%ymm0
  40167f:	c4 e2 ed b8 c8       	vfmadd231pd %ymm0,%ymm2,%ymm1
  401684:	c4 e2 fd b8 d1       	vfmadd231pd %ymm1,%ymm0,%ymm2
  401689:	c4 e2 f5 b8 c2       	vfmadd231pd %ymm2,%ymm1,%ymm0
  40168e:	c4 e2 ed b8 c8       	vfmadd231pd %ymm0,%ymm2,%ymm1
  401693:	c4 e2 fd b8 d1       	vfmadd231pd %ymm1,%ymm0,%ymm2
  401698:	c4 e2 f5 b8 c2       	vfmadd231pd %ymm2,%ymm1,%ymm0
  40169d:	c4 e2 ed b8 c8       	vfmadd231pd %ymm0,%ymm2,%ymm1
  4016a2:	c4 e2 fd b8 d1       	vfmadd231pd %ymm1,%ymm0,%ymm2
  4016a7:	c4 e2 f5 b8 c2       	vfmadd231pd %ymm2,%ymm1,%ymm0
  4016ac:	c4 e2 ed b8 c8       	vfmadd231pd %ymm0,%ymm2,%ymm1
  4016b1:	c4 e2 fd b8 d1       	vfmadd231pd %ymm1,%ymm0,%ymm2
  4016b6:	c4 e2 f5 b8 c2       	vfmadd231pd %ymm2,%ymm1,%ymm0
  4016bb:	c4 e2 ed b8 c8       	vfmadd231pd %ymm0,%ymm2,%ymm1
  4016c0:	c4 e2 fd b8 d1       	vfmadd231pd %ymm1,%ymm0,%ymm2
  4016c5:	c4 e2 f5 b8 c2       	vfmadd231pd %ymm2,%ymm1,%ymm0
  4016ca:	c4 e2 ed b8 c8       	vfmadd231pd %ymm0,%ymm2,%ymm1
  4016cf:	c4 e2 fd b8 d1       	vfmadd231pd %ymm1,%ymm0,%ymm2
  4016d4:	c4 e2 f5 b8 c2       	vfmadd231pd %ymm2,%ymm1,%ymm0
  4016d9:	c4 e2 ed b8 c8       	vfmadd231pd %ymm0,%ymm2,%ymm1
  4016de:	c4 e2 fd b8 d1       	vfmadd231pd %ymm1,%ymm0,%ymm2
  4016e3:	c4 e2 f5 b8 c2       	vfmadd231pd %ymm2,%ymm1,%ymm0
  4016e8:	c4 e2 ed b8 c8       	vfmadd231pd %ymm0,%ymm2,%ymm1
  4016ed:	c4 e2 fd b8 d1       	vfmadd231pd %ymm1,%ymm0,%ymm2
  4016f2:	c4 e2 f5 b8 c2       	vfmadd231pd %ymm2,%ymm1,%ymm0
  4016f7:	c4 e2 ed b8 c8       	vfmadd231pd %ymm0,%ymm2,%ymm1
  4016fc:	c4 e2 fd b8 d1       	vfmadd231pd %ymm1,%ymm0,%ymm2
  401701:	c4 e2 f5 b8 c2       	vfmadd231pd %ymm2,%ymm1,%ymm0
  401706:	c4 e2 ed b8 c8       	vfmadd231pd %ymm0,%ymm2,%ymm1
  40170b:	c4 e2 fd b8 d1       	vfmadd231pd %ymm1,%ymm0,%ymm2
  401710:	c4 e2 f5 b8 c2       	vfmadd231pd %ymm2,%ymm1,%ymm0
  401715:	c4 e2 ed b8 c8       	vfmadd231pd %ymm0,%ymm2,%ymm1
  40171a:	c4 e2 fd b8 d1       	vfmadd231pd %ymm1,%ymm0,%ymm2
  40171f:	c4 e2 f5 b8 c2       	vfmadd231pd %ymm2,%ymm1,%ymm0
  401724:	c4 e2 ed b8 c8       	vfmadd231pd %ymm0,%ymm2,%ymm1
  401729:	c4 e2 fd b8 d1       	vfmadd231pd %ymm1,%ymm0,%ymm2
  40172e:	c4 e2 f5 b8 c2       	vfmadd231pd %ymm2,%ymm1,%ymm0
  401733:	c4 e2 ed b8 c8       	vfmadd231pd %ymm0,%ymm2,%ymm1
  401738:	c4 e2 fd b8 d1       	vfmadd231pd %ymm1,%ymm0,%ymm2
  40173d:	c4 e2 f5 b8 c2       	vfmadd231pd %ymm2,%ymm1,%ymm0
  401742:	c4 e2 ed b8 c8       	vfmadd231pd %ymm0,%ymm2,%ymm1
  401747:	c4 e2 fd b8 d1       	vfmadd231pd %ymm1,%ymm0,%ymm2
  40174c:	c4 e2 f5 b8 c2       	vfmadd231pd %ymm2,%ymm1,%ymm0
  401751:	c4 e2 ed b8 c8       	vfmadd231pd %ymm0,%ymm2,%ymm1
  401756:	c4 e2 fd b8 d1       	vfmadd231pd %ymm1,%ymm0,%ymm2
  40175b:	c4 e2 f5 b8 c2       	vfmadd231pd %ymm2,%ymm1,%ymm0
  401760:	c4 e2 ed b8 c8       	vfmadd231pd %ymm0,%ymm2,%ymm1
  401765:	c4 e2 fd b8 d1       	vfmadd231pd %ymm1,%ymm0,%ymm2
  40176a:	c4 e2 f5 b8 c2       	vfmadd231pd %ymm2,%ymm1,%ymm0
  40176f:	c4 e2 ed b8 c8       	vfmadd231pd %ymm0,%ymm2,%ymm1
  401774:	c4 e2 fd b8 d1       	vfmadd231pd %ymm1,%ymm0,%ymm2
  401779:	c4 e2 f5 b8 c2       	vfmadd231pd %ymm2,%ymm1,%ymm0
  40177e:	c4 e2 ed b8 c8       	vfmadd231pd %ymm0,%ymm2,%ymm1
  401783:	c4 e2 fd b8 d1       	vfmadd231pd %ymm1,%ymm0,%ymm2
  401788:	c4 e2 f5 b8 c2       	vfmadd231pd %ymm2,%ymm1,%ymm0
  40178d:	c4 e2 ed b8 c8       	vfmadd231pd %ymm0,%ymm2,%ymm1
  401792:	c4 e2 fd b8 d1       	vfmadd231pd %ymm1,%ymm0,%ymm2
  401797:	c4 e2 f5 b8 c2       	vfmadd231pd %ymm2,%ymm1,%ymm0
  40179c:	c4 e2 ed b8 c8       	vfmadd231pd %ymm0,%ymm2,%ymm1
  4017a1:	c4 e2 fd b8 d1       	vfmadd231pd %ymm1,%ymm0,%ymm2
  4017a6:	c4 e2 f5 b8 c2       	vfmadd231pd %ymm2,%ymm1,%ymm0
  4017ab:	c4 e2 ed b8 c8       	vfmadd231pd %ymm0,%ymm2,%ymm1
  4017b0:	c4 e2 fd b8 d1       	vfmadd231pd %ymm1,%ymm0,%ymm2
  4017b5:	c4 e2 f5 b8 c2       	vfmadd231pd %ymm2,%ymm1,%ymm0
  4017ba:	c4 e2 ed b8 c8       	vfmadd231pd %ymm0,%ymm2,%ymm1
  4017bf:	c4 e2 fd b8 d1       	vfmadd231pd %ymm1,%ymm0,%ymm2
  4017c4:	c4 e2 f5 b8 c2       	vfmadd231pd %ymm2,%ymm1,%ymm0
  4017c9:	c4 e2 ed b8 c8       	vfmadd231pd %ymm0,%ymm2,%ymm1
  4017ce:	c4 e2 fd b8 d1       	vfmadd231pd %ymm1,%ymm0,%ymm2
  4017d3:	c4 e2 f5 b8 c2       	vfmadd231pd %ymm2,%ymm1,%ymm0
  4017d8:	c4 e2 ed b8 c8       	vfmadd231pd %ymm0,%ymm2,%ymm1
  4017dd:	c4 e2 fd b8 d1       	vfmadd231pd %ymm1,%ymm0,%ymm2
  4017e2:	c4 e2 f5 b8 c2       	vfmadd231pd %ymm2,%ymm1,%ymm0
  4017e7:	c4 e2 ed b8 c8       	vfmadd231pd %ymm0,%ymm2,%ymm1
  4017ec:	c4 e2 fd b8 d1       	vfmadd231pd %ymm1,%ymm0,%ymm2
  4017f1:	c4 e2 f5 b8 c2       	vfmadd231pd %ymm2,%ymm1,%ymm0
  4017f6:	c4 e2 ed b8 c8       	vfmadd231pd %ymm0,%ymm2,%ymm1
  4017fb:	c4 e2 fd b8 d1       	vfmadd231pd %ymm1,%ymm0,%ymm2
  401800:	c4 e2 f5 b8 c2       	vfmadd231pd %ymm2,%ymm1,%ymm0
  401805:	c4 e2 ed b8 c8       	vfmadd231pd %ymm0,%ymm2,%ymm1
  40180a:	c4 e2 fd b8 d1       	vfmadd231pd %ymm1,%ymm0,%ymm2
  40180f:	c4 e2 f5 b8 c2       	vfmadd231pd %ymm2,%ymm1,%ymm0
  401814:	c4 e2 ed b8 c8       	vfmadd231pd %ymm0,%ymm2,%ymm1
  401819:	c4 e2 fd b8 d1       	vfmadd231pd %ymm1,%ymm0,%ymm2
  40181e:	c4 e2 f5 b8 c2       	vfmadd231pd %ymm2,%ymm1,%ymm0
  401823:	c4 e2 ed b8 c8       	vfmadd231pd %ymm0,%ymm2,%ymm1
  401828:	c4 e2 fd b8 d1       	vfmadd231pd %ymm1,%ymm0,%ymm2
  40182d:	c4 e2 f5 b8 c2       	vfmadd231pd %ymm2,%ymm1,%ymm0
  401832:	c4 e2 ed b8 c8       	vfmadd231pd %ymm0,%ymm2,%ymm1
  401837:	c4 e2 fd b8 d1       	vfmadd231pd %ymm1,%ymm0,%ymm2
  40183c:	c4 e2 f5 b8 c2       	vfmadd231pd %ymm2,%ymm1,%ymm0
  401841:	c4 e2 ed b8 c8       	vfmadd231pd %ymm0,%ymm2,%ymm1
  401846:	c4 e2 fd b8 d1       	vfmadd231pd %ymm1,%ymm0,%ymm2
  40184b:	c4 e2 f5 b8 c2       	vfmadd231pd %ymm2,%ymm1,%ymm0
  401850:	c4 e2 ed b8 c8       	vfmadd231pd %ymm0,%ymm2,%ymm1
  401855:	c4 e2 fd b8 d1       	vfmadd231pd %ymm1,%ymm0,%ymm2
  40185a:	c4 e2 f5 b8 c2       	vfmadd231pd %ymm2,%ymm1,%ymm0
  40185f:	c4 e2 ed b8 c8       	vfmadd231pd %ymm0,%ymm2,%ymm1
  401864:	c4 e2 fd b8 d1       	vfmadd231pd %ymm1,%ymm0,%ymm2
  401869:	c4 e2 f5 b8 c2       	vfmadd231pd %ymm2,%ymm1,%ymm0
  40186e:	c4 e2 ed b8 c8       	vfmadd231pd %ymm0,%ymm2,%ymm1
  401873:	c4 e2 fd b8 d1       	vfmadd231pd %ymm1,%ymm0,%ymm2
  401878:	c4 e2 f5 b8 c2       	vfmadd231pd %ymm2,%ymm1,%ymm0
  40187d:	c4 e2 ed b8 c8       	vfmadd231pd %ymm0,%ymm2,%ymm1
  401882:	c4 e2 fd b8 d1       	vfmadd231pd %ymm1,%ymm0,%ymm2
  401887:	c4 e2 f5 b8 c2       	vfmadd231pd %ymm2,%ymm1,%ymm0
  40188c:	c4 e2 ed b8 c8       	vfmadd231pd %ymm0,%ymm2,%ymm1
  401891:	c4 e2 fd b8 d1       	vfmadd231pd %ymm1,%ymm0,%ymm2
  401896:	c4 e2 f5 b8 c2       	vfmadd231pd %ymm2,%ymm1,%ymm0
  40189b:	c4 e2 ed b8 c8       	vfmadd231pd %ymm0,%ymm2,%ymm1
  4018a0:	c4 e2 fd b8 d1       	vfmadd231pd %ymm1,%ymm0,%ymm2
  4018a5:	c4 e2 f5 b8 c2       	vfmadd231pd %ymm2,%ymm1,%ymm0
  4018aa:	c4 e2 ed b8 c8       	vfmadd231pd %ymm0,%ymm2,%ymm1
  4018af:	c4 e2 fd b8 d1       	vfmadd231pd %ymm1,%ymm0,%ymm2
  4018b4:	c4 e2 f5 b8 c2       	vfmadd231pd %ymm2,%ymm1,%ymm0
  4018b9:	c4 e2 ed b8 c8       	vfmadd231pd %ymm0,%ymm2,%ymm1
  4018be:	c4 e2 fd b8 d1       	vfmadd231pd %ymm1,%ymm0,%ymm2
  4018c3:	c4 e2 f5 b8 c2       	vfmadd231pd %ymm2,%ymm1,%ymm0
  4018c8:	c4 e2 ed b8 c8       	vfmadd231pd %ymm0,%ymm2,%ymm1
  4018cd:	c4 e2 fd b8 d1       	vfmadd231pd %ymm1,%ymm0,%ymm2
  4018d2:	c4 e2 f5 b8 c2       	vfmadd231pd %ymm2,%ymm1,%ymm0
  4018d7:	c4 e2 ed b8 c8       	vfmadd231pd %ymm0,%ymm2,%ymm1
  4018dc:	c4 e2 fd b8 d1       	vfmadd231pd %ymm1,%ymm0,%ymm2
  4018e1:	c4 e2 f5 b8 c2       	vfmadd231pd %ymm2,%ymm1,%ymm0
  4018e6:	c4 e2 ed b8 c8       	vfmadd231pd %ymm0,%ymm2,%ymm1
  4018eb:	c4 e2 fd b8 d1       	vfmadd231pd %ymm1,%ymm0,%ymm2
  4018f0:	c4 e2 f5 b8 c2       	vfmadd231pd %ymm2,%ymm1,%ymm0
  4018f5:	c4 e2 ed b8 c8       	vfmadd231pd %ymm0,%ymm2,%ymm1
  4018fa:	c4 e2 fd b8 d1       	vfmadd231pd %ymm1,%ymm0,%ymm2
  4018ff:	c4 e2 f5 b8 c2       	vfmadd231pd %ymm2,%ymm1,%ymm0
  401904:	c4 e2 ed b8 c8       	vfmadd231pd %ymm0,%ymm2,%ymm1
  401909:	c4 e2 fd b8 d1       	vfmadd231pd %ymm1,%ymm0,%ymm2
  40190e:	c4 e2 f5 b8 c2       	vfmadd231pd %ymm2,%ymm1,%ymm0
  401913:	c4 e2 ed b8 c8       	vfmadd231pd %ymm0,%ymm2,%ymm1
  401918:	c4 e2 fd b8 d1       	vfmadd231pd %ymm1,%ymm0,%ymm2
  40191d:	c4 e2 f5 b8 c2       	vfmadd231pd %ymm2,%ymm1,%ymm0
  401922:	c4 e2 ed b8 c8       	vfmadd231pd %ymm0,%ymm2,%ymm1
  401927:	c4 e2 fd b8 d1       	vfmadd231pd %ymm1,%ymm0,%ymm2
  40192c:	c4 e2 f5 b8 c2       	vfmadd231pd %ymm2,%ymm1,%ymm0
  401931:	c4 e2 ed b8 c8       	vfmadd231pd %ymm0,%ymm2,%ymm1
  401936:	c4 e2 fd b8 d1       	vfmadd231pd %ymm1,%ymm0,%ymm2
  40193b:	c4 e2 f5 b8 c2       	vfmadd231pd %ymm2,%ymm1,%ymm0
  401940:	c4 e2 ed b8 c8       	vfmadd231pd %ymm0,%ymm2,%ymm1
  401945:	c4 e2 fd b8 d1       	vfmadd231pd %ymm1,%ymm0,%ymm2
  40194a:	c4 e2 f5 b8 c2       	vfmadd231pd %ymm2,%ymm1,%ymm0
  40194f:	c4 e2 ed b8 c8       	vfmadd231pd %ymm0,%ymm2,%ymm1
  401954:	c4 e2 fd b8 d1       	vfmadd231pd %ymm1,%ymm0,%ymm2
  401959:	c4 e2 f5 b8 c2       	vfmadd231pd %ymm2,%ymm1,%ymm0
  40195e:	c4 e2 ed b8 c8       	vfmadd231pd %ymm0,%ymm2,%ymm1
  401963:	c4 e2 fd b8 d1       	vfmadd231pd %ymm1,%ymm0,%ymm2
  401968:	c4 e2 f5 b8 c2       	vfmadd231pd %ymm2,%ymm1,%ymm0
  40196d:	c4 e2 ed b8 c8       	vfmadd231pd %ymm0,%ymm2,%ymm1
  401972:	c4 e2 fd b8 d1       	vfmadd231pd %ymm1,%ymm0,%ymm2
  401977:	c4 e2 f5 b8 c2       	vfmadd231pd %ymm2,%ymm1,%ymm0
  40197c:	c4 e2 ed b8 c8       	vfmadd231pd %ymm0,%ymm2,%ymm1
  401981:	c4 e2 fd b8 d1       	vfmadd231pd %ymm1,%ymm0,%ymm2
  401986:	c4 e2 f5 b8 c2       	vfmadd231pd %ymm2,%ymm1,%ymm0
  40198b:	c4 e2 ed b8 c8       	vfmadd231pd %ymm0,%ymm2,%ymm1
  401990:	c4 e2 fd b8 d1       	vfmadd231pd %ymm1,%ymm0,%ymm2
  401995:	c4 e2 f5 b8 c2       	vfmadd231pd %ymm2,%ymm1,%ymm0
  40199a:	c4 e2 ed b8 c8       	vfmadd231pd %ymm0,%ymm2,%ymm1
  40199f:	c4 e2 fd b8 d1       	vfmadd231pd %ymm1,%ymm0,%ymm2
  4019a4:	c4 e2 f5 b8 c2       	vfmadd231pd %ymm2,%ymm1,%ymm0
  4019a9:	c4 e2 ed b8 c8       	vfmadd231pd %ymm0,%ymm2,%ymm1
  4019ae:	c4 e2 fd b8 d1       	vfmadd231pd %ymm1,%ymm0,%ymm2
  4019b3:	c4 e2 f5 b8 c2       	vfmadd231pd %ymm2,%ymm1,%ymm0
  4019b8:	c4 e2 ed b8 c8       	vfmadd231pd %ymm0,%ymm2,%ymm1
  4019bd:	c4 e2 fd b8 d1       	vfmadd231pd %ymm1,%ymm0,%ymm2
  4019c2:	c4 e2 f5 b8 c2       	vfmadd231pd %ymm2,%ymm1,%ymm0
  4019c7:	c4 e2 ed b8 c8       	vfmadd231pd %ymm0,%ymm2,%ymm1
  4019cc:	c4 e2 fd b8 d1       	vfmadd231pd %ymm1,%ymm0,%ymm2
  4019d1:	c4 e2 f5 b8 c2       	vfmadd231pd %ymm2,%ymm1,%ymm0
  4019d6:	c4 e2 ed b8 c8       	vfmadd231pd %ymm0,%ymm2,%ymm1
  4019db:	c4 e2 fd b8 d1       	vfmadd231pd %ymm1,%ymm0,%ymm2
  4019e0:	c4 e2 f5 b8 c2       	vfmadd231pd %ymm2,%ymm1,%ymm0
  4019e5:	c4 e2 ed b8 c8       	vfmadd231pd %ymm0,%ymm2,%ymm1
  4019ea:	c4 e2 fd b8 d1       	vfmadd231pd %ymm1,%ymm0,%ymm2
  4019ef:	c4 e2 f5 b8 c2       	vfmadd231pd %ymm2,%ymm1,%ymm0
  4019f4:	c4 e2 ed b8 c8       	vfmadd231pd %ymm0,%ymm2,%ymm1
  4019f9:	c4 e2 fd b8 d1       	vfmadd231pd %ymm1,%ymm0,%ymm2
  4019fe:	c4 e2 f5 b8 c2       	vfmadd231pd %ymm2,%ymm1,%ymm0
  401a03:	c4 e2 ed b8 c8       	vfmadd231pd %ymm0,%ymm2,%ymm1
  401a08:	c4 e2 fd b8 d1       	vfmadd231pd %ymm1,%ymm0,%ymm2
  401a0d:	c4 e2 f5 b8 c2       	vfmadd231pd %ymm2,%ymm1,%ymm0
  401a12:	c4 e2 ed b8 c8       	vfmadd231pd %ymm0,%ymm2,%ymm1
  401a17:	c4 e2 fd b8 d1       	vfmadd231pd %ymm1,%ymm0,%ymm2
  401a1c:	c4 e2 f5 b8 c2       	vfmadd231pd %ymm2,%ymm1,%ymm0
  401a21:	c4 e2 ed b8 c8       	vfmadd231pd %ymm0,%ymm2,%ymm1
  401a26:	c4 e2 fd b8 d1       	vfmadd231pd %ymm1,%ymm0,%ymm2
  401a2b:	c4 e2 f5 b8 c2       	vfmadd231pd %ymm2,%ymm1,%ymm0
  401a30:	c4 e2 ed b8 c8       	vfmadd231pd %ymm0,%ymm2,%ymm1
  401a35:	c4 e2 fd b8 d1       	vfmadd231pd %ymm1,%ymm0,%ymm2
  401a3a:	c4 e2 f5 b8 c2       	vfmadd231pd %ymm2,%ymm1,%ymm0
  401a3f:	c4 e2 ed b8 c8       	vfmadd231pd %ymm0,%ymm2,%ymm1
  401a44:	c4 e2 fd b8 d1       	vfmadd231pd %ymm1,%ymm0,%ymm2
  401a49:	c4 e2 f5 b8 c2       	vfmadd231pd %ymm2,%ymm1,%ymm0
  401a4e:	c4 e2 ed b8 c8       	vfmadd231pd %ymm0,%ymm2,%ymm1
  401a53:	c4 e2 fd b8 d1       	vfmadd231pd %ymm1,%ymm0,%ymm2
  401a58:	c4 e2 f5 b8 c2       	vfmadd231pd %ymm2,%ymm1,%ymm0
  401a5d:	c4 e2 ed b8 c8       	vfmadd231pd %ymm0,%ymm2,%ymm1
  401a62:	c4 e2 fd b8 d1       	vfmadd231pd %ymm1,%ymm0,%ymm2
  401a67:	c4 e2 f5 b8 c2       	vfmadd231pd %ymm2,%ymm1,%ymm0
  401a6c:	c4 e2 ed b8 c8       	vfmadd231pd %ymm0,%ymm2,%ymm1
  401a71:	c4 e2 fd b8 d1       	vfmadd231pd %ymm1,%ymm0,%ymm2
  401a76:	c4 e2 f5 b8 c2       	vfmadd231pd %ymm2,%ymm1,%ymm0
  401a7b:	c4 e2 ed b8 c8       	vfmadd231pd %ymm0,%ymm2,%ymm1
  401a80:	c4 e2 fd b8 d1       	vfmadd231pd %ymm1,%ymm0,%ymm2
  401a85:	c4 e2 f5 b8 c2       	vfmadd231pd %ymm2,%ymm1,%ymm0
  401a8a:	c4 e2 ed b8 c8       	vfmadd231pd %ymm0,%ymm2,%ymm1
  401a8f:	c4 e2 fd b8 d1       	vfmadd231pd %ymm1,%ymm0,%ymm2
  401a94:	c4 e2 f5 b8 c2       	vfmadd231pd %ymm2,%ymm1,%ymm0
  401a99:	c4 e2 ed b8 c8       	vfmadd231pd %ymm0,%ymm2,%ymm1
  401a9e:	c4 e2 fd b8 d1       	vfmadd231pd %ymm1,%ymm0,%ymm2
  401aa3:	c4 e2 f5 b8 c2       	vfmadd231pd %ymm2,%ymm1,%ymm0
  401aa8:	c4 e2 ed b8 c8       	vfmadd231pd %ymm0,%ymm2,%ymm1
  401aad:	c4 e2 fd b8 d1       	vfmadd231pd %ymm1,%ymm0,%ymm2
  401ab2:	c4 e2 f5 b8 c2       	vfmadd231pd %ymm2,%ymm1,%ymm0
  401ab7:	c4 e2 ed b8 c8       	vfmadd231pd %ymm0,%ymm2,%ymm1
  401abc:	c4 e2 fd b8 d1       	vfmadd231pd %ymm1,%ymm0,%ymm2
  401ac1:	c4 e2 f5 b8 c2       	vfmadd231pd %ymm2,%ymm1,%ymm0
  401ac6:	c4 e2 ed b8 c8       	vfmadd231pd %ymm0,%ymm2,%ymm1
  401acb:	c4 e2 fd b8 d1       	vfmadd231pd %ymm1,%ymm0,%ymm2
  401ad0:	c4 e2 f5 b8 c2       	vfmadd231pd %ymm2,%ymm1,%ymm0
  401ad5:	c4 e2 ed b8 c8       	vfmadd231pd %ymm0,%ymm2,%ymm1
  401ada:	c4 e2 fd b8 d1       	vfmadd231pd %ymm1,%ymm0,%ymm2
  401adf:	c4 e2 f5 b8 c2       	vfmadd231pd %ymm2,%ymm1,%ymm0
  401ae4:	c4 e2 ed b8 c8       	vfmadd231pd %ymm0,%ymm2,%ymm1
  401ae9:	c4 e2 fd b8 d1       	vfmadd231pd %ymm1,%ymm0,%ymm2
  401aee:	c4 e2 f5 b8 c2       	vfmadd231pd %ymm2,%ymm1,%ymm0
  401af3:	c4 e2 ed b8 c8       	vfmadd231pd %ymm0,%ymm2,%ymm1
  401af8:	c4 e2 fd b8 d1       	vfmadd231pd %ymm1,%ymm0,%ymm2
  401afd:	c4 e2 f5 b8 c2       	vfmadd231pd %ymm2,%ymm1,%ymm0
  401b02:	c4 e2 ed b8 c8       	vfmadd231pd %ymm0,%ymm2,%ymm1
  401b07:	c4 e2 fd b8 d1       	vfmadd231pd %ymm1,%ymm0,%ymm2
  401b0c:	c4 e2 f5 b8 c2       	vfmadd231pd %ymm2,%ymm1,%ymm0
  401b11:	c4 e2 ed b8 c8       	vfmadd231pd %ymm0,%ymm2,%ymm1
  401b16:	c4 e2 fd b8 d1       	vfmadd231pd %ymm1,%ymm0,%ymm2
  401b1b:	c4 e2 f5 b8 c2       	vfmadd231pd %ymm2,%ymm1,%ymm0
  401b20:	c4 e2 ed b8 c8       	vfmadd231pd %ymm0,%ymm2,%ymm1
  401b25:	c4 e2 fd b8 d1       	vfmadd231pd %ymm1,%ymm0,%ymm2
  401b2a:	c4 e2 f5 b8 c2       	vfmadd231pd %ymm2,%ymm1,%ymm0
  401b2f:	c4 e2 ed b8 c8       	vfmadd231pd %ymm0,%ymm2,%ymm1
  401b34:	c4 e2 fd b8 d1       	vfmadd231pd %ymm1,%ymm0,%ymm2
  401b39:	c4 e2 f5 b8 c2       	vfmadd231pd %ymm2,%ymm1,%ymm0
  401b3e:	c4 e2 ed b8 c8       	vfmadd231pd %ymm0,%ymm2,%ymm1
  401b43:	c4 e2 fd b8 d1       	vfmadd231pd %ymm1,%ymm0,%ymm2
  401b48:	c4 e2 f5 b8 c2       	vfmadd231pd %ymm2,%ymm1,%ymm0
  401b4d:	c4 e2 ed b8 c8       	vfmadd231pd %ymm0,%ymm2,%ymm1
  401b52:	c4 e2 fd b8 d1       	vfmadd231pd %ymm1,%ymm0,%ymm2
  401b57:	c4 e2 f5 b8 c2       	vfmadd231pd %ymm2,%ymm1,%ymm0
  401b5c:	c4 e2 ed b8 c8       	vfmadd231pd %ymm0,%ymm2,%ymm1
  401b61:	c4 e2 fd b8 d1       	vfmadd231pd %ymm1,%ymm0,%ymm2
  401b66:	c4 e2 f5 b8 c2       	vfmadd231pd %ymm2,%ymm1,%ymm0
  401b6b:	c4 e2 ed b8 c8       	vfmadd231pd %ymm0,%ymm2,%ymm1
  401b70:	c4 e2 fd b8 d1       	vfmadd231pd %ymm1,%ymm0,%ymm2
  401b75:	c4 e2 f5 b8 c2       	vfmadd231pd %ymm2,%ymm1,%ymm0
  401b7a:	c4 e2 ed b8 c8       	vfmadd231pd %ymm0,%ymm2,%ymm1
  401b7f:	c4 e2 fd b8 d1       	vfmadd231pd %ymm1,%ymm0,%ymm2
  401b84:	c4 e2 f5 b8 c2       	vfmadd231pd %ymm2,%ymm1,%ymm0
  401b89:	c4 e2 ed b8 c8       	vfmadd231pd %ymm0,%ymm2,%ymm1
  401b8e:	c4 e2 fd b8 d1       	vfmadd231pd %ymm1,%ymm0,%ymm2
  401b93:	c4 e2 f5 b8 c2       	vfmadd231pd %ymm2,%ymm1,%ymm0
  401b98:	c4 e2 ed b8 c8       	vfmadd231pd %ymm0,%ymm2,%ymm1
  401b9d:	c4 e2 fd b8 d1       	vfmadd231pd %ymm1,%ymm0,%ymm2
  401ba2:	c4 e2 f5 b8 c2       	vfmadd231pd %ymm2,%ymm1,%ymm0
  401ba7:	c4 e2 ed b8 c8       	vfmadd231pd %ymm0,%ymm2,%ymm1
  401bac:	c4 e2 fd b8 d1       	vfmadd231pd %ymm1,%ymm0,%ymm2
  401bb1:	c4 e2 f5 b8 c2       	vfmadd231pd %ymm2,%ymm1,%ymm0
  401bb6:	c4 e2 ed b8 c8       	vfmadd231pd %ymm0,%ymm2,%ymm1
  401bbb:	c4 e2 fd b8 d1       	vfmadd231pd %ymm1,%ymm0,%ymm2
  401bc0:	c4 e2 f5 b8 c2       	vfmadd231pd %ymm2,%ymm1,%ymm0
  401bc5:	c4 e2 ed b8 c8       	vfmadd231pd %ymm0,%ymm2,%ymm1
  401bca:	c4 e2 fd b8 d1       	vfmadd231pd %ymm1,%ymm0,%ymm2
  401bcf:	c4 e2 f5 b8 c2       	vfmadd231pd %ymm2,%ymm1,%ymm0
  401bd4:	c4 e2 ed b8 c8       	vfmadd231pd %ymm0,%ymm2,%ymm1
  401bd9:	c4 e2 fd b8 d1       	vfmadd231pd %ymm1,%ymm0,%ymm2
  401bde:	c4 e2 f5 b8 c2       	vfmadd231pd %ymm2,%ymm1,%ymm0
  401be3:	c4 e2 ed b8 c8       	vfmadd231pd %ymm0,%ymm2,%ymm1
  401be8:	c4 e2 fd b8 d1       	vfmadd231pd %ymm1,%ymm0,%ymm2
  401bed:	c4 e2 f5 b8 c2       	vfmadd231pd %ymm2,%ymm1,%ymm0
  401bf2:	c4 e2 ed b8 c8       	vfmadd231pd %ymm0,%ymm2,%ymm1
  401bf7:	c4 e2 fd b8 d1       	vfmadd231pd %ymm1,%ymm0,%ymm2
  401bfc:	c4 e2 f5 b8 c2       	vfmadd231pd %ymm2,%ymm1,%ymm0
  401c01:	c4 e2 ed b8 c8       	vfmadd231pd %ymm0,%ymm2,%ymm1
  401c06:	c4 e2 fd b8 d1       	vfmadd231pd %ymm1,%ymm0,%ymm2
  401c0b:	c4 e2 f5 b8 c2       	vfmadd231pd %ymm2,%ymm1,%ymm0
  401c10:	c4 e2 ed b8 c8       	vfmadd231pd %ymm0,%ymm2,%ymm1
  401c15:	c4 e2 fd b8 d1       	vfmadd231pd %ymm1,%ymm0,%ymm2
  401c1a:	c4 e2 f5 b8 c2       	vfmadd231pd %ymm2,%ymm1,%ymm0
  401c1f:	c4 e2 ed b8 c8       	vfmadd231pd %ymm0,%ymm2,%ymm1
  401c24:	c4 e2 fd b8 d1       	vfmadd231pd %ymm1,%ymm0,%ymm2
  401c29:	c4 e2 f5 b8 c2       	vfmadd231pd %ymm2,%ymm1,%ymm0
  401c2e:	c4 e2 ed b8 c8       	vfmadd231pd %ymm0,%ymm2,%ymm1
  401c33:	c4 e2 fd b8 d1       	vfmadd231pd %ymm1,%ymm0,%ymm2
  401c38:	c4 e2 f5 b8 c2       	vfmadd231pd %ymm2,%ymm1,%ymm0
  401c3d:	c4 e2 ed b8 c8       	vfmadd231pd %ymm0,%ymm2,%ymm1
  401c42:	c4 e2 fd b8 d1       	vfmadd231pd %ymm1,%ymm0,%ymm2
  401c47:	c4 e2 f5 b8 c2       	vfmadd231pd %ymm2,%ymm1,%ymm0
  401c4c:	c4 e2 ed b8 c8       	vfmadd231pd %ymm0,%ymm2,%ymm1
  401c51:	c4 e2 fd b8 d1       	vfmadd231pd %ymm1,%ymm0,%ymm2
  401c56:	c4 e2 f5 b8 c2       	vfmadd231pd %ymm2,%ymm1,%ymm0
  401c5b:	c4 e2 ed b8 c8       	vfmadd231pd %ymm0,%ymm2,%ymm1
  401c60:	c4 e2 fd b8 d1       	vfmadd231pd %ymm1,%ymm0,%ymm2
  401c65:	c4 e2 f5 b8 c2       	vfmadd231pd %ymm2,%ymm1,%ymm0
  401c6a:	c4 e2 ed b8 c8       	vfmadd231pd %ymm0,%ymm2,%ymm1
  401c6f:	c4 e2 fd b8 d1       	vfmadd231pd %ymm1,%ymm0,%ymm2
  401c74:	c4 e2 f5 b8 c2       	vfmadd231pd %ymm2,%ymm1,%ymm0
  401c79:	c4 e2 ed b8 c8       	vfmadd231pd %ymm0,%ymm2,%ymm1
  401c7e:	c4 e2 fd b8 d1       	vfmadd231pd %ymm1,%ymm0,%ymm2
  401c83:	c4 e2 f5 b8 c2       	vfmadd231pd %ymm2,%ymm1,%ymm0
  401c88:	c4 e2 ed b8 c8       	vfmadd231pd %ymm0,%ymm2,%ymm1
  401c8d:	c4 e2 fd b8 d1       	vfmadd231pd %ymm1,%ymm0,%ymm2
  401c92:	c4 e2 f5 b8 c2       	vfmadd231pd %ymm2,%ymm1,%ymm0
  401c97:	c4 e2 ed b8 c8       	vfmadd231pd %ymm0,%ymm2,%ymm1
  401c9c:	c4 e2 fd b8 d1       	vfmadd231pd %ymm1,%ymm0,%ymm2
  401ca1:	c4 e2 f5 b8 c2       	vfmadd231pd %ymm2,%ymm1,%ymm0
  401ca6:	c4 e2 ed b8 c8       	vfmadd231pd %ymm0,%ymm2,%ymm1
  401cab:	c4 e2 fd b8 d1       	vfmadd231pd %ymm1,%ymm0,%ymm2
  401cb0:	c4 e2 f5 b8 c2       	vfmadd231pd %ymm2,%ymm1,%ymm0
  401cb5:	c4 e2 ed b8 c8       	vfmadd231pd %ymm0,%ymm2,%ymm1
  401cba:	c4 e2 fd b8 d1       	vfmadd231pd %ymm1,%ymm0,%ymm2
  401cbf:	c4 e2 f5 b8 c2       	vfmadd231pd %ymm2,%ymm1,%ymm0
  401cc4:	c4 e2 ed b8 c8       	vfmadd231pd %ymm0,%ymm2,%ymm1
  401cc9:	c4 e2 fd b8 d1       	vfmadd231pd %ymm1,%ymm0,%ymm2
  401cce:	c4 e2 f5 b8 c2       	vfmadd231pd %ymm2,%ymm1,%ymm0
  401cd3:	c4 e2 ed b8 c8       	vfmadd231pd %ymm0,%ymm2,%ymm1
  401cd8:	c4 e2 fd b8 d1       	vfmadd231pd %ymm1,%ymm0,%ymm2
  401cdd:	c4 e2 f5 b8 c2       	vfmadd231pd %ymm2,%ymm1,%ymm0
  401ce2:	c4 e2 ed b8 c8       	vfmadd231pd %ymm0,%ymm2,%ymm1
  401ce7:	c4 e2 fd b8 d1       	vfmadd231pd %ymm1,%ymm0,%ymm2
  401cec:	c4 e2 f5 b8 c2       	vfmadd231pd %ymm2,%ymm1,%ymm0
  401cf1:	c4 e2 ed b8 c8       	vfmadd231pd %ymm0,%ymm2,%ymm1
  401cf6:	c4 e2 fd b8 d1       	vfmadd231pd %ymm1,%ymm0,%ymm2
  401cfb:	c4 e2 f5 b8 c2       	vfmadd231pd %ymm2,%ymm1,%ymm0
  401d00:	c4 e2 ed b8 c8       	vfmadd231pd %ymm0,%ymm2,%ymm1
  401d05:	c4 e2 fd b8 d1       	vfmadd231pd %ymm1,%ymm0,%ymm2
  401d0a:	c4 e2 f5 b8 c2       	vfmadd231pd %ymm2,%ymm1,%ymm0
  401d0f:	c4 e2 ed b8 c8       	vfmadd231pd %ymm0,%ymm2,%ymm1
  401d14:	c4 e2 fd b8 d1       	vfmadd231pd %ymm1,%ymm0,%ymm2
  401d19:	c4 e2 f5 b8 c2       	vfmadd231pd %ymm2,%ymm1,%ymm0
  401d1e:	c4 e2 ed b8 c8       	vfmadd231pd %ymm0,%ymm2,%ymm1
  401d23:	c4 e2 fd b8 d1       	vfmadd231pd %ymm1,%ymm0,%ymm2
  401d28:	c4 e2 f5 b8 c2       	vfmadd231pd %ymm2,%ymm1,%ymm0
  401d2d:	c4 e2 ed b8 c8       	vfmadd231pd %ymm0,%ymm2,%ymm1
  401d32:	c4 e2 fd b8 d1       	vfmadd231pd %ymm1,%ymm0,%ymm2
  401d37:	c4 e2 f5 b8 c2       	vfmadd231pd %ymm2,%ymm1,%ymm0
  401d3c:	c4 e2 ed b8 c8       	vfmadd231pd %ymm0,%ymm2,%ymm1
  401d41:	c4 e2 fd b8 d1       	vfmadd231pd %ymm1,%ymm0,%ymm2
  401d46:	c4 e2 f5 b8 c2       	vfmadd231pd %ymm2,%ymm1,%ymm0
  401d4b:	c4 e2 ed b8 c8       	vfmadd231pd %ymm0,%ymm2,%ymm1
  401d50:	c4 e2 fd b8 d1       	vfmadd231pd %ymm1,%ymm0,%ymm2
  401d55:	c4 e2 f5 b8 c2       	vfmadd231pd %ymm2,%ymm1,%ymm0
  401d5a:	c4 e2 ed b8 c8       	vfmadd231pd %ymm0,%ymm2,%ymm1
  401d5f:	c4 e2 fd b8 d1       	vfmadd231pd %ymm1,%ymm0,%ymm2
  401d64:	c4 e2 f5 b8 c2       	vfmadd231pd %ymm2,%ymm1,%ymm0
  401d69:	c4 e2 ed b8 c8       	vfmadd231pd %ymm0,%ymm2,%ymm1
  401d6e:	c4 e2 fd b8 d1       	vfmadd231pd %ymm1,%ymm0,%ymm2
  401d73:	c4 e2 f5 b8 c2       	vfmadd231pd %ymm2,%ymm1,%ymm0
  401d78:	c4 e2 ed b8 c8       	vfmadd231pd %ymm0,%ymm2,%ymm1
  401d7d:	c4 e2 fd b8 d1       	vfmadd231pd %ymm1,%ymm0,%ymm2
  401d82:	c4 e2 f5 b8 c2       	vfmadd231pd %ymm2,%ymm1,%ymm0
  401d87:	c4 e2 ed b8 c8       	vfmadd231pd %ymm0,%ymm2,%ymm1
  401d8c:	c4 e2 fd b8 d1       	vfmadd231pd %ymm1,%ymm0,%ymm2
  401d91:	c4 e2 f5 b8 c2       	vfmadd231pd %ymm2,%ymm1,%ymm0
  401d96:	c4 e2 ed b8 c8       	vfmadd231pd %ymm0,%ymm2,%ymm1
  401d9b:	c4 e2 fd b8 d1       	vfmadd231pd %ymm1,%ymm0,%ymm2
  401da0:	c4 e2 f5 b8 c2       	vfmadd231pd %ymm2,%ymm1,%ymm0
  401da5:	c4 e2 ed b8 c8       	vfmadd231pd %ymm0,%ymm2,%ymm1
  401daa:	c4 e2 fd b8 d1       	vfmadd231pd %ymm1,%ymm0,%ymm2
  401daf:	c4 e2 f5 b8 c2       	vfmadd231pd %ymm2,%ymm1,%ymm0
  401db4:	c4 e2 ed b8 c8       	vfmadd231pd %ymm0,%ymm2,%ymm1
  401db9:	c4 e2 fd b8 d1       	vfmadd231pd %ymm1,%ymm0,%ymm2
  401dbe:	c4 e2 f5 b8 c2       	vfmadd231pd %ymm2,%ymm1,%ymm0
  401dc3:	c4 e2 ed b8 c8       	vfmadd231pd %ymm0,%ymm2,%ymm1
  401dc8:	c4 e2 fd b8 d1       	vfmadd231pd %ymm1,%ymm0,%ymm2
  401dcd:	c4 e2 f5 b8 c2       	vfmadd231pd %ymm2,%ymm1,%ymm0
  401dd2:	c4 e2 ed b8 c8       	vfmadd231pd %ymm0,%ymm2,%ymm1
  401dd7:	c4 e2 fd b8 d1       	vfmadd231pd %ymm1,%ymm0,%ymm2
  401ddc:	c4 e2 f5 b8 c2       	vfmadd231pd %ymm2,%ymm1,%ymm0
  401de1:	c4 e2 ed b8 c8       	vfmadd231pd %ymm0,%ymm2,%ymm1
  401de6:	c4 e2 fd b8 d1       	vfmadd231pd %ymm1,%ymm0,%ymm2
  401deb:	c4 e2 f5 b8 c2       	vfmadd231pd %ymm2,%ymm1,%ymm0
  401df0:	c4 e2 ed b8 c8       	vfmadd231pd %ymm0,%ymm2,%ymm1
  401df5:	c4 e2 fd b8 d1       	vfmadd231pd %ymm1,%ymm0,%ymm2
  401dfa:	c4 e2 f5 b8 c2       	vfmadd231pd %ymm2,%ymm1,%ymm0
  401dff:	c4 e2 ed b8 c8       	vfmadd231pd %ymm0,%ymm2,%ymm1
  401e04:	c4 e2 fd b8 d1       	vfmadd231pd %ymm1,%ymm0,%ymm2
  401e09:	c4 e2 f5 b8 c2       	vfmadd231pd %ymm2,%ymm1,%ymm0
  401e0e:	c4 e2 ed b8 c8       	vfmadd231pd %ymm0,%ymm2,%ymm1
  401e13:	c4 e2 fd b8 d1       	vfmadd231pd %ymm1,%ymm0,%ymm2
  401e18:	c4 e2 f5 b8 c2       	vfmadd231pd %ymm2,%ymm1,%ymm0
  401e1d:	c4 e2 ed b8 c8       	vfmadd231pd %ymm0,%ymm2,%ymm1
  401e22:	c4 e2 fd b8 d1       	vfmadd231pd %ymm1,%ymm0,%ymm2
  401e27:	c4 e2 f5 b8 c2       	vfmadd231pd %ymm2,%ymm1,%ymm0
  401e2c:	c4 e2 ed b8 c8       	vfmadd231pd %ymm0,%ymm2,%ymm1
  401e31:	c4 e2 fd b8 d1       	vfmadd231pd %ymm1,%ymm0,%ymm2
  401e36:	c4 e2 f5 b8 c2       	vfmadd231pd %ymm2,%ymm1,%ymm0
  401e3b:	c4 e2 ed b8 c8       	vfmadd231pd %ymm0,%ymm2,%ymm1
  401e40:	c4 e2 fd b8 d1       	vfmadd231pd %ymm1,%ymm0,%ymm2
  401e45:	c4 e2 f5 b8 c2       	vfmadd231pd %ymm2,%ymm1,%ymm0
  401e4a:	c4 e2 ed b8 c8       	vfmadd231pd %ymm0,%ymm2,%ymm1
  401e4f:	c4 e2 fd b8 d1       	vfmadd231pd %ymm1,%ymm0,%ymm2
  401e54:	c4 e2 f5 b8 c2       	vfmadd231pd %ymm2,%ymm1,%ymm0
  401e59:	c4 e2 ed b8 c8       	vfmadd231pd %ymm0,%ymm2,%ymm1
  401e5e:	c4 e2 fd b8 d1       	vfmadd231pd %ymm1,%ymm0,%ymm2
  401e63:	c4 e2 f5 b8 c2       	vfmadd231pd %ymm2,%ymm1,%ymm0
  401e68:	c4 e2 ed b8 c8       	vfmadd231pd %ymm0,%ymm2,%ymm1
  401e6d:	c4 e2 fd b8 d1       	vfmadd231pd %ymm1,%ymm0,%ymm2
  401e72:	c4 e2 f5 b8 c2       	vfmadd231pd %ymm2,%ymm1,%ymm0
  401e77:	c4 e2 ed b8 c8       	vfmadd231pd %ymm0,%ymm2,%ymm1
  401e7c:	c4 e2 fd b8 d1       	vfmadd231pd %ymm1,%ymm0,%ymm2
  401e81:	c4 e2 f5 b8 c2       	vfmadd231pd %ymm2,%ymm1,%ymm0
  401e86:	c4 e2 ed b8 c8       	vfmadd231pd %ymm0,%ymm2,%ymm1
  401e8b:	c4 e2 fd b8 d1       	vfmadd231pd %ymm1,%ymm0,%ymm2
  401e90:	c4 e2 f5 b8 c2       	vfmadd231pd %ymm2,%ymm1,%ymm0
  401e95:	c4 e2 ed b8 c8       	vfmadd231pd %ymm0,%ymm2,%ymm1
  401e9a:	c4 e2 fd b8 d1       	vfmadd231pd %ymm1,%ymm0,%ymm2
  401e9f:	c4 e2 f5 b8 c2       	vfmadd231pd %ymm2,%ymm1,%ymm0
  401ea4:	c4 e2 ed b8 c8       	vfmadd231pd %ymm0,%ymm2,%ymm1
  401ea9:	c4 e2 fd b8 d1       	vfmadd231pd %ymm1,%ymm0,%ymm2
  401eae:	c4 e2 f5 b8 c2       	vfmadd231pd %ymm2,%ymm1,%ymm0
  401eb3:	c4 e2 ed b8 c8       	vfmadd231pd %ymm0,%ymm2,%ymm1
  401eb8:	c4 e2 fd b8 d1       	vfmadd231pd %ymm1,%ymm0,%ymm2
  401ebd:	c4 e2 f5 b8 c2       	vfmadd231pd %ymm2,%ymm1,%ymm0
  401ec2:	c4 e2 ed b8 c8       	vfmadd231pd %ymm0,%ymm2,%ymm1
  401ec7:	c4 e2 fd b8 d1       	vfmadd231pd %ymm1,%ymm0,%ymm2
  401ecc:	c4 e2 f5 b8 c2       	vfmadd231pd %ymm2,%ymm1,%ymm0
  401ed1:	c4 e2 ed b8 c8       	vfmadd231pd %ymm0,%ymm2,%ymm1
  401ed6:	c4 e2 fd b8 d1       	vfmadd231pd %ymm1,%ymm0,%ymm2
  401edb:	c4 e2 f5 b8 c2       	vfmadd231pd %ymm2,%ymm1,%ymm0
  401ee0:	c4 e2 ed b8 c8       	vfmadd231pd %ymm0,%ymm2,%ymm1
  401ee5:	c4 e2 fd b8 d1       	vfmadd231pd %ymm1,%ymm0,%ymm2
  401eea:	c4 e2 f5 b8 c2       	vfmadd231pd %ymm2,%ymm1,%ymm0
  401eef:	c4 e2 ed b8 c8       	vfmadd231pd %ymm0,%ymm2,%ymm1
  401ef4:	c4 e2 fd b8 d1       	vfmadd231pd %ymm1,%ymm0,%ymm2
  401ef9:	c4 e2 f5 b8 c2       	vfmadd231pd %ymm2,%ymm1,%ymm0
  401efe:	c4 e2 ed b8 c8       	vfmadd231pd %ymm0,%ymm2,%ymm1
  401f03:	c4 e2 fd b8 d1       	vfmadd231pd %ymm1,%ymm0,%ymm2
  401f08:	c4 e2 f5 b8 c2       	vfmadd231pd %ymm2,%ymm1,%ymm0
  401f0d:	c4 e2 ed b8 c8       	vfmadd231pd %ymm0,%ymm2,%ymm1
  401f12:	c4 e2 fd b8 d1       	vfmadd231pd %ymm1,%ymm0,%ymm2
  401f17:	c4 e2 f5 b8 c2       	vfmadd231pd %ymm2,%ymm1,%ymm0
  401f1c:	c4 e2 ed b8 c8       	vfmadd231pd %ymm0,%ymm2,%ymm1
  401f21:	c4 e2 fd b8 d1       	vfmadd231pd %ymm1,%ymm0,%ymm2
  401f26:	c4 e2 f5 b8 c2       	vfmadd231pd %ymm2,%ymm1,%ymm0
  401f2b:	c4 e2 ed b8 c8       	vfmadd231pd %ymm0,%ymm2,%ymm1
  401f30:	c4 e2 fd b8 d1       	vfmadd231pd %ymm1,%ymm0,%ymm2
  401f35:	c4 e2 f5 b8 c2       	vfmadd231pd %ymm2,%ymm1,%ymm0
  401f3a:	c4 e2 ed b8 c8       	vfmadd231pd %ymm0,%ymm2,%ymm1
  401f3f:	c4 e2 fd b8 d1       	vfmadd231pd %ymm1,%ymm0,%ymm2
  401f44:	c4 e2 f5 b8 c2       	vfmadd231pd %ymm2,%ymm1,%ymm0
  401f49:	c4 e2 ed b8 c8       	vfmadd231pd %ymm0,%ymm2,%ymm1
  401f4e:	c4 e2 fd b8 d1       	vfmadd231pd %ymm1,%ymm0,%ymm2
  401f53:	c4 e2 f5 b8 c2       	vfmadd231pd %ymm2,%ymm1,%ymm0
  401f58:	c4 e2 ed b8 c8       	vfmadd231pd %ymm0,%ymm2,%ymm1
  401f5d:	c4 e2 fd b8 d1       	vfmadd231pd %ymm1,%ymm0,%ymm2
  401f62:	c4 e2 f5 b8 c2       	vfmadd231pd %ymm2,%ymm1,%ymm0
  401f67:	c4 e2 ed b8 c8       	vfmadd231pd %ymm0,%ymm2,%ymm1
  401f6c:	c4 e2 fd b8 d1       	vfmadd231pd %ymm1,%ymm0,%ymm2
  401f71:	c4 e2 f5 b8 c2       	vfmadd231pd %ymm2,%ymm1,%ymm0
  401f76:	c4 e2 ed b8 c8       	vfmadd231pd %ymm0,%ymm2,%ymm1
  401f7b:	c4 e2 fd b8 d1       	vfmadd231pd %ymm1,%ymm0,%ymm2
  401f80:	c4 e2 f5 b8 c2       	vfmadd231pd %ymm2,%ymm1,%ymm0
  401f85:	c4 e2 ed b8 c8       	vfmadd231pd %ymm0,%ymm2,%ymm1
  401f8a:	c4 e2 fd b8 d1       	vfmadd231pd %ymm1,%ymm0,%ymm2
  401f8f:	c4 e2 f5 b8 c2       	vfmadd231pd %ymm2,%ymm1,%ymm0
  401f94:	c4 e2 ed b8 c8       	vfmadd231pd %ymm0,%ymm2,%ymm1
  401f99:	c4 e2 fd b8 d1       	vfmadd231pd %ymm1,%ymm0,%ymm2
  401f9e:	c4 e2 f5 b8 c2       	vfmadd231pd %ymm2,%ymm1,%ymm0
  401fa3:	c4 e2 ed b8 c8       	vfmadd231pd %ymm0,%ymm2,%ymm1
  401fa8:	c4 e2 fd b8 d1       	vfmadd231pd %ymm1,%ymm0,%ymm2
  401fad:	c4 e2 f5 b8 c2       	vfmadd231pd %ymm2,%ymm1,%ymm0
  401fb2:	c4 e2 ed b8 c8       	vfmadd231pd %ymm0,%ymm2,%ymm1
  401fb7:	c4 e2 fd b8 d1       	vfmadd231pd %ymm1,%ymm0,%ymm2
  401fbc:	c4 e2 f5 b8 c2       	vfmadd231pd %ymm2,%ymm1,%ymm0
  401fc1:	c4 e2 ed b8 c8       	vfmadd231pd %ymm0,%ymm2,%ymm1
  401fc6:	c4 e2 fd b8 d1       	vfmadd231pd %ymm1,%ymm0,%ymm2
  401fcb:	c4 e2 f5 b8 c2       	vfmadd231pd %ymm2,%ymm1,%ymm0
  401fd0:	c4 e2 ed b8 c8       	vfmadd231pd %ymm0,%ymm2,%ymm1
  401fd5:	c4 e2 fd b8 d1       	vfmadd231pd %ymm1,%ymm0,%ymm2
  401fda:	c4 e2 f5 b8 c2       	vfmadd231pd %ymm2,%ymm1,%ymm0
  401fdf:	c4 e2 ed b8 c8       	vfmadd231pd %ymm0,%ymm2,%ymm1
  401fe4:	c4 e2 fd b8 d1       	vfmadd231pd %ymm1,%ymm0,%ymm2
  401fe9:	c4 e2 f5 b8 c2       	vfmadd231pd %ymm2,%ymm1,%ymm0
  401fee:	c4 e2 ed b8 c8       	vfmadd231pd %ymm0,%ymm2,%ymm1
  401ff3:	c4 e2 fd b8 d1       	vfmadd231pd %ymm1,%ymm0,%ymm2
  401ff8:	c4 e2 f5 b8 c2       	vfmadd231pd %ymm2,%ymm1,%ymm0
  401ffd:	c4 e2 ed b8 c8       	vfmadd231pd %ymm0,%ymm2,%ymm1
  402002:	c4 e2 fd b8 d1       	vfmadd231pd %ymm1,%ymm0,%ymm2
  402007:	c4 e2 f5 b8 c2       	vfmadd231pd %ymm2,%ymm1,%ymm0
  40200c:	c4 e2 ed b8 c8       	vfmadd231pd %ymm0,%ymm2,%ymm1
  402011:	c4 e2 fd b8 d1       	vfmadd231pd %ymm1,%ymm0,%ymm2
  402016:	c4 e2 f5 b8 c2       	vfmadd231pd %ymm2,%ymm1,%ymm0
  40201b:	c4 e2 ed b8 c8       	vfmadd231pd %ymm0,%ymm2,%ymm1
  402020:	c4 e2 fd b8 d1       	vfmadd231pd %ymm1,%ymm0,%ymm2
  402025:	c4 e2 f5 b8 c2       	vfmadd231pd %ymm2,%ymm1,%ymm0
  40202a:	c4 e2 ed b8 c8       	vfmadd231pd %ymm0,%ymm2,%ymm1
  40202f:	c4 e2 fd b8 d1       	vfmadd231pd %ymm1,%ymm0,%ymm2
  402034:	c4 e2 f5 b8 c2       	vfmadd231pd %ymm2,%ymm1,%ymm0
  402039:	c4 e2 ed b8 c8       	vfmadd231pd %ymm0,%ymm2,%ymm1
  40203e:	c4 e2 fd b8 d1       	vfmadd231pd %ymm1,%ymm0,%ymm2
  402043:	c4 e2 f5 b8 c2       	vfmadd231pd %ymm2,%ymm1,%ymm0
  402048:	c4 e2 ed b8 c8       	vfmadd231pd %ymm0,%ymm2,%ymm1
  40204d:	c4 e2 fd b8 d1       	vfmadd231pd %ymm1,%ymm0,%ymm2
  402052:	c4 e2 f5 b8 c2       	vfmadd231pd %ymm2,%ymm1,%ymm0
  402057:	c4 e2 ed b8 c8       	vfmadd231pd %ymm0,%ymm2,%ymm1
  40205c:	c4 e2 fd b8 d1       	vfmadd231pd %ymm1,%ymm0,%ymm2
  402061:	c4 e2 f5 b8 c2       	vfmadd231pd %ymm2,%ymm1,%ymm0
  402066:	c4 e2 ed b8 c8       	vfmadd231pd %ymm0,%ymm2,%ymm1
  40206b:	c4 e2 fd b8 d1       	vfmadd231pd %ymm1,%ymm0,%ymm2
  402070:	c4 e2 f5 b8 c2       	vfmadd231pd %ymm2,%ymm1,%ymm0
  402075:	c4 e2 ed b8 c8       	vfmadd231pd %ymm0,%ymm2,%ymm1
  40207a:	c4 e2 fd b8 d1       	vfmadd231pd %ymm1,%ymm0,%ymm2
  40207f:	c4 e2 f5 b8 c2       	vfmadd231pd %ymm2,%ymm1,%ymm0
  402084:	c4 e2 ed b8 c8       	vfmadd231pd %ymm0,%ymm2,%ymm1
  402089:	c4 e2 fd b8 d1       	vfmadd231pd %ymm1,%ymm0,%ymm2
  40208e:	c4 e2 f5 b8 c2       	vfmadd231pd %ymm2,%ymm1,%ymm0
  402093:	c4 e2 ed b8 c8       	vfmadd231pd %ymm0,%ymm2,%ymm1
  402098:	c4 e2 fd b8 d1       	vfmadd231pd %ymm1,%ymm0,%ymm2
  40209d:	c4 e2 f5 b8 c2       	vfmadd231pd %ymm2,%ymm1,%ymm0
  4020a2:	c4 e2 ed b8 c8       	vfmadd231pd %ymm0,%ymm2,%ymm1
  4020a7:	c4 e2 fd b8 d1       	vfmadd231pd %ymm1,%ymm0,%ymm2
  4020ac:	c4 e2 f5 b8 c2       	vfmadd231pd %ymm2,%ymm1,%ymm0
  4020b1:	c4 e2 ed b8 c8       	vfmadd231pd %ymm0,%ymm2,%ymm1
  4020b6:	c4 e2 fd b8 d1       	vfmadd231pd %ymm1,%ymm0,%ymm2
  4020bb:	c4 e2 f5 b8 c2       	vfmadd231pd %ymm2,%ymm1,%ymm0
  4020c0:	c4 e2 ed b8 c8       	vfmadd231pd %ymm0,%ymm2,%ymm1
  4020c5:	c4 e2 fd b8 d1       	vfmadd231pd %ymm1,%ymm0,%ymm2
  4020ca:	c4 e2 f5 b8 c2       	vfmadd231pd %ymm2,%ymm1,%ymm0
  4020cf:	c4 e2 ed b8 c8       	vfmadd231pd %ymm0,%ymm2,%ymm1
  4020d4:	c4 e2 fd b8 d1       	vfmadd231pd %ymm1,%ymm0,%ymm2
  4020d9:	c4 e2 f5 b8 c2       	vfmadd231pd %ymm2,%ymm1,%ymm0
  4020de:	c4 e2 ed b8 c8       	vfmadd231pd %ymm0,%ymm2,%ymm1
  4020e3:	c4 e2 fd b8 d1       	vfmadd231pd %ymm1,%ymm0,%ymm2
  4020e8:	c4 e2 f5 b8 c2       	vfmadd231pd %ymm2,%ymm1,%ymm0
  4020ed:	c4 e2 ed b8 c8       	vfmadd231pd %ymm0,%ymm2,%ymm1
  4020f2:	c4 e2 fd b8 d1       	vfmadd231pd %ymm1,%ymm0,%ymm2
  4020f7:	c4 e2 f5 b8 c2       	vfmadd231pd %ymm2,%ymm1,%ymm0
  4020fc:	c4 e2 ed b8 c8       	vfmadd231pd %ymm0,%ymm2,%ymm1
  402101:	c4 e2 fd b8 d1       	vfmadd231pd %ymm1,%ymm0,%ymm2
  402106:	c4 e2 f5 b8 c2       	vfmadd231pd %ymm2,%ymm1,%ymm0
  40210b:	c4 e2 ed b8 c8       	vfmadd231pd %ymm0,%ymm2,%ymm1
  402110:	c4 e2 fd b8 d1       	vfmadd231pd %ymm1,%ymm0,%ymm2
  402115:	c4 e2 f5 b8 c2       	vfmadd231pd %ymm2,%ymm1,%ymm0
  40211a:	c4 e2 ed b8 c8       	vfmadd231pd %ymm0,%ymm2,%ymm1
  40211f:	c4 e2 fd b8 d1       	vfmadd231pd %ymm1,%ymm0,%ymm2
  402124:	c4 e2 f5 b8 c2       	vfmadd231pd %ymm2,%ymm1,%ymm0
  402129:	c4 e2 ed b8 c8       	vfmadd231pd %ymm0,%ymm2,%ymm1
  40212e:	c4 e2 fd b8 d1       	vfmadd231pd %ymm1,%ymm0,%ymm2
  402133:	c4 e2 f5 b8 c2       	vfmadd231pd %ymm2,%ymm1,%ymm0
  402138:	c4 e2 ed b8 c8       	vfmadd231pd %ymm0,%ymm2,%ymm1
  40213d:	c4 e2 fd b8 d1       	vfmadd231pd %ymm1,%ymm0,%ymm2
  402142:	c4 e2 f5 b8 c2       	vfmadd231pd %ymm2,%ymm1,%ymm0
  402147:	c4 e2 ed b8 c8       	vfmadd231pd %ymm0,%ymm2,%ymm1
  40214c:	c4 e2 fd b8 d1       	vfmadd231pd %ymm1,%ymm0,%ymm2
  402151:	c4 e2 f5 b8 c2       	vfmadd231pd %ymm2,%ymm1,%ymm0
  402156:	c4 e2 ed b8 c8       	vfmadd231pd %ymm0,%ymm2,%ymm1
  40215b:	c4 e2 fd b8 d1       	vfmadd231pd %ymm1,%ymm0,%ymm2
  402160:	c4 e2 f5 b8 c2       	vfmadd231pd %ymm2,%ymm1,%ymm0
  402165:	c4 e2 ed b8 c8       	vfmadd231pd %ymm0,%ymm2,%ymm1
  40216a:	c4 e2 fd b8 d1       	vfmadd231pd %ymm1,%ymm0,%ymm2
  40216f:	c4 e2 f5 b8 c2       	vfmadd231pd %ymm2,%ymm1,%ymm0
  402174:	c4 e2 ed b8 c8       	vfmadd231pd %ymm0,%ymm2,%ymm1
  402179:	c4 e2 fd b8 d1       	vfmadd231pd %ymm1,%ymm0,%ymm2
  40217e:	c4 e2 f5 b8 c2       	vfmadd231pd %ymm2,%ymm1,%ymm0
  402183:	c4 e2 ed b8 c8       	vfmadd231pd %ymm0,%ymm2,%ymm1
  402188:	c4 e2 fd b8 d1       	vfmadd231pd %ymm1,%ymm0,%ymm2
  40218d:	c4 e2 f5 b8 c2       	vfmadd231pd %ymm2,%ymm1,%ymm0
  402192:	c4 e2 ed b8 c8       	vfmadd231pd %ymm0,%ymm2,%ymm1
  402197:	c4 e2 fd b8 d1       	vfmadd231pd %ymm1,%ymm0,%ymm2
  40219c:	c4 e2 f5 b8 c2       	vfmadd231pd %ymm2,%ymm1,%ymm0
  4021a1:	c4 e2 ed b8 c8       	vfmadd231pd %ymm0,%ymm2,%ymm1
  4021a6:	c4 e2 fd b8 d1       	vfmadd231pd %ymm1,%ymm0,%ymm2
  4021ab:	c4 e2 f5 b8 c2       	vfmadd231pd %ymm2,%ymm1,%ymm0
  4021b0:	c4 e2 ed b8 c8       	vfmadd231pd %ymm0,%ymm2,%ymm1
  4021b5:	c4 e2 fd b8 d1       	vfmadd231pd %ymm1,%ymm0,%ymm2
  4021ba:	c4 e2 f5 b8 c2       	vfmadd231pd %ymm2,%ymm1,%ymm0
  4021bf:	c4 e2 ed b8 c8       	vfmadd231pd %ymm0,%ymm2,%ymm1
  4021c4:	c4 e2 fd b8 d1       	vfmadd231pd %ymm1,%ymm0,%ymm2
  4021c9:	c4 e2 f5 b8 c2       	vfmadd231pd %ymm2,%ymm1,%ymm0
  4021ce:	c4 e2 ed b8 c8       	vfmadd231pd %ymm0,%ymm2,%ymm1
  4021d3:	c4 e2 fd b8 d1       	vfmadd231pd %ymm1,%ymm0,%ymm2
  4021d8:	c4 e2 f5 b8 c2       	vfmadd231pd %ymm2,%ymm1,%ymm0
  4021dd:	c4 e2 ed b8 c8       	vfmadd231pd %ymm0,%ymm2,%ymm1
  4021e2:	c4 e2 fd b8 d1       	vfmadd231pd %ymm1,%ymm0,%ymm2
  4021e7:	c4 e2 f5 b8 c2       	vfmadd231pd %ymm2,%ymm1,%ymm0
  4021ec:	c4 e2 ed b8 c8       	vfmadd231pd %ymm0,%ymm2,%ymm1
  4021f1:	c4 e2 fd b8 d1       	vfmadd231pd %ymm1,%ymm0,%ymm2
  4021f6:	c4 e2 f5 b8 c2       	vfmadd231pd %ymm2,%ymm1,%ymm0
  4021fb:	c4 e2 ed b8 c8       	vfmadd231pd %ymm0,%ymm2,%ymm1
  402200:	c4 e2 fd b8 d1       	vfmadd231pd %ymm1,%ymm0,%ymm2
  402205:	c4 e2 f5 b8 c2       	vfmadd231pd %ymm2,%ymm1,%ymm0
  40220a:	c4 e2 ed b8 c8       	vfmadd231pd %ymm0,%ymm2,%ymm1
  40220f:	c4 e2 fd b8 d1       	vfmadd231pd %ymm1,%ymm0,%ymm2
  402214:	c4 e2 f5 b8 c2       	vfmadd231pd %ymm2,%ymm1,%ymm0
  402219:	c4 e2 ed b8 c8       	vfmadd231pd %ymm0,%ymm2,%ymm1
  40221e:	c4 e2 fd b8 d1       	vfmadd231pd %ymm1,%ymm0,%ymm2
  402223:	c4 e2 f5 b8 c2       	vfmadd231pd %ymm2,%ymm1,%ymm0
  402228:	c4 e2 ed b8 c8       	vfmadd231pd %ymm0,%ymm2,%ymm1
  40222d:	c4 e2 fd b8 d1       	vfmadd231pd %ymm1,%ymm0,%ymm2
  402232:	c4 e2 f5 b8 c2       	vfmadd231pd %ymm2,%ymm1,%ymm0
  402237:	c4 e2 ed b8 c8       	vfmadd231pd %ymm0,%ymm2,%ymm1
  40223c:	c4 e2 fd b8 d1       	vfmadd231pd %ymm1,%ymm0,%ymm2
  402241:	c4 e2 f5 b8 c2       	vfmadd231pd %ymm2,%ymm1,%ymm0
  402246:	c4 e2 ed b8 c8       	vfmadd231pd %ymm0,%ymm2,%ymm1
  40224b:	c4 e2 fd b8 d1       	vfmadd231pd %ymm1,%ymm0,%ymm2
  402250:	c4 e2 f5 b8 c2       	vfmadd231pd %ymm2,%ymm1,%ymm0
  402255:	c4 e2 ed b8 c8       	vfmadd231pd %ymm0,%ymm2,%ymm1
  40225a:	c4 e2 fd b8 d1       	vfmadd231pd %ymm1,%ymm0,%ymm2
  40225f:	c4 e2 f5 b8 c2       	vfmadd231pd %ymm2,%ymm1,%ymm0
  402264:	c4 e2 ed b8 c8       	vfmadd231pd %ymm0,%ymm2,%ymm1
  402269:	c4 e2 fd b8 d1       	vfmadd231pd %ymm1,%ymm0,%ymm2
  40226e:	c4 e2 f5 b8 c2       	vfmadd231pd %ymm2,%ymm1,%ymm0
  402273:	c4 e2 ed b8 c8       	vfmadd231pd %ymm0,%ymm2,%ymm1
  402278:	c4 e2 fd b8 d1       	vfmadd231pd %ymm1,%ymm0,%ymm2
  40227d:	c4 e2 f5 b8 c2       	vfmadd231pd %ymm2,%ymm1,%ymm0
  402282:	c4 e2 ed b8 c8       	vfmadd231pd %ymm0,%ymm2,%ymm1
  402287:	c4 e2 fd b8 d1       	vfmadd231pd %ymm1,%ymm0,%ymm2
  40228c:	c4 e2 f5 b8 c2       	vfmadd231pd %ymm2,%ymm1,%ymm0
  402291:	c4 e2 ed b8 c8       	vfmadd231pd %ymm0,%ymm2,%ymm1
  402296:	c4 e2 fd b8 d1       	vfmadd231pd %ymm1,%ymm0,%ymm2
  40229b:	c4 e2 f5 b8 c2       	vfmadd231pd %ymm2,%ymm1,%ymm0
  4022a0:	c4 e2 ed b8 c8       	vfmadd231pd %ymm0,%ymm2,%ymm1
  4022a5:	c4 e2 fd b8 d1       	vfmadd231pd %ymm1,%ymm0,%ymm2
  4022aa:	c4 e2 f5 b8 c2       	vfmadd231pd %ymm2,%ymm1,%ymm0
  4022af:	c4 e2 ed b8 c8       	vfmadd231pd %ymm0,%ymm2,%ymm1
  4022b4:	c4 e2 fd b8 d1       	vfmadd231pd %ymm1,%ymm0,%ymm2
  4022b9:	c4 e2 f5 b8 c2       	vfmadd231pd %ymm2,%ymm1,%ymm0
  4022be:	c4 e2 ed b8 c8       	vfmadd231pd %ymm0,%ymm2,%ymm1
  4022c3:	c4 e2 fd b8 d1       	vfmadd231pd %ymm1,%ymm0,%ymm2
  4022c8:	c4 e2 f5 b8 c2       	vfmadd231pd %ymm2,%ymm1,%ymm0
  4022cd:	c4 e2 ed b8 c8       	vfmadd231pd %ymm0,%ymm2,%ymm1
  4022d2:	c4 e2 fd b8 d1       	vfmadd231pd %ymm1,%ymm0,%ymm2
  4022d7:	c4 e2 f5 b8 c2       	vfmadd231pd %ymm2,%ymm1,%ymm0
  4022dc:	c4 e2 ed b8 c8       	vfmadd231pd %ymm0,%ymm2,%ymm1
  4022e1:	c4 e2 fd b8 d1       	vfmadd231pd %ymm1,%ymm0,%ymm2
  4022e6:	c4 e2 f5 b8 c2       	vfmadd231pd %ymm2,%ymm1,%ymm0
  4022eb:	c4 e2 ed b8 c8       	vfmadd231pd %ymm0,%ymm2,%ymm1
  4022f0:	c4 e2 fd b8 d1       	vfmadd231pd %ymm1,%ymm0,%ymm2
  4022f5:	c4 e2 f5 b8 c2       	vfmadd231pd %ymm2,%ymm1,%ymm0
  4022fa:	c4 e2 ed b8 c8       	vfmadd231pd %ymm0,%ymm2,%ymm1
  4022ff:	c4 e2 fd b8 d1       	vfmadd231pd %ymm1,%ymm0,%ymm2
  402304:	c4 e2 f5 b8 c2       	vfmadd231pd %ymm2,%ymm1,%ymm0
  402309:	c4 e2 ed b8 c8       	vfmadd231pd %ymm0,%ymm2,%ymm1
  40230e:	c4 e2 fd b8 d1       	vfmadd231pd %ymm1,%ymm0,%ymm2
  402313:	c4 e2 f5 b8 c2       	vfmadd231pd %ymm2,%ymm1,%ymm0
  402318:	c4 e2 ed b8 c8       	vfmadd231pd %ymm0,%ymm2,%ymm1
  40231d:	c4 e2 fd b8 d1       	vfmadd231pd %ymm1,%ymm0,%ymm2
  402322:	c4 e2 f5 b8 c2       	vfmadd231pd %ymm2,%ymm1,%ymm0
  402327:	c4 e2 ed b8 c8       	vfmadd231pd %ymm0,%ymm2,%ymm1
  40232c:	c4 e2 fd b8 d1       	vfmadd231pd %ymm1,%ymm0,%ymm2
  402331:	c4 e2 f5 b8 c2       	vfmadd231pd %ymm2,%ymm1,%ymm0
  402336:	c4 e2 ed b8 c8       	vfmadd231pd %ymm0,%ymm2,%ymm1
  40233b:	c4 e2 fd b8 d1       	vfmadd231pd %ymm1,%ymm0,%ymm2
  402340:	c4 e2 f5 b8 c2       	vfmadd231pd %ymm2,%ymm1,%ymm0
  402345:	c4 e2 ed b8 c8       	vfmadd231pd %ymm0,%ymm2,%ymm1
  40234a:	c4 e2 fd b8 d1       	vfmadd231pd %ymm1,%ymm0,%ymm2
  40234f:	c4 e2 f5 b8 c2       	vfmadd231pd %ymm2,%ymm1,%ymm0
  402354:	c4 e2 ed b8 c8       	vfmadd231pd %ymm0,%ymm2,%ymm1
  402359:	c4 e2 fd b8 d1       	vfmadd231pd %ymm1,%ymm0,%ymm2
  40235e:	c4 e2 f5 b8 c2       	vfmadd231pd %ymm2,%ymm1,%ymm0
  402363:	c4 e2 ed b8 c8       	vfmadd231pd %ymm0,%ymm2,%ymm1
  402368:	c4 e2 fd b8 d1       	vfmadd231pd %ymm1,%ymm0,%ymm2
  40236d:	c4 e2 f5 b8 c2       	vfmadd231pd %ymm2,%ymm1,%ymm0
  402372:	c4 e2 ed b8 c8       	vfmadd231pd %ymm0,%ymm2,%ymm1
  402377:	c4 e2 fd b8 d1       	vfmadd231pd %ymm1,%ymm0,%ymm2
  40237c:	c4 e2 f5 b8 c2       	vfmadd231pd %ymm2,%ymm1,%ymm0
  402381:	c4 e2 ed b8 c8       	vfmadd231pd %ymm0,%ymm2,%ymm1
  402386:	c4 e2 fd b8 d1       	vfmadd231pd %ymm1,%ymm0,%ymm2
  40238b:	c4 e2 f5 b8 c2       	vfmadd231pd %ymm2,%ymm1,%ymm0
  402390:	c4 e2 ed b8 c8       	vfmadd231pd %ymm0,%ymm2,%ymm1
  402395:	c4 e2 fd b8 d1       	vfmadd231pd %ymm1,%ymm0,%ymm2
  40239a:	c4 e2 f5 b8 c2       	vfmadd231pd %ymm2,%ymm1,%ymm0
  40239f:	c4 e2 ed b8 c8       	vfmadd231pd %ymm0,%ymm2,%ymm1
  4023a4:	c4 e2 fd b8 d1       	vfmadd231pd %ymm1,%ymm0,%ymm2
  4023a9:	c4 e2 f5 b8 c2       	vfmadd231pd %ymm2,%ymm1,%ymm0
  4023ae:	c4 e2 ed b8 c8       	vfmadd231pd %ymm0,%ymm2,%ymm1
  4023b3:	c4 e2 fd b8 d1       	vfmadd231pd %ymm1,%ymm0,%ymm2
  4023b8:	c4 e2 f5 b8 c2       	vfmadd231pd %ymm2,%ymm1,%ymm0
  4023bd:	c4 e2 ed b8 c8       	vfmadd231pd %ymm0,%ymm2,%ymm1
  4023c2:	c4 e2 fd b8 d1       	vfmadd231pd %ymm1,%ymm0,%ymm2
  4023c7:	c4 e2 f5 b8 c2       	vfmadd231pd %ymm2,%ymm1,%ymm0
  4023cc:	c4 e2 ed b8 c8       	vfmadd231pd %ymm0,%ymm2,%ymm1
  4023d1:	c4 e2 fd b8 d1       	vfmadd231pd %ymm1,%ymm0,%ymm2
  4023d6:	c4 e2 f5 b8 c2       	vfmadd231pd %ymm2,%ymm1,%ymm0
  4023db:	c4 e2 ed b8 c8       	vfmadd231pd %ymm0,%ymm2,%ymm1
  4023e0:	c4 e2 fd b8 d1       	vfmadd231pd %ymm1,%ymm0,%ymm2
  4023e5:	c4 e2 f5 b8 c2       	vfmadd231pd %ymm2,%ymm1,%ymm0
  4023ea:	c4 e2 ed b8 c8       	vfmadd231pd %ymm0,%ymm2,%ymm1
  4023ef:	c4 e2 fd b8 d1       	vfmadd231pd %ymm1,%ymm0,%ymm2
  4023f4:	c4 e2 f5 b8 c2       	vfmadd231pd %ymm2,%ymm1,%ymm0
  4023f9:	c4 e2 ed b8 c8       	vfmadd231pd %ymm0,%ymm2,%ymm1
  4023fe:	c4 e2 fd b8 d1       	vfmadd231pd %ymm1,%ymm0,%ymm2
  402403:	c4 e2 f5 b8 c2       	vfmadd231pd %ymm2,%ymm1,%ymm0
  402408:	c4 e2 ed b8 c8       	vfmadd231pd %ymm0,%ymm2,%ymm1
  40240d:	c4 e2 fd b8 d1       	vfmadd231pd %ymm1,%ymm0,%ymm2
  402412:	c4 e2 f5 b8 c2       	vfmadd231pd %ymm2,%ymm1,%ymm0
  402417:	c4 e2 ed b8 c8       	vfmadd231pd %ymm0,%ymm2,%ymm1
  40241c:	c4 e2 fd b8 d1       	vfmadd231pd %ymm1,%ymm0,%ymm2
  402421:	c4 e2 f5 b8 c2       	vfmadd231pd %ymm2,%ymm1,%ymm0
  402426:	c4 e2 ed b8 c8       	vfmadd231pd %ymm0,%ymm2,%ymm1
  40242b:	c4 e2 fd b8 d1       	vfmadd231pd %ymm1,%ymm0,%ymm2
  402430:	c4 e2 f5 b8 c2       	vfmadd231pd %ymm2,%ymm1,%ymm0
  402435:	c4 e2 ed b8 c8       	vfmadd231pd %ymm0,%ymm2,%ymm1
  40243a:	c4 e2 fd b8 d1       	vfmadd231pd %ymm1,%ymm0,%ymm2
  40243f:	c4 e2 f5 b8 c2       	vfmadd231pd %ymm2,%ymm1,%ymm0
  402444:	c4 e2 ed b8 c8       	vfmadd231pd %ymm0,%ymm2,%ymm1
  402449:	c4 e2 fd b8 d1       	vfmadd231pd %ymm1,%ymm0,%ymm2
  40244e:	c4 e2 f5 b8 c2       	vfmadd231pd %ymm2,%ymm1,%ymm0
  402453:	c4 e2 ed b8 c8       	vfmadd231pd %ymm0,%ymm2,%ymm1
  402458:	c4 e2 fd b8 d1       	vfmadd231pd %ymm1,%ymm0,%ymm2
  40245d:	c4 e2 f5 b8 c2       	vfmadd231pd %ymm2,%ymm1,%ymm0
  402462:	c4 e2 ed b8 c8       	vfmadd231pd %ymm0,%ymm2,%ymm1
  402467:	c4 e2 fd b8 d1       	vfmadd231pd %ymm1,%ymm0,%ymm2
  40246c:	c4 e2 f5 b8 c2       	vfmadd231pd %ymm2,%ymm1,%ymm0
  402471:	c4 e2 ed b8 c8       	vfmadd231pd %ymm0,%ymm2,%ymm1
  402476:	c4 e2 fd b8 d1       	vfmadd231pd %ymm1,%ymm0,%ymm2
  40247b:	c4 e2 f5 b8 c2       	vfmadd231pd %ymm2,%ymm1,%ymm0
  402480:	c4 e2 ed b8 c8       	vfmadd231pd %ymm0,%ymm2,%ymm1
  402485:	c4 e2 fd b8 d1       	vfmadd231pd %ymm1,%ymm0,%ymm2
  40248a:	c4 e2 f5 b8 c2       	vfmadd231pd %ymm2,%ymm1,%ymm0
  40248f:	c4 e2 ed b8 c8       	vfmadd231pd %ymm0,%ymm2,%ymm1
  402494:	c4 e2 fd b8 d1       	vfmadd231pd %ymm1,%ymm0,%ymm2
  402499:	c4 e2 f5 b8 c2       	vfmadd231pd %ymm2,%ymm1,%ymm0
  40249e:	c4 e2 ed b8 c8       	vfmadd231pd %ymm0,%ymm2,%ymm1
  4024a3:	c4 e2 fd b8 d1       	vfmadd231pd %ymm1,%ymm0,%ymm2
  4024a8:	c4 e2 f5 b8 c2       	vfmadd231pd %ymm2,%ymm1,%ymm0
  4024ad:	c4 e2 ed b8 c8       	vfmadd231pd %ymm0,%ymm2,%ymm1
  4024b2:	c4 e2 fd b8 d1       	vfmadd231pd %ymm1,%ymm0,%ymm2
  4024b7:	c4 e2 f5 b8 c2       	vfmadd231pd %ymm2,%ymm1,%ymm0
  4024bc:	c4 e2 ed b8 c8       	vfmadd231pd %ymm0,%ymm2,%ymm1
  4024c1:	c4 e2 fd b8 d1       	vfmadd231pd %ymm1,%ymm0,%ymm2
  4024c6:	c4 e2 f5 b8 c2       	vfmadd231pd %ymm2,%ymm1,%ymm0
  4024cb:	c4 e2 ed b8 c8       	vfmadd231pd %ymm0,%ymm2,%ymm1
  4024d0:	c4 e2 fd b8 d1       	vfmadd231pd %ymm1,%ymm0,%ymm2
  4024d5:	c4 e2 f5 b8 c2       	vfmadd231pd %ymm2,%ymm1,%ymm0
  4024da:	c4 e2 ed b8 c8       	vfmadd231pd %ymm0,%ymm2,%ymm1
  4024df:	c4 e2 fd b8 d1       	vfmadd231pd %ymm1,%ymm0,%ymm2
  4024e4:	c4 e2 f5 b8 c2       	vfmadd231pd %ymm2,%ymm1,%ymm0
  4024e9:	c4 e2 ed b8 c8       	vfmadd231pd %ymm0,%ymm2,%ymm1
  4024ee:	c4 e2 fd b8 d1       	vfmadd231pd %ymm1,%ymm0,%ymm2
  4024f3:	c4 e2 f5 b8 c2       	vfmadd231pd %ymm2,%ymm1,%ymm0
  4024f8:	c4 e2 ed b8 c8       	vfmadd231pd %ymm0,%ymm2,%ymm1
  4024fd:	c4 e2 fd b8 d1       	vfmadd231pd %ymm1,%ymm0,%ymm2
  402502:	c4 e2 f5 b8 c2       	vfmadd231pd %ymm2,%ymm1,%ymm0
  402507:	c4 e2 ed b8 c8       	vfmadd231pd %ymm0,%ymm2,%ymm1
  40250c:	c4 e2 fd b8 d1       	vfmadd231pd %ymm1,%ymm0,%ymm2
  402511:	c4 e2 f5 b8 c2       	vfmadd231pd %ymm2,%ymm1,%ymm0
  402516:	c4 e2 ed b8 c8       	vfmadd231pd %ymm0,%ymm2,%ymm1
  40251b:	c4 e2 fd b8 d1       	vfmadd231pd %ymm1,%ymm0,%ymm2
  402520:	c4 e2 f5 b8 c2       	vfmadd231pd %ymm2,%ymm1,%ymm0
  402525:	c4 e2 ed b8 c8       	vfmadd231pd %ymm0,%ymm2,%ymm1
  40252a:	c4 e2 fd b8 d1       	vfmadd231pd %ymm1,%ymm0,%ymm2
  40252f:	c4 e2 f5 b8 c2       	vfmadd231pd %ymm2,%ymm1,%ymm0
  402534:	c4 e2 ed b8 c8       	vfmadd231pd %ymm0,%ymm2,%ymm1
  402539:	c4 e2 fd b8 d1       	vfmadd231pd %ymm1,%ymm0,%ymm2
  40253e:	c4 e2 f5 b8 c2       	vfmadd231pd %ymm2,%ymm1,%ymm0
  402543:	c4 e2 ed b8 c8       	vfmadd231pd %ymm0,%ymm2,%ymm1
  402548:	c4 e2 fd b8 d1       	vfmadd231pd %ymm1,%ymm0,%ymm2
  40254d:	c4 e2 f5 b8 c2       	vfmadd231pd %ymm2,%ymm1,%ymm0
  402552:	c4 e2 ed b8 c8       	vfmadd231pd %ymm0,%ymm2,%ymm1
  402557:	c4 e2 fd b8 d1       	vfmadd231pd %ymm1,%ymm0,%ymm2
  40255c:	c4 e2 f5 b8 c2       	vfmadd231pd %ymm2,%ymm1,%ymm0
  402561:	c4 e2 ed b8 c8       	vfmadd231pd %ymm0,%ymm2,%ymm1
  402566:	c4 e2 fd b8 d1       	vfmadd231pd %ymm1,%ymm0,%ymm2
  40256b:	c4 e2 f5 b8 c2       	vfmadd231pd %ymm2,%ymm1,%ymm0
  402570:	c4 e2 ed b8 c8       	vfmadd231pd %ymm0,%ymm2,%ymm1
  402575:	c4 e2 fd b8 d1       	vfmadd231pd %ymm1,%ymm0,%ymm2
  40257a:	c4 e2 f5 b8 c2       	vfmadd231pd %ymm2,%ymm1,%ymm0
  40257f:	c4 e2 ed b8 c8       	vfmadd231pd %ymm0,%ymm2,%ymm1
  402584:	c4 e2 fd b8 d1       	vfmadd231pd %ymm1,%ymm0,%ymm2
  402589:	c4 e2 f5 b8 c2       	vfmadd231pd %ymm2,%ymm1,%ymm0
  40258e:	c4 e2 ed b8 c8       	vfmadd231pd %ymm0,%ymm2,%ymm1
  402593:	c4 e2 fd b8 d1       	vfmadd231pd %ymm1,%ymm0,%ymm2
  402598:	c4 e2 f5 b8 c2       	vfmadd231pd %ymm2,%ymm1,%ymm0
  40259d:	c4 e2 ed b8 c8       	vfmadd231pd %ymm0,%ymm2,%ymm1
  4025a2:	c4 e2 fd b8 d1       	vfmadd231pd %ymm1,%ymm0,%ymm2
  4025a7:	c4 e2 f5 b8 c2       	vfmadd231pd %ymm2,%ymm1,%ymm0
  4025ac:	c4 e2 ed b8 c8       	vfmadd231pd %ymm0,%ymm2,%ymm1
  4025b1:	c4 e2 fd b8 d1       	vfmadd231pd %ymm1,%ymm0,%ymm2
  4025b6:	c4 e2 f5 b8 c2       	vfmadd231pd %ymm2,%ymm1,%ymm0
  4025bb:	c4 e2 ed b8 c8       	vfmadd231pd %ymm0,%ymm2,%ymm1
  4025c0:	c4 e2 fd b8 d1       	vfmadd231pd %ymm1,%ymm0,%ymm2
  4025c5:	c4 e2 f5 b8 c2       	vfmadd231pd %ymm2,%ymm1,%ymm0
  4025ca:	c4 e2 ed b8 c8       	vfmadd231pd %ymm0,%ymm2,%ymm1
  4025cf:	c4 e2 fd b8 d1       	vfmadd231pd %ymm1,%ymm0,%ymm2
  4025d4:	c4 e2 f5 b8 c2       	vfmadd231pd %ymm2,%ymm1,%ymm0
  4025d9:	c4 e2 ed b8 c8       	vfmadd231pd %ymm0,%ymm2,%ymm1
  4025de:	c4 e2 fd b8 d1       	vfmadd231pd %ymm1,%ymm0,%ymm2
  4025e3:	c4 e2 f5 b8 c2       	vfmadd231pd %ymm2,%ymm1,%ymm0
  4025e8:	c4 e2 ed b8 c8       	vfmadd231pd %ymm0,%ymm2,%ymm1
  4025ed:	c4 e2 fd b8 d1       	vfmadd231pd %ymm1,%ymm0,%ymm2
  4025f2:	c4 e2 f5 b8 c2       	vfmadd231pd %ymm2,%ymm1,%ymm0
  4025f7:	c4 e2 ed b8 c8       	vfmadd231pd %ymm0,%ymm2,%ymm1
  4025fc:	c4 e2 fd b8 d1       	vfmadd231pd %ymm1,%ymm0,%ymm2
  402601:	c4 e2 f5 b8 c2       	vfmadd231pd %ymm2,%ymm1,%ymm0
  402606:	c4 e2 ed b8 c8       	vfmadd231pd %ymm0,%ymm2,%ymm1
  40260b:	c4 e2 fd b8 d1       	vfmadd231pd %ymm1,%ymm0,%ymm2
  402610:	c4 e2 f5 b8 c2       	vfmadd231pd %ymm2,%ymm1,%ymm0
  402615:	c4 e2 ed b8 c8       	vfmadd231pd %ymm0,%ymm2,%ymm1
  40261a:	c4 e2 fd b8 d1       	vfmadd231pd %ymm1,%ymm0,%ymm2
  40261f:	c4 e2 f5 b8 c2       	vfmadd231pd %ymm2,%ymm1,%ymm0
  402624:	c4 e2 ed b8 c8       	vfmadd231pd %ymm0,%ymm2,%ymm1
  402629:	c4 e2 fd b8 d1       	vfmadd231pd %ymm1,%ymm0,%ymm2
  40262e:	c4 e2 f5 b8 c2       	vfmadd231pd %ymm2,%ymm1,%ymm0
  402633:	c4 e2 ed b8 c8       	vfmadd231pd %ymm0,%ymm2,%ymm1
  402638:	c4 e2 fd b8 d1       	vfmadd231pd %ymm1,%ymm0,%ymm2
  40263d:	c4 e2 f5 b8 c2       	vfmadd231pd %ymm2,%ymm1,%ymm0
  402642:	c4 e2 ed b8 c8       	vfmadd231pd %ymm0,%ymm2,%ymm1
  402647:	c4 e2 fd b8 d1       	vfmadd231pd %ymm1,%ymm0,%ymm2
  40264c:	c4 e2 f5 b8 c2       	vfmadd231pd %ymm2,%ymm1,%ymm0
  402651:	c4 e2 ed b8 c8       	vfmadd231pd %ymm0,%ymm2,%ymm1
  402656:	c4 e2 fd b8 d1       	vfmadd231pd %ymm1,%ymm0,%ymm2
  40265b:	c4 e2 f5 b8 c2       	vfmadd231pd %ymm2,%ymm1,%ymm0
  402660:	c4 e2 ed b8 c8       	vfmadd231pd %ymm0,%ymm2,%ymm1
  402665:	c4 e2 fd b8 d1       	vfmadd231pd %ymm1,%ymm0,%ymm2
  40266a:	c4 e2 f5 b8 c2       	vfmadd231pd %ymm2,%ymm1,%ymm0
  40266f:	c4 e2 ed b8 c8       	vfmadd231pd %ymm0,%ymm2,%ymm1
  402674:	c4 e2 fd b8 d1       	vfmadd231pd %ymm1,%ymm0,%ymm2
  402679:	c4 e2 f5 b8 c2       	vfmadd231pd %ymm2,%ymm1,%ymm0
  40267e:	c4 e2 ed b8 c8       	vfmadd231pd %ymm0,%ymm2,%ymm1
  402683:	c4 e2 fd b8 d1       	vfmadd231pd %ymm1,%ymm0,%ymm2
  402688:	c4 e2 f5 b8 c2       	vfmadd231pd %ymm2,%ymm1,%ymm0
  40268d:	c4 e2 ed b8 c8       	vfmadd231pd %ymm0,%ymm2,%ymm1
  402692:	c4 e2 fd b8 d1       	vfmadd231pd %ymm1,%ymm0,%ymm2
  402697:	c4 e2 f5 b8 c2       	vfmadd231pd %ymm2,%ymm1,%ymm0
  40269c:	c4 e2 ed b8 c8       	vfmadd231pd %ymm0,%ymm2,%ymm1
  4026a1:	c4 e2 fd b8 d1       	vfmadd231pd %ymm1,%ymm0,%ymm2
  4026a6:	c4 e2 f5 b8 c2       	vfmadd231pd %ymm2,%ymm1,%ymm0
  4026ab:	c4 e2 ed b8 c8       	vfmadd231pd %ymm0,%ymm2,%ymm1
  4026b0:	c4 e2 fd b8 d1       	vfmadd231pd %ymm1,%ymm0,%ymm2
  4026b5:	c4 e2 f5 b8 c2       	vfmadd231pd %ymm2,%ymm1,%ymm0
  4026ba:	c4 e2 ed b8 c8       	vfmadd231pd %ymm0,%ymm2,%ymm1
  4026bf:	c4 e2 fd b8 d1       	vfmadd231pd %ymm1,%ymm0,%ymm2
  4026c4:	c4 e2 f5 b8 c2       	vfmadd231pd %ymm2,%ymm1,%ymm0
  4026c9:	c4 e2 ed b8 c8       	vfmadd231pd %ymm0,%ymm2,%ymm1
  4026ce:	c4 e2 fd b8 d1       	vfmadd231pd %ymm1,%ymm0,%ymm2
  4026d3:	c4 e2 f5 b8 c2       	vfmadd231pd %ymm2,%ymm1,%ymm0
  4026d8:	c4 e2 ed b8 c8       	vfmadd231pd %ymm0,%ymm2,%ymm1
  4026dd:	c4 e2 fd b8 d1       	vfmadd231pd %ymm1,%ymm0,%ymm2
  4026e2:	c4 e2 f5 b8 c2       	vfmadd231pd %ymm2,%ymm1,%ymm0
  4026e7:	c4 e2 ed b8 c8       	vfmadd231pd %ymm0,%ymm2,%ymm1
  4026ec:	c4 e2 fd b8 d1       	vfmadd231pd %ymm1,%ymm0,%ymm2
  4026f1:	c4 e2 f5 b8 c2       	vfmadd231pd %ymm2,%ymm1,%ymm0
  4026f6:	c4 e2 ed b8 c8       	vfmadd231pd %ymm0,%ymm2,%ymm1
  4026fb:	c4 e2 fd b8 d1       	vfmadd231pd %ymm1,%ymm0,%ymm2
  402700:	c4 e2 f5 b8 c2       	vfmadd231pd %ymm2,%ymm1,%ymm0
  402705:	c4 e2 ed b8 c8       	vfmadd231pd %ymm0,%ymm2,%ymm1
  40270a:	c4 e2 fd b8 d1       	vfmadd231pd %ymm1,%ymm0,%ymm2
  40270f:	c4 e2 f5 b8 c2       	vfmadd231pd %ymm2,%ymm1,%ymm0
  402714:	c4 e2 ed b8 c8       	vfmadd231pd %ymm0,%ymm2,%ymm1
  402719:	c4 e2 fd b8 d1       	vfmadd231pd %ymm1,%ymm0,%ymm2
  40271e:	c4 e2 f5 b8 c2       	vfmadd231pd %ymm2,%ymm1,%ymm0
  402723:	c4 e2 ed b8 c8       	vfmadd231pd %ymm0,%ymm2,%ymm1
  402728:	c4 e2 fd b8 d1       	vfmadd231pd %ymm1,%ymm0,%ymm2
  40272d:	c4 e2 f5 b8 c2       	vfmadd231pd %ymm2,%ymm1,%ymm0
  402732:	c4 e2 ed b8 c8       	vfmadd231pd %ymm0,%ymm2,%ymm1
  402737:	c4 e2 fd b8 d1       	vfmadd231pd %ymm1,%ymm0,%ymm2
  40273c:	c4 e2 f5 b8 c2       	vfmadd231pd %ymm2,%ymm1,%ymm0
  402741:	c4 e2 ed b8 c8       	vfmadd231pd %ymm0,%ymm2,%ymm1
  402746:	c4 e2 fd b8 d1       	vfmadd231pd %ymm1,%ymm0,%ymm2
  40274b:	c4 e2 f5 b8 c2       	vfmadd231pd %ymm2,%ymm1,%ymm0
  402750:	c4 e2 ed b8 c8       	vfmadd231pd %ymm0,%ymm2,%ymm1
  402755:	c4 e2 fd b8 d1       	vfmadd231pd %ymm1,%ymm0,%ymm2
  40275a:	c4 e2 f5 b8 c2       	vfmadd231pd %ymm2,%ymm1,%ymm0
  40275f:	c4 e2 ed b8 c8       	vfmadd231pd %ymm0,%ymm2,%ymm1
  402764:	c4 e2 fd b8 d1       	vfmadd231pd %ymm1,%ymm0,%ymm2
  402769:	c4 e2 f5 b8 c2       	vfmadd231pd %ymm2,%ymm1,%ymm0
  40276e:	c4 e2 ed b8 c8       	vfmadd231pd %ymm0,%ymm2,%ymm1
  402773:	c4 e2 fd b8 d1       	vfmadd231pd %ymm1,%ymm0,%ymm2
  402778:	c4 e2 f5 b8 c2       	vfmadd231pd %ymm2,%ymm1,%ymm0
  40277d:	c4 e2 ed b8 c8       	vfmadd231pd %ymm0,%ymm2,%ymm1
  402782:	c4 e2 fd b8 d1       	vfmadd231pd %ymm1,%ymm0,%ymm2
  402787:	c4 e2 f5 b8 c2       	vfmadd231pd %ymm2,%ymm1,%ymm0
  40278c:	c4 e2 ed b8 c8       	vfmadd231pd %ymm0,%ymm2,%ymm1
  402791:	c4 e2 fd b8 d1       	vfmadd231pd %ymm1,%ymm0,%ymm2
  402796:	c4 e2 f5 b8 c2       	vfmadd231pd %ymm2,%ymm1,%ymm0
  40279b:	c4 e2 ed b8 c8       	vfmadd231pd %ymm0,%ymm2,%ymm1
  4027a0:	c4 e2 fd b8 d1       	vfmadd231pd %ymm1,%ymm0,%ymm2
  4027a5:	c4 e2 f5 b8 c2       	vfmadd231pd %ymm2,%ymm1,%ymm0
  4027aa:	c4 e2 ed b8 c8       	vfmadd231pd %ymm0,%ymm2,%ymm1
  4027af:	c4 e2 fd b8 d1       	vfmadd231pd %ymm1,%ymm0,%ymm2
  4027b4:	c4 e2 f5 b8 c2       	vfmadd231pd %ymm2,%ymm1,%ymm0
  4027b9:	c4 e2 ed b8 c8       	vfmadd231pd %ymm0,%ymm2,%ymm1
  4027be:	c4 e2 fd b8 d1       	vfmadd231pd %ymm1,%ymm0,%ymm2
  4027c3:	c4 e2 f5 b8 c2       	vfmadd231pd %ymm2,%ymm1,%ymm0
  4027c8:	c4 e2 ed b8 c8       	vfmadd231pd %ymm0,%ymm2,%ymm1
  4027cd:	c4 e2 fd b8 d1       	vfmadd231pd %ymm1,%ymm0,%ymm2
  4027d2:	c4 e2 f5 b8 c2       	vfmadd231pd %ymm2,%ymm1,%ymm0
  4027d7:	c4 e2 ed b8 c8       	vfmadd231pd %ymm0,%ymm2,%ymm1
  4027dc:	c4 e2 fd b8 d1       	vfmadd231pd %ymm1,%ymm0,%ymm2
  4027e1:	c4 e2 f5 b8 c2       	vfmadd231pd %ymm2,%ymm1,%ymm0
  4027e6:	c4 e2 ed b8 c8       	vfmadd231pd %ymm0,%ymm2,%ymm1
  4027eb:	c4 e2 fd b8 d1       	vfmadd231pd %ymm1,%ymm0,%ymm2
  4027f0:	c4 e2 f5 b8 c2       	vfmadd231pd %ymm2,%ymm1,%ymm0
  4027f5:	c4 e2 ed b8 c8       	vfmadd231pd %ymm0,%ymm2,%ymm1
  4027fa:	c4 e2 fd b8 d1       	vfmadd231pd %ymm1,%ymm0,%ymm2
  4027ff:	c4 e2 f5 b8 c2       	vfmadd231pd %ymm2,%ymm1,%ymm0
  402804:	c4 e2 ed b8 c8       	vfmadd231pd %ymm0,%ymm2,%ymm1
  402809:	c4 e2 fd b8 d1       	vfmadd231pd %ymm1,%ymm0,%ymm2
  40280e:	c4 e2 f5 b8 c2       	vfmadd231pd %ymm2,%ymm1,%ymm0
  402813:	c4 e2 ed b8 c8       	vfmadd231pd %ymm0,%ymm2,%ymm1
  402818:	c4 e2 fd b8 d1       	vfmadd231pd %ymm1,%ymm0,%ymm2
  40281d:	c4 e2 f5 b8 c2       	vfmadd231pd %ymm2,%ymm1,%ymm0
  402822:	c4 e2 ed b8 c8       	vfmadd231pd %ymm0,%ymm2,%ymm1
  402827:	c4 e2 fd b8 d1       	vfmadd231pd %ymm1,%ymm0,%ymm2
  40282c:	c4 e2 f5 b8 c2       	vfmadd231pd %ymm2,%ymm1,%ymm0
  402831:	c4 e2 ed b8 c8       	vfmadd231pd %ymm0,%ymm2,%ymm1
  402836:	c4 e2 fd b8 d1       	vfmadd231pd %ymm1,%ymm0,%ymm2
  40283b:	c4 e2 f5 b8 c2       	vfmadd231pd %ymm2,%ymm1,%ymm0
  402840:	c4 e2 ed b8 c8       	vfmadd231pd %ymm0,%ymm2,%ymm1
  402845:	c4 e2 fd b8 d1       	vfmadd231pd %ymm1,%ymm0,%ymm2
  40284a:	c4 e2 f5 b8 c2       	vfmadd231pd %ymm2,%ymm1,%ymm0
  40284f:	c4 e2 ed b8 c8       	vfmadd231pd %ymm0,%ymm2,%ymm1
  402854:	c4 e2 fd b8 d1       	vfmadd231pd %ymm1,%ymm0,%ymm2
  402859:	c4 e2 f5 b8 c2       	vfmadd231pd %ymm2,%ymm1,%ymm0
  40285e:	c4 e2 ed b8 c8       	vfmadd231pd %ymm0,%ymm2,%ymm1
  402863:	c4 e2 fd b8 d1       	vfmadd231pd %ymm1,%ymm0,%ymm2
  402868:	c4 e2 f5 b8 c2       	vfmadd231pd %ymm2,%ymm1,%ymm0
  40286d:	c4 e2 ed b8 c8       	vfmadd231pd %ymm0,%ymm2,%ymm1
  402872:	c4 e2 fd b8 d1       	vfmadd231pd %ymm1,%ymm0,%ymm2
  402877:	c4 e2 f5 b8 c2       	vfmadd231pd %ymm2,%ymm1,%ymm0
  40287c:	c4 e2 ed b8 c8       	vfmadd231pd %ymm0,%ymm2,%ymm1
  402881:	c4 e2 fd b8 d1       	vfmadd231pd %ymm1,%ymm0,%ymm2
  402886:	c4 e2 f5 b8 c2       	vfmadd231pd %ymm2,%ymm1,%ymm0
  40288b:	c4 e2 ed b8 c8       	vfmadd231pd %ymm0,%ymm2,%ymm1
  402890:	c4 e2 fd b8 d1       	vfmadd231pd %ymm1,%ymm0,%ymm2
  402895:	c4 e2 f5 b8 c2       	vfmadd231pd %ymm2,%ymm1,%ymm0
  40289a:	c4 e2 ed b8 c8       	vfmadd231pd %ymm0,%ymm2,%ymm1
  40289f:	c4 e2 fd b8 d1       	vfmadd231pd %ymm1,%ymm0,%ymm2
  4028a4:	c4 e2 f5 b8 c2       	vfmadd231pd %ymm2,%ymm1,%ymm0
  4028a9:	c4 e2 ed b8 c8       	vfmadd231pd %ymm0,%ymm2,%ymm1
  4028ae:	c4 e2 fd b8 d1       	vfmadd231pd %ymm1,%ymm0,%ymm2
  4028b3:	c4 e2 f5 b8 c2       	vfmadd231pd %ymm2,%ymm1,%ymm0
  4028b8:	c4 e2 ed b8 c8       	vfmadd231pd %ymm0,%ymm2,%ymm1
  4028bd:	c4 e2 fd b8 d1       	vfmadd231pd %ymm1,%ymm0,%ymm2
  4028c2:	c4 e2 f5 b8 c2       	vfmadd231pd %ymm2,%ymm1,%ymm0
  4028c7:	c4 e2 ed b8 c8       	vfmadd231pd %ymm0,%ymm2,%ymm1
  4028cc:	c4 e2 fd b8 d1       	vfmadd231pd %ymm1,%ymm0,%ymm2
  4028d1:	c4 e2 f5 b8 c2       	vfmadd231pd %ymm2,%ymm1,%ymm0
  4028d6:	c4 e2 ed b8 c8       	vfmadd231pd %ymm0,%ymm2,%ymm1
  4028db:	c4 e2 fd b8 d1       	vfmadd231pd %ymm1,%ymm0,%ymm2
  4028e0:	c4 e2 f5 b8 c2       	vfmadd231pd %ymm2,%ymm1,%ymm0
  4028e5:	c4 e2 ed b8 c8       	vfmadd231pd %ymm0,%ymm2,%ymm1
  4028ea:	c4 e2 fd b8 d1       	vfmadd231pd %ymm1,%ymm0,%ymm2
  4028ef:	c4 e2 f5 b8 c2       	vfmadd231pd %ymm2,%ymm1,%ymm0
  4028f4:	c4 e2 ed b8 c8       	vfmadd231pd %ymm0,%ymm2,%ymm1
  4028f9:	c4 e2 fd b8 d1       	vfmadd231pd %ymm1,%ymm0,%ymm2
  4028fe:	c4 e2 f5 b8 c2       	vfmadd231pd %ymm2,%ymm1,%ymm0
  402903:	c4 e2 ed b8 c8       	vfmadd231pd %ymm0,%ymm2,%ymm1
  402908:	c4 e2 fd b8 d1       	vfmadd231pd %ymm1,%ymm0,%ymm2
  40290d:	c4 e2 f5 b8 c2       	vfmadd231pd %ymm2,%ymm1,%ymm0
  402912:	c4 e2 ed b8 c8       	vfmadd231pd %ymm0,%ymm2,%ymm1
  402917:	c4 e2 fd b8 d1       	vfmadd231pd %ymm1,%ymm0,%ymm2
  40291c:	c4 e2 f5 b8 c2       	vfmadd231pd %ymm2,%ymm1,%ymm0
  402921:	c4 e2 ed b8 c8       	vfmadd231pd %ymm0,%ymm2,%ymm1
  402926:	c4 e2 fd b8 d1       	vfmadd231pd %ymm1,%ymm0,%ymm2
  40292b:	c4 e2 f5 b8 c2       	vfmadd231pd %ymm2,%ymm1,%ymm0
  402930:	c4 e2 ed b8 c8       	vfmadd231pd %ymm0,%ymm2,%ymm1
  402935:	c4 e2 fd b8 d1       	vfmadd231pd %ymm1,%ymm0,%ymm2
  40293a:	c4 e2 f5 b8 c2       	vfmadd231pd %ymm2,%ymm1,%ymm0
  40293f:	c4 e2 ed b8 c8       	vfmadd231pd %ymm0,%ymm2,%ymm1
  402944:	c4 e2 fd b8 d1       	vfmadd231pd %ymm1,%ymm0,%ymm2
  402949:	c4 e2 f5 b8 c2       	vfmadd231pd %ymm2,%ymm1,%ymm0
  40294e:	c4 e2 ed b8 c8       	vfmadd231pd %ymm0,%ymm2,%ymm1
  402953:	c4 e2 fd b8 d1       	vfmadd231pd %ymm1,%ymm0,%ymm2
  402958:	c4 e2 f5 b8 c2       	vfmadd231pd %ymm2,%ymm1,%ymm0
  40295d:	c4 e2 ed b8 c8       	vfmadd231pd %ymm0,%ymm2,%ymm1
  402962:	c4 e2 fd b8 d1       	vfmadd231pd %ymm1,%ymm0,%ymm2
  402967:	c4 e2 f5 b8 c2       	vfmadd231pd %ymm2,%ymm1,%ymm0
  40296c:	c4 e2 ed b8 c8       	vfmadd231pd %ymm0,%ymm2,%ymm1
  402971:	c4 e2 fd b8 d1       	vfmadd231pd %ymm1,%ymm0,%ymm2
  402976:	c4 e2 f5 b8 c2       	vfmadd231pd %ymm2,%ymm1,%ymm0
  40297b:	c4 e2 ed b8 c8       	vfmadd231pd %ymm0,%ymm2,%ymm1
  402980:	c4 e2 fd b8 d1       	vfmadd231pd %ymm1,%ymm0,%ymm2
  402985:	c4 e2 f5 b8 c2       	vfmadd231pd %ymm2,%ymm1,%ymm0
  40298a:	c4 e2 ed b8 c8       	vfmadd231pd %ymm0,%ymm2,%ymm1
  40298f:	c4 e2 fd b8 d1       	vfmadd231pd %ymm1,%ymm0,%ymm2
  402994:	c4 e2 f5 b8 c2       	vfmadd231pd %ymm2,%ymm1,%ymm0
  402999:	c4 e2 ed b8 c8       	vfmadd231pd %ymm0,%ymm2,%ymm1
  40299e:	c4 e2 fd b8 d1       	vfmadd231pd %ymm1,%ymm0,%ymm2
  4029a3:	c4 e2 f5 b8 c2       	vfmadd231pd %ymm2,%ymm1,%ymm0
  4029a8:	c4 e2 ed b8 c8       	vfmadd231pd %ymm0,%ymm2,%ymm1
  4029ad:	c4 e2 fd b8 d1       	vfmadd231pd %ymm1,%ymm0,%ymm2
  4029b2:	c4 e2 f5 b8 c2       	vfmadd231pd %ymm2,%ymm1,%ymm0
  4029b7:	c4 e2 ed b8 c8       	vfmadd231pd %ymm0,%ymm2,%ymm1
  4029bc:	c4 e2 fd b8 d1       	vfmadd231pd %ymm1,%ymm0,%ymm2
  4029c1:	c4 e2 f5 b8 c2       	vfmadd231pd %ymm2,%ymm1,%ymm0
  4029c6:	c4 e2 ed b8 c8       	vfmadd231pd %ymm0,%ymm2,%ymm1
  4029cb:	c4 e2 fd b8 d1       	vfmadd231pd %ymm1,%ymm0,%ymm2
  4029d0:	c4 e2 f5 b8 c2       	vfmadd231pd %ymm2,%ymm1,%ymm0
  4029d5:	c4 e2 ed b8 c8       	vfmadd231pd %ymm0,%ymm2,%ymm1
  4029da:	c4 e2 fd b8 d1       	vfmadd231pd %ymm1,%ymm0,%ymm2
  4029df:	c4 e2 f5 b8 c2       	vfmadd231pd %ymm2,%ymm1,%ymm0
  4029e4:	c4 e2 ed b8 c8       	vfmadd231pd %ymm0,%ymm2,%ymm1
  4029e9:	c4 e2 fd b8 d1       	vfmadd231pd %ymm1,%ymm0,%ymm2
  4029ee:	c4 e2 f5 b8 c2       	vfmadd231pd %ymm2,%ymm1,%ymm0
  4029f3:	c4 e2 ed b8 c8       	vfmadd231pd %ymm0,%ymm2,%ymm1
  4029f8:	c4 e2 fd b8 d1       	vfmadd231pd %ymm1,%ymm0,%ymm2
  4029fd:	c4 e2 f5 b8 c2       	vfmadd231pd %ymm2,%ymm1,%ymm0
  402a02:	c4 e2 ed b8 c8       	vfmadd231pd %ymm0,%ymm2,%ymm1
  402a07:	c4 e2 fd b8 d1       	vfmadd231pd %ymm1,%ymm0,%ymm2
  402a0c:	c4 e2 f5 b8 c2       	vfmadd231pd %ymm2,%ymm1,%ymm0
  402a11:	c4 e2 ed b8 c8       	vfmadd231pd %ymm0,%ymm2,%ymm1
  402a16:	c4 e2 fd b8 d1       	vfmadd231pd %ymm1,%ymm0,%ymm2
  402a1b:	c4 e2 f5 b8 c2       	vfmadd231pd %ymm2,%ymm1,%ymm0
  402a20:	c4 e2 ed b8 c8       	vfmadd231pd %ymm0,%ymm2,%ymm1
  402a25:	c4 e2 fd b8 d1       	vfmadd231pd %ymm1,%ymm0,%ymm2
  402a2a:	c4 e2 f5 b8 c2       	vfmadd231pd %ymm2,%ymm1,%ymm0
  402a2f:	c4 e2 ed b8 c8       	vfmadd231pd %ymm0,%ymm2,%ymm1
  402a34:	c4 e2 fd b8 d1       	vfmadd231pd %ymm1,%ymm0,%ymm2
  402a39:	c4 e2 f5 b8 c2       	vfmadd231pd %ymm2,%ymm1,%ymm0
  402a3e:	c4 e2 ed b8 c8       	vfmadd231pd %ymm0,%ymm2,%ymm1
  402a43:	c4 e2 fd b8 d1       	vfmadd231pd %ymm1,%ymm0,%ymm2
  402a48:	c4 e2 f5 b8 c2       	vfmadd231pd %ymm2,%ymm1,%ymm0
  402a4d:	c4 e2 ed b8 c8       	vfmadd231pd %ymm0,%ymm2,%ymm1
  402a52:	c4 e2 fd b8 d1       	vfmadd231pd %ymm1,%ymm0,%ymm2
  402a57:	c4 e2 f5 b8 c2       	vfmadd231pd %ymm2,%ymm1,%ymm0
  402a5c:	c4 e2 ed b8 c8       	vfmadd231pd %ymm0,%ymm2,%ymm1
  402a61:	c4 e2 fd b8 d1       	vfmadd231pd %ymm1,%ymm0,%ymm2
  402a66:	c4 e2 f5 b8 c2       	vfmadd231pd %ymm2,%ymm1,%ymm0
  402a6b:	c4 e2 ed b8 c8       	vfmadd231pd %ymm0,%ymm2,%ymm1
  402a70:	c4 e2 fd b8 d1       	vfmadd231pd %ymm1,%ymm0,%ymm2
  402a75:	c4 e2 f5 b8 c2       	vfmadd231pd %ymm2,%ymm1,%ymm0
  402a7a:	c4 e2 ed b8 c8       	vfmadd231pd %ymm0,%ymm2,%ymm1
  402a7f:	c4 e2 fd b8 d1       	vfmadd231pd %ymm1,%ymm0,%ymm2
  402a84:	c4 e2 f5 b8 c2       	vfmadd231pd %ymm2,%ymm1,%ymm0
  402a89:	c4 e2 ed b8 c8       	vfmadd231pd %ymm0,%ymm2,%ymm1
  402a8e:	c4 e2 fd b8 d1       	vfmadd231pd %ymm1,%ymm0,%ymm2
  402a93:	c4 e2 f5 b8 c2       	vfmadd231pd %ymm2,%ymm1,%ymm0
  402a98:	c4 e2 ed b8 c8       	vfmadd231pd %ymm0,%ymm2,%ymm1
  402a9d:	c4 e2 fd b8 d1       	vfmadd231pd %ymm1,%ymm0,%ymm2
  402aa2:	c4 e2 f5 b8 c2       	vfmadd231pd %ymm2,%ymm1,%ymm0
  402aa7:	c4 e2 ed b8 c8       	vfmadd231pd %ymm0,%ymm2,%ymm1
  402aac:	c4 e2 fd b8 d1       	vfmadd231pd %ymm1,%ymm0,%ymm2
  402ab1:	c4 e2 f5 b8 c2       	vfmadd231pd %ymm2,%ymm1,%ymm0
  402ab6:	c4 e2 ed b8 c8       	vfmadd231pd %ymm0,%ymm2,%ymm1
  402abb:	c4 e2 fd b8 d1       	vfmadd231pd %ymm1,%ymm0,%ymm2
  402ac0:	c4 e2 f5 b8 c2       	vfmadd231pd %ymm2,%ymm1,%ymm0
  402ac5:	c4 e2 ed b8 c8       	vfmadd231pd %ymm0,%ymm2,%ymm1
  402aca:	c4 e2 fd b8 d1       	vfmadd231pd %ymm1,%ymm0,%ymm2
  402acf:	c4 e2 f5 b8 c2       	vfmadd231pd %ymm2,%ymm1,%ymm0
  402ad4:	c4 e2 ed b8 c8       	vfmadd231pd %ymm0,%ymm2,%ymm1
  402ad9:	c4 e2 fd b8 d1       	vfmadd231pd %ymm1,%ymm0,%ymm2
  402ade:	c4 e2 f5 b8 c2       	vfmadd231pd %ymm2,%ymm1,%ymm0
  402ae3:	c4 e2 ed b8 c8       	vfmadd231pd %ymm0,%ymm2,%ymm1
  402ae8:	c4 e2 fd b8 d1       	vfmadd231pd %ymm1,%ymm0,%ymm2
  402aed:	c4 e2 f5 b8 c2       	vfmadd231pd %ymm2,%ymm1,%ymm0
  402af2:	c4 e2 ed b8 c8       	vfmadd231pd %ymm0,%ymm2,%ymm1
  402af7:	c4 e2 fd b8 d1       	vfmadd231pd %ymm1,%ymm0,%ymm2
  402afc:	c4 e2 f5 b8 c2       	vfmadd231pd %ymm2,%ymm1,%ymm0
  402b01:	c4 e2 ed b8 c8       	vfmadd231pd %ymm0,%ymm2,%ymm1
  402b06:	c4 e2 fd b8 d1       	vfmadd231pd %ymm1,%ymm0,%ymm2
  402b0b:	c4 e2 f5 b8 c2       	vfmadd231pd %ymm2,%ymm1,%ymm0
  402b10:	c4 e2 ed b8 c8       	vfmadd231pd %ymm0,%ymm2,%ymm1
  402b15:	c4 e2 fd b8 d1       	vfmadd231pd %ymm1,%ymm0,%ymm2
  402b1a:	c4 e2 f5 b8 c2       	vfmadd231pd %ymm2,%ymm1,%ymm0
  402b1f:	c4 e2 ed b8 c8       	vfmadd231pd %ymm0,%ymm2,%ymm1
  402b24:	c4 e2 fd b8 d1       	vfmadd231pd %ymm1,%ymm0,%ymm2
  402b29:	c4 e2 f5 b8 c2       	vfmadd231pd %ymm2,%ymm1,%ymm0
  402b2e:	c4 e2 ed b8 c8       	vfmadd231pd %ymm0,%ymm2,%ymm1
  402b33:	c4 e2 fd b8 d1       	vfmadd231pd %ymm1,%ymm0,%ymm2
  402b38:	c4 e2 f5 b8 c2       	vfmadd231pd %ymm2,%ymm1,%ymm0
  402b3d:	c4 e2 ed b8 c8       	vfmadd231pd %ymm0,%ymm2,%ymm1
  402b42:	c4 e2 fd b8 d1       	vfmadd231pd %ymm1,%ymm0,%ymm2
  402b47:	c4 e2 f5 b8 c2       	vfmadd231pd %ymm2,%ymm1,%ymm0
  402b4c:	c4 e2 ed b8 c8       	vfmadd231pd %ymm0,%ymm2,%ymm1
  402b51:	c4 e2 fd b8 d1       	vfmadd231pd %ymm1,%ymm0,%ymm2
  402b56:	c4 e2 f5 b8 c2       	vfmadd231pd %ymm2,%ymm1,%ymm0
  402b5b:	c4 e2 ed b8 c8       	vfmadd231pd %ymm0,%ymm2,%ymm1
  402b60:	c4 e2 fd b8 d1       	vfmadd231pd %ymm1,%ymm0,%ymm2
  402b65:	c4 e2 f5 b8 c2       	vfmadd231pd %ymm2,%ymm1,%ymm0
  402b6a:	c4 e2 ed b8 c8       	vfmadd231pd %ymm0,%ymm2,%ymm1
  402b6f:	c4 e2 fd b8 d1       	vfmadd231pd %ymm1,%ymm0,%ymm2
  402b74:	c4 e2 f5 b8 c2       	vfmadd231pd %ymm2,%ymm1,%ymm0
  402b79:	c4 e2 ed b8 c8       	vfmadd231pd %ymm0,%ymm2,%ymm1
  402b7e:	c4 e2 fd b8 d1       	vfmadd231pd %ymm1,%ymm0,%ymm2
  402b83:	c4 e2 f5 b8 c2       	vfmadd231pd %ymm2,%ymm1,%ymm0
  402b88:	c4 e2 ed b8 c8       	vfmadd231pd %ymm0,%ymm2,%ymm1
  402b8d:	c4 e2 fd b8 d1       	vfmadd231pd %ymm1,%ymm0,%ymm2
  402b92:	c4 e2 f5 b8 c2       	vfmadd231pd %ymm2,%ymm1,%ymm0
  402b97:	c4 e2 ed b8 c8       	vfmadd231pd %ymm0,%ymm2,%ymm1
  402b9c:	c4 e2 fd b8 d1       	vfmadd231pd %ymm1,%ymm0,%ymm2
  402ba1:	c4 e2 f5 b8 c2       	vfmadd231pd %ymm2,%ymm1,%ymm0
  402ba6:	c4 e2 ed b8 c8       	vfmadd231pd %ymm0,%ymm2,%ymm1
  402bab:	c4 e2 fd b8 d1       	vfmadd231pd %ymm1,%ymm0,%ymm2
  402bb0:	c4 e2 f5 b8 c2       	vfmadd231pd %ymm2,%ymm1,%ymm0
  402bb5:	c4 e2 ed b8 c8       	vfmadd231pd %ymm0,%ymm2,%ymm1
  402bba:	c4 e2 fd b8 d1       	vfmadd231pd %ymm1,%ymm0,%ymm2
  402bbf:	c4 e2 f5 b8 c2       	vfmadd231pd %ymm2,%ymm1,%ymm0
  402bc4:	c4 e2 ed b8 c8       	vfmadd231pd %ymm0,%ymm2,%ymm1
  402bc9:	c4 e2 fd b8 d1       	vfmadd231pd %ymm1,%ymm0,%ymm2
  402bce:	c4 e2 f5 b8 c2       	vfmadd231pd %ymm2,%ymm1,%ymm0
  402bd3:	c4 e2 ed b8 c8       	vfmadd231pd %ymm0,%ymm2,%ymm1
  402bd8:	c4 e2 fd b8 d1       	vfmadd231pd %ymm1,%ymm0,%ymm2
  402bdd:	c4 e2 f5 b8 c2       	vfmadd231pd %ymm2,%ymm1,%ymm0
  402be2:	c4 e2 ed b8 c8       	vfmadd231pd %ymm0,%ymm2,%ymm1
  402be7:	c4 e2 fd b8 d1       	vfmadd231pd %ymm1,%ymm0,%ymm2
  402bec:	c4 e2 f5 b8 c2       	vfmadd231pd %ymm2,%ymm1,%ymm0
  402bf1:	c4 e2 ed b8 c8       	vfmadd231pd %ymm0,%ymm2,%ymm1
  402bf6:	c4 e2 fd b8 d1       	vfmadd231pd %ymm1,%ymm0,%ymm2
  402bfb:	c4 e2 f5 b8 c2       	vfmadd231pd %ymm2,%ymm1,%ymm0
  402c00:	c4 e2 ed b8 c8       	vfmadd231pd %ymm0,%ymm2,%ymm1
  402c05:	c4 e2 fd b8 d1       	vfmadd231pd %ymm1,%ymm0,%ymm2
  402c0a:	c4 e2 f5 b8 c2       	vfmadd231pd %ymm2,%ymm1,%ymm0
  402c0f:	c4 e2 ed b8 c8       	vfmadd231pd %ymm0,%ymm2,%ymm1
  402c14:	c4 e2 fd b8 d1       	vfmadd231pd %ymm1,%ymm0,%ymm2
  402c19:	c4 e2 f5 b8 c2       	vfmadd231pd %ymm2,%ymm1,%ymm0
  402c1e:	c4 e2 ed b8 c8       	vfmadd231pd %ymm0,%ymm2,%ymm1
  402c23:	c4 e2 fd b8 d1       	vfmadd231pd %ymm1,%ymm0,%ymm2
  402c28:	c4 e2 f5 b8 c2       	vfmadd231pd %ymm2,%ymm1,%ymm0
  402c2d:	c4 e2 ed b8 c8       	vfmadd231pd %ymm0,%ymm2,%ymm1
  402c32:	c4 e2 fd b8 d1       	vfmadd231pd %ymm1,%ymm0,%ymm2
  402c37:	c4 e2 f5 b8 c2       	vfmadd231pd %ymm2,%ymm1,%ymm0
  402c3c:	c4 e2 ed b8 c8       	vfmadd231pd %ymm0,%ymm2,%ymm1
  402c41:	c4 e2 fd b8 d1       	vfmadd231pd %ymm1,%ymm0,%ymm2
  402c46:	c4 e2 f5 b8 c2       	vfmadd231pd %ymm2,%ymm1,%ymm0
  402c4b:	c4 e2 ed b8 c8       	vfmadd231pd %ymm0,%ymm2,%ymm1
  402c50:	c4 e2 fd b8 d1       	vfmadd231pd %ymm1,%ymm0,%ymm2
  402c55:	c4 e2 f5 b8 c2       	vfmadd231pd %ymm2,%ymm1,%ymm0
  402c5a:	c4 e2 ed b8 c8       	vfmadd231pd %ymm0,%ymm2,%ymm1
  402c5f:	c4 e2 fd b8 d1       	vfmadd231pd %ymm1,%ymm0,%ymm2
  402c64:	c4 e2 f5 b8 c2       	vfmadd231pd %ymm2,%ymm1,%ymm0
  402c69:	c4 e2 ed b8 c8       	vfmadd231pd %ymm0,%ymm2,%ymm1
  402c6e:	c4 e2 fd b8 d1       	vfmadd231pd %ymm1,%ymm0,%ymm2
  402c73:	c4 e2 f5 b8 c2       	vfmadd231pd %ymm2,%ymm1,%ymm0
  402c78:	c4 e2 ed b8 c8       	vfmadd231pd %ymm0,%ymm2,%ymm1
  402c7d:	c4 e2 fd b8 d1       	vfmadd231pd %ymm1,%ymm0,%ymm2
  402c82:	c4 e2 f5 b8 c2       	vfmadd231pd %ymm2,%ymm1,%ymm0
  402c87:	c4 e2 ed b8 c8       	vfmadd231pd %ymm0,%ymm2,%ymm1
  402c8c:	c4 e2 fd b8 d1       	vfmadd231pd %ymm1,%ymm0,%ymm2
  402c91:	c4 e2 f5 b8 c2       	vfmadd231pd %ymm2,%ymm1,%ymm0
  402c96:	c4 e2 ed b8 c8       	vfmadd231pd %ymm0,%ymm2,%ymm1
  402c9b:	c4 e2 fd b8 d1       	vfmadd231pd %ymm1,%ymm0,%ymm2
  402ca0:	c4 e2 f5 b8 c2       	vfmadd231pd %ymm2,%ymm1,%ymm0
  402ca5:	c4 e2 ed b8 c8       	vfmadd231pd %ymm0,%ymm2,%ymm1
  402caa:	c4 e2 fd b8 d1       	vfmadd231pd %ymm1,%ymm0,%ymm2
  402caf:	c4 e2 f5 b8 c2       	vfmadd231pd %ymm2,%ymm1,%ymm0
  402cb4:	c4 e2 ed b8 c8       	vfmadd231pd %ymm0,%ymm2,%ymm1
  402cb9:	c4 e2 fd b8 d1       	vfmadd231pd %ymm1,%ymm0,%ymm2
  402cbe:	c4 e2 f5 b8 c2       	vfmadd231pd %ymm2,%ymm1,%ymm0
  402cc3:	c4 e2 ed b8 c8       	vfmadd231pd %ymm0,%ymm2,%ymm1
  402cc8:	c4 e2 fd b8 d1       	vfmadd231pd %ymm1,%ymm0,%ymm2
  402ccd:	c4 e2 f5 b8 c2       	vfmadd231pd %ymm2,%ymm1,%ymm0
  402cd2:	c4 e2 ed b8 c8       	vfmadd231pd %ymm0,%ymm2,%ymm1
  402cd7:	c4 e2 fd b8 d1       	vfmadd231pd %ymm1,%ymm0,%ymm2
  402cdc:	c4 e2 f5 b8 c2       	vfmadd231pd %ymm2,%ymm1,%ymm0
  402ce1:	c4 e2 ed b8 c8       	vfmadd231pd %ymm0,%ymm2,%ymm1
  402ce6:	c4 e2 fd b8 d1       	vfmadd231pd %ymm1,%ymm0,%ymm2
  402ceb:	c4 e2 f5 b8 c2       	vfmadd231pd %ymm2,%ymm1,%ymm0
  402cf0:	c4 e2 ed b8 c8       	vfmadd231pd %ymm0,%ymm2,%ymm1
  402cf5:	c4 e2 fd b8 d1       	vfmadd231pd %ymm1,%ymm0,%ymm2
  402cfa:	c4 e2 f5 b8 c2       	vfmadd231pd %ymm2,%ymm1,%ymm0
  402cff:	c4 e2 ed b8 c8       	vfmadd231pd %ymm0,%ymm2,%ymm1
  402d04:	c4 e2 fd b8 d1       	vfmadd231pd %ymm1,%ymm0,%ymm2
  402d09:	c4 e2 f5 b8 c2       	vfmadd231pd %ymm2,%ymm1,%ymm0
  402d0e:	c4 e2 ed b8 c8       	vfmadd231pd %ymm0,%ymm2,%ymm1
  402d13:	c4 e2 fd b8 d1       	vfmadd231pd %ymm1,%ymm0,%ymm2
  402d18:	c4 e2 f5 b8 c2       	vfmadd231pd %ymm2,%ymm1,%ymm0
  402d1d:	c4 e2 ed b8 c8       	vfmadd231pd %ymm0,%ymm2,%ymm1
  402d22:	c4 e2 fd b8 d1       	vfmadd231pd %ymm1,%ymm0,%ymm2
  402d27:	c4 e2 f5 b8 c2       	vfmadd231pd %ymm2,%ymm1,%ymm0
  402d2c:	c4 e2 ed b8 c8       	vfmadd231pd %ymm0,%ymm2,%ymm1
  402d31:	c4 e2 fd b8 d1       	vfmadd231pd %ymm1,%ymm0,%ymm2
  402d36:	c4 e2 f5 b8 c2       	vfmadd231pd %ymm2,%ymm1,%ymm0
  402d3b:	c4 e2 ed b8 c8       	vfmadd231pd %ymm0,%ymm2,%ymm1
  402d40:	c4 e2 fd b8 d1       	vfmadd231pd %ymm1,%ymm0,%ymm2
  402d45:	c4 e2 f5 b8 c2       	vfmadd231pd %ymm2,%ymm1,%ymm0
  402d4a:	c4 e2 ed b8 c8       	vfmadd231pd %ymm0,%ymm2,%ymm1
  402d4f:	c4 e2 fd b8 d1       	vfmadd231pd %ymm1,%ymm0,%ymm2
  402d54:	c4 e2 f5 b8 c2       	vfmadd231pd %ymm2,%ymm1,%ymm0
  402d59:	c4 e2 ed b8 c8       	vfmadd231pd %ymm0,%ymm2,%ymm1
  402d5e:	c4 e2 fd b8 d1       	vfmadd231pd %ymm1,%ymm0,%ymm2
  402d63:	c4 e2 f5 b8 c2       	vfmadd231pd %ymm2,%ymm1,%ymm0
  402d68:	c4 e2 ed b8 c8       	vfmadd231pd %ymm0,%ymm2,%ymm1
  402d6d:	c4 e2 fd b8 d1       	vfmadd231pd %ymm1,%ymm0,%ymm2
  402d72:	c4 e2 f5 b8 c2       	vfmadd231pd %ymm2,%ymm1,%ymm0
  402d77:	c4 e2 ed b8 c8       	vfmadd231pd %ymm0,%ymm2,%ymm1
  402d7c:	c4 e2 fd b8 d1       	vfmadd231pd %ymm1,%ymm0,%ymm2
  402d81:	c4 e2 f5 b8 c2       	vfmadd231pd %ymm2,%ymm1,%ymm0
  402d86:	c4 e2 ed b8 c8       	vfmadd231pd %ymm0,%ymm2,%ymm1
  402d8b:	c4 e2 fd b8 d1       	vfmadd231pd %ymm1,%ymm0,%ymm2
  402d90:	c4 e2 f5 b8 c2       	vfmadd231pd %ymm2,%ymm1,%ymm0
  402d95:	c4 e2 ed b8 c8       	vfmadd231pd %ymm0,%ymm2,%ymm1
  402d9a:	c4 e2 fd b8 d1       	vfmadd231pd %ymm1,%ymm0,%ymm2
  402d9f:	c4 e2 f5 b8 c2       	vfmadd231pd %ymm2,%ymm1,%ymm0
  402da4:	c4 e2 ed b8 c8       	vfmadd231pd %ymm0,%ymm2,%ymm1
  402da9:	c4 e2 fd b8 d1       	vfmadd231pd %ymm1,%ymm0,%ymm2
  402dae:	c4 e2 f5 b8 c2       	vfmadd231pd %ymm2,%ymm1,%ymm0
  402db3:	c4 e2 ed b8 c8       	vfmadd231pd %ymm0,%ymm2,%ymm1
  402db8:	c4 e2 fd b8 d1       	vfmadd231pd %ymm1,%ymm0,%ymm2
  402dbd:	c4 e2 f5 b8 c2       	vfmadd231pd %ymm2,%ymm1,%ymm0
  402dc2:	c4 e2 ed b8 c8       	vfmadd231pd %ymm0,%ymm2,%ymm1
  402dc7:	c4 e2 fd b8 d1       	vfmadd231pd %ymm1,%ymm0,%ymm2
  402dcc:	c4 e2 f5 b8 c2       	vfmadd231pd %ymm2,%ymm1,%ymm0
  402dd1:	c4 e2 ed b8 c8       	vfmadd231pd %ymm0,%ymm2,%ymm1
  402dd6:	c4 e2 fd b8 d1       	vfmadd231pd %ymm1,%ymm0,%ymm2
  402ddb:	c4 e2 f5 b8 c2       	vfmadd231pd %ymm2,%ymm1,%ymm0
  402de0:	c4 e2 ed b8 c8       	vfmadd231pd %ymm0,%ymm2,%ymm1
  402de5:	c4 e2 fd b8 d1       	vfmadd231pd %ymm1,%ymm0,%ymm2
  402dea:	c4 e2 f5 b8 c2       	vfmadd231pd %ymm2,%ymm1,%ymm0
  402def:	c4 e2 ed b8 c8       	vfmadd231pd %ymm0,%ymm2,%ymm1
  402df4:	c4 e2 fd b8 d1       	vfmadd231pd %ymm1,%ymm0,%ymm2
  402df9:	c4 e2 f5 b8 c2       	vfmadd231pd %ymm2,%ymm1,%ymm0
  402dfe:	c4 e2 ed b8 c8       	vfmadd231pd %ymm0,%ymm2,%ymm1
  402e03:	c4 e2 fd b8 d1       	vfmadd231pd %ymm1,%ymm0,%ymm2
  402e08:	c4 e2 f5 b8 c2       	vfmadd231pd %ymm2,%ymm1,%ymm0
  402e0d:	c4 e2 ed b8 c8       	vfmadd231pd %ymm0,%ymm2,%ymm1
  402e12:	c4 e2 fd b8 d1       	vfmadd231pd %ymm1,%ymm0,%ymm2
  402e17:	c4 e2 f5 b8 c2       	vfmadd231pd %ymm2,%ymm1,%ymm0
  402e1c:	c4 e2 ed b8 c8       	vfmadd231pd %ymm0,%ymm2,%ymm1
  402e21:	c4 e2 fd b8 d1       	vfmadd231pd %ymm1,%ymm0,%ymm2
  402e26:	c4 e2 f5 b8 c2       	vfmadd231pd %ymm2,%ymm1,%ymm0
  402e2b:	c4 e2 ed b8 c8       	vfmadd231pd %ymm0,%ymm2,%ymm1
  402e30:	c4 e2 fd b8 d1       	vfmadd231pd %ymm1,%ymm0,%ymm2
  402e35:	c4 e2 f5 b8 c2       	vfmadd231pd %ymm2,%ymm1,%ymm0
  402e3a:	c4 e2 ed b8 c8       	vfmadd231pd %ymm0,%ymm2,%ymm1
  402e3f:	c4 e2 fd b8 d1       	vfmadd231pd %ymm1,%ymm0,%ymm2
  402e44:	c4 e2 f5 b8 c2       	vfmadd231pd %ymm2,%ymm1,%ymm0
  402e49:	c4 e2 ed b8 c8       	vfmadd231pd %ymm0,%ymm2,%ymm1
  402e4e:	c4 e2 fd b8 d1       	vfmadd231pd %ymm1,%ymm0,%ymm2
  402e53:	c4 e2 f5 b8 c2       	vfmadd231pd %ymm2,%ymm1,%ymm0
  402e58:	c4 e2 ed b8 c8       	vfmadd231pd %ymm0,%ymm2,%ymm1
  402e5d:	c4 e2 fd b8 d1       	vfmadd231pd %ymm1,%ymm0,%ymm2
  402e62:	c4 e2 f5 b8 c2       	vfmadd231pd %ymm2,%ymm1,%ymm0
  402e67:	c4 e2 ed b8 c8       	vfmadd231pd %ymm0,%ymm2,%ymm1
  402e6c:	c4 e2 fd b8 d1       	vfmadd231pd %ymm1,%ymm0,%ymm2
  402e71:	c4 e2 f5 b8 c2       	vfmadd231pd %ymm2,%ymm1,%ymm0
  402e76:	c4 e2 ed b8 c8       	vfmadd231pd %ymm0,%ymm2,%ymm1
  402e7b:	c4 e2 fd b8 d1       	vfmadd231pd %ymm1,%ymm0,%ymm2
  402e80:	c4 e2 f5 b8 c2       	vfmadd231pd %ymm2,%ymm1,%ymm0
  402e85:	c4 e2 ed b8 c8       	vfmadd231pd %ymm0,%ymm2,%ymm1
  402e8a:	c4 e2 fd b8 d1       	vfmadd231pd %ymm1,%ymm0,%ymm2
  402e8f:	c4 e2 f5 b8 c2       	vfmadd231pd %ymm2,%ymm1,%ymm0
  402e94:	c4 e2 ed b8 c8       	vfmadd231pd %ymm0,%ymm2,%ymm1
  402e99:	c4 e2 fd b8 d1       	vfmadd231pd %ymm1,%ymm0,%ymm2
  402e9e:	c4 e2 f5 b8 c2       	vfmadd231pd %ymm2,%ymm1,%ymm0
  402ea3:	c4 e2 ed b8 c8       	vfmadd231pd %ymm0,%ymm2,%ymm1
  402ea8:	c4 e2 fd b8 d1       	vfmadd231pd %ymm1,%ymm0,%ymm2
  402ead:	c4 e2 f5 b8 c2       	vfmadd231pd %ymm2,%ymm1,%ymm0
  402eb2:	c4 e2 ed b8 c8       	vfmadd231pd %ymm0,%ymm2,%ymm1
  402eb7:	c4 e2 fd b8 d1       	vfmadd231pd %ymm1,%ymm0,%ymm2
  402ebc:	c4 e2 f5 b8 c2       	vfmadd231pd %ymm2,%ymm1,%ymm0
  402ec1:	c4 e2 ed b8 c8       	vfmadd231pd %ymm0,%ymm2,%ymm1
  402ec6:	c4 e2 fd b8 d1       	vfmadd231pd %ymm1,%ymm0,%ymm2
  402ecb:	c4 e2 f5 b8 c2       	vfmadd231pd %ymm2,%ymm1,%ymm0
  402ed0:	c4 e2 ed b8 c8       	vfmadd231pd %ymm0,%ymm2,%ymm1
  402ed5:	c4 e2 fd b8 d1       	vfmadd231pd %ymm1,%ymm0,%ymm2
  402eda:	c4 e2 f5 b8 c2       	vfmadd231pd %ymm2,%ymm1,%ymm0
  402edf:	c4 e2 ed b8 c8       	vfmadd231pd %ymm0,%ymm2,%ymm1
  402ee4:	c4 e2 fd b8 d1       	vfmadd231pd %ymm1,%ymm0,%ymm2
  402ee9:	c4 e2 f5 b8 c2       	vfmadd231pd %ymm2,%ymm1,%ymm0
  402eee:	c4 e2 ed b8 c8       	vfmadd231pd %ymm0,%ymm2,%ymm1
  402ef3:	c4 e2 fd b8 d1       	vfmadd231pd %ymm1,%ymm0,%ymm2
  402ef8:	c4 e2 f5 b8 c2       	vfmadd231pd %ymm2,%ymm1,%ymm0
  402efd:	c4 e2 ed b8 c8       	vfmadd231pd %ymm0,%ymm2,%ymm1
  402f02:	c4 e2 fd b8 d1       	vfmadd231pd %ymm1,%ymm0,%ymm2
  402f07:	c4 e2 f5 b8 c2       	vfmadd231pd %ymm2,%ymm1,%ymm0
  402f0c:	c4 e2 ed b8 c8       	vfmadd231pd %ymm0,%ymm2,%ymm1
  402f11:	c4 e2 fd b8 d1       	vfmadd231pd %ymm1,%ymm0,%ymm2
  402f16:	c4 e2 f5 b8 c2       	vfmadd231pd %ymm2,%ymm1,%ymm0
  402f1b:	c4 e2 ed b8 c8       	vfmadd231pd %ymm0,%ymm2,%ymm1
  402f20:	c4 e2 fd b8 d1       	vfmadd231pd %ymm1,%ymm0,%ymm2
  402f25:	c4 e2 f5 b8 c2       	vfmadd231pd %ymm2,%ymm1,%ymm0
  402f2a:	c4 e2 ed b8 c8       	vfmadd231pd %ymm0,%ymm2,%ymm1
  402f2f:	c4 e2 fd b8 d1       	vfmadd231pd %ymm1,%ymm0,%ymm2
  402f34:	c4 e2 f5 b8 c2       	vfmadd231pd %ymm2,%ymm1,%ymm0
  402f39:	c4 e2 ed b8 c8       	vfmadd231pd %ymm0,%ymm2,%ymm1
  402f3e:	c4 e2 fd b8 d1       	vfmadd231pd %ymm1,%ymm0,%ymm2
  402f43:	c4 e2 f5 b8 c2       	vfmadd231pd %ymm2,%ymm1,%ymm0
  402f48:	c4 e2 ed b8 c8       	vfmadd231pd %ymm0,%ymm2,%ymm1
  402f4d:	c4 e2 fd b8 d1       	vfmadd231pd %ymm1,%ymm0,%ymm2
  402f52:	c4 e2 f5 b8 c2       	vfmadd231pd %ymm2,%ymm1,%ymm0
  402f57:	c4 e2 ed b8 c8       	vfmadd231pd %ymm0,%ymm2,%ymm1
  402f5c:	c4 e2 fd b8 d1       	vfmadd231pd %ymm1,%ymm0,%ymm2
  402f61:	c4 e2 f5 b8 c2       	vfmadd231pd %ymm2,%ymm1,%ymm0
  402f66:	c4 e2 ed b8 c8       	vfmadd231pd %ymm0,%ymm2,%ymm1
  402f6b:	c4 e2 fd b8 d1       	vfmadd231pd %ymm1,%ymm0,%ymm2
  402f70:	c4 e2 f5 b8 c2       	vfmadd231pd %ymm2,%ymm1,%ymm0
  402f75:	c4 e2 ed b8 c8       	vfmadd231pd %ymm0,%ymm2,%ymm1
  402f7a:	c4 e2 fd b8 d1       	vfmadd231pd %ymm1,%ymm0,%ymm2
  402f7f:	c4 e2 f5 b8 c2       	vfmadd231pd %ymm2,%ymm1,%ymm0
  402f84:	c4 e2 ed b8 c8       	vfmadd231pd %ymm0,%ymm2,%ymm1
  402f89:	c4 e2 fd b8 d1       	vfmadd231pd %ymm1,%ymm0,%ymm2
  402f8e:	c4 e2 f5 b8 c2       	vfmadd231pd %ymm2,%ymm1,%ymm0
  402f93:	c4 e2 ed b8 c8       	vfmadd231pd %ymm0,%ymm2,%ymm1
  402f98:	c4 e2 fd b8 d1       	vfmadd231pd %ymm1,%ymm0,%ymm2
  402f9d:	c4 e2 f5 b8 c2       	vfmadd231pd %ymm2,%ymm1,%ymm0
  402fa2:	c4 e2 ed b8 c8       	vfmadd231pd %ymm0,%ymm2,%ymm1
  402fa7:	c4 e2 fd b8 d1       	vfmadd231pd %ymm1,%ymm0,%ymm2
  402fac:	c4 e2 f5 b8 c2       	vfmadd231pd %ymm2,%ymm1,%ymm0
  402fb1:	c4 e2 ed b8 c8       	vfmadd231pd %ymm0,%ymm2,%ymm1
  402fb6:	c4 e2 fd b8 d1       	vfmadd231pd %ymm1,%ymm0,%ymm2
  402fbb:	c4 e2 f5 b8 c2       	vfmadd231pd %ymm2,%ymm1,%ymm0
  402fc0:	c4 e2 ed b8 c8       	vfmadd231pd %ymm0,%ymm2,%ymm1
  402fc5:	c4 e2 fd b8 d1       	vfmadd231pd %ymm1,%ymm0,%ymm2
  402fca:	c4 e2 f5 b8 c2       	vfmadd231pd %ymm2,%ymm1,%ymm0
  402fcf:	c4 e2 ed b8 c8       	vfmadd231pd %ymm0,%ymm2,%ymm1
  402fd4:	c4 e2 fd b8 d1       	vfmadd231pd %ymm1,%ymm0,%ymm2
  402fd9:	c4 e2 f5 b8 c2       	vfmadd231pd %ymm2,%ymm1,%ymm0
  402fde:	c4 e2 ed b8 c8       	vfmadd231pd %ymm0,%ymm2,%ymm1
  402fe3:	c4 e2 fd b8 d1       	vfmadd231pd %ymm1,%ymm0,%ymm2
  402fe8:	c4 e2 f5 b8 c2       	vfmadd231pd %ymm2,%ymm1,%ymm0
  402fed:	c4 e2 ed b8 c8       	vfmadd231pd %ymm0,%ymm2,%ymm1
  402ff2:	c4 e2 fd b8 d1       	vfmadd231pd %ymm1,%ymm0,%ymm2
  402ff7:	c4 e2 f5 b8 c2       	vfmadd231pd %ymm2,%ymm1,%ymm0
  402ffc:	c4 e2 ed b8 c8       	vfmadd231pd %ymm0,%ymm2,%ymm1
  403001:	c4 e2 fd b8 d1       	vfmadd231pd %ymm1,%ymm0,%ymm2
  403006:	c4 e2 f5 b8 c2       	vfmadd231pd %ymm2,%ymm1,%ymm0
  40300b:	c4 e2 ed b8 c8       	vfmadd231pd %ymm0,%ymm2,%ymm1
  403010:	c4 e2 fd b8 d1       	vfmadd231pd %ymm1,%ymm0,%ymm2
  403015:	c4 e2 f5 b8 c2       	vfmadd231pd %ymm2,%ymm1,%ymm0
  40301a:	c4 e2 ed b8 c8       	vfmadd231pd %ymm0,%ymm2,%ymm1
  40301f:	c4 e2 fd b8 d1       	vfmadd231pd %ymm1,%ymm0,%ymm2
  403024:	c4 e2 f5 b8 c2       	vfmadd231pd %ymm2,%ymm1,%ymm0
  403029:	c4 e2 ed b8 c8       	vfmadd231pd %ymm0,%ymm2,%ymm1
  40302e:	c4 e2 fd b8 d1       	vfmadd231pd %ymm1,%ymm0,%ymm2
  403033:	c4 e2 f5 b8 c2       	vfmadd231pd %ymm2,%ymm1,%ymm0
  403038:	c4 e2 ed b8 c8       	vfmadd231pd %ymm0,%ymm2,%ymm1
  40303d:	c4 e2 fd b8 d1       	vfmadd231pd %ymm1,%ymm0,%ymm2
  403042:	c4 e2 f5 b8 c2       	vfmadd231pd %ymm2,%ymm1,%ymm0
  403047:	c4 e2 ed b8 c8       	vfmadd231pd %ymm0,%ymm2,%ymm1
  40304c:	c4 e2 fd b8 d1       	vfmadd231pd %ymm1,%ymm0,%ymm2
  403051:	c4 e2 f5 b8 c2       	vfmadd231pd %ymm2,%ymm1,%ymm0
  403056:	c4 e2 ed b8 c8       	vfmadd231pd %ymm0,%ymm2,%ymm1
  40305b:	c4 e2 fd b8 d1       	vfmadd231pd %ymm1,%ymm0,%ymm2
  403060:	c4 e2 f5 b8 c2       	vfmadd231pd %ymm2,%ymm1,%ymm0
  403065:	c4 e2 ed b8 c8       	vfmadd231pd %ymm0,%ymm2,%ymm1
  40306a:	c4 e2 fd b8 d1       	vfmadd231pd %ymm1,%ymm0,%ymm2
  40306f:	c4 e2 f5 b8 c2       	vfmadd231pd %ymm2,%ymm1,%ymm0
  403074:	c4 e2 ed b8 c8       	vfmadd231pd %ymm0,%ymm2,%ymm1
  403079:	c4 e2 fd b8 d1       	vfmadd231pd %ymm1,%ymm0,%ymm2
  40307e:	c4 e2 f5 b8 c2       	vfmadd231pd %ymm2,%ymm1,%ymm0
  403083:	c4 e2 ed b8 c8       	vfmadd231pd %ymm0,%ymm2,%ymm1
  403088:	c4 e2 fd b8 d1       	vfmadd231pd %ymm1,%ymm0,%ymm2
  40308d:	c4 e2 f5 b8 c2       	vfmadd231pd %ymm2,%ymm1,%ymm0
  403092:	c4 e2 ed b8 c8       	vfmadd231pd %ymm0,%ymm2,%ymm1
  403097:	c4 e2 fd b8 d1       	vfmadd231pd %ymm1,%ymm0,%ymm2
  40309c:	c4 e2 f5 b8 c2       	vfmadd231pd %ymm2,%ymm1,%ymm0
  4030a1:	c4 e2 ed b8 c8       	vfmadd231pd %ymm0,%ymm2,%ymm1
  4030a6:	c4 e2 fd b8 d1       	vfmadd231pd %ymm1,%ymm0,%ymm2
  4030ab:	c4 e2 f5 b8 c2       	vfmadd231pd %ymm2,%ymm1,%ymm0
  4030b0:	c4 e2 ed b8 c8       	vfmadd231pd %ymm0,%ymm2,%ymm1
  4030b5:	c4 e2 fd b8 d1       	vfmadd231pd %ymm1,%ymm0,%ymm2
  4030ba:	c4 e2 f5 b8 c2       	vfmadd231pd %ymm2,%ymm1,%ymm0
  4030bf:	c4 e2 ed b8 c8       	vfmadd231pd %ymm0,%ymm2,%ymm1
  4030c4:	c4 e2 fd b8 d1       	vfmadd231pd %ymm1,%ymm0,%ymm2
  4030c9:	c4 e2 f5 b8 c2       	vfmadd231pd %ymm2,%ymm1,%ymm0
  4030ce:	c4 e2 ed b8 c8       	vfmadd231pd %ymm0,%ymm2,%ymm1
  4030d3:	c4 e2 fd b8 d1       	vfmadd231pd %ymm1,%ymm0,%ymm2
  4030d8:	c4 e2 f5 b8 c2       	vfmadd231pd %ymm2,%ymm1,%ymm0
  4030dd:	c4 e2 ed b8 c8       	vfmadd231pd %ymm0,%ymm2,%ymm1
  4030e2:	c4 e2 fd b8 d1       	vfmadd231pd %ymm1,%ymm0,%ymm2
  4030e7:	c4 e2 f5 b8 c2       	vfmadd231pd %ymm2,%ymm1,%ymm0
  4030ec:	c4 e2 ed b8 c8       	vfmadd231pd %ymm0,%ymm2,%ymm1
  4030f1:	c4 e2 fd b8 d1       	vfmadd231pd %ymm1,%ymm0,%ymm2
  4030f6:	c4 e2 f5 b8 c2       	vfmadd231pd %ymm2,%ymm1,%ymm0
  4030fb:	c4 e2 ed b8 c8       	vfmadd231pd %ymm0,%ymm2,%ymm1
  403100:	c4 e2 fd b8 d1       	vfmadd231pd %ymm1,%ymm0,%ymm2
  403105:	c4 e2 f5 b8 c2       	vfmadd231pd %ymm2,%ymm1,%ymm0
  40310a:	c4 e2 ed b8 c8       	vfmadd231pd %ymm0,%ymm2,%ymm1
  40310f:	c4 e2 fd b8 d1       	vfmadd231pd %ymm1,%ymm0,%ymm2
  403114:	c4 e2 f5 b8 c2       	vfmadd231pd %ymm2,%ymm1,%ymm0
  403119:	c4 e2 ed b8 c8       	vfmadd231pd %ymm0,%ymm2,%ymm1
  40311e:	c4 e2 fd b8 d1       	vfmadd231pd %ymm1,%ymm0,%ymm2
  403123:	c4 e2 f5 b8 c2       	vfmadd231pd %ymm2,%ymm1,%ymm0
  403128:	c4 e2 ed b8 c8       	vfmadd231pd %ymm0,%ymm2,%ymm1
  40312d:	c4 e2 fd b8 d1       	vfmadd231pd %ymm1,%ymm0,%ymm2
  403132:	c4 e2 f5 b8 c2       	vfmadd231pd %ymm2,%ymm1,%ymm0
  403137:	c4 e2 ed b8 c8       	vfmadd231pd %ymm0,%ymm2,%ymm1
  40313c:	c4 e2 fd b8 d1       	vfmadd231pd %ymm1,%ymm0,%ymm2
  403141:	c4 e2 f5 b8 c2       	vfmadd231pd %ymm2,%ymm1,%ymm0
  403146:	c4 e2 ed b8 c8       	vfmadd231pd %ymm0,%ymm2,%ymm1
  40314b:	c4 e2 fd b8 d1       	vfmadd231pd %ymm1,%ymm0,%ymm2
  403150:	c4 e2 f5 b8 c2       	vfmadd231pd %ymm2,%ymm1,%ymm0
  403155:	c4 e2 ed b8 c8       	vfmadd231pd %ymm0,%ymm2,%ymm1
  40315a:	c4 e2 fd b8 d1       	vfmadd231pd %ymm1,%ymm0,%ymm2
  40315f:	c4 e2 f5 b8 c2       	vfmadd231pd %ymm2,%ymm1,%ymm0
  403164:	c4 e2 ed b8 c8       	vfmadd231pd %ymm0,%ymm2,%ymm1
  403169:	c4 e2 fd b8 d1       	vfmadd231pd %ymm1,%ymm0,%ymm2
  40316e:	c4 e2 f5 b8 c2       	vfmadd231pd %ymm2,%ymm1,%ymm0
  403173:	c4 e2 ed b8 c8       	vfmadd231pd %ymm0,%ymm2,%ymm1
  403178:	c4 e2 fd b8 d1       	vfmadd231pd %ymm1,%ymm0,%ymm2
  40317d:	c4 e2 f5 b8 c2       	vfmadd231pd %ymm2,%ymm1,%ymm0
  403182:	c4 e2 ed b8 c8       	vfmadd231pd %ymm0,%ymm2,%ymm1
  403187:	c4 e2 fd b8 d1       	vfmadd231pd %ymm1,%ymm0,%ymm2
  40318c:	c4 e2 f5 b8 c2       	vfmadd231pd %ymm2,%ymm1,%ymm0
  403191:	c4 e2 ed b8 c8       	vfmadd231pd %ymm0,%ymm2,%ymm1
  403196:	c4 e2 fd b8 d1       	vfmadd231pd %ymm1,%ymm0,%ymm2
  40319b:	c4 e2 f5 b8 c2       	vfmadd231pd %ymm2,%ymm1,%ymm0
  4031a0:	c4 e2 ed b8 c8       	vfmadd231pd %ymm0,%ymm2,%ymm1
  4031a5:	c4 e2 fd b8 d1       	vfmadd231pd %ymm1,%ymm0,%ymm2
  4031aa:	c4 e2 f5 b8 c2       	vfmadd231pd %ymm2,%ymm1,%ymm0
  4031af:	c4 e2 ed b8 c8       	vfmadd231pd %ymm0,%ymm2,%ymm1
  4031b4:	c4 e2 fd b8 d1       	vfmadd231pd %ymm1,%ymm0,%ymm2
  4031b9:	c4 e2 f5 b8 c2       	vfmadd231pd %ymm2,%ymm1,%ymm0
  4031be:	c4 e2 ed b8 c8       	vfmadd231pd %ymm0,%ymm2,%ymm1
  4031c3:	c4 e2 fd b8 d1       	vfmadd231pd %ymm1,%ymm0,%ymm2
  4031c8:	c4 e2 f5 b8 c2       	vfmadd231pd %ymm2,%ymm1,%ymm0
  4031cd:	c4 e2 ed b8 c8       	vfmadd231pd %ymm0,%ymm2,%ymm1
  4031d2:	c4 e2 fd b8 d1       	vfmadd231pd %ymm1,%ymm0,%ymm2
  4031d7:	c4 e2 f5 b8 c2       	vfmadd231pd %ymm2,%ymm1,%ymm0
  4031dc:	c4 e2 ed b8 c8       	vfmadd231pd %ymm0,%ymm2,%ymm1
  4031e1:	c4 e2 fd b8 d1       	vfmadd231pd %ymm1,%ymm0,%ymm2
  4031e6:	c4 e2 f5 b8 c2       	vfmadd231pd %ymm2,%ymm1,%ymm0
  4031eb:	c4 e2 ed b8 c8       	vfmadd231pd %ymm0,%ymm2,%ymm1
  4031f0:	c4 e2 fd b8 d1       	vfmadd231pd %ymm1,%ymm0,%ymm2
  4031f5:	c4 e2 f5 b8 c2       	vfmadd231pd %ymm2,%ymm1,%ymm0
  4031fa:	c4 e2 ed b8 c8       	vfmadd231pd %ymm0,%ymm2,%ymm1
  4031ff:	c4 e2 fd b8 d1       	vfmadd231pd %ymm1,%ymm0,%ymm2
  403204:	c4 e2 f5 b8 c2       	vfmadd231pd %ymm2,%ymm1,%ymm0
  403209:	c4 e2 ed b8 c8       	vfmadd231pd %ymm0,%ymm2,%ymm1
  40320e:	c4 e2 fd b8 d1       	vfmadd231pd %ymm1,%ymm0,%ymm2
  403213:	c4 e2 f5 b8 c2       	vfmadd231pd %ymm2,%ymm1,%ymm0
  403218:	c4 e2 ed b8 c8       	vfmadd231pd %ymm0,%ymm2,%ymm1
  40321d:	c4 e2 fd b8 d1       	vfmadd231pd %ymm1,%ymm0,%ymm2
  403222:	c4 e2 f5 b8 c2       	vfmadd231pd %ymm2,%ymm1,%ymm0
  403227:	c4 e2 ed b8 c8       	vfmadd231pd %ymm0,%ymm2,%ymm1
  40322c:	c4 e2 fd b8 d1       	vfmadd231pd %ymm1,%ymm0,%ymm2
  403231:	c4 e2 f5 b8 c2       	vfmadd231pd %ymm2,%ymm1,%ymm0
  403236:	c4 e2 ed b8 c8       	vfmadd231pd %ymm0,%ymm2,%ymm1
  40323b:	c4 e2 fd b8 d1       	vfmadd231pd %ymm1,%ymm0,%ymm2
  403240:	c4 e2 f5 b8 c2       	vfmadd231pd %ymm2,%ymm1,%ymm0
  403245:	c4 e2 ed b8 c8       	vfmadd231pd %ymm0,%ymm2,%ymm1
  40324a:	c4 e2 fd b8 d1       	vfmadd231pd %ymm1,%ymm0,%ymm2
  40324f:	c4 e2 f5 b8 c2       	vfmadd231pd %ymm2,%ymm1,%ymm0
  403254:	c4 e2 ed b8 c8       	vfmadd231pd %ymm0,%ymm2,%ymm1
  403259:	c4 e2 fd b8 d1       	vfmadd231pd %ymm1,%ymm0,%ymm2
  40325e:	c4 e2 f5 b8 c2       	vfmadd231pd %ymm2,%ymm1,%ymm0
  403263:	c4 e2 ed b8 c8       	vfmadd231pd %ymm0,%ymm2,%ymm1
  403268:	c4 e2 fd b8 d1       	vfmadd231pd %ymm1,%ymm0,%ymm2
  40326d:	c4 e2 f5 b8 c2       	vfmadd231pd %ymm2,%ymm1,%ymm0
  403272:	c4 e2 ed b8 c8       	vfmadd231pd %ymm0,%ymm2,%ymm1
  403277:	c4 e2 fd b8 d1       	vfmadd231pd %ymm1,%ymm0,%ymm2
  40327c:	c4 e2 f5 b8 c2       	vfmadd231pd %ymm2,%ymm1,%ymm0
  403281:	c4 e2 ed b8 c8       	vfmadd231pd %ymm0,%ymm2,%ymm1
  403286:	c4 e2 fd b8 d1       	vfmadd231pd %ymm1,%ymm0,%ymm2
  40328b:	c4 e2 f5 b8 c2       	vfmadd231pd %ymm2,%ymm1,%ymm0
  403290:	c4 e2 ed b8 c8       	vfmadd231pd %ymm0,%ymm2,%ymm1
  403295:	c4 e2 fd b8 d1       	vfmadd231pd %ymm1,%ymm0,%ymm2
  40329a:	c4 e2 f5 b8 c2       	vfmadd231pd %ymm2,%ymm1,%ymm0
  40329f:	c4 e2 ed b8 c8       	vfmadd231pd %ymm0,%ymm2,%ymm1
  4032a4:	c4 e2 fd b8 d1       	vfmadd231pd %ymm1,%ymm0,%ymm2
  4032a9:	c4 e2 f5 b8 c2       	vfmadd231pd %ymm2,%ymm1,%ymm0
  4032ae:	c4 e2 ed b8 c8       	vfmadd231pd %ymm0,%ymm2,%ymm1
  4032b3:	c4 e2 fd b8 d1       	vfmadd231pd %ymm1,%ymm0,%ymm2
  4032b8:	c4 e2 f5 b8 c2       	vfmadd231pd %ymm2,%ymm1,%ymm0
  4032bd:	c4 e2 ed b8 c8       	vfmadd231pd %ymm0,%ymm2,%ymm1
  4032c2:	c4 e2 fd b8 d1       	vfmadd231pd %ymm1,%ymm0,%ymm2
  4032c7:	c4 e2 f5 b8 c2       	vfmadd231pd %ymm2,%ymm1,%ymm0
  4032cc:	c4 e2 ed b8 c8       	vfmadd231pd %ymm0,%ymm2,%ymm1
  4032d1:	c4 e2 fd b8 d1       	vfmadd231pd %ymm1,%ymm0,%ymm2
  4032d6:	c4 e2 f5 b8 c2       	vfmadd231pd %ymm2,%ymm1,%ymm0
  4032db:	c4 e2 ed b8 c8       	vfmadd231pd %ymm0,%ymm2,%ymm1
  4032e0:	c4 e2 fd b8 d1       	vfmadd231pd %ymm1,%ymm0,%ymm2
  4032e5:	c4 e2 f5 b8 c2       	vfmadd231pd %ymm2,%ymm1,%ymm0
  4032ea:	c4 e2 ed b8 c8       	vfmadd231pd %ymm0,%ymm2,%ymm1
  4032ef:	c4 e2 fd b8 d1       	vfmadd231pd %ymm1,%ymm0,%ymm2
  4032f4:	c4 e2 f5 b8 c2       	vfmadd231pd %ymm2,%ymm1,%ymm0
  4032f9:	c4 e2 ed b8 c8       	vfmadd231pd %ymm0,%ymm2,%ymm1
  4032fe:	c4 e2 fd b8 d1       	vfmadd231pd %ymm1,%ymm0,%ymm2
  403303:	c4 e2 f5 b8 c2       	vfmadd231pd %ymm2,%ymm1,%ymm0
  403308:	c4 e2 ed b8 c8       	vfmadd231pd %ymm0,%ymm2,%ymm1
  40330d:	c4 e2 fd b8 d1       	vfmadd231pd %ymm1,%ymm0,%ymm2
  403312:	c4 e2 f5 b8 c2       	vfmadd231pd %ymm2,%ymm1,%ymm0
  403317:	c4 e2 ed b8 c8       	vfmadd231pd %ymm0,%ymm2,%ymm1
  40331c:	c4 e2 fd b8 d1       	vfmadd231pd %ymm1,%ymm0,%ymm2
  403321:	c4 e2 f5 b8 c2       	vfmadd231pd %ymm2,%ymm1,%ymm0
  403326:	c4 e2 ed b8 c8       	vfmadd231pd %ymm0,%ymm2,%ymm1
  40332b:	c4 e2 fd b8 d1       	vfmadd231pd %ymm1,%ymm0,%ymm2
  403330:	c4 e2 f5 b8 c2       	vfmadd231pd %ymm2,%ymm1,%ymm0
  403335:	c4 e2 ed b8 c8       	vfmadd231pd %ymm0,%ymm2,%ymm1
  40333a:	c4 e2 fd b8 d1       	vfmadd231pd %ymm1,%ymm0,%ymm2
  40333f:	c4 e2 f5 b8 c2       	vfmadd231pd %ymm2,%ymm1,%ymm0
  403344:	c4 e2 ed b8 c8       	vfmadd231pd %ymm0,%ymm2,%ymm1
  403349:	c4 e2 fd b8 d1       	vfmadd231pd %ymm1,%ymm0,%ymm2
  40334e:	c4 e2 f5 b8 c2       	vfmadd231pd %ymm2,%ymm1,%ymm0
  403353:	c4 e2 ed b8 c8       	vfmadd231pd %ymm0,%ymm2,%ymm1
  403358:	c4 e2 fd b8 d1       	vfmadd231pd %ymm1,%ymm0,%ymm2
  40335d:	c4 e2 f5 b8 c2       	vfmadd231pd %ymm2,%ymm1,%ymm0
  403362:	c4 e2 ed b8 c8       	vfmadd231pd %ymm0,%ymm2,%ymm1
  403367:	c4 e2 fd b8 d1       	vfmadd231pd %ymm1,%ymm0,%ymm2
  40336c:	c4 e2 f5 b8 c2       	vfmadd231pd %ymm2,%ymm1,%ymm0
  403371:	c4 e2 ed b8 c8       	vfmadd231pd %ymm0,%ymm2,%ymm1
  403376:	c4 e2 fd b8 d1       	vfmadd231pd %ymm1,%ymm0,%ymm2
  40337b:	c4 e2 f5 b8 c2       	vfmadd231pd %ymm2,%ymm1,%ymm0
  403380:	c4 e2 ed b8 c8       	vfmadd231pd %ymm0,%ymm2,%ymm1
  403385:	c4 e2 fd b8 d1       	vfmadd231pd %ymm1,%ymm0,%ymm2
  40338a:	c4 e2 f5 b8 c2       	vfmadd231pd %ymm2,%ymm1,%ymm0
  40338f:	c4 e2 ed b8 c8       	vfmadd231pd %ymm0,%ymm2,%ymm1
  403394:	c4 e2 fd b8 d1       	vfmadd231pd %ymm1,%ymm0,%ymm2
  403399:	c4 e2 f5 b8 c2       	vfmadd231pd %ymm2,%ymm1,%ymm0
  40339e:	c4 e2 ed b8 c8       	vfmadd231pd %ymm0,%ymm2,%ymm1
  4033a3:	c4 e2 fd b8 d1       	vfmadd231pd %ymm1,%ymm0,%ymm2
  4033a8:	c4 e2 f5 b8 c2       	vfmadd231pd %ymm2,%ymm1,%ymm0
  4033ad:	c4 e2 ed b8 c8       	vfmadd231pd %ymm0,%ymm2,%ymm1
  4033b2:	c4 e2 fd b8 d1       	vfmadd231pd %ymm1,%ymm0,%ymm2
  4033b7:	c4 e2 f5 b8 c2       	vfmadd231pd %ymm2,%ymm1,%ymm0
  4033bc:	c4 e2 ed b8 c8       	vfmadd231pd %ymm0,%ymm2,%ymm1
  4033c1:	c4 e2 fd b8 d1       	vfmadd231pd %ymm1,%ymm0,%ymm2
  4033c6:	c4 e2 f5 b8 c2       	vfmadd231pd %ymm2,%ymm1,%ymm0
  4033cb:	c4 e2 ed b8 c8       	vfmadd231pd %ymm0,%ymm2,%ymm1
  4033d0:	c4 e2 fd b8 d1       	vfmadd231pd %ymm1,%ymm0,%ymm2
  4033d5:	c4 e2 f5 b8 c2       	vfmadd231pd %ymm2,%ymm1,%ymm0
  4033da:	c4 e2 ed b8 c8       	vfmadd231pd %ymm0,%ymm2,%ymm1
  4033df:	c4 e2 fd b8 d1       	vfmadd231pd %ymm1,%ymm0,%ymm2
  4033e4:	c4 e2 f5 b8 c2       	vfmadd231pd %ymm2,%ymm1,%ymm0
  4033e9:	c4 e2 ed b8 c8       	vfmadd231pd %ymm0,%ymm2,%ymm1
  4033ee:	c4 e2 fd b8 d1       	vfmadd231pd %ymm1,%ymm0,%ymm2
  4033f3:	c4 e2 f5 b8 c2       	vfmadd231pd %ymm2,%ymm1,%ymm0
  4033f8:	c4 e2 ed b8 c8       	vfmadd231pd %ymm0,%ymm2,%ymm1
  4033fd:	c4 e2 fd b8 d1       	vfmadd231pd %ymm1,%ymm0,%ymm2
  403402:	c4 e2 f5 b8 c2       	vfmadd231pd %ymm2,%ymm1,%ymm0
  403407:	c4 e2 ed b8 c8       	vfmadd231pd %ymm0,%ymm2,%ymm1
  40340c:	c4 e2 fd b8 d1       	vfmadd231pd %ymm1,%ymm0,%ymm2
  403411:	c4 e2 f5 b8 c2       	vfmadd231pd %ymm2,%ymm1,%ymm0
  403416:	c4 e2 ed b8 c8       	vfmadd231pd %ymm0,%ymm2,%ymm1
  40341b:	c4 e2 fd b8 d1       	vfmadd231pd %ymm1,%ymm0,%ymm2
  403420:	c4 e2 f5 b8 c2       	vfmadd231pd %ymm2,%ymm1,%ymm0
  403425:	c4 e2 ed b8 c8       	vfmadd231pd %ymm0,%ymm2,%ymm1
  40342a:	c4 e2 fd b8 d1       	vfmadd231pd %ymm1,%ymm0,%ymm2
  40342f:	c4 e2 f5 b8 c2       	vfmadd231pd %ymm2,%ymm1,%ymm0
  403434:	c4 e2 ed b8 c8       	vfmadd231pd %ymm0,%ymm2,%ymm1
  403439:	c4 e2 fd b8 d1       	vfmadd231pd %ymm1,%ymm0,%ymm2
  40343e:	c4 e2 f5 b8 c2       	vfmadd231pd %ymm2,%ymm1,%ymm0
  403443:	c4 e2 ed b8 c8       	vfmadd231pd %ymm0,%ymm2,%ymm1
  403448:	c4 e2 fd b8 d1       	vfmadd231pd %ymm1,%ymm0,%ymm2
  40344d:	c4 e2 f5 b8 c2       	vfmadd231pd %ymm2,%ymm1,%ymm0
  403452:	c4 e2 ed b8 c8       	vfmadd231pd %ymm0,%ymm2,%ymm1
  403457:	c4 e2 fd b8 d1       	vfmadd231pd %ymm1,%ymm0,%ymm2
  40345c:	c4 e2 f5 b8 c2       	vfmadd231pd %ymm2,%ymm1,%ymm0
  403461:	c4 e2 ed b8 c8       	vfmadd231pd %ymm0,%ymm2,%ymm1
  403466:	c4 e2 fd b8 d1       	vfmadd231pd %ymm1,%ymm0,%ymm2
  40346b:	c4 e2 f5 b8 c2       	vfmadd231pd %ymm2,%ymm1,%ymm0
  403470:	c4 e2 ed b8 c8       	vfmadd231pd %ymm0,%ymm2,%ymm1
  403475:	c4 e2 fd b8 d1       	vfmadd231pd %ymm1,%ymm0,%ymm2
  40347a:	c4 e2 f5 b8 c2       	vfmadd231pd %ymm2,%ymm1,%ymm0
  40347f:	c4 e2 ed b8 c8       	vfmadd231pd %ymm0,%ymm2,%ymm1
  403484:	c4 e2 fd b8 d1       	vfmadd231pd %ymm1,%ymm0,%ymm2
  403489:	c4 e2 f5 b8 c2       	vfmadd231pd %ymm2,%ymm1,%ymm0
  40348e:	c4 e2 ed b8 c8       	vfmadd231pd %ymm0,%ymm2,%ymm1
  403493:	c4 e2 fd b8 d1       	vfmadd231pd %ymm1,%ymm0,%ymm2
  403498:	c4 e2 f5 b8 c2       	vfmadd231pd %ymm2,%ymm1,%ymm0
  40349d:	c4 e2 ed b8 c8       	vfmadd231pd %ymm0,%ymm2,%ymm1
  4034a2:	c4 e2 fd b8 d1       	vfmadd231pd %ymm1,%ymm0,%ymm2
  4034a7:	c4 e2 f5 b8 c2       	vfmadd231pd %ymm2,%ymm1,%ymm0
  4034ac:	c4 e2 ed b8 c8       	vfmadd231pd %ymm0,%ymm2,%ymm1
  4034b1:	c4 e2 fd b8 d1       	vfmadd231pd %ymm1,%ymm0,%ymm2
  4034b6:	c4 e2 f5 b8 c2       	vfmadd231pd %ymm2,%ymm1,%ymm0
  4034bb:	c4 e2 ed b8 c8       	vfmadd231pd %ymm0,%ymm2,%ymm1
  4034c0:	c4 e2 fd b8 d1       	vfmadd231pd %ymm1,%ymm0,%ymm2
  4034c5:	c4 e2 f5 b8 c2       	vfmadd231pd %ymm2,%ymm1,%ymm0
  4034ca:	c4 e2 ed b8 c8       	vfmadd231pd %ymm0,%ymm2,%ymm1
  4034cf:	c4 e2 fd b8 d1       	vfmadd231pd %ymm1,%ymm0,%ymm2
  4034d4:	c4 e2 f5 b8 c2       	vfmadd231pd %ymm2,%ymm1,%ymm0
  4034d9:	c4 e2 ed b8 c8       	vfmadd231pd %ymm0,%ymm2,%ymm1
  4034de:	c4 e2 fd b8 d1       	vfmadd231pd %ymm1,%ymm0,%ymm2
  4034e3:	c4 e2 f5 b8 c2       	vfmadd231pd %ymm2,%ymm1,%ymm0
  4034e8:	c4 e2 ed b8 c8       	vfmadd231pd %ymm0,%ymm2,%ymm1
  4034ed:	c4 e2 fd b8 d1       	vfmadd231pd %ymm1,%ymm0,%ymm2
  4034f2:	c4 e2 f5 b8 c2       	vfmadd231pd %ymm2,%ymm1,%ymm0
  4034f7:	c4 e2 ed b8 c8       	vfmadd231pd %ymm0,%ymm2,%ymm1
  4034fc:	c4 e2 fd b8 d1       	vfmadd231pd %ymm1,%ymm0,%ymm2
  403501:	c4 e2 f5 b8 c2       	vfmadd231pd %ymm2,%ymm1,%ymm0
  403506:	c4 e2 ed b8 c8       	vfmadd231pd %ymm0,%ymm2,%ymm1
  40350b:	c4 e2 fd b8 d1       	vfmadd231pd %ymm1,%ymm0,%ymm2
  403510:	c4 e2 f5 b8 c2       	vfmadd231pd %ymm2,%ymm1,%ymm0
  403515:	c4 e2 ed b8 c8       	vfmadd231pd %ymm0,%ymm2,%ymm1
  40351a:	c4 e2 fd b8 d1       	vfmadd231pd %ymm1,%ymm0,%ymm2
  40351f:	c4 e2 f5 b8 c2       	vfmadd231pd %ymm2,%ymm1,%ymm0
  403524:	c4 e2 ed b8 c8       	vfmadd231pd %ymm0,%ymm2,%ymm1
  403529:	c4 e2 fd b8 d1       	vfmadd231pd %ymm1,%ymm0,%ymm2
  40352e:	c4 e2 f5 b8 c2       	vfmadd231pd %ymm2,%ymm1,%ymm0
  403533:	c4 e2 ed b8 c8       	vfmadd231pd %ymm0,%ymm2,%ymm1
  403538:	c4 e2 fd b8 d1       	vfmadd231pd %ymm1,%ymm0,%ymm2
  40353d:	c4 e2 f5 b8 c2       	vfmadd231pd %ymm2,%ymm1,%ymm0
  403542:	c4 e2 ed b8 c8       	vfmadd231pd %ymm0,%ymm2,%ymm1
  403547:	c4 e2 fd b8 d1       	vfmadd231pd %ymm1,%ymm0,%ymm2
  40354c:	c4 e2 f5 b8 c2       	vfmadd231pd %ymm2,%ymm1,%ymm0
  403551:	c4 e2 ed b8 c8       	vfmadd231pd %ymm0,%ymm2,%ymm1
  403556:	c4 e2 fd b8 d1       	vfmadd231pd %ymm1,%ymm0,%ymm2
  40355b:	c4 e2 f5 b8 c2       	vfmadd231pd %ymm2,%ymm1,%ymm0
  403560:	c4 e2 ed b8 c8       	vfmadd231pd %ymm0,%ymm2,%ymm1
  403565:	c4 e2 fd b8 d1       	vfmadd231pd %ymm1,%ymm0,%ymm2
  40356a:	c4 e2 f5 b8 c2       	vfmadd231pd %ymm2,%ymm1,%ymm0
  40356f:	c4 e2 ed b8 c8       	vfmadd231pd %ymm0,%ymm2,%ymm1
  403574:	c4 e2 fd b8 d1       	vfmadd231pd %ymm1,%ymm0,%ymm2
  403579:	c4 e2 f5 b8 c2       	vfmadd231pd %ymm2,%ymm1,%ymm0
  40357e:	c4 e2 ed b8 c8       	vfmadd231pd %ymm0,%ymm2,%ymm1
  403583:	c4 e2 fd b8 d1       	vfmadd231pd %ymm1,%ymm0,%ymm2
  403588:	c4 e2 f5 b8 c2       	vfmadd231pd %ymm2,%ymm1,%ymm0
  40358d:	c4 e2 ed b8 c8       	vfmadd231pd %ymm0,%ymm2,%ymm1
  403592:	c4 e2 fd b8 d1       	vfmadd231pd %ymm1,%ymm0,%ymm2
  403597:	c4 e2 f5 b8 c2       	vfmadd231pd %ymm2,%ymm1,%ymm0
  40359c:	c4 e2 ed b8 c8       	vfmadd231pd %ymm0,%ymm2,%ymm1
  4035a1:	c4 e2 fd b8 d1       	vfmadd231pd %ymm1,%ymm0,%ymm2
  4035a6:	c4 e2 f5 b8 c2       	vfmadd231pd %ymm2,%ymm1,%ymm0
  4035ab:	c4 e2 ed b8 c8       	vfmadd231pd %ymm0,%ymm2,%ymm1
  4035b0:	c4 e2 fd b8 d1       	vfmadd231pd %ymm1,%ymm0,%ymm2
  4035b5:	c4 e2 f5 b8 c2       	vfmadd231pd %ymm2,%ymm1,%ymm0
  4035ba:	c4 e2 ed b8 c8       	vfmadd231pd %ymm0,%ymm2,%ymm1
  4035bf:	c4 e2 fd b8 d1       	vfmadd231pd %ymm1,%ymm0,%ymm2
  4035c4:	c4 e2 f5 b8 c2       	vfmadd231pd %ymm2,%ymm1,%ymm0
  4035c9:	c4 e2 ed b8 c8       	vfmadd231pd %ymm0,%ymm2,%ymm1
  4035ce:	c4 e2 fd b8 d1       	vfmadd231pd %ymm1,%ymm0,%ymm2
  4035d3:	c4 e2 f5 b8 c2       	vfmadd231pd %ymm2,%ymm1,%ymm0
  4035d8:	c4 e2 ed b8 c8       	vfmadd231pd %ymm0,%ymm2,%ymm1
  4035dd:	c4 e2 fd b8 d1       	vfmadd231pd %ymm1,%ymm0,%ymm2
  4035e2:	c4 e2 f5 b8 c2       	vfmadd231pd %ymm2,%ymm1,%ymm0
  4035e7:	c4 e2 ed b8 c8       	vfmadd231pd %ymm0,%ymm2,%ymm1
  4035ec:	c4 e2 fd b8 d1       	vfmadd231pd %ymm1,%ymm0,%ymm2
  4035f1:	c4 e2 f5 b8 c2       	vfmadd231pd %ymm2,%ymm1,%ymm0
  4035f6:	c4 e2 ed b8 c8       	vfmadd231pd %ymm0,%ymm2,%ymm1
  4035fb:	c4 e2 fd b8 d1       	vfmadd231pd %ymm1,%ymm0,%ymm2
  403600:	c4 e2 f5 b8 c2       	vfmadd231pd %ymm2,%ymm1,%ymm0
  403605:	c4 e2 ed b8 c8       	vfmadd231pd %ymm0,%ymm2,%ymm1
  40360a:	c4 e2 fd b8 d1       	vfmadd231pd %ymm1,%ymm0,%ymm2
  40360f:	c4 e2 f5 b8 c2       	vfmadd231pd %ymm2,%ymm1,%ymm0
  403614:	c4 e2 ed b8 c8       	vfmadd231pd %ymm0,%ymm2,%ymm1
  403619:	c4 e2 fd b8 d1       	vfmadd231pd %ymm1,%ymm0,%ymm2
  40361e:	c4 e2 f5 b8 c2       	vfmadd231pd %ymm2,%ymm1,%ymm0
  403623:	c4 e2 ed b8 c8       	vfmadd231pd %ymm0,%ymm2,%ymm1
  403628:	c4 e2 fd b8 d1       	vfmadd231pd %ymm1,%ymm0,%ymm2
  40362d:	c4 e2 f5 b8 c2       	vfmadd231pd %ymm2,%ymm1,%ymm0
  403632:	c4 e2 ed b8 c8       	vfmadd231pd %ymm0,%ymm2,%ymm1
  403637:	c4 e2 fd b8 d1       	vfmadd231pd %ymm1,%ymm0,%ymm2
  40363c:	c4 e2 f5 b8 c2       	vfmadd231pd %ymm2,%ymm1,%ymm0
  403641:	c4 e2 ed b8 c8       	vfmadd231pd %ymm0,%ymm2,%ymm1
  403646:	c4 e2 fd b8 d1       	vfmadd231pd %ymm1,%ymm0,%ymm2
  40364b:	c4 e2 f5 b8 c2       	vfmadd231pd %ymm2,%ymm1,%ymm0
  403650:	c4 e2 ed b8 c8       	vfmadd231pd %ymm0,%ymm2,%ymm1
  403655:	c4 e2 fd b8 d1       	vfmadd231pd %ymm1,%ymm0,%ymm2
  40365a:	c4 e2 f5 b8 c2       	vfmadd231pd %ymm2,%ymm1,%ymm0
  40365f:	c4 e2 ed b8 c8       	vfmadd231pd %ymm0,%ymm2,%ymm1
  403664:	c4 e2 fd b8 d1       	vfmadd231pd %ymm1,%ymm0,%ymm2
  403669:	c4 e2 f5 b8 c2       	vfmadd231pd %ymm2,%ymm1,%ymm0
  40366e:	c4 e2 ed b8 c8       	vfmadd231pd %ymm0,%ymm2,%ymm1
  403673:	c4 e2 fd b8 d1       	vfmadd231pd %ymm1,%ymm0,%ymm2
  403678:	c4 e2 f5 b8 c2       	vfmadd231pd %ymm2,%ymm1,%ymm0
  40367d:	c4 e2 ed b8 c8       	vfmadd231pd %ymm0,%ymm2,%ymm1
  403682:	c4 e2 fd b8 d1       	vfmadd231pd %ymm1,%ymm0,%ymm2
  403687:	c4 e2 f5 b8 c2       	vfmadd231pd %ymm2,%ymm1,%ymm0
  40368c:	c4 e2 ed b8 c8       	vfmadd231pd %ymm0,%ymm2,%ymm1
  403691:	c4 e2 fd b8 d1       	vfmadd231pd %ymm1,%ymm0,%ymm2
  403696:	c4 e2 f5 b8 c2       	vfmadd231pd %ymm2,%ymm1,%ymm0
  40369b:	c4 e2 ed b8 c8       	vfmadd231pd %ymm0,%ymm2,%ymm1
  4036a0:	c4 e2 fd b8 d1       	vfmadd231pd %ymm1,%ymm0,%ymm2
  4036a5:	c4 e2 f5 b8 c2       	vfmadd231pd %ymm2,%ymm1,%ymm0
  4036aa:	c4 e2 ed b8 c8       	vfmadd231pd %ymm0,%ymm2,%ymm1
  4036af:	c4 e2 fd b8 d1       	vfmadd231pd %ymm1,%ymm0,%ymm2
  4036b4:	c4 e2 f5 b8 c2       	vfmadd231pd %ymm2,%ymm1,%ymm0
  4036b9:	c4 e2 ed b8 c8       	vfmadd231pd %ymm0,%ymm2,%ymm1
  4036be:	c4 e2 fd b8 d1       	vfmadd231pd %ymm1,%ymm0,%ymm2
  4036c3:	c4 e2 f5 b8 c2       	vfmadd231pd %ymm2,%ymm1,%ymm0
  4036c8:	c4 e2 ed b8 c8       	vfmadd231pd %ymm0,%ymm2,%ymm1
  4036cd:	c4 e2 fd b8 d1       	vfmadd231pd %ymm1,%ymm0,%ymm2
  4036d2:	c4 e2 f5 b8 c2       	vfmadd231pd %ymm2,%ymm1,%ymm0
  4036d7:	c4 e2 ed b8 c8       	vfmadd231pd %ymm0,%ymm2,%ymm1
  4036dc:	c4 e2 fd b8 d1       	vfmadd231pd %ymm1,%ymm0,%ymm2
  4036e1:	c4 e2 f5 b8 c2       	vfmadd231pd %ymm2,%ymm1,%ymm0
  4036e6:	c4 e2 ed b8 c8       	vfmadd231pd %ymm0,%ymm2,%ymm1
  4036eb:	c4 e2 fd b8 d1       	vfmadd231pd %ymm1,%ymm0,%ymm2
  4036f0:	c4 e2 f5 b8 c2       	vfmadd231pd %ymm2,%ymm1,%ymm0
  4036f5:	c4 e2 ed b8 c8       	vfmadd231pd %ymm0,%ymm2,%ymm1
  4036fa:	c4 e2 fd b8 d1       	vfmadd231pd %ymm1,%ymm0,%ymm2
  4036ff:	c4 e2 f5 b8 c2       	vfmadd231pd %ymm2,%ymm1,%ymm0
  403704:	c4 e2 ed b8 c8       	vfmadd231pd %ymm0,%ymm2,%ymm1
  403709:	c4 e2 fd b8 d1       	vfmadd231pd %ymm1,%ymm0,%ymm2
  40370e:	c4 e2 f5 b8 c2       	vfmadd231pd %ymm2,%ymm1,%ymm0
  403713:	c4 e2 ed b8 c8       	vfmadd231pd %ymm0,%ymm2,%ymm1
  403718:	c4 e2 fd b8 d1       	vfmadd231pd %ymm1,%ymm0,%ymm2
  40371d:	c4 e2 f5 b8 c2       	vfmadd231pd %ymm2,%ymm1,%ymm0
  403722:	c4 e2 ed b8 c8       	vfmadd231pd %ymm0,%ymm2,%ymm1
  403727:	c4 e2 fd b8 d1       	vfmadd231pd %ymm1,%ymm0,%ymm2
  40372c:	c4 e2 f5 b8 c2       	vfmadd231pd %ymm2,%ymm1,%ymm0
  403731:	c4 e2 ed b8 c8       	vfmadd231pd %ymm0,%ymm2,%ymm1
  403736:	c4 e2 fd b8 d1       	vfmadd231pd %ymm1,%ymm0,%ymm2
  40373b:	c4 e2 f5 b8 c2       	vfmadd231pd %ymm2,%ymm1,%ymm0
  403740:	c4 e2 ed b8 c8       	vfmadd231pd %ymm0,%ymm2,%ymm1
  403745:	c4 e2 fd b8 d1       	vfmadd231pd %ymm1,%ymm0,%ymm2
  40374a:	c4 e2 f5 b8 c2       	vfmadd231pd %ymm2,%ymm1,%ymm0
  40374f:	c4 e2 ed b8 c8       	vfmadd231pd %ymm0,%ymm2,%ymm1
  403754:	c4 e2 fd b8 d1       	vfmadd231pd %ymm1,%ymm0,%ymm2
  403759:	c4 e2 f5 b8 c2       	vfmadd231pd %ymm2,%ymm1,%ymm0
  40375e:	c4 e2 ed b8 c8       	vfmadd231pd %ymm0,%ymm2,%ymm1
  403763:	c4 e2 fd b8 d1       	vfmadd231pd %ymm1,%ymm0,%ymm2
  403768:	c4 e2 f5 b8 c2       	vfmadd231pd %ymm2,%ymm1,%ymm0
  40376d:	c4 e2 ed b8 c8       	vfmadd231pd %ymm0,%ymm2,%ymm1
  403772:	c4 e2 fd b8 d1       	vfmadd231pd %ymm1,%ymm0,%ymm2
  403777:	c4 e2 f5 b8 c2       	vfmadd231pd %ymm2,%ymm1,%ymm0
  40377c:	c4 e2 ed b8 c8       	vfmadd231pd %ymm0,%ymm2,%ymm1
  403781:	c4 e2 fd b8 d1       	vfmadd231pd %ymm1,%ymm0,%ymm2
  403786:	c4 e2 f5 b8 c2       	vfmadd231pd %ymm2,%ymm1,%ymm0
  40378b:	c4 e2 ed b8 c8       	vfmadd231pd %ymm0,%ymm2,%ymm1
  403790:	c4 e2 fd b8 d1       	vfmadd231pd %ymm1,%ymm0,%ymm2
  403795:	c4 e2 f5 b8 c2       	vfmadd231pd %ymm2,%ymm1,%ymm0
  40379a:	c4 e2 ed b8 c8       	vfmadd231pd %ymm0,%ymm2,%ymm1
  40379f:	c4 e2 fd b8 d1       	vfmadd231pd %ymm1,%ymm0,%ymm2
  4037a4:	c4 e2 f5 b8 c2       	vfmadd231pd %ymm2,%ymm1,%ymm0
  4037a9:	c4 e2 ed b8 c8       	vfmadd231pd %ymm0,%ymm2,%ymm1
  4037ae:	c4 e2 fd b8 d1       	vfmadd231pd %ymm1,%ymm0,%ymm2
  4037b3:	c4 e2 f5 b8 c2       	vfmadd231pd %ymm2,%ymm1,%ymm0
  4037b8:	c4 e2 ed b8 c8       	vfmadd231pd %ymm0,%ymm2,%ymm1
  4037bd:	c4 e2 fd b8 d1       	vfmadd231pd %ymm1,%ymm0,%ymm2
  4037c2:	c4 e2 f5 b8 c2       	vfmadd231pd %ymm2,%ymm1,%ymm0
  4037c7:	c4 e2 ed b8 c8       	vfmadd231pd %ymm0,%ymm2,%ymm1
  4037cc:	c4 e2 fd b8 d1       	vfmadd231pd %ymm1,%ymm0,%ymm2
  4037d1:	c4 e2 f5 b8 c2       	vfmadd231pd %ymm2,%ymm1,%ymm0
  4037d6:	c4 e2 ed b8 c8       	vfmadd231pd %ymm0,%ymm2,%ymm1
  4037db:	c4 e2 fd b8 d1       	vfmadd231pd %ymm1,%ymm0,%ymm2
  4037e0:	c4 e2 f5 b8 c2       	vfmadd231pd %ymm2,%ymm1,%ymm0
  4037e5:	c4 e2 ed b8 c8       	vfmadd231pd %ymm0,%ymm2,%ymm1
  4037ea:	c4 e2 fd b8 d1       	vfmadd231pd %ymm1,%ymm0,%ymm2
  4037ef:	c4 e2 f5 b8 c2       	vfmadd231pd %ymm2,%ymm1,%ymm0
  4037f4:	c4 e2 ed b8 c8       	vfmadd231pd %ymm0,%ymm2,%ymm1
  4037f9:	c4 e2 fd b8 d1       	vfmadd231pd %ymm1,%ymm0,%ymm2
  4037fe:	c4 e2 f5 b8 c2       	vfmadd231pd %ymm2,%ymm1,%ymm0
  403803:	c4 e2 ed b8 c8       	vfmadd231pd %ymm0,%ymm2,%ymm1
  403808:	c4 e2 fd b8 d1       	vfmadd231pd %ymm1,%ymm0,%ymm2
  40380d:	c4 e2 f5 b8 c2       	vfmadd231pd %ymm2,%ymm1,%ymm0
  403812:	c4 e2 ed b8 c8       	vfmadd231pd %ymm0,%ymm2,%ymm1
  403817:	c4 e2 fd b8 d1       	vfmadd231pd %ymm1,%ymm0,%ymm2
  40381c:	c4 e2 f5 b8 c2       	vfmadd231pd %ymm2,%ymm1,%ymm0
  403821:	c4 e2 ed b8 c8       	vfmadd231pd %ymm0,%ymm2,%ymm1
  403826:	c4 e2 fd b8 d1       	vfmadd231pd %ymm1,%ymm0,%ymm2
  40382b:	c4 e2 f5 b8 c2       	vfmadd231pd %ymm2,%ymm1,%ymm0
  403830:	c4 e2 ed b8 c8       	vfmadd231pd %ymm0,%ymm2,%ymm1
  403835:	c4 e2 fd b8 d1       	vfmadd231pd %ymm1,%ymm0,%ymm2
  40383a:	c4 e2 f5 b8 c2       	vfmadd231pd %ymm2,%ymm1,%ymm0
  40383f:	c4 e2 ed b8 c8       	vfmadd231pd %ymm0,%ymm2,%ymm1
  403844:	c4 e2 fd b8 d1       	vfmadd231pd %ymm1,%ymm0,%ymm2
  403849:	c4 e2 f5 b8 c2       	vfmadd231pd %ymm2,%ymm1,%ymm0
  40384e:	c4 e2 ed b8 c8       	vfmadd231pd %ymm0,%ymm2,%ymm1
  403853:	c4 e2 fd b8 d1       	vfmadd231pd %ymm1,%ymm0,%ymm2
  403858:	c4 e2 f5 b8 c2       	vfmadd231pd %ymm2,%ymm1,%ymm0
  40385d:	c4 e2 ed b8 c8       	vfmadd231pd %ymm0,%ymm2,%ymm1
  403862:	c4 e2 fd b8 d1       	vfmadd231pd %ymm1,%ymm0,%ymm2
  403867:	c4 e2 f5 b8 c2       	vfmadd231pd %ymm2,%ymm1,%ymm0
  40386c:	c4 e2 ed b8 c8       	vfmadd231pd %ymm0,%ymm2,%ymm1
  403871:	c4 e2 fd b8 d1       	vfmadd231pd %ymm1,%ymm0,%ymm2
  403876:	c4 e2 f5 b8 c2       	vfmadd231pd %ymm2,%ymm1,%ymm0
  40387b:	c4 e2 ed b8 c8       	vfmadd231pd %ymm0,%ymm2,%ymm1
  403880:	c4 e2 fd b8 d1       	vfmadd231pd %ymm1,%ymm0,%ymm2
  403885:	c4 e2 f5 b8 c2       	vfmadd231pd %ymm2,%ymm1,%ymm0
  40388a:	c4 e2 ed b8 c8       	vfmadd231pd %ymm0,%ymm2,%ymm1
  40388f:	c4 e2 fd b8 d1       	vfmadd231pd %ymm1,%ymm0,%ymm2
  403894:	c4 e2 f5 b8 c2       	vfmadd231pd %ymm2,%ymm1,%ymm0
  403899:	c4 e2 ed b8 c8       	vfmadd231pd %ymm0,%ymm2,%ymm1
  40389e:	c4 e2 fd b8 d1       	vfmadd231pd %ymm1,%ymm0,%ymm2
  4038a3:	c4 e2 f5 b8 c2       	vfmadd231pd %ymm2,%ymm1,%ymm0
  4038a8:	c4 e2 ed b8 c8       	vfmadd231pd %ymm0,%ymm2,%ymm1
  4038ad:	c4 e2 fd b8 d1       	vfmadd231pd %ymm1,%ymm0,%ymm2
  4038b2:	c4 e2 f5 b8 c2       	vfmadd231pd %ymm2,%ymm1,%ymm0
  4038b7:	c4 e2 ed b8 c8       	vfmadd231pd %ymm0,%ymm2,%ymm1
  4038bc:	c4 e2 fd b8 d1       	vfmadd231pd %ymm1,%ymm0,%ymm2
  4038c1:	c4 e2 f5 b8 c2       	vfmadd231pd %ymm2,%ymm1,%ymm0
  4038c6:	c4 e2 ed b8 c8       	vfmadd231pd %ymm0,%ymm2,%ymm1
  4038cb:	c4 e2 fd b8 d1       	vfmadd231pd %ymm1,%ymm0,%ymm2
  4038d0:	c4 e2 f5 b8 c2       	vfmadd231pd %ymm2,%ymm1,%ymm0
  4038d5:	c4 e2 ed b8 c8       	vfmadd231pd %ymm0,%ymm2,%ymm1
  4038da:	c4 e2 fd b8 d1       	vfmadd231pd %ymm1,%ymm0,%ymm2
  4038df:	c4 e2 f5 b8 c2       	vfmadd231pd %ymm2,%ymm1,%ymm0
  4038e4:	c4 e2 ed b8 c8       	vfmadd231pd %ymm0,%ymm2,%ymm1
  4038e9:	c4 e2 fd b8 d1       	vfmadd231pd %ymm1,%ymm0,%ymm2
  4038ee:	c4 e2 f5 b8 c2       	vfmadd231pd %ymm2,%ymm1,%ymm0
  4038f3:	c4 e2 ed b8 c8       	vfmadd231pd %ymm0,%ymm2,%ymm1
  4038f8:	c4 e2 fd b8 d1       	vfmadd231pd %ymm1,%ymm0,%ymm2
  4038fd:	c4 e2 f5 b8 c2       	vfmadd231pd %ymm2,%ymm1,%ymm0
  403902:	c4 e2 ed b8 c8       	vfmadd231pd %ymm0,%ymm2,%ymm1
  403907:	c4 e2 fd b8 d1       	vfmadd231pd %ymm1,%ymm0,%ymm2
  40390c:	c4 e2 f5 b8 c2       	vfmadd231pd %ymm2,%ymm1,%ymm0
  403911:	c4 e2 ed b8 c8       	vfmadd231pd %ymm0,%ymm2,%ymm1
  403916:	c4 e2 fd b8 d1       	vfmadd231pd %ymm1,%ymm0,%ymm2
  40391b:	c4 e2 f5 b8 c2       	vfmadd231pd %ymm2,%ymm1,%ymm0
  403920:	c4 e2 ed b8 c8       	vfmadd231pd %ymm0,%ymm2,%ymm1
  403925:	c4 e2 fd b8 d1       	vfmadd231pd %ymm1,%ymm0,%ymm2
  40392a:	c4 e2 f5 b8 c2       	vfmadd231pd %ymm2,%ymm1,%ymm0
  40392f:	c4 e2 ed b8 c8       	vfmadd231pd %ymm0,%ymm2,%ymm1
  403934:	c4 e2 fd b8 d1       	vfmadd231pd %ymm1,%ymm0,%ymm2
  403939:	c4 e2 f5 b8 c2       	vfmadd231pd %ymm2,%ymm1,%ymm0
  40393e:	c4 e2 ed b8 c8       	vfmadd231pd %ymm0,%ymm2,%ymm1
  403943:	c4 e2 fd b8 d1       	vfmadd231pd %ymm1,%ymm0,%ymm2
  403948:	c4 e2 f5 b8 c2       	vfmadd231pd %ymm2,%ymm1,%ymm0
  40394d:	c4 e2 ed b8 c8       	vfmadd231pd %ymm0,%ymm2,%ymm1
  403952:	c4 e2 fd b8 d1       	vfmadd231pd %ymm1,%ymm0,%ymm2
  403957:	c4 e2 f5 b8 c2       	vfmadd231pd %ymm2,%ymm1,%ymm0
  40395c:	c4 e2 ed b8 c8       	vfmadd231pd %ymm0,%ymm2,%ymm1
  403961:	c4 e2 fd b8 d1       	vfmadd231pd %ymm1,%ymm0,%ymm2
  403966:	c4 e2 f5 b8 c2       	vfmadd231pd %ymm2,%ymm1,%ymm0
  40396b:	c4 e2 ed b8 c8       	vfmadd231pd %ymm0,%ymm2,%ymm1
  403970:	c4 e2 fd b8 d1       	vfmadd231pd %ymm1,%ymm0,%ymm2
  403975:	c4 e2 f5 b8 c2       	vfmadd231pd %ymm2,%ymm1,%ymm0
  40397a:	c4 e2 ed b8 c8       	vfmadd231pd %ymm0,%ymm2,%ymm1
  40397f:	c4 e2 fd b8 d1       	vfmadd231pd %ymm1,%ymm0,%ymm2
  403984:	c4 e2 f5 b8 c2       	vfmadd231pd %ymm2,%ymm1,%ymm0
  403989:	c4 e2 ed b8 c8       	vfmadd231pd %ymm0,%ymm2,%ymm1
  40398e:	c4 e2 fd b8 d1       	vfmadd231pd %ymm1,%ymm0,%ymm2
  403993:	c4 e2 f5 b8 c2       	vfmadd231pd %ymm2,%ymm1,%ymm0
  403998:	c4 e2 ed b8 c8       	vfmadd231pd %ymm0,%ymm2,%ymm1
  40399d:	c4 e2 fd b8 d1       	vfmadd231pd %ymm1,%ymm0,%ymm2
  4039a2:	c4 e2 f5 b8 c2       	vfmadd231pd %ymm2,%ymm1,%ymm0
  4039a7:	c4 e2 ed b8 c8       	vfmadd231pd %ymm0,%ymm2,%ymm1
  4039ac:	c4 e2 fd b8 d1       	vfmadd231pd %ymm1,%ymm0,%ymm2
  4039b1:	c4 e2 f5 b8 c2       	vfmadd231pd %ymm2,%ymm1,%ymm0
  4039b6:	c4 e2 ed b8 c8       	vfmadd231pd %ymm0,%ymm2,%ymm1
  4039bb:	c4 e2 fd b8 d1       	vfmadd231pd %ymm1,%ymm0,%ymm2
  4039c0:	c4 e2 f5 b8 c2       	vfmadd231pd %ymm2,%ymm1,%ymm0
  4039c5:	c4 e2 ed b8 c8       	vfmadd231pd %ymm0,%ymm2,%ymm1
  4039ca:	c4 e2 fd b8 d1       	vfmadd231pd %ymm1,%ymm0,%ymm2
  4039cf:	c4 e2 f5 b8 c2       	vfmadd231pd %ymm2,%ymm1,%ymm0
  4039d4:	c4 e2 ed b8 c8       	vfmadd231pd %ymm0,%ymm2,%ymm1
  4039d9:	c4 e2 fd b8 d1       	vfmadd231pd %ymm1,%ymm0,%ymm2
  4039de:	c4 e2 f5 b8 c2       	vfmadd231pd %ymm2,%ymm1,%ymm0
  4039e3:	c4 e2 ed b8 c8       	vfmadd231pd %ymm0,%ymm2,%ymm1
  4039e8:	c4 e2 fd b8 d1       	vfmadd231pd %ymm1,%ymm0,%ymm2
  4039ed:	c4 e2 f5 b8 c2       	vfmadd231pd %ymm2,%ymm1,%ymm0
  4039f2:	c4 e2 ed b8 c8       	vfmadd231pd %ymm0,%ymm2,%ymm1
  4039f7:	c4 e2 fd b8 d1       	vfmadd231pd %ymm1,%ymm0,%ymm2
  4039fc:	c4 e2 f5 b8 c2       	vfmadd231pd %ymm2,%ymm1,%ymm0
  403a01:	c4 e2 ed b8 c8       	vfmadd231pd %ymm0,%ymm2,%ymm1
  403a06:	c4 e2 fd b8 d1       	vfmadd231pd %ymm1,%ymm0,%ymm2
  403a0b:	c4 e2 f5 b8 c2       	vfmadd231pd %ymm2,%ymm1,%ymm0
  403a10:	c4 e2 ed b8 c8       	vfmadd231pd %ymm0,%ymm2,%ymm1
  403a15:	c4 e2 fd b8 d1       	vfmadd231pd %ymm1,%ymm0,%ymm2
  403a1a:	c4 e2 f5 b8 c2       	vfmadd231pd %ymm2,%ymm1,%ymm0
  403a1f:	c4 e2 ed b8 c8       	vfmadd231pd %ymm0,%ymm2,%ymm1
  403a24:	c4 e2 fd b8 d1       	vfmadd231pd %ymm1,%ymm0,%ymm2
  403a29:	c4 e2 f5 b8 c2       	vfmadd231pd %ymm2,%ymm1,%ymm0
  403a2e:	c4 e2 ed b8 c8       	vfmadd231pd %ymm0,%ymm2,%ymm1
  403a33:	c4 e2 fd b8 d1       	vfmadd231pd %ymm1,%ymm0,%ymm2
  403a38:	c4 e2 f5 b8 c2       	vfmadd231pd %ymm2,%ymm1,%ymm0
  403a3d:	c4 e2 ed b8 c8       	vfmadd231pd %ymm0,%ymm2,%ymm1
  403a42:	c4 e2 fd b8 d1       	vfmadd231pd %ymm1,%ymm0,%ymm2
  403a47:	c4 e2 f5 b8 c2       	vfmadd231pd %ymm2,%ymm1,%ymm0
  403a4c:	c4 e2 ed b8 c8       	vfmadd231pd %ymm0,%ymm2,%ymm1
  403a51:	c4 e2 fd b8 d1       	vfmadd231pd %ymm1,%ymm0,%ymm2
  403a56:	c4 e2 f5 b8 c2       	vfmadd231pd %ymm2,%ymm1,%ymm0
  403a5b:	c4 e2 ed b8 c8       	vfmadd231pd %ymm0,%ymm2,%ymm1
  403a60:	c4 e2 fd b8 d1       	vfmadd231pd %ymm1,%ymm0,%ymm2
  403a65:	c4 e2 f5 b8 c2       	vfmadd231pd %ymm2,%ymm1,%ymm0
  403a6a:	c4 e2 ed b8 c8       	vfmadd231pd %ymm0,%ymm2,%ymm1
  403a6f:	c4 e2 fd b8 d1       	vfmadd231pd %ymm1,%ymm0,%ymm2
  403a74:	c4 e2 f5 b8 c2       	vfmadd231pd %ymm2,%ymm1,%ymm0
  403a79:	c4 e2 ed b8 c8       	vfmadd231pd %ymm0,%ymm2,%ymm1
  403a7e:	c4 e2 fd b8 d1       	vfmadd231pd %ymm1,%ymm0,%ymm2
  403a83:	c4 e2 f5 b8 c2       	vfmadd231pd %ymm2,%ymm1,%ymm0
  403a88:	c4 e2 ed b8 c8       	vfmadd231pd %ymm0,%ymm2,%ymm1
  403a8d:	c4 e2 fd b8 d1       	vfmadd231pd %ymm1,%ymm0,%ymm2
  403a92:	c4 e2 f5 b8 c2       	vfmadd231pd %ymm2,%ymm1,%ymm0
  403a97:	c4 e2 ed b8 c8       	vfmadd231pd %ymm0,%ymm2,%ymm1
  403a9c:	c4 e2 fd b8 d1       	vfmadd231pd %ymm1,%ymm0,%ymm2
  403aa1:	c4 e2 f5 b8 c2       	vfmadd231pd %ymm2,%ymm1,%ymm0
  403aa6:	c4 e2 ed b8 c8       	vfmadd231pd %ymm0,%ymm2,%ymm1
  403aab:	c4 e2 fd b8 d1       	vfmadd231pd %ymm1,%ymm0,%ymm2
  403ab0:	c4 e2 f5 b8 c2       	vfmadd231pd %ymm2,%ymm1,%ymm0
  403ab5:	c4 e2 ed b8 c8       	vfmadd231pd %ymm0,%ymm2,%ymm1
  403aba:	c4 e2 fd b8 d1       	vfmadd231pd %ymm1,%ymm0,%ymm2
  403abf:	c4 e2 f5 b8 c2       	vfmadd231pd %ymm2,%ymm1,%ymm0
  403ac4:	c4 e2 ed b8 c8       	vfmadd231pd %ymm0,%ymm2,%ymm1
  403ac9:	c4 e2 fd b8 d1       	vfmadd231pd %ymm1,%ymm0,%ymm2
  403ace:	c4 e2 f5 b8 c2       	vfmadd231pd %ymm2,%ymm1,%ymm0
  403ad3:	c4 e2 ed b8 c8       	vfmadd231pd %ymm0,%ymm2,%ymm1
  403ad8:	c4 e2 fd b8 d1       	vfmadd231pd %ymm1,%ymm0,%ymm2
  403add:	c4 e2 f5 b8 c2       	vfmadd231pd %ymm2,%ymm1,%ymm0
  403ae2:	c4 e2 ed b8 c8       	vfmadd231pd %ymm0,%ymm2,%ymm1
  403ae7:	c4 e2 fd b8 d1       	vfmadd231pd %ymm1,%ymm0,%ymm2
  403aec:	c4 e2 f5 b8 c2       	vfmadd231pd %ymm2,%ymm1,%ymm0
  403af1:	c4 e2 ed b8 c8       	vfmadd231pd %ymm0,%ymm2,%ymm1
  403af6:	c4 e2 fd b8 d1       	vfmadd231pd %ymm1,%ymm0,%ymm2
  403afb:	c4 e2 f5 b8 c2       	vfmadd231pd %ymm2,%ymm1,%ymm0
  403b00:	c4 e2 ed b8 c8       	vfmadd231pd %ymm0,%ymm2,%ymm1
  403b05:	c4 e2 fd b8 d1       	vfmadd231pd %ymm1,%ymm0,%ymm2
  403b0a:	c4 e2 f5 b8 c2       	vfmadd231pd %ymm2,%ymm1,%ymm0
  403b0f:	c4 e2 ed b8 c8       	vfmadd231pd %ymm0,%ymm2,%ymm1
  403b14:	c4 e2 fd b8 d1       	vfmadd231pd %ymm1,%ymm0,%ymm2
  403b19:	c4 e2 f5 b8 c2       	vfmadd231pd %ymm2,%ymm1,%ymm0
  403b1e:	c4 e2 ed b8 c8       	vfmadd231pd %ymm0,%ymm2,%ymm1
  403b23:	c4 e2 fd b8 d1       	vfmadd231pd %ymm1,%ymm0,%ymm2
  403b28:	c4 e2 f5 b8 c2       	vfmadd231pd %ymm2,%ymm1,%ymm0
  403b2d:	c4 e2 ed b8 c8       	vfmadd231pd %ymm0,%ymm2,%ymm1
  403b32:	c4 e2 fd b8 d1       	vfmadd231pd %ymm1,%ymm0,%ymm2
  403b37:	c4 e2 f5 b8 c2       	vfmadd231pd %ymm2,%ymm1,%ymm0
  403b3c:	c4 e2 ed b8 c8       	vfmadd231pd %ymm0,%ymm2,%ymm1
  403b41:	c4 e2 fd b8 d1       	vfmadd231pd %ymm1,%ymm0,%ymm2
  403b46:	c4 e2 f5 b8 c2       	vfmadd231pd %ymm2,%ymm1,%ymm0
  403b4b:	c4 e2 ed b8 c8       	vfmadd231pd %ymm0,%ymm2,%ymm1
  403b50:	c4 e2 fd b8 d1       	vfmadd231pd %ymm1,%ymm0,%ymm2
  403b55:	c4 e2 f5 b8 c2       	vfmadd231pd %ymm2,%ymm1,%ymm0
  403b5a:	c4 e2 ed b8 c8       	vfmadd231pd %ymm0,%ymm2,%ymm1
  403b5f:	c4 e2 fd b8 d1       	vfmadd231pd %ymm1,%ymm0,%ymm2
  403b64:	c4 e2 f5 b8 c2       	vfmadd231pd %ymm2,%ymm1,%ymm0
  403b69:	c4 e2 ed b8 c8       	vfmadd231pd %ymm0,%ymm2,%ymm1
  403b6e:	c4 e2 fd b8 d1       	vfmadd231pd %ymm1,%ymm0,%ymm2
  403b73:	c4 e2 f5 b8 c2       	vfmadd231pd %ymm2,%ymm1,%ymm0
  403b78:	c4 e2 ed b8 c8       	vfmadd231pd %ymm0,%ymm2,%ymm1
  403b7d:	c4 e2 fd b8 d1       	vfmadd231pd %ymm1,%ymm0,%ymm2
  403b82:	c4 e2 f5 b8 c2       	vfmadd231pd %ymm2,%ymm1,%ymm0
  403b87:	c4 e2 ed b8 c8       	vfmadd231pd %ymm0,%ymm2,%ymm1
  403b8c:	c4 e2 fd b8 d1       	vfmadd231pd %ymm1,%ymm0,%ymm2
  403b91:	c4 e2 f5 b8 c2       	vfmadd231pd %ymm2,%ymm1,%ymm0
  403b96:	c4 e2 ed b8 c8       	vfmadd231pd %ymm0,%ymm2,%ymm1
  403b9b:	c4 e2 fd b8 d1       	vfmadd231pd %ymm1,%ymm0,%ymm2
  403ba0:	c4 e2 f5 b8 c2       	vfmadd231pd %ymm2,%ymm1,%ymm0
  403ba5:	c4 e2 ed b8 c8       	vfmadd231pd %ymm0,%ymm2,%ymm1
  403baa:	c4 e2 fd b8 d1       	vfmadd231pd %ymm1,%ymm0,%ymm2
  403baf:	c4 e2 f5 b8 c2       	vfmadd231pd %ymm2,%ymm1,%ymm0
  403bb4:	c4 e2 ed b8 c8       	vfmadd231pd %ymm0,%ymm2,%ymm1
  403bb9:	c4 e2 fd b8 d1       	vfmadd231pd %ymm1,%ymm0,%ymm2
  403bbe:	c4 e2 f5 b8 c2       	vfmadd231pd %ymm2,%ymm1,%ymm0
  403bc3:	c4 e2 ed b8 c8       	vfmadd231pd %ymm0,%ymm2,%ymm1
  403bc8:	c4 e2 fd b8 d1       	vfmadd231pd %ymm1,%ymm0,%ymm2
  403bcd:	c4 e2 f5 b8 c2       	vfmadd231pd %ymm2,%ymm1,%ymm0
  403bd2:	c4 e2 ed b8 c8       	vfmadd231pd %ymm0,%ymm2,%ymm1
  403bd7:	c4 e2 fd b8 d1       	vfmadd231pd %ymm1,%ymm0,%ymm2
  403bdc:	c4 e2 f5 b8 c2       	vfmadd231pd %ymm2,%ymm1,%ymm0
  403be1:	c4 e2 ed b8 c8       	vfmadd231pd %ymm0,%ymm2,%ymm1
  403be6:	c4 e2 fd b8 d1       	vfmadd231pd %ymm1,%ymm0,%ymm2
  403beb:	c4 e2 f5 b8 c2       	vfmadd231pd %ymm2,%ymm1,%ymm0
  403bf0:	c4 e2 ed b8 c8       	vfmadd231pd %ymm0,%ymm2,%ymm1
  403bf5:	c4 e2 fd b8 d1       	vfmadd231pd %ymm1,%ymm0,%ymm2
  403bfa:	c4 e2 f5 b8 c2       	vfmadd231pd %ymm2,%ymm1,%ymm0
  403bff:	c4 e2 ed b8 c8       	vfmadd231pd %ymm0,%ymm2,%ymm1
  403c04:	c4 e2 fd b8 d1       	vfmadd231pd %ymm1,%ymm0,%ymm2
  403c09:	c4 e2 f5 b8 c2       	vfmadd231pd %ymm2,%ymm1,%ymm0
  403c0e:	c4 e2 ed b8 c8       	vfmadd231pd %ymm0,%ymm2,%ymm1
  403c13:	c4 e2 fd b8 d1       	vfmadd231pd %ymm1,%ymm0,%ymm2
  403c18:	c4 e2 f5 b8 c2       	vfmadd231pd %ymm2,%ymm1,%ymm0
  403c1d:	c4 e2 ed b8 c8       	vfmadd231pd %ymm0,%ymm2,%ymm1
  403c22:	c4 e2 fd b8 d1       	vfmadd231pd %ymm1,%ymm0,%ymm2
  403c27:	c4 e2 f5 b8 c2       	vfmadd231pd %ymm2,%ymm1,%ymm0
  403c2c:	c4 e2 ed b8 c8       	vfmadd231pd %ymm0,%ymm2,%ymm1
  403c31:	c4 e2 fd b8 d1       	vfmadd231pd %ymm1,%ymm0,%ymm2
  403c36:	c4 e2 f5 b8 c2       	vfmadd231pd %ymm2,%ymm1,%ymm0
  403c3b:	c4 e2 ed b8 c8       	vfmadd231pd %ymm0,%ymm2,%ymm1
  403c40:	c4 e2 fd b8 d1       	vfmadd231pd %ymm1,%ymm0,%ymm2
  403c45:	c4 e2 f5 b8 c2       	vfmadd231pd %ymm2,%ymm1,%ymm0
  403c4a:	c4 e2 ed b8 c8       	vfmadd231pd %ymm0,%ymm2,%ymm1
  403c4f:	c4 e2 fd b8 d1       	vfmadd231pd %ymm1,%ymm0,%ymm2
  403c54:	c4 e2 f5 b8 c2       	vfmadd231pd %ymm2,%ymm1,%ymm0
  403c59:	c4 e2 ed b8 c8       	vfmadd231pd %ymm0,%ymm2,%ymm1
  403c5e:	c4 e2 fd b8 d1       	vfmadd231pd %ymm1,%ymm0,%ymm2
  403c63:	c4 e2 f5 b8 c2       	vfmadd231pd %ymm2,%ymm1,%ymm0
  403c68:	c4 e2 ed b8 c8       	vfmadd231pd %ymm0,%ymm2,%ymm1
  403c6d:	c4 e2 fd b8 d1       	vfmadd231pd %ymm1,%ymm0,%ymm2
  403c72:	c4 e2 f5 b8 c2       	vfmadd231pd %ymm2,%ymm1,%ymm0
  403c77:	c4 e2 ed b8 c8       	vfmadd231pd %ymm0,%ymm2,%ymm1
  403c7c:	c4 e2 fd b8 d1       	vfmadd231pd %ymm1,%ymm0,%ymm2
  403c81:	c4 e2 f5 b8 c2       	vfmadd231pd %ymm2,%ymm1,%ymm0
  403c86:	c4 e2 ed b8 c8       	vfmadd231pd %ymm0,%ymm2,%ymm1
  403c8b:	c4 e2 fd b8 d1       	vfmadd231pd %ymm1,%ymm0,%ymm2
  403c90:	c4 e2 f5 b8 c2       	vfmadd231pd %ymm2,%ymm1,%ymm0
  403c95:	c4 e2 ed b8 c8       	vfmadd231pd %ymm0,%ymm2,%ymm1
  403c9a:	c4 e2 fd b8 d1       	vfmadd231pd %ymm1,%ymm0,%ymm2
  403c9f:	c4 e2 f5 b8 c2       	vfmadd231pd %ymm2,%ymm1,%ymm0
  403ca4:	c4 e2 ed b8 c8       	vfmadd231pd %ymm0,%ymm2,%ymm1
  403ca9:	c4 e2 fd b8 d1       	vfmadd231pd %ymm1,%ymm0,%ymm2
  403cae:	c4 e2 f5 b8 c2       	vfmadd231pd %ymm2,%ymm1,%ymm0
  403cb3:	c4 e2 ed b8 c8       	vfmadd231pd %ymm0,%ymm2,%ymm1
  403cb8:	c4 e2 fd b8 d1       	vfmadd231pd %ymm1,%ymm0,%ymm2
  403cbd:	c4 e2 f5 b8 c2       	vfmadd231pd %ymm2,%ymm1,%ymm0
  403cc2:	c4 e2 ed b8 c8       	vfmadd231pd %ymm0,%ymm2,%ymm1
  403cc7:	c4 e2 fd b8 d1       	vfmadd231pd %ymm1,%ymm0,%ymm2
  403ccc:	c4 e2 f5 b8 c2       	vfmadd231pd %ymm2,%ymm1,%ymm0
  403cd1:	c4 e2 ed b8 c8       	vfmadd231pd %ymm0,%ymm2,%ymm1
  403cd6:	c4 e2 fd b8 d1       	vfmadd231pd %ymm1,%ymm0,%ymm2
  403cdb:	c4 e2 f5 b8 c2       	vfmadd231pd %ymm2,%ymm1,%ymm0
  403ce0:	c4 e2 ed b8 c8       	vfmadd231pd %ymm0,%ymm2,%ymm1
  403ce5:	c4 e2 fd b8 d1       	vfmadd231pd %ymm1,%ymm0,%ymm2
  403cea:	c4 e2 f5 b8 c2       	vfmadd231pd %ymm2,%ymm1,%ymm0
  403cef:	c4 e2 ed b8 c8       	vfmadd231pd %ymm0,%ymm2,%ymm1
  403cf4:	c4 e2 fd b8 d1       	vfmadd231pd %ymm1,%ymm0,%ymm2
  403cf9:	c4 e2 f5 b8 c2       	vfmadd231pd %ymm2,%ymm1,%ymm0
  403cfe:	c4 e2 ed b8 c8       	vfmadd231pd %ymm0,%ymm2,%ymm1
  403d03:	c4 e2 fd b8 d1       	vfmadd231pd %ymm1,%ymm0,%ymm2
  403d08:	c4 e2 f5 b8 c2       	vfmadd231pd %ymm2,%ymm1,%ymm0
  403d0d:	c4 e2 ed b8 c8       	vfmadd231pd %ymm0,%ymm2,%ymm1
  403d12:	c4 e2 fd b8 d1       	vfmadd231pd %ymm1,%ymm0,%ymm2
  403d17:	c4 e2 f5 b8 c2       	vfmadd231pd %ymm2,%ymm1,%ymm0
  403d1c:	c4 e2 ed b8 c8       	vfmadd231pd %ymm0,%ymm2,%ymm1
  403d21:	c4 e2 fd b8 d1       	vfmadd231pd %ymm1,%ymm0,%ymm2
  403d26:	c4 e2 f5 b8 c2       	vfmadd231pd %ymm2,%ymm1,%ymm0
  403d2b:	c4 e2 ed b8 c8       	vfmadd231pd %ymm0,%ymm2,%ymm1
  403d30:	c4 e2 fd b8 d1       	vfmadd231pd %ymm1,%ymm0,%ymm2
  403d35:	c4 e2 f5 b8 c2       	vfmadd231pd %ymm2,%ymm1,%ymm0
  403d3a:	c4 e2 ed b8 c8       	vfmadd231pd %ymm0,%ymm2,%ymm1
  403d3f:	c4 e2 fd b8 d1       	vfmadd231pd %ymm1,%ymm0,%ymm2
  403d44:	c4 e2 f5 b8 c2       	vfmadd231pd %ymm2,%ymm1,%ymm0
  403d49:	c4 e2 ed b8 c8       	vfmadd231pd %ymm0,%ymm2,%ymm1
  403d4e:	c4 e2 fd b8 d1       	vfmadd231pd %ymm1,%ymm0,%ymm2
  403d53:	c4 e2 f5 b8 c2       	vfmadd231pd %ymm2,%ymm1,%ymm0
  403d58:	c4 e2 ed b8 c8       	vfmadd231pd %ymm0,%ymm2,%ymm1
  403d5d:	c4 e2 fd b8 d1       	vfmadd231pd %ymm1,%ymm0,%ymm2
  403d62:	c4 e2 f5 b8 c2       	vfmadd231pd %ymm2,%ymm1,%ymm0
  403d67:	c4 e2 ed b8 c8       	vfmadd231pd %ymm0,%ymm2,%ymm1
  403d6c:	c4 e2 fd b8 d1       	vfmadd231pd %ymm1,%ymm0,%ymm2
  403d71:	c4 e2 f5 b8 c2       	vfmadd231pd %ymm2,%ymm1,%ymm0
  403d76:	c4 e2 ed b8 c8       	vfmadd231pd %ymm0,%ymm2,%ymm1
  403d7b:	c4 e2 fd b8 d1       	vfmadd231pd %ymm1,%ymm0,%ymm2
  403d80:	c4 e2 f5 b8 c2       	vfmadd231pd %ymm2,%ymm1,%ymm0
  403d85:	c4 e2 ed b8 c8       	vfmadd231pd %ymm0,%ymm2,%ymm1
  403d8a:	c4 e2 fd b8 d1       	vfmadd231pd %ymm1,%ymm0,%ymm2
  403d8f:	c4 e2 f5 b8 c2       	vfmadd231pd %ymm2,%ymm1,%ymm0
  403d94:	c4 e2 ed b8 c8       	vfmadd231pd %ymm0,%ymm2,%ymm1
  403d99:	c4 e2 fd b8 d1       	vfmadd231pd %ymm1,%ymm0,%ymm2
  403d9e:	c4 e2 f5 b8 c2       	vfmadd231pd %ymm2,%ymm1,%ymm0
  403da3:	c4 e2 ed b8 c8       	vfmadd231pd %ymm0,%ymm2,%ymm1
  403da8:	c4 e2 fd b8 d1       	vfmadd231pd %ymm1,%ymm0,%ymm2
  403dad:	c4 e2 f5 b8 c2       	vfmadd231pd %ymm2,%ymm1,%ymm0
  403db2:	c4 e2 ed b8 c8       	vfmadd231pd %ymm0,%ymm2,%ymm1
  403db7:	c4 e2 fd b8 d1       	vfmadd231pd %ymm1,%ymm0,%ymm2
  403dbc:	c4 e2 f5 b8 c2       	vfmadd231pd %ymm2,%ymm1,%ymm0
  403dc1:	c4 e2 ed b8 c8       	vfmadd231pd %ymm0,%ymm2,%ymm1
  403dc6:	c4 e2 fd b8 d1       	vfmadd231pd %ymm1,%ymm0,%ymm2
  403dcb:	c4 e2 f5 b8 c2       	vfmadd231pd %ymm2,%ymm1,%ymm0
  403dd0:	c4 e2 ed b8 c8       	vfmadd231pd %ymm0,%ymm2,%ymm1
  403dd5:	c4 e2 fd b8 d1       	vfmadd231pd %ymm1,%ymm0,%ymm2
  403dda:	c4 e2 f5 b8 c2       	vfmadd231pd %ymm2,%ymm1,%ymm0
  403ddf:	c4 e2 ed b8 c8       	vfmadd231pd %ymm0,%ymm2,%ymm1
  403de4:	c4 e2 fd b8 d1       	vfmadd231pd %ymm1,%ymm0,%ymm2
  403de9:	c4 e2 f5 b8 c2       	vfmadd231pd %ymm2,%ymm1,%ymm0
  403dee:	c4 e2 ed b8 c8       	vfmadd231pd %ymm0,%ymm2,%ymm1
  403df3:	c4 e2 fd b8 d1       	vfmadd231pd %ymm1,%ymm0,%ymm2
  403df8:	c4 e2 f5 b8 c2       	vfmadd231pd %ymm2,%ymm1,%ymm0
  403dfd:	c4 e2 ed b8 c8       	vfmadd231pd %ymm0,%ymm2,%ymm1
  403e02:	c4 e2 fd b8 d1       	vfmadd231pd %ymm1,%ymm0,%ymm2
  403e07:	c4 e2 f5 b8 c2       	vfmadd231pd %ymm2,%ymm1,%ymm0
  403e0c:	c4 e2 ed b8 c8       	vfmadd231pd %ymm0,%ymm2,%ymm1
  403e11:	c4 e2 fd b8 d1       	vfmadd231pd %ymm1,%ymm0,%ymm2
  403e16:	c4 e2 f5 b8 c2       	vfmadd231pd %ymm2,%ymm1,%ymm0
  403e1b:	c4 e2 ed b8 c8       	vfmadd231pd %ymm0,%ymm2,%ymm1
  403e20:	c4 e2 fd b8 d1       	vfmadd231pd %ymm1,%ymm0,%ymm2
  403e25:	c4 e2 f5 b8 c2       	vfmadd231pd %ymm2,%ymm1,%ymm0
  403e2a:	c4 e2 ed b8 c8       	vfmadd231pd %ymm0,%ymm2,%ymm1
  403e2f:	c4 e2 fd b8 d1       	vfmadd231pd %ymm1,%ymm0,%ymm2
  403e34:	c4 e2 f5 b8 c2       	vfmadd231pd %ymm2,%ymm1,%ymm0
  403e39:	c4 e2 ed b8 c8       	vfmadd231pd %ymm0,%ymm2,%ymm1
  403e3e:	c4 e2 fd b8 d1       	vfmadd231pd %ymm1,%ymm0,%ymm2
  403e43:	c4 e2 f5 b8 c2       	vfmadd231pd %ymm2,%ymm1,%ymm0
  403e48:	c4 e2 ed b8 c8       	vfmadd231pd %ymm0,%ymm2,%ymm1
  403e4d:	c4 e2 fd b8 d1       	vfmadd231pd %ymm1,%ymm0,%ymm2
  403e52:	c4 e2 f5 b8 c2       	vfmadd231pd %ymm2,%ymm1,%ymm0
  403e57:	c4 e2 ed b8 c8       	vfmadd231pd %ymm0,%ymm2,%ymm1
  403e5c:	c4 e2 fd b8 d1       	vfmadd231pd %ymm1,%ymm0,%ymm2
  403e61:	c4 e2 f5 b8 c2       	vfmadd231pd %ymm2,%ymm1,%ymm0
  403e66:	c4 e2 ed b8 c8       	vfmadd231pd %ymm0,%ymm2,%ymm1
  403e6b:	c4 e2 fd b8 d1       	vfmadd231pd %ymm1,%ymm0,%ymm2
  403e70:	c4 e2 f5 b8 c2       	vfmadd231pd %ymm2,%ymm1,%ymm0
  403e75:	c4 e2 ed b8 c8       	vfmadd231pd %ymm0,%ymm2,%ymm1
  403e7a:	c4 e2 fd b8 d1       	vfmadd231pd %ymm1,%ymm0,%ymm2
  403e7f:	c4 e2 f5 b8 c2       	vfmadd231pd %ymm2,%ymm1,%ymm0
  403e84:	c4 e2 ed b8 c8       	vfmadd231pd %ymm0,%ymm2,%ymm1
  403e89:	c4 e2 fd b8 d1       	vfmadd231pd %ymm1,%ymm0,%ymm2
  403e8e:	c4 e2 f5 b8 c2       	vfmadd231pd %ymm2,%ymm1,%ymm0
  403e93:	c4 e2 ed b8 c8       	vfmadd231pd %ymm0,%ymm2,%ymm1
  403e98:	c4 e2 fd b8 d1       	vfmadd231pd %ymm1,%ymm0,%ymm2
  403e9d:	c4 e2 f5 b8 c2       	vfmadd231pd %ymm2,%ymm1,%ymm0
  403ea2:	c4 e2 ed b8 c8       	vfmadd231pd %ymm0,%ymm2,%ymm1
  403ea7:	c4 e2 fd b8 d1       	vfmadd231pd %ymm1,%ymm0,%ymm2
  403eac:	c4 e2 f5 b8 c2       	vfmadd231pd %ymm2,%ymm1,%ymm0
  403eb1:	c4 e2 ed b8 c8       	vfmadd231pd %ymm0,%ymm2,%ymm1
  403eb6:	c4 e2 fd b8 d1       	vfmadd231pd %ymm1,%ymm0,%ymm2
  403ebb:	c4 e2 f5 b8 c2       	vfmadd231pd %ymm2,%ymm1,%ymm0
  403ec0:	c4 e2 ed b8 c8       	vfmadd231pd %ymm0,%ymm2,%ymm1
  403ec5:	c4 e2 fd b8 d1       	vfmadd231pd %ymm1,%ymm0,%ymm2
  403eca:	c4 e2 f5 b8 c2       	vfmadd231pd %ymm2,%ymm1,%ymm0
  403ecf:	c4 e2 ed b8 c8       	vfmadd231pd %ymm0,%ymm2,%ymm1
  403ed4:	c4 e2 fd b8 d1       	vfmadd231pd %ymm1,%ymm0,%ymm2
  403ed9:	c4 e2 f5 b8 c2       	vfmadd231pd %ymm2,%ymm1,%ymm0
  403ede:	c4 e2 ed b8 c8       	vfmadd231pd %ymm0,%ymm2,%ymm1
  403ee3:	c4 e2 fd b8 d1       	vfmadd231pd %ymm1,%ymm0,%ymm2
  403ee8:	c4 e2 f5 b8 c2       	vfmadd231pd %ymm2,%ymm1,%ymm0
  403eed:	c4 e2 ed b8 c8       	vfmadd231pd %ymm0,%ymm2,%ymm1
  403ef2:	c4 e2 fd b8 d1       	vfmadd231pd %ymm1,%ymm0,%ymm2
  403ef7:	c4 e2 f5 b8 c2       	vfmadd231pd %ymm2,%ymm1,%ymm0
  403efc:	c4 e2 ed b8 c8       	vfmadd231pd %ymm0,%ymm2,%ymm1
  403f01:	c4 e2 fd b8 d1       	vfmadd231pd %ymm1,%ymm0,%ymm2
  403f06:	c4 e2 f5 b8 c2       	vfmadd231pd %ymm2,%ymm1,%ymm0
  403f0b:	c4 e2 ed b8 c8       	vfmadd231pd %ymm0,%ymm2,%ymm1
  403f10:	c4 e2 fd b8 d1       	vfmadd231pd %ymm1,%ymm0,%ymm2
  403f15:	c4 e2 f5 b8 c2       	vfmadd231pd %ymm2,%ymm1,%ymm0
  403f1a:	c4 e2 ed b8 c8       	vfmadd231pd %ymm0,%ymm2,%ymm1
  403f1f:	c4 e2 fd b8 d1       	vfmadd231pd %ymm1,%ymm0,%ymm2
  403f24:	c4 e2 f5 b8 c2       	vfmadd231pd %ymm2,%ymm1,%ymm0
  403f29:	c4 e2 ed b8 c8       	vfmadd231pd %ymm0,%ymm2,%ymm1
  403f2e:	c4 e2 fd b8 d1       	vfmadd231pd %ymm1,%ymm0,%ymm2
  403f33:	c4 e2 f5 b8 c2       	vfmadd231pd %ymm2,%ymm1,%ymm0
  403f38:	c4 e2 ed b8 c8       	vfmadd231pd %ymm0,%ymm2,%ymm1
  403f3d:	c4 e2 fd b8 d1       	vfmadd231pd %ymm1,%ymm0,%ymm2
  403f42:	c4 e2 f5 b8 c2       	vfmadd231pd %ymm2,%ymm1,%ymm0
  403f47:	c4 e2 ed b8 c8       	vfmadd231pd %ymm0,%ymm2,%ymm1
  403f4c:	c4 e2 fd b8 d1       	vfmadd231pd %ymm1,%ymm0,%ymm2
  403f51:	c4 e2 f5 b8 c2       	vfmadd231pd %ymm2,%ymm1,%ymm0
  403f56:	c4 e2 ed b8 c8       	vfmadd231pd %ymm0,%ymm2,%ymm1
  403f5b:	c4 e2 fd b8 d1       	vfmadd231pd %ymm1,%ymm0,%ymm2
  403f60:	c4 e2 f5 b8 c2       	vfmadd231pd %ymm2,%ymm1,%ymm0
  403f65:	c4 e2 ed b8 c8       	vfmadd231pd %ymm0,%ymm2,%ymm1
  403f6a:	c4 e2 fd b8 d1       	vfmadd231pd %ymm1,%ymm0,%ymm2
  403f6f:	c4 e2 f5 b8 c2       	vfmadd231pd %ymm2,%ymm1,%ymm0
  403f74:	c4 e2 ed b8 c8       	vfmadd231pd %ymm0,%ymm2,%ymm1
  403f79:	c4 e2 fd b8 d1       	vfmadd231pd %ymm1,%ymm0,%ymm2
  403f7e:	c4 e2 f5 b8 c2       	vfmadd231pd %ymm2,%ymm1,%ymm0
  403f83:	c4 e2 ed b8 c8       	vfmadd231pd %ymm0,%ymm2,%ymm1
  403f88:	c4 e2 fd b8 d1       	vfmadd231pd %ymm1,%ymm0,%ymm2
  403f8d:	c4 e2 f5 b8 c2       	vfmadd231pd %ymm2,%ymm1,%ymm0
  403f92:	c4 e2 ed b8 c8       	vfmadd231pd %ymm0,%ymm2,%ymm1
  403f97:	c4 e2 fd b8 d1       	vfmadd231pd %ymm1,%ymm0,%ymm2
  403f9c:	c4 e2 f5 b8 c2       	vfmadd231pd %ymm2,%ymm1,%ymm0
  403fa1:	c4 e2 ed b8 c8       	vfmadd231pd %ymm0,%ymm2,%ymm1
  403fa6:	c4 e2 fd b8 d1       	vfmadd231pd %ymm1,%ymm0,%ymm2
  403fab:	c4 e2 f5 b8 c2       	vfmadd231pd %ymm2,%ymm1,%ymm0
  403fb0:	c4 e2 ed b8 c8       	vfmadd231pd %ymm0,%ymm2,%ymm1
  403fb5:	c4 e2 fd b8 d1       	vfmadd231pd %ymm1,%ymm0,%ymm2
  403fba:	c4 e2 f5 b8 c2       	vfmadd231pd %ymm2,%ymm1,%ymm0
  403fbf:	c4 e2 ed b8 c8       	vfmadd231pd %ymm0,%ymm2,%ymm1
  403fc4:	c4 e2 fd b8 d1       	vfmadd231pd %ymm1,%ymm0,%ymm2
  403fc9:	c4 e2 f5 b8 c2       	vfmadd231pd %ymm2,%ymm1,%ymm0
  403fce:	c4 e2 ed b8 c8       	vfmadd231pd %ymm0,%ymm2,%ymm1
  403fd3:	c4 e2 fd b8 d1       	vfmadd231pd %ymm1,%ymm0,%ymm2
  403fd8:	c4 e2 f5 b8 c2       	vfmadd231pd %ymm2,%ymm1,%ymm0
  403fdd:	c4 e2 ed b8 c8       	vfmadd231pd %ymm0,%ymm2,%ymm1
  403fe2:	c4 e2 fd b8 d1       	vfmadd231pd %ymm1,%ymm0,%ymm2
  403fe7:	c4 e2 f5 b8 c2       	vfmadd231pd %ymm2,%ymm1,%ymm0
  403fec:	c4 e2 ed b8 c8       	vfmadd231pd %ymm0,%ymm2,%ymm1
  403ff1:	c4 e2 fd b8 d1       	vfmadd231pd %ymm1,%ymm0,%ymm2
  403ff6:	c4 e2 f5 b8 c2       	vfmadd231pd %ymm2,%ymm1,%ymm0
  403ffb:	c4 e2 ed b8 c8       	vfmadd231pd %ymm0,%ymm2,%ymm1
  404000:	c4 e2 fd b8 d1       	vfmadd231pd %ymm1,%ymm0,%ymm2
  404005:	c4 e2 f5 b8 c2       	vfmadd231pd %ymm2,%ymm1,%ymm0
  40400a:	c4 e2 ed b8 c8       	vfmadd231pd %ymm0,%ymm2,%ymm1
  40400f:	c4 e2 fd b8 d1       	vfmadd231pd %ymm1,%ymm0,%ymm2
  404014:	c4 e2 f5 b8 c2       	vfmadd231pd %ymm2,%ymm1,%ymm0
  404019:	c4 e2 ed b8 c8       	vfmadd231pd %ymm0,%ymm2,%ymm1
  40401e:	c4 e2 fd b8 d1       	vfmadd231pd %ymm1,%ymm0,%ymm2
  404023:	c4 e2 f5 b8 c2       	vfmadd231pd %ymm2,%ymm1,%ymm0
  404028:	c4 e2 ed b8 c8       	vfmadd231pd %ymm0,%ymm2,%ymm1
  40402d:	c4 e2 fd b8 d1       	vfmadd231pd %ymm1,%ymm0,%ymm2
  404032:	c4 e2 f5 b8 c2       	vfmadd231pd %ymm2,%ymm1,%ymm0
  404037:	c4 e2 ed b8 c8       	vfmadd231pd %ymm0,%ymm2,%ymm1
  40403c:	c4 e2 fd b8 d1       	vfmadd231pd %ymm1,%ymm0,%ymm2
  404041:	c4 e2 f5 b8 c2       	vfmadd231pd %ymm2,%ymm1,%ymm0
  404046:	c4 e2 ed b8 c8       	vfmadd231pd %ymm0,%ymm2,%ymm1
  40404b:	c4 e2 fd b8 d1       	vfmadd231pd %ymm1,%ymm0,%ymm2
  404050:	c4 e2 f5 b8 c2       	vfmadd231pd %ymm2,%ymm1,%ymm0
  404055:	c4 e2 ed b8 c8       	vfmadd231pd %ymm0,%ymm2,%ymm1
  40405a:	c4 e2 fd b8 d1       	vfmadd231pd %ymm1,%ymm0,%ymm2
  40405f:	c4 e2 f5 b8 c2       	vfmadd231pd %ymm2,%ymm1,%ymm0
  404064:	c4 e2 ed b8 c8       	vfmadd231pd %ymm0,%ymm2,%ymm1
  404069:	c4 e2 fd b8 d1       	vfmadd231pd %ymm1,%ymm0,%ymm2
  40406e:	c4 e2 f5 b8 c2       	vfmadd231pd %ymm2,%ymm1,%ymm0
  404073:	c4 e2 ed b8 c8       	vfmadd231pd %ymm0,%ymm2,%ymm1
  404078:	c4 e2 fd b8 d1       	vfmadd231pd %ymm1,%ymm0,%ymm2
  40407d:	c4 e2 f5 b8 c2       	vfmadd231pd %ymm2,%ymm1,%ymm0
  404082:	c4 e2 ed b8 c8       	vfmadd231pd %ymm0,%ymm2,%ymm1
  404087:	c4 e2 fd b8 d1       	vfmadd231pd %ymm1,%ymm0,%ymm2
  40408c:	c4 e2 f5 b8 c2       	vfmadd231pd %ymm2,%ymm1,%ymm0
  404091:	c4 e2 ed b8 c8       	vfmadd231pd %ymm0,%ymm2,%ymm1
  404096:	c4 e2 fd b8 d1       	vfmadd231pd %ymm1,%ymm0,%ymm2
  40409b:	c4 e2 f5 b8 c2       	vfmadd231pd %ymm2,%ymm1,%ymm0
  4040a0:	c4 e2 ed b8 c8       	vfmadd231pd %ymm0,%ymm2,%ymm1
  4040a5:	c4 e2 fd b8 d1       	vfmadd231pd %ymm1,%ymm0,%ymm2
  4040aa:	c4 e2 f5 b8 c2       	vfmadd231pd %ymm2,%ymm1,%ymm0
  4040af:	c4 e2 ed b8 c8       	vfmadd231pd %ymm0,%ymm2,%ymm1
  4040b4:	c4 e2 fd b8 d1       	vfmadd231pd %ymm1,%ymm0,%ymm2
  4040b9:	c4 e2 f5 b8 c2       	vfmadd231pd %ymm2,%ymm1,%ymm0
  4040be:	c4 e2 ed b8 c8       	vfmadd231pd %ymm0,%ymm2,%ymm1
  4040c3:	c4 e2 fd b8 d1       	vfmadd231pd %ymm1,%ymm0,%ymm2
  4040c8:	c4 e2 f5 b8 c2       	vfmadd231pd %ymm2,%ymm1,%ymm0
  4040cd:	c4 e2 ed b8 c8       	vfmadd231pd %ymm0,%ymm2,%ymm1
  4040d2:	c4 e2 fd b8 d1       	vfmadd231pd %ymm1,%ymm0,%ymm2
  4040d7:	c4 e2 f5 b8 c2       	vfmadd231pd %ymm2,%ymm1,%ymm0
  4040dc:	c4 e2 ed b8 c8       	vfmadd231pd %ymm0,%ymm2,%ymm1
  4040e1:	c4 e2 fd b8 d1       	vfmadd231pd %ymm1,%ymm0,%ymm2
  4040e6:	c4 e2 f5 b8 c2       	vfmadd231pd %ymm2,%ymm1,%ymm0
  4040eb:	c4 e2 ed b8 c8       	vfmadd231pd %ymm0,%ymm2,%ymm1
  4040f0:	c4 e2 fd b8 d1       	vfmadd231pd %ymm1,%ymm0,%ymm2
  4040f5:	c4 e2 f5 b8 c2       	vfmadd231pd %ymm2,%ymm1,%ymm0
  4040fa:	c4 e2 ed b8 c8       	vfmadd231pd %ymm0,%ymm2,%ymm1
  4040ff:	c4 e2 fd b8 d1       	vfmadd231pd %ymm1,%ymm0,%ymm2
  404104:	c4 e2 f5 b8 c2       	vfmadd231pd %ymm2,%ymm1,%ymm0
  404109:	c4 e2 ed b8 c8       	vfmadd231pd %ymm0,%ymm2,%ymm1
  40410e:	c4 e2 fd b8 d1       	vfmadd231pd %ymm1,%ymm0,%ymm2
  404113:	c4 e2 f5 b8 c2       	vfmadd231pd %ymm2,%ymm1,%ymm0
  404118:	c4 e2 ed b8 c8       	vfmadd231pd %ymm0,%ymm2,%ymm1
  40411d:	c4 e2 fd b8 d1       	vfmadd231pd %ymm1,%ymm0,%ymm2
  404122:	c4 e2 f5 b8 c2       	vfmadd231pd %ymm2,%ymm1,%ymm0
  404127:	c4 e2 ed b8 c8       	vfmadd231pd %ymm0,%ymm2,%ymm1
  40412c:	c4 e2 fd b8 d1       	vfmadd231pd %ymm1,%ymm0,%ymm2
  404131:	c4 e2 f5 b8 c2       	vfmadd231pd %ymm2,%ymm1,%ymm0
  404136:	c4 e2 ed b8 c8       	vfmadd231pd %ymm0,%ymm2,%ymm1
  40413b:	c4 e2 fd b8 d1       	vfmadd231pd %ymm1,%ymm0,%ymm2
  404140:	c4 e2 f5 b8 c2       	vfmadd231pd %ymm2,%ymm1,%ymm0
  404145:	c4 e2 ed b8 c8       	vfmadd231pd %ymm0,%ymm2,%ymm1
  40414a:	c4 e2 fd b8 d1       	vfmadd231pd %ymm1,%ymm0,%ymm2
  40414f:	c4 e2 f5 b8 c2       	vfmadd231pd %ymm2,%ymm1,%ymm0
  404154:	c4 e2 ed b8 c8       	vfmadd231pd %ymm0,%ymm2,%ymm1
  404159:	c4 e2 fd b8 d1       	vfmadd231pd %ymm1,%ymm0,%ymm2
  40415e:	c4 e2 f5 b8 c2       	vfmadd231pd %ymm2,%ymm1,%ymm0
  404163:	c4 e2 ed b8 c8       	vfmadd231pd %ymm0,%ymm2,%ymm1
  404168:	c4 e2 fd b8 d1       	vfmadd231pd %ymm1,%ymm0,%ymm2
  40416d:	c4 e2 f5 b8 c2       	vfmadd231pd %ymm2,%ymm1,%ymm0
  404172:	c4 e2 ed b8 c8       	vfmadd231pd %ymm0,%ymm2,%ymm1
  404177:	c4 e2 fd b8 d1       	vfmadd231pd %ymm1,%ymm0,%ymm2
  40417c:	c4 e2 f5 b8 c2       	vfmadd231pd %ymm2,%ymm1,%ymm0
  404181:	c4 e2 ed b8 c8       	vfmadd231pd %ymm0,%ymm2,%ymm1
  404186:	c4 e2 fd b8 d1       	vfmadd231pd %ymm1,%ymm0,%ymm2
  40418b:	c4 e2 f5 b8 c2       	vfmadd231pd %ymm2,%ymm1,%ymm0
  404190:	c4 e2 ed b8 c8       	vfmadd231pd %ymm0,%ymm2,%ymm1
  404195:	c4 e2 fd b8 d1       	vfmadd231pd %ymm1,%ymm0,%ymm2
  40419a:	c4 e2 f5 b8 c2       	vfmadd231pd %ymm2,%ymm1,%ymm0
  40419f:	c4 e2 ed b8 c8       	vfmadd231pd %ymm0,%ymm2,%ymm1
  4041a4:	c4 e2 fd b8 d1       	vfmadd231pd %ymm1,%ymm0,%ymm2
  4041a9:	c4 e2 f5 b8 c2       	vfmadd231pd %ymm2,%ymm1,%ymm0
  4041ae:	c4 e2 ed b8 c8       	vfmadd231pd %ymm0,%ymm2,%ymm1
  4041b3:	c4 e2 fd b8 d1       	vfmadd231pd %ymm1,%ymm0,%ymm2
  4041b8:	c4 e2 f5 b8 c2       	vfmadd231pd %ymm2,%ymm1,%ymm0
  4041bd:	c4 e2 ed b8 c8       	vfmadd231pd %ymm0,%ymm2,%ymm1
  4041c2:	c4 e2 fd b8 d1       	vfmadd231pd %ymm1,%ymm0,%ymm2
  4041c7:	c4 e2 f5 b8 c2       	vfmadd231pd %ymm2,%ymm1,%ymm0
  4041cc:	c4 e2 ed b8 c8       	vfmadd231pd %ymm0,%ymm2,%ymm1
  4041d1:	c4 e2 fd b8 d1       	vfmadd231pd %ymm1,%ymm0,%ymm2
  4041d6:	c4 e2 f5 b8 c2       	vfmadd231pd %ymm2,%ymm1,%ymm0
  4041db:	c4 e2 ed b8 c8       	vfmadd231pd %ymm0,%ymm2,%ymm1
  4041e0:	c4 e2 fd b8 d1       	vfmadd231pd %ymm1,%ymm0,%ymm2
  4041e5:	c4 e2 f5 b8 c2       	vfmadd231pd %ymm2,%ymm1,%ymm0
  4041ea:	c4 e2 ed b8 c8       	vfmadd231pd %ymm0,%ymm2,%ymm1
  4041ef:	c4 e2 fd b8 d1       	vfmadd231pd %ymm1,%ymm0,%ymm2
  4041f4:	c4 e2 f5 b8 c2       	vfmadd231pd %ymm2,%ymm1,%ymm0
  4041f9:	c4 e2 ed b8 c8       	vfmadd231pd %ymm0,%ymm2,%ymm1
  4041fe:	c4 e2 fd b8 d1       	vfmadd231pd %ymm1,%ymm0,%ymm2
  404203:	c4 e2 f5 b8 c2       	vfmadd231pd %ymm2,%ymm1,%ymm0
  404208:	c4 e2 ed b8 c8       	vfmadd231pd %ymm0,%ymm2,%ymm1
  40420d:	c4 e2 fd b8 d1       	vfmadd231pd %ymm1,%ymm0,%ymm2
  404212:	c4 e2 f5 b8 c2       	vfmadd231pd %ymm2,%ymm1,%ymm0
  404217:	c4 e2 ed b8 c8       	vfmadd231pd %ymm0,%ymm2,%ymm1
  40421c:	c4 e2 fd b8 d1       	vfmadd231pd %ymm1,%ymm0,%ymm2
  404221:	c4 e2 f5 b8 c2       	vfmadd231pd %ymm2,%ymm1,%ymm0
  404226:	c4 e2 ed b8 c8       	vfmadd231pd %ymm0,%ymm2,%ymm1
  40422b:	c4 e2 fd b8 d1       	vfmadd231pd %ymm1,%ymm0,%ymm2
  404230:	c4 e2 f5 b8 c2       	vfmadd231pd %ymm2,%ymm1,%ymm0
  404235:	c4 e2 ed b8 c8       	vfmadd231pd %ymm0,%ymm2,%ymm1
  40423a:	c4 e2 fd b8 d1       	vfmadd231pd %ymm1,%ymm0,%ymm2
  40423f:	c4 e2 f5 b8 c2       	vfmadd231pd %ymm2,%ymm1,%ymm0
  404244:	c4 e2 ed b8 c8       	vfmadd231pd %ymm0,%ymm2,%ymm1
  404249:	c4 e2 fd b8 d1       	vfmadd231pd %ymm1,%ymm0,%ymm2
  40424e:	c4 e2 f5 b8 c2       	vfmadd231pd %ymm2,%ymm1,%ymm0
  404253:	c4 e2 ed b8 c8       	vfmadd231pd %ymm0,%ymm2,%ymm1
  404258:	c4 e2 fd b8 d1       	vfmadd231pd %ymm1,%ymm0,%ymm2
  40425d:	c4 e2 f5 b8 c2       	vfmadd231pd %ymm2,%ymm1,%ymm0
  404262:	c4 e2 ed b8 c8       	vfmadd231pd %ymm0,%ymm2,%ymm1
  404267:	c4 e2 fd b8 d1       	vfmadd231pd %ymm1,%ymm0,%ymm2
  40426c:	c4 e2 f5 b8 c2       	vfmadd231pd %ymm2,%ymm1,%ymm0
  404271:	c4 e2 ed b8 c8       	vfmadd231pd %ymm0,%ymm2,%ymm1
  404276:	c4 e2 fd b8 d1       	vfmadd231pd %ymm1,%ymm0,%ymm2
  40427b:	c4 e2 f5 b8 c2       	vfmadd231pd %ymm2,%ymm1,%ymm0
  404280:	c4 e2 ed b8 c8       	vfmadd231pd %ymm0,%ymm2,%ymm1
  404285:	c4 e2 fd b8 d1       	vfmadd231pd %ymm1,%ymm0,%ymm2
  40428a:	c4 e2 f5 b8 c2       	vfmadd231pd %ymm2,%ymm1,%ymm0
  40428f:	c4 e2 ed b8 c8       	vfmadd231pd %ymm0,%ymm2,%ymm1
  404294:	c4 e2 fd b8 d1       	vfmadd231pd %ymm1,%ymm0,%ymm2
  404299:	c4 e2 f5 b8 c2       	vfmadd231pd %ymm2,%ymm1,%ymm0
  40429e:	c4 e2 ed b8 c8       	vfmadd231pd %ymm0,%ymm2,%ymm1
  4042a3:	c4 e2 fd b8 d1       	vfmadd231pd %ymm1,%ymm0,%ymm2
  4042a8:	c4 e2 f5 b8 c2       	vfmadd231pd %ymm2,%ymm1,%ymm0
  4042ad:	c4 e2 ed b8 c8       	vfmadd231pd %ymm0,%ymm2,%ymm1
  4042b2:	c4 e2 fd b8 d1       	vfmadd231pd %ymm1,%ymm0,%ymm2
  4042b7:	c4 e2 f5 b8 c2       	vfmadd231pd %ymm2,%ymm1,%ymm0
  4042bc:	c4 e2 ed b8 c8       	vfmadd231pd %ymm0,%ymm2,%ymm1
  4042c1:	c4 e2 fd b8 d1       	vfmadd231pd %ymm1,%ymm0,%ymm2
  4042c6:	c4 e2 f5 b8 c2       	vfmadd231pd %ymm2,%ymm1,%ymm0
  4042cb:	c4 e2 ed b8 c8       	vfmadd231pd %ymm0,%ymm2,%ymm1
  4042d0:	c4 e2 fd b8 d1       	vfmadd231pd %ymm1,%ymm0,%ymm2
  4042d5:	c4 e2 f5 b8 c2       	vfmadd231pd %ymm2,%ymm1,%ymm0
  4042da:	c4 e2 ed b8 c8       	vfmadd231pd %ymm0,%ymm2,%ymm1
  4042df:	c4 e2 fd b8 d1       	vfmadd231pd %ymm1,%ymm0,%ymm2
  4042e4:	c4 e2 f5 b8 c2       	vfmadd231pd %ymm2,%ymm1,%ymm0
  4042e9:	c4 e2 ed b8 c8       	vfmadd231pd %ymm0,%ymm2,%ymm1
  4042ee:	c4 e2 fd b8 d1       	vfmadd231pd %ymm1,%ymm0,%ymm2
  4042f3:	c4 e2 f5 b8 c2       	vfmadd231pd %ymm2,%ymm1,%ymm0
  4042f8:	c4 e2 ed b8 c8       	vfmadd231pd %ymm0,%ymm2,%ymm1
  4042fd:	c4 e2 fd b8 d1       	vfmadd231pd %ymm1,%ymm0,%ymm2
  404302:	c4 e2 f5 b8 c2       	vfmadd231pd %ymm2,%ymm1,%ymm0
  404307:	c4 e2 ed b8 c8       	vfmadd231pd %ymm0,%ymm2,%ymm1
  40430c:	c4 e2 fd b8 d1       	vfmadd231pd %ymm1,%ymm0,%ymm2
  404311:	c4 e2 f5 b8 c2       	vfmadd231pd %ymm2,%ymm1,%ymm0
  404316:	c4 e2 ed b8 c8       	vfmadd231pd %ymm0,%ymm2,%ymm1
  40431b:	c4 e2 fd b8 d1       	vfmadd231pd %ymm1,%ymm0,%ymm2
  404320:	c4 e2 f5 b8 c2       	vfmadd231pd %ymm2,%ymm1,%ymm0
  404325:	c4 e2 ed b8 c8       	vfmadd231pd %ymm0,%ymm2,%ymm1
  40432a:	c4 e2 fd b8 d1       	vfmadd231pd %ymm1,%ymm0,%ymm2
  40432f:	c4 e2 f5 b8 c2       	vfmadd231pd %ymm2,%ymm1,%ymm0
  404334:	c4 e2 ed b8 c8       	vfmadd231pd %ymm0,%ymm2,%ymm1
  404339:	c4 e2 fd b8 d1       	vfmadd231pd %ymm1,%ymm0,%ymm2
  40433e:	c4 e2 f5 b8 c2       	vfmadd231pd %ymm2,%ymm1,%ymm0
  404343:	c4 e2 ed b8 c8       	vfmadd231pd %ymm0,%ymm2,%ymm1
  404348:	c4 e2 fd b8 d1       	vfmadd231pd %ymm1,%ymm0,%ymm2
  40434d:	c4 e2 f5 b8 c2       	vfmadd231pd %ymm2,%ymm1,%ymm0
  404352:	c4 e2 ed b8 c8       	vfmadd231pd %ymm0,%ymm2,%ymm1
  404357:	c4 e2 fd b8 d1       	vfmadd231pd %ymm1,%ymm0,%ymm2
  40435c:	c4 e2 f5 b8 c2       	vfmadd231pd %ymm2,%ymm1,%ymm0
  404361:	c4 e2 ed b8 c8       	vfmadd231pd %ymm0,%ymm2,%ymm1
  404366:	c4 e2 fd b8 d1       	vfmadd231pd %ymm1,%ymm0,%ymm2
  40436b:	c4 e2 f5 b8 c2       	vfmadd231pd %ymm2,%ymm1,%ymm0
  404370:	c4 e2 ed b8 c8       	vfmadd231pd %ymm0,%ymm2,%ymm1
  404375:	c4 e2 fd b8 d1       	vfmadd231pd %ymm1,%ymm0,%ymm2
  40437a:	c4 e2 f5 b8 c2       	vfmadd231pd %ymm2,%ymm1,%ymm0
  40437f:	c4 e2 ed b8 c8       	vfmadd231pd %ymm0,%ymm2,%ymm1
  404384:	c4 e2 fd b8 d1       	vfmadd231pd %ymm1,%ymm0,%ymm2
  404389:	c4 e2 f5 b8 c2       	vfmadd231pd %ymm2,%ymm1,%ymm0
  40438e:	c4 e2 ed b8 c8       	vfmadd231pd %ymm0,%ymm2,%ymm1
  404393:	c4 e2 fd b8 d1       	vfmadd231pd %ymm1,%ymm0,%ymm2
  404398:	c4 e2 f5 b8 c2       	vfmadd231pd %ymm2,%ymm1,%ymm0
  40439d:	c4 e2 ed b8 c8       	vfmadd231pd %ymm0,%ymm2,%ymm1
  4043a2:	c4 e2 fd b8 d1       	vfmadd231pd %ymm1,%ymm0,%ymm2
  4043a7:	c4 e2 f5 b8 c2       	vfmadd231pd %ymm2,%ymm1,%ymm0
  4043ac:	c4 e2 ed b8 c8       	vfmadd231pd %ymm0,%ymm2,%ymm1
  4043b1:	c4 e2 fd b8 d1       	vfmadd231pd %ymm1,%ymm0,%ymm2
  4043b6:	c4 e2 f5 b8 c2       	vfmadd231pd %ymm2,%ymm1,%ymm0
  4043bb:	c4 e2 ed b8 c8       	vfmadd231pd %ymm0,%ymm2,%ymm1
  4043c0:	c4 e2 fd b8 d1       	vfmadd231pd %ymm1,%ymm0,%ymm2
  4043c5:	c4 e2 f5 b8 c2       	vfmadd231pd %ymm2,%ymm1,%ymm0
  4043ca:	c4 e2 ed b8 c8       	vfmadd231pd %ymm0,%ymm2,%ymm1
  4043cf:	c4 e2 fd b8 d1       	vfmadd231pd %ymm1,%ymm0,%ymm2
  4043d4:	c4 e2 f5 b8 c2       	vfmadd231pd %ymm2,%ymm1,%ymm0
  4043d9:	c4 e2 ed b8 c8       	vfmadd231pd %ymm0,%ymm2,%ymm1
  4043de:	c4 e2 fd b8 d1       	vfmadd231pd %ymm1,%ymm0,%ymm2
  4043e3:	c4 e2 f5 b8 c2       	vfmadd231pd %ymm2,%ymm1,%ymm0
  4043e8:	c4 e2 ed b8 c8       	vfmadd231pd %ymm0,%ymm2,%ymm1
  4043ed:	c4 e2 fd b8 d1       	vfmadd231pd %ymm1,%ymm0,%ymm2
  4043f2:	c4 e2 f5 b8 c2       	vfmadd231pd %ymm2,%ymm1,%ymm0
  4043f7:	c4 e2 ed b8 c8       	vfmadd231pd %ymm0,%ymm2,%ymm1
  4043fc:	c4 e2 fd b8 d1       	vfmadd231pd %ymm1,%ymm0,%ymm2
  404401:	c4 e2 f5 b8 c2       	vfmadd231pd %ymm2,%ymm1,%ymm0
  404406:	c4 e2 ed b8 c8       	vfmadd231pd %ymm0,%ymm2,%ymm1
  40440b:	c4 e2 fd b8 d1       	vfmadd231pd %ymm1,%ymm0,%ymm2
  404410:	c4 e2 f5 b8 c2       	vfmadd231pd %ymm2,%ymm1,%ymm0
  404415:	c4 e2 ed b8 c8       	vfmadd231pd %ymm0,%ymm2,%ymm1
  40441a:	c4 e2 fd b8 d1       	vfmadd231pd %ymm1,%ymm0,%ymm2
  40441f:	c4 e2 f5 b8 c2       	vfmadd231pd %ymm2,%ymm1,%ymm0
  404424:	c4 e2 ed b8 c8       	vfmadd231pd %ymm0,%ymm2,%ymm1
  404429:	c4 e2 fd b8 d1       	vfmadd231pd %ymm1,%ymm0,%ymm2
  40442e:	c4 e2 f5 b8 c2       	vfmadd231pd %ymm2,%ymm1,%ymm0
  404433:	c4 e2 ed b8 c8       	vfmadd231pd %ymm0,%ymm2,%ymm1
  404438:	c4 e2 fd b8 d1       	vfmadd231pd %ymm1,%ymm0,%ymm2
  40443d:	c4 e2 f5 b8 c2       	vfmadd231pd %ymm2,%ymm1,%ymm0
  404442:	c4 e2 ed b8 c8       	vfmadd231pd %ymm0,%ymm2,%ymm1
  404447:	c4 e2 fd b8 d1       	vfmadd231pd %ymm1,%ymm0,%ymm2
  40444c:	c4 e2 f5 b8 c2       	vfmadd231pd %ymm2,%ymm1,%ymm0
  404451:	c4 e2 ed b8 c8       	vfmadd231pd %ymm0,%ymm2,%ymm1
  404456:	c4 e2 fd b8 d1       	vfmadd231pd %ymm1,%ymm0,%ymm2
  40445b:	c4 e2 f5 b8 c2       	vfmadd231pd %ymm2,%ymm1,%ymm0
  404460:	c4 e2 ed b8 c8       	vfmadd231pd %ymm0,%ymm2,%ymm1
  404465:	c4 e2 fd b8 d1       	vfmadd231pd %ymm1,%ymm0,%ymm2
  40446a:	c4 e2 f5 b8 c2       	vfmadd231pd %ymm2,%ymm1,%ymm0
  40446f:	c4 e2 ed b8 c8       	vfmadd231pd %ymm0,%ymm2,%ymm1
  404474:	c4 e2 fd b8 d1       	vfmadd231pd %ymm1,%ymm0,%ymm2
  404479:	c4 e2 f5 b8 c2       	vfmadd231pd %ymm2,%ymm1,%ymm0
  40447e:	c4 e2 ed b8 c8       	vfmadd231pd %ymm0,%ymm2,%ymm1
  404483:	c4 e2 fd b8 d1       	vfmadd231pd %ymm1,%ymm0,%ymm2
  404488:	c4 e2 f5 b8 c2       	vfmadd231pd %ymm2,%ymm1,%ymm0
  40448d:	c4 e2 ed b8 c8       	vfmadd231pd %ymm0,%ymm2,%ymm1
  404492:	c4 e2 fd b8 d1       	vfmadd231pd %ymm1,%ymm0,%ymm2
  404497:	c4 e2 f5 b8 c2       	vfmadd231pd %ymm2,%ymm1,%ymm0
  40449c:	c4 e2 ed b8 c8       	vfmadd231pd %ymm0,%ymm2,%ymm1
  4044a1:	c4 e2 fd b8 d1       	vfmadd231pd %ymm1,%ymm0,%ymm2
  4044a6:	c4 e2 f5 b8 c2       	vfmadd231pd %ymm2,%ymm1,%ymm0
  4044ab:	c4 e2 ed b8 c8       	vfmadd231pd %ymm0,%ymm2,%ymm1
  4044b0:	c4 e2 fd b8 d1       	vfmadd231pd %ymm1,%ymm0,%ymm2
  4044b5:	c4 e2 f5 b8 c2       	vfmadd231pd %ymm2,%ymm1,%ymm0
  4044ba:	c4 e2 ed b8 c8       	vfmadd231pd %ymm0,%ymm2,%ymm1
  4044bf:	c4 e2 fd b8 d1       	vfmadd231pd %ymm1,%ymm0,%ymm2
  4044c4:	c4 e2 f5 b8 c2       	vfmadd231pd %ymm2,%ymm1,%ymm0
  4044c9:	c4 e2 ed b8 c8       	vfmadd231pd %ymm0,%ymm2,%ymm1
  4044ce:	c4 e2 fd b8 d1       	vfmadd231pd %ymm1,%ymm0,%ymm2
  4044d3:	c4 e2 f5 b8 c2       	vfmadd231pd %ymm2,%ymm1,%ymm0
  4044d8:	c4 e2 ed b8 c8       	vfmadd231pd %ymm0,%ymm2,%ymm1
  4044dd:	c4 e2 fd b8 d1       	vfmadd231pd %ymm1,%ymm0,%ymm2
  4044e2:	c4 e2 f5 b8 c2       	vfmadd231pd %ymm2,%ymm1,%ymm0
  4044e7:	c4 e2 ed b8 c8       	vfmadd231pd %ymm0,%ymm2,%ymm1
  4044ec:	c4 e2 fd b8 d1       	vfmadd231pd %ymm1,%ymm0,%ymm2
  4044f1:	c4 e2 f5 b8 c2       	vfmadd231pd %ymm2,%ymm1,%ymm0
  4044f6:	c4 e2 ed b8 c8       	vfmadd231pd %ymm0,%ymm2,%ymm1
  4044fb:	c4 e2 fd b8 d1       	vfmadd231pd %ymm1,%ymm0,%ymm2
  404500:	c4 e2 f5 b8 c2       	vfmadd231pd %ymm2,%ymm1,%ymm0
  404505:	c4 e2 ed b8 c8       	vfmadd231pd %ymm0,%ymm2,%ymm1
  40450a:	c4 e2 fd b8 d1       	vfmadd231pd %ymm1,%ymm0,%ymm2
  40450f:	c4 e2 f5 b8 c2       	vfmadd231pd %ymm2,%ymm1,%ymm0
  404514:	c4 e2 ed b8 c8       	vfmadd231pd %ymm0,%ymm2,%ymm1
  404519:	c4 e2 fd b8 d1       	vfmadd231pd %ymm1,%ymm0,%ymm2
  40451e:	c4 e2 f5 b8 c2       	vfmadd231pd %ymm2,%ymm1,%ymm0
  404523:	c4 e2 ed b8 c8       	vfmadd231pd %ymm0,%ymm2,%ymm1
  404528:	c4 e2 fd b8 d1       	vfmadd231pd %ymm1,%ymm0,%ymm2
  40452d:	c4 e2 f5 b8 c2       	vfmadd231pd %ymm2,%ymm1,%ymm0
  404532:	c4 e2 ed b8 c8       	vfmadd231pd %ymm0,%ymm2,%ymm1
  404537:	c4 e2 fd b8 d1       	vfmadd231pd %ymm1,%ymm0,%ymm2
  40453c:	c4 e2 f5 b8 c2       	vfmadd231pd %ymm2,%ymm1,%ymm0
  404541:	c4 e2 ed b8 c8       	vfmadd231pd %ymm0,%ymm2,%ymm1
  404546:	c4 e2 fd b8 d1       	vfmadd231pd %ymm1,%ymm0,%ymm2
  40454b:	c4 e2 f5 b8 c2       	vfmadd231pd %ymm2,%ymm1,%ymm0
  404550:	c4 e2 ed b8 c8       	vfmadd231pd %ymm0,%ymm2,%ymm1
  404555:	c4 e2 fd b8 d1       	vfmadd231pd %ymm1,%ymm0,%ymm2
  40455a:	c4 e2 f5 b8 c2       	vfmadd231pd %ymm2,%ymm1,%ymm0
  40455f:	c4 e2 ed b8 c8       	vfmadd231pd %ymm0,%ymm2,%ymm1
  404564:	c4 e2 fd b8 d1       	vfmadd231pd %ymm1,%ymm0,%ymm2
  404569:	c4 e2 f5 b8 c2       	vfmadd231pd %ymm2,%ymm1,%ymm0
  40456e:	c4 e2 ed b8 c8       	vfmadd231pd %ymm0,%ymm2,%ymm1
  404573:	c4 e2 fd b8 d1       	vfmadd231pd %ymm1,%ymm0,%ymm2
  404578:	c4 e2 f5 b8 c2       	vfmadd231pd %ymm2,%ymm1,%ymm0
  40457d:	c4 e2 ed b8 c8       	vfmadd231pd %ymm0,%ymm2,%ymm1
  404582:	c4 e2 fd b8 d1       	vfmadd231pd %ymm1,%ymm0,%ymm2
  404587:	c4 e2 f5 b8 c2       	vfmadd231pd %ymm2,%ymm1,%ymm0
  40458c:	c4 e2 ed b8 c8       	vfmadd231pd %ymm0,%ymm2,%ymm1
  404591:	c4 e2 fd b8 d1       	vfmadd231pd %ymm1,%ymm0,%ymm2
  404596:	c4 e2 f5 b8 c2       	vfmadd231pd %ymm2,%ymm1,%ymm0
  40459b:	c4 e2 ed b8 c8       	vfmadd231pd %ymm0,%ymm2,%ymm1
  4045a0:	c4 e2 fd b8 d1       	vfmadd231pd %ymm1,%ymm0,%ymm2
  4045a5:	c4 e2 f5 b8 c2       	vfmadd231pd %ymm2,%ymm1,%ymm0
  4045aa:	c4 e2 ed b8 c8       	vfmadd231pd %ymm0,%ymm2,%ymm1
  4045af:	c4 e2 fd b8 d1       	vfmadd231pd %ymm1,%ymm0,%ymm2
  4045b4:	c4 e2 f5 b8 c2       	vfmadd231pd %ymm2,%ymm1,%ymm0
  4045b9:	c4 e2 ed b8 c8       	vfmadd231pd %ymm0,%ymm2,%ymm1
  4045be:	c4 e2 fd b8 d1       	vfmadd231pd %ymm1,%ymm0,%ymm2
  4045c3:	c4 e2 f5 b8 c2       	vfmadd231pd %ymm2,%ymm1,%ymm0
  4045c8:	c4 e2 ed b8 c8       	vfmadd231pd %ymm0,%ymm2,%ymm1
  4045cd:	c4 e2 fd b8 d1       	vfmadd231pd %ymm1,%ymm0,%ymm2
  4045d2:	c4 e2 f5 b8 c2       	vfmadd231pd %ymm2,%ymm1,%ymm0
  4045d7:	c4 e2 ed b8 c8       	vfmadd231pd %ymm0,%ymm2,%ymm1
  4045dc:	c4 e2 fd b8 d1       	vfmadd231pd %ymm1,%ymm0,%ymm2
  4045e1:	c4 e2 f5 b8 c2       	vfmadd231pd %ymm2,%ymm1,%ymm0
  4045e6:	c4 e2 ed b8 c8       	vfmadd231pd %ymm0,%ymm2,%ymm1
  4045eb:	c4 e2 fd b8 d1       	vfmadd231pd %ymm1,%ymm0,%ymm2
  4045f0:	c4 e2 f5 b8 c2       	vfmadd231pd %ymm2,%ymm1,%ymm0
  4045f5:	c4 e2 ed b8 c8       	vfmadd231pd %ymm0,%ymm2,%ymm1
  4045fa:	c4 e2 fd b8 d1       	vfmadd231pd %ymm1,%ymm0,%ymm2
  4045ff:	c4 e2 f5 b8 c2       	vfmadd231pd %ymm2,%ymm1,%ymm0
  404604:	c4 e2 ed b8 c8       	vfmadd231pd %ymm0,%ymm2,%ymm1
  404609:	c4 e2 fd b8 d1       	vfmadd231pd %ymm1,%ymm0,%ymm2
  40460e:	c4 e2 f5 b8 c2       	vfmadd231pd %ymm2,%ymm1,%ymm0
  404613:	c4 e2 ed b8 c8       	vfmadd231pd %ymm0,%ymm2,%ymm1
  404618:	c4 e2 fd b8 d1       	vfmadd231pd %ymm1,%ymm0,%ymm2
  40461d:	c4 e2 f5 b8 c2       	vfmadd231pd %ymm2,%ymm1,%ymm0
  404622:	c4 e2 ed b8 c8       	vfmadd231pd %ymm0,%ymm2,%ymm1
  404627:	c4 e2 fd b8 d1       	vfmadd231pd %ymm1,%ymm0,%ymm2
  40462c:	c4 e2 f5 b8 c2       	vfmadd231pd %ymm2,%ymm1,%ymm0
  404631:	c4 e2 ed b8 c8       	vfmadd231pd %ymm0,%ymm2,%ymm1
  404636:	c4 e2 fd b8 d1       	vfmadd231pd %ymm1,%ymm0,%ymm2
  40463b:	c4 e2 f5 b8 c2       	vfmadd231pd %ymm2,%ymm1,%ymm0
  404640:	c4 e2 ed b8 c8       	vfmadd231pd %ymm0,%ymm2,%ymm1
  404645:	c4 e2 fd b8 d1       	vfmadd231pd %ymm1,%ymm0,%ymm2
  40464a:	c4 e2 f5 b8 c2       	vfmadd231pd %ymm2,%ymm1,%ymm0
  40464f:	c4 e2 ed b8 c8       	vfmadd231pd %ymm0,%ymm2,%ymm1
  404654:	c4 e2 fd b8 d1       	vfmadd231pd %ymm1,%ymm0,%ymm2
  404659:	c4 e2 f5 b8 c2       	vfmadd231pd %ymm2,%ymm1,%ymm0
  40465e:	c4 e2 ed b8 c8       	vfmadd231pd %ymm0,%ymm2,%ymm1
  404663:	c4 e2 fd b8 d1       	vfmadd231pd %ymm1,%ymm0,%ymm2
  404668:	c4 e2 f5 b8 c2       	vfmadd231pd %ymm2,%ymm1,%ymm0
  40466d:	c4 e2 ed b8 c8       	vfmadd231pd %ymm0,%ymm2,%ymm1
  404672:	c4 e2 fd b8 d1       	vfmadd231pd %ymm1,%ymm0,%ymm2
  404677:	c4 e2 f5 b8 c2       	vfmadd231pd %ymm2,%ymm1,%ymm0
  40467c:	c4 e2 ed b8 c8       	vfmadd231pd %ymm0,%ymm2,%ymm1
  404681:	c4 e2 fd b8 d1       	vfmadd231pd %ymm1,%ymm0,%ymm2
  404686:	c4 e2 f5 b8 c2       	vfmadd231pd %ymm2,%ymm1,%ymm0
  40468b:	c4 e2 ed b8 c8       	vfmadd231pd %ymm0,%ymm2,%ymm1
  404690:	c4 e2 fd b8 d1       	vfmadd231pd %ymm1,%ymm0,%ymm2
  404695:	c4 e2 f5 b8 c2       	vfmadd231pd %ymm2,%ymm1,%ymm0
  40469a:	c4 e2 ed b8 c8       	vfmadd231pd %ymm0,%ymm2,%ymm1
  40469f:	c4 e2 fd b8 d1       	vfmadd231pd %ymm1,%ymm0,%ymm2
  4046a4:	c4 e2 f5 b8 c2       	vfmadd231pd %ymm2,%ymm1,%ymm0
  4046a9:	c4 e2 ed b8 c8       	vfmadd231pd %ymm0,%ymm2,%ymm1
  4046ae:	c4 e2 fd b8 d1       	vfmadd231pd %ymm1,%ymm0,%ymm2
  4046b3:	c4 e2 f5 b8 c2       	vfmadd231pd %ymm2,%ymm1,%ymm0
  4046b8:	c4 e2 ed b8 c8       	vfmadd231pd %ymm0,%ymm2,%ymm1
  4046bd:	c4 e2 fd b8 d1       	vfmadd231pd %ymm1,%ymm0,%ymm2
  4046c2:	c4 e2 f5 b8 c2       	vfmadd231pd %ymm2,%ymm1,%ymm0
  4046c7:	c4 e2 ed b8 c8       	vfmadd231pd %ymm0,%ymm2,%ymm1
  4046cc:	c4 e2 fd b8 d1       	vfmadd231pd %ymm1,%ymm0,%ymm2
  4046d1:	c4 e2 f5 b8 c2       	vfmadd231pd %ymm2,%ymm1,%ymm0
  4046d6:	c4 e2 ed b8 c8       	vfmadd231pd %ymm0,%ymm2,%ymm1
  4046db:	c4 e2 fd b8 d1       	vfmadd231pd %ymm1,%ymm0,%ymm2
  4046e0:	c4 e2 f5 b8 c2       	vfmadd231pd %ymm2,%ymm1,%ymm0
  4046e5:	c4 e2 ed b8 c8       	vfmadd231pd %ymm0,%ymm2,%ymm1
  4046ea:	c4 e2 fd b8 d1       	vfmadd231pd %ymm1,%ymm0,%ymm2
  4046ef:	c4 e2 f5 b8 c2       	vfmadd231pd %ymm2,%ymm1,%ymm0
  4046f4:	c4 e2 ed b8 c8       	vfmadd231pd %ymm0,%ymm2,%ymm1
  4046f9:	c4 e2 fd b8 d1       	vfmadd231pd %ymm1,%ymm0,%ymm2
  4046fe:	c4 e2 f5 b8 c2       	vfmadd231pd %ymm2,%ymm1,%ymm0
  404703:	c4 e2 ed b8 c8       	vfmadd231pd %ymm0,%ymm2,%ymm1
  404708:	c4 e2 fd b8 d1       	vfmadd231pd %ymm1,%ymm0,%ymm2
  40470d:	c4 e2 f5 b8 c2       	vfmadd231pd %ymm2,%ymm1,%ymm0
  404712:	c4 e2 ed b8 c8       	vfmadd231pd %ymm0,%ymm2,%ymm1
  404717:	c4 e2 fd b8 d1       	vfmadd231pd %ymm1,%ymm0,%ymm2
  40471c:	c4 e2 f5 b8 c2       	vfmadd231pd %ymm2,%ymm1,%ymm0
  404721:	c4 e2 ed b8 c8       	vfmadd231pd %ymm0,%ymm2,%ymm1
  404726:	c4 e2 fd b8 d1       	vfmadd231pd %ymm1,%ymm0,%ymm2
  40472b:	c4 e2 f5 b8 c2       	vfmadd231pd %ymm2,%ymm1,%ymm0
  404730:	c4 e2 ed b8 c8       	vfmadd231pd %ymm0,%ymm2,%ymm1
  404735:	c4 e2 fd b8 d1       	vfmadd231pd %ymm1,%ymm0,%ymm2
  40473a:	c4 e2 f5 b8 c2       	vfmadd231pd %ymm2,%ymm1,%ymm0
  40473f:	c4 e2 ed b8 c8       	vfmadd231pd %ymm0,%ymm2,%ymm1
  404744:	c4 e2 fd b8 d1       	vfmadd231pd %ymm1,%ymm0,%ymm2
  404749:	c4 e2 f5 b8 c2       	vfmadd231pd %ymm2,%ymm1,%ymm0
  40474e:	c4 e2 ed b8 c8       	vfmadd231pd %ymm0,%ymm2,%ymm1
  404753:	c4 e2 fd b8 d1       	vfmadd231pd %ymm1,%ymm0,%ymm2
  404758:	c4 e2 f5 b8 c2       	vfmadd231pd %ymm2,%ymm1,%ymm0
  40475d:	c4 e2 ed b8 c8       	vfmadd231pd %ymm0,%ymm2,%ymm1
  404762:	c4 e2 fd b8 d1       	vfmadd231pd %ymm1,%ymm0,%ymm2
  404767:	c4 e2 f5 b8 c2       	vfmadd231pd %ymm2,%ymm1,%ymm0
  40476c:	c4 e2 ed b8 c8       	vfmadd231pd %ymm0,%ymm2,%ymm1
  404771:	c4 e2 fd b8 d1       	vfmadd231pd %ymm1,%ymm0,%ymm2
  404776:	c4 e2 f5 b8 c2       	vfmadd231pd %ymm2,%ymm1,%ymm0
  40477b:	c4 e2 ed b8 c8       	vfmadd231pd %ymm0,%ymm2,%ymm1
  404780:	c4 e2 fd b8 d1       	vfmadd231pd %ymm1,%ymm0,%ymm2
  404785:	c4 e2 f5 b8 c2       	vfmadd231pd %ymm2,%ymm1,%ymm0
  40478a:	c4 e2 ed b8 c8       	vfmadd231pd %ymm0,%ymm2,%ymm1
  40478f:	c4 e2 fd b8 d1       	vfmadd231pd %ymm1,%ymm0,%ymm2
  404794:	c4 e2 f5 b8 c2       	vfmadd231pd %ymm2,%ymm1,%ymm0
  404799:	c4 e2 ed b8 c8       	vfmadd231pd %ymm0,%ymm2,%ymm1
  40479e:	c4 e2 fd b8 d1       	vfmadd231pd %ymm1,%ymm0,%ymm2
  4047a3:	c4 e2 f5 b8 c2       	vfmadd231pd %ymm2,%ymm1,%ymm0
  4047a8:	c4 e2 ed b8 c8       	vfmadd231pd %ymm0,%ymm2,%ymm1
  4047ad:	c4 e2 fd b8 d1       	vfmadd231pd %ymm1,%ymm0,%ymm2
  4047b2:	c4 e2 f5 b8 c2       	vfmadd231pd %ymm2,%ymm1,%ymm0
  4047b7:	c4 e2 ed b8 c8       	vfmadd231pd %ymm0,%ymm2,%ymm1
  4047bc:	c4 e2 fd b8 d1       	vfmadd231pd %ymm1,%ymm0,%ymm2
  4047c1:	c4 e2 f5 b8 c2       	vfmadd231pd %ymm2,%ymm1,%ymm0
  4047c6:	c4 e2 ed b8 c8       	vfmadd231pd %ymm0,%ymm2,%ymm1
  4047cb:	c4 e2 fd b8 d1       	vfmadd231pd %ymm1,%ymm0,%ymm2
  4047d0:	c4 e2 f5 b8 c2       	vfmadd231pd %ymm2,%ymm1,%ymm0
  4047d5:	c4 e2 ed b8 c8       	vfmadd231pd %ymm0,%ymm2,%ymm1
  4047da:	c4 e2 fd b8 d1       	vfmadd231pd %ymm1,%ymm0,%ymm2
  4047df:	c4 e2 f5 b8 c2       	vfmadd231pd %ymm2,%ymm1,%ymm0
  4047e4:	c4 e2 ed b8 c8       	vfmadd231pd %ymm0,%ymm2,%ymm1
  4047e9:	c4 e2 fd b8 d1       	vfmadd231pd %ymm1,%ymm0,%ymm2
  4047ee:	c4 e2 f5 b8 c2       	vfmadd231pd %ymm2,%ymm1,%ymm0
  4047f3:	c4 e2 ed b8 c8       	vfmadd231pd %ymm0,%ymm2,%ymm1
  4047f8:	c4 e2 fd b8 d1       	vfmadd231pd %ymm1,%ymm0,%ymm2
  4047fd:	c4 e2 f5 b8 c2       	vfmadd231pd %ymm2,%ymm1,%ymm0
  404802:	c4 e2 ed b8 c8       	vfmadd231pd %ymm0,%ymm2,%ymm1
  404807:	c4 e2 fd b8 d1       	vfmadd231pd %ymm1,%ymm0,%ymm2
  40480c:	c4 e2 f5 b8 c2       	vfmadd231pd %ymm2,%ymm1,%ymm0
  404811:	c4 e2 ed b8 c8       	vfmadd231pd %ymm0,%ymm2,%ymm1
  404816:	c4 e2 fd b8 d1       	vfmadd231pd %ymm1,%ymm0,%ymm2
  40481b:	c4 e2 f5 b8 c2       	vfmadd231pd %ymm2,%ymm1,%ymm0
  404820:	c4 e2 ed b8 c8       	vfmadd231pd %ymm0,%ymm2,%ymm1
  404825:	c4 e2 fd b8 d1       	vfmadd231pd %ymm1,%ymm0,%ymm2
  40482a:	c4 e2 f5 b8 c2       	vfmadd231pd %ymm2,%ymm1,%ymm0
  40482f:	c4 e2 ed b8 c8       	vfmadd231pd %ymm0,%ymm2,%ymm1
  404834:	c4 e2 fd b8 d1       	vfmadd231pd %ymm1,%ymm0,%ymm2
  404839:	c4 e2 f5 b8 c2       	vfmadd231pd %ymm2,%ymm1,%ymm0
  40483e:	c4 e2 ed b8 c8       	vfmadd231pd %ymm0,%ymm2,%ymm1
  404843:	c4 e2 fd b8 d1       	vfmadd231pd %ymm1,%ymm0,%ymm2
  404848:	c4 e2 f5 b8 c2       	vfmadd231pd %ymm2,%ymm1,%ymm0
  40484d:	c4 e2 ed b8 c8       	vfmadd231pd %ymm0,%ymm2,%ymm1
  404852:	c4 e2 fd b8 d1       	vfmadd231pd %ymm1,%ymm0,%ymm2
  404857:	c4 e2 f5 b8 c2       	vfmadd231pd %ymm2,%ymm1,%ymm0
  40485c:	c4 e2 ed b8 c8       	vfmadd231pd %ymm0,%ymm2,%ymm1
  404861:	c4 e2 fd b8 d1       	vfmadd231pd %ymm1,%ymm0,%ymm2
  404866:	c4 e2 f5 b8 c2       	vfmadd231pd %ymm2,%ymm1,%ymm0
  40486b:	c4 e2 ed b8 c8       	vfmadd231pd %ymm0,%ymm2,%ymm1
  404870:	c4 e2 fd b8 d1       	vfmadd231pd %ymm1,%ymm0,%ymm2
  404875:	c4 e2 f5 b8 c2       	vfmadd231pd %ymm2,%ymm1,%ymm0
  40487a:	c4 e2 ed b8 c8       	vfmadd231pd %ymm0,%ymm2,%ymm1
  40487f:	c4 e2 fd b8 d1       	vfmadd231pd %ymm1,%ymm0,%ymm2
  404884:	c4 e2 f5 b8 c2       	vfmadd231pd %ymm2,%ymm1,%ymm0
  404889:	c4 e2 ed b8 c8       	vfmadd231pd %ymm0,%ymm2,%ymm1
  40488e:	c4 e2 fd b8 d1       	vfmadd231pd %ymm1,%ymm0,%ymm2
  404893:	c4 e2 f5 b8 c2       	vfmadd231pd %ymm2,%ymm1,%ymm0
  404898:	c4 e2 ed b8 c8       	vfmadd231pd %ymm0,%ymm2,%ymm1
  40489d:	c4 e2 fd b8 d1       	vfmadd231pd %ymm1,%ymm0,%ymm2
  4048a2:	c4 e2 f5 b8 c2       	vfmadd231pd %ymm2,%ymm1,%ymm0
  4048a7:	c4 e2 ed b8 c8       	vfmadd231pd %ymm0,%ymm2,%ymm1
  4048ac:	c4 e2 fd b8 d1       	vfmadd231pd %ymm1,%ymm0,%ymm2
  4048b1:	c4 e2 f5 b8 c2       	vfmadd231pd %ymm2,%ymm1,%ymm0
  4048b6:	c4 e2 ed b8 c8       	vfmadd231pd %ymm0,%ymm2,%ymm1
  4048bb:	c4 e2 fd b8 d1       	vfmadd231pd %ymm1,%ymm0,%ymm2
  4048c0:	c4 e2 f5 b8 c2       	vfmadd231pd %ymm2,%ymm1,%ymm0
  4048c5:	c4 e2 ed b8 c8       	vfmadd231pd %ymm0,%ymm2,%ymm1
  4048ca:	c4 e2 fd b8 d1       	vfmadd231pd %ymm1,%ymm0,%ymm2
  4048cf:	c4 e2 f5 b8 c2       	vfmadd231pd %ymm2,%ymm1,%ymm0
  4048d4:	c4 e2 ed b8 c8       	vfmadd231pd %ymm0,%ymm2,%ymm1
  4048d9:	c4 e2 fd b8 d1       	vfmadd231pd %ymm1,%ymm0,%ymm2
  4048de:	c4 e2 f5 b8 c2       	vfmadd231pd %ymm2,%ymm1,%ymm0
  4048e3:	c4 e2 ed b8 c8       	vfmadd231pd %ymm0,%ymm2,%ymm1
  4048e8:	c4 e2 fd b8 d1       	vfmadd231pd %ymm1,%ymm0,%ymm2
  4048ed:	c4 e2 f5 b8 c2       	vfmadd231pd %ymm2,%ymm1,%ymm0
  4048f2:	c4 e2 ed b8 c8       	vfmadd231pd %ymm0,%ymm2,%ymm1
  4048f7:	c4 e2 fd b8 d1       	vfmadd231pd %ymm1,%ymm0,%ymm2
  4048fc:	c4 e2 f5 b8 c2       	vfmadd231pd %ymm2,%ymm1,%ymm0
  404901:	c4 e2 ed b8 c8       	vfmadd231pd %ymm0,%ymm2,%ymm1
  404906:	c4 e2 fd b8 d1       	vfmadd231pd %ymm1,%ymm0,%ymm2
  40490b:	c4 e2 f5 b8 c2       	vfmadd231pd %ymm2,%ymm1,%ymm0
  404910:	c4 e2 ed b8 c8       	vfmadd231pd %ymm0,%ymm2,%ymm1
  404915:	c4 e2 fd b8 d1       	vfmadd231pd %ymm1,%ymm0,%ymm2
  40491a:	c4 e2 f5 b8 c2       	vfmadd231pd %ymm2,%ymm1,%ymm0
  40491f:	c4 e2 ed b8 c8       	vfmadd231pd %ymm0,%ymm2,%ymm1
  404924:	c4 e2 fd b8 d1       	vfmadd231pd %ymm1,%ymm0,%ymm2
  404929:	c4 e2 f5 b8 c2       	vfmadd231pd %ymm2,%ymm1,%ymm0
  40492e:	c4 e2 ed b8 c8       	vfmadd231pd %ymm0,%ymm2,%ymm1
  404933:	c4 e2 fd b8 d1       	vfmadd231pd %ymm1,%ymm0,%ymm2
  404938:	c4 e2 f5 b8 c2       	vfmadd231pd %ymm2,%ymm1,%ymm0
  40493d:	c4 e2 ed b8 c8       	vfmadd231pd %ymm0,%ymm2,%ymm1
  404942:	c4 e2 fd b8 d1       	vfmadd231pd %ymm1,%ymm0,%ymm2
  404947:	c4 e2 f5 b8 c2       	vfmadd231pd %ymm2,%ymm1,%ymm0
  40494c:	c4 e2 ed b8 c8       	vfmadd231pd %ymm0,%ymm2,%ymm1
  404951:	c4 e2 fd b8 d1       	vfmadd231pd %ymm1,%ymm0,%ymm2
  404956:	c4 e2 f5 b8 c2       	vfmadd231pd %ymm2,%ymm1,%ymm0
  40495b:	c4 e2 ed b8 c8       	vfmadd231pd %ymm0,%ymm2,%ymm1
  404960:	c4 e2 fd b8 d1       	vfmadd231pd %ymm1,%ymm0,%ymm2
  404965:	c4 e2 f5 b8 c2       	vfmadd231pd %ymm2,%ymm1,%ymm0
  40496a:	c4 e2 ed b8 c8       	vfmadd231pd %ymm0,%ymm2,%ymm1
  40496f:	c4 e2 fd b8 d1       	vfmadd231pd %ymm1,%ymm0,%ymm2
  404974:	c4 e2 f5 b8 c2       	vfmadd231pd %ymm2,%ymm1,%ymm0
  404979:	c4 e2 ed b8 c8       	vfmadd231pd %ymm0,%ymm2,%ymm1
  40497e:	c4 e2 fd b8 d1       	vfmadd231pd %ymm1,%ymm0,%ymm2
  404983:	c4 e2 f5 b8 c2       	vfmadd231pd %ymm2,%ymm1,%ymm0
  404988:	c4 e2 ed b8 c8       	vfmadd231pd %ymm0,%ymm2,%ymm1
  40498d:	c4 e2 fd b8 d1       	vfmadd231pd %ymm1,%ymm0,%ymm2
  404992:	c4 e2 f5 b8 c2       	vfmadd231pd %ymm2,%ymm1,%ymm0
  404997:	c4 e2 ed b8 c8       	vfmadd231pd %ymm0,%ymm2,%ymm1
  40499c:	c4 e2 fd b8 d1       	vfmadd231pd %ymm1,%ymm0,%ymm2
  4049a1:	c4 e2 f5 b8 c2       	vfmadd231pd %ymm2,%ymm1,%ymm0
  4049a6:	c4 e2 ed b8 c8       	vfmadd231pd %ymm0,%ymm2,%ymm1
  4049ab:	c4 e2 fd b8 d1       	vfmadd231pd %ymm1,%ymm0,%ymm2
  4049b0:	c4 e2 f5 b8 c2       	vfmadd231pd %ymm2,%ymm1,%ymm0
  4049b5:	c4 e2 ed b8 c8       	vfmadd231pd %ymm0,%ymm2,%ymm1
  4049ba:	c4 e2 fd b8 d1       	vfmadd231pd %ymm1,%ymm0,%ymm2
  4049bf:	c4 e2 f5 b8 c2       	vfmadd231pd %ymm2,%ymm1,%ymm0
  4049c4:	c4 e2 ed b8 c8       	vfmadd231pd %ymm0,%ymm2,%ymm1
  4049c9:	c4 e2 fd b8 d1       	vfmadd231pd %ymm1,%ymm0,%ymm2
  4049ce:	c4 e2 f5 b8 c2       	vfmadd231pd %ymm2,%ymm1,%ymm0
  4049d3:	c4 e2 ed b8 c8       	vfmadd231pd %ymm0,%ymm2,%ymm1
  4049d8:	c4 e2 fd b8 d1       	vfmadd231pd %ymm1,%ymm0,%ymm2
  4049dd:	c4 e2 f5 b8 c2       	vfmadd231pd %ymm2,%ymm1,%ymm0
  4049e2:	c4 e2 ed b8 c8       	vfmadd231pd %ymm0,%ymm2,%ymm1
  4049e7:	c4 e2 fd b8 d1       	vfmadd231pd %ymm1,%ymm0,%ymm2
  4049ec:	c4 e2 f5 b8 c2       	vfmadd231pd %ymm2,%ymm1,%ymm0
  4049f1:	c4 e2 ed b8 c8       	vfmadd231pd %ymm0,%ymm2,%ymm1
  4049f6:	c4 e2 fd b8 d1       	vfmadd231pd %ymm1,%ymm0,%ymm2
  4049fb:	c4 e2 f5 b8 c2       	vfmadd231pd %ymm2,%ymm1,%ymm0
  404a00:	c4 e2 ed b8 c8       	vfmadd231pd %ymm0,%ymm2,%ymm1
  404a05:	c4 e2 fd b8 d1       	vfmadd231pd %ymm1,%ymm0,%ymm2
  404a0a:	c4 e2 f5 b8 c2       	vfmadd231pd %ymm2,%ymm1,%ymm0
  404a0f:	c4 e2 ed b8 c8       	vfmadd231pd %ymm0,%ymm2,%ymm1
  404a14:	c4 e2 fd b8 d1       	vfmadd231pd %ymm1,%ymm0,%ymm2
  404a19:	c4 e2 f5 b8 c2       	vfmadd231pd %ymm2,%ymm1,%ymm0
  404a1e:	c4 e2 ed b8 c8       	vfmadd231pd %ymm0,%ymm2,%ymm1
  404a23:	c4 e2 fd b8 d1       	vfmadd231pd %ymm1,%ymm0,%ymm2
  404a28:	c4 e2 f5 b8 c2       	vfmadd231pd %ymm2,%ymm1,%ymm0
  404a2d:	c4 e2 ed b8 c8       	vfmadd231pd %ymm0,%ymm2,%ymm1
  404a32:	c4 e2 fd b8 d1       	vfmadd231pd %ymm1,%ymm0,%ymm2
  404a37:	c4 e2 f5 b8 c2       	vfmadd231pd %ymm2,%ymm1,%ymm0
  404a3c:	c4 e2 ed b8 c8       	vfmadd231pd %ymm0,%ymm2,%ymm1
  404a41:	c4 e2 fd b8 d1       	vfmadd231pd %ymm1,%ymm0,%ymm2
  404a46:	c4 e2 f5 b8 c2       	vfmadd231pd %ymm2,%ymm1,%ymm0
  404a4b:	c4 e2 ed b8 c8       	vfmadd231pd %ymm0,%ymm2,%ymm1
  404a50:	c4 e2 fd b8 d1       	vfmadd231pd %ymm1,%ymm0,%ymm2
  404a55:	c4 e2 f5 b8 c2       	vfmadd231pd %ymm2,%ymm1,%ymm0
  404a5a:	c4 e2 ed b8 c8       	vfmadd231pd %ymm0,%ymm2,%ymm1
  404a5f:	c4 e2 fd b8 d1       	vfmadd231pd %ymm1,%ymm0,%ymm2
  404a64:	c4 e2 f5 b8 c2       	vfmadd231pd %ymm2,%ymm1,%ymm0
  404a69:	c4 e2 ed b8 c8       	vfmadd231pd %ymm0,%ymm2,%ymm1
  404a6e:	c4 e2 fd b8 d1       	vfmadd231pd %ymm1,%ymm0,%ymm2
  404a73:	c4 e2 f5 b8 c2       	vfmadd231pd %ymm2,%ymm1,%ymm0
  404a78:	c4 e2 ed b8 c8       	vfmadd231pd %ymm0,%ymm2,%ymm1
  404a7d:	c4 e2 fd b8 d1       	vfmadd231pd %ymm1,%ymm0,%ymm2
  404a82:	c4 e2 f5 b8 c2       	vfmadd231pd %ymm2,%ymm1,%ymm0
  404a87:	c4 e2 ed b8 c8       	vfmadd231pd %ymm0,%ymm2,%ymm1
  404a8c:	c4 e2 fd b8 d1       	vfmadd231pd %ymm1,%ymm0,%ymm2
  404a91:	c4 e2 f5 b8 c2       	vfmadd231pd %ymm2,%ymm1,%ymm0
  404a96:	c4 e2 ed b8 c8       	vfmadd231pd %ymm0,%ymm2,%ymm1
  404a9b:	c4 e2 fd b8 d1       	vfmadd231pd %ymm1,%ymm0,%ymm2
  404aa0:	c4 e2 f5 b8 c2       	vfmadd231pd %ymm2,%ymm1,%ymm0
  404aa5:	c4 e2 ed b8 c8       	vfmadd231pd %ymm0,%ymm2,%ymm1
  404aaa:	c4 e2 fd b8 d1       	vfmadd231pd %ymm1,%ymm0,%ymm2
  404aaf:	c4 e2 f5 b8 c2       	vfmadd231pd %ymm2,%ymm1,%ymm0
  404ab4:	c4 e2 ed b8 c8       	vfmadd231pd %ymm0,%ymm2,%ymm1
  404ab9:	c4 e2 fd b8 d1       	vfmadd231pd %ymm1,%ymm0,%ymm2
  404abe:	c4 e2 f5 b8 c2       	vfmadd231pd %ymm2,%ymm1,%ymm0
  404ac3:	c4 e2 ed b8 c8       	vfmadd231pd %ymm0,%ymm2,%ymm1
  404ac8:	c4 e2 fd b8 d1       	vfmadd231pd %ymm1,%ymm0,%ymm2
  404acd:	c4 e2 f5 b8 c2       	vfmadd231pd %ymm2,%ymm1,%ymm0
  404ad2:	c4 e2 ed b8 c8       	vfmadd231pd %ymm0,%ymm2,%ymm1
  404ad7:	c4 e2 fd b8 d1       	vfmadd231pd %ymm1,%ymm0,%ymm2
  404adc:	c4 e2 f5 b8 c2       	vfmadd231pd %ymm2,%ymm1,%ymm0
  404ae1:	c4 e2 ed b8 c8       	vfmadd231pd %ymm0,%ymm2,%ymm1
  404ae6:	c4 e2 fd b8 d1       	vfmadd231pd %ymm1,%ymm0,%ymm2
  404aeb:	c4 e2 f5 b8 c2       	vfmadd231pd %ymm2,%ymm1,%ymm0
  404af0:	c4 e2 ed b8 c8       	vfmadd231pd %ymm0,%ymm2,%ymm1
  404af5:	c4 e2 fd b8 d1       	vfmadd231pd %ymm1,%ymm0,%ymm2
  404afa:	c4 e2 f5 b8 c2       	vfmadd231pd %ymm2,%ymm1,%ymm0
  404aff:	c4 e2 ed b8 c8       	vfmadd231pd %ymm0,%ymm2,%ymm1
  404b04:	c4 e2 fd b8 d1       	vfmadd231pd %ymm1,%ymm0,%ymm2
  404b09:	c4 e2 f5 b8 c2       	vfmadd231pd %ymm2,%ymm1,%ymm0
  404b0e:	c4 e2 ed b8 c8       	vfmadd231pd %ymm0,%ymm2,%ymm1
  404b13:	c4 e2 fd b8 d1       	vfmadd231pd %ymm1,%ymm0,%ymm2
  404b18:	c4 e2 f5 b8 c2       	vfmadd231pd %ymm2,%ymm1,%ymm0
  404b1d:	c4 e2 ed b8 c8       	vfmadd231pd %ymm0,%ymm2,%ymm1
  404b22:	c4 e2 fd b8 d1       	vfmadd231pd %ymm1,%ymm0,%ymm2
  404b27:	c4 e2 f5 b8 c2       	vfmadd231pd %ymm2,%ymm1,%ymm0
  404b2c:	c4 e2 ed b8 c8       	vfmadd231pd %ymm0,%ymm2,%ymm1
  404b31:	c4 e2 fd b8 d1       	vfmadd231pd %ymm1,%ymm0,%ymm2
  404b36:	c4 e2 f5 b8 c2       	vfmadd231pd %ymm2,%ymm1,%ymm0
  404b3b:	c4 e2 ed b8 c8       	vfmadd231pd %ymm0,%ymm2,%ymm1
  404b40:	c4 e2 fd b8 d1       	vfmadd231pd %ymm1,%ymm0,%ymm2
  404b45:	c4 e2 f5 b8 c2       	vfmadd231pd %ymm2,%ymm1,%ymm0
  404b4a:	c4 e2 ed b8 c8       	vfmadd231pd %ymm0,%ymm2,%ymm1
  404b4f:	c4 e2 fd b8 d1       	vfmadd231pd %ymm1,%ymm0,%ymm2
  404b54:	c4 e2 f5 b8 c2       	vfmadd231pd %ymm2,%ymm1,%ymm0
  404b59:	c4 e2 ed b8 c8       	vfmadd231pd %ymm0,%ymm2,%ymm1
  404b5e:	c4 e2 fd b8 d1       	vfmadd231pd %ymm1,%ymm0,%ymm2
  404b63:	c4 e2 f5 b8 c2       	vfmadd231pd %ymm2,%ymm1,%ymm0
  404b68:	c4 e2 ed b8 c8       	vfmadd231pd %ymm0,%ymm2,%ymm1
  404b6d:	c4 e2 fd b8 d1       	vfmadd231pd %ymm1,%ymm0,%ymm2
  404b72:	c4 e2 f5 b8 c2       	vfmadd231pd %ymm2,%ymm1,%ymm0
  404b77:	c4 e2 ed b8 c8       	vfmadd231pd %ymm0,%ymm2,%ymm1
  404b7c:	c4 e2 fd b8 d1       	vfmadd231pd %ymm1,%ymm0,%ymm2
  404b81:	c4 e2 f5 b8 c2       	vfmadd231pd %ymm2,%ymm1,%ymm0
  404b86:	c4 e2 ed b8 c8       	vfmadd231pd %ymm0,%ymm2,%ymm1
  404b8b:	c4 e2 fd b8 d1       	vfmadd231pd %ymm1,%ymm0,%ymm2
  404b90:	c4 e2 f5 b8 c2       	vfmadd231pd %ymm2,%ymm1,%ymm0
  404b95:	c4 e2 ed b8 c8       	vfmadd231pd %ymm0,%ymm2,%ymm1
  404b9a:	c4 e2 fd b8 d1       	vfmadd231pd %ymm1,%ymm0,%ymm2
  404b9f:	c4 e2 f5 b8 c2       	vfmadd231pd %ymm2,%ymm1,%ymm0
  404ba4:	c4 e2 ed b8 c8       	vfmadd231pd %ymm0,%ymm2,%ymm1
  404ba9:	c4 e2 fd b8 d1       	vfmadd231pd %ymm1,%ymm0,%ymm2
  404bae:	c4 e2 f5 b8 c2       	vfmadd231pd %ymm2,%ymm1,%ymm0
  404bb3:	c4 e2 ed b8 c8       	vfmadd231pd %ymm0,%ymm2,%ymm1
  404bb8:	c4 e2 fd b8 d1       	vfmadd231pd %ymm1,%ymm0,%ymm2
  404bbd:	c4 e2 f5 b8 c2       	vfmadd231pd %ymm2,%ymm1,%ymm0
  404bc2:	c4 e2 ed b8 c8       	vfmadd231pd %ymm0,%ymm2,%ymm1
  404bc7:	c4 e2 fd b8 d1       	vfmadd231pd %ymm1,%ymm0,%ymm2
  404bcc:	c4 e2 f5 b8 c2       	vfmadd231pd %ymm2,%ymm1,%ymm0
  404bd1:	c4 e2 ed b8 c8       	vfmadd231pd %ymm0,%ymm2,%ymm1
  404bd6:	c4 e2 fd b8 d1       	vfmadd231pd %ymm1,%ymm0,%ymm2
  404bdb:	c4 e2 f5 b8 c2       	vfmadd231pd %ymm2,%ymm1,%ymm0
  404be0:	c4 e2 ed b8 c8       	vfmadd231pd %ymm0,%ymm2,%ymm1
  404be5:	c4 e2 fd b8 d1       	vfmadd231pd %ymm1,%ymm0,%ymm2
  404bea:	c4 e2 f5 b8 c2       	vfmadd231pd %ymm2,%ymm1,%ymm0
  404bef:	c4 e2 ed b8 c8       	vfmadd231pd %ymm0,%ymm2,%ymm1
  404bf4:	c4 e2 fd b8 d1       	vfmadd231pd %ymm1,%ymm0,%ymm2
  404bf9:	c4 e2 f5 b8 c2       	vfmadd231pd %ymm2,%ymm1,%ymm0
  404bfe:	c4 e2 ed b8 c8       	vfmadd231pd %ymm0,%ymm2,%ymm1
  404c03:	c4 e2 fd b8 d1       	vfmadd231pd %ymm1,%ymm0,%ymm2
  404c08:	c4 e2 f5 b8 c2       	vfmadd231pd %ymm2,%ymm1,%ymm0
  404c0d:	c4 e2 ed b8 c8       	vfmadd231pd %ymm0,%ymm2,%ymm1
  404c12:	c4 e2 fd b8 d1       	vfmadd231pd %ymm1,%ymm0,%ymm2
  404c17:	c4 e2 f5 b8 c2       	vfmadd231pd %ymm2,%ymm1,%ymm0
  404c1c:	c4 e2 ed b8 c8       	vfmadd231pd %ymm0,%ymm2,%ymm1
  404c21:	c4 e2 fd b8 d1       	vfmadd231pd %ymm1,%ymm0,%ymm2
  404c26:	c4 e2 f5 b8 c2       	vfmadd231pd %ymm2,%ymm1,%ymm0
  404c2b:	c4 e2 ed b8 c8       	vfmadd231pd %ymm0,%ymm2,%ymm1
  404c30:	c4 e2 fd b8 d1       	vfmadd231pd %ymm1,%ymm0,%ymm2
  404c35:	c4 e2 f5 b8 c2       	vfmadd231pd %ymm2,%ymm1,%ymm0
  404c3a:	c4 e2 ed b8 c8       	vfmadd231pd %ymm0,%ymm2,%ymm1
  404c3f:	c4 e2 fd b8 d1       	vfmadd231pd %ymm1,%ymm0,%ymm2
  404c44:	c4 e2 f5 b8 c2       	vfmadd231pd %ymm2,%ymm1,%ymm0
  404c49:	c4 e2 ed b8 c8       	vfmadd231pd %ymm0,%ymm2,%ymm1
  404c4e:	c4 e2 fd b8 d1       	vfmadd231pd %ymm1,%ymm0,%ymm2
  404c53:	c4 e2 f5 b8 c2       	vfmadd231pd %ymm2,%ymm1,%ymm0
  404c58:	c4 e2 ed b8 c8       	vfmadd231pd %ymm0,%ymm2,%ymm1
  404c5d:	c4 e2 fd b8 d1       	vfmadd231pd %ymm1,%ymm0,%ymm2
  404c62:	c4 e2 f5 b8 c2       	vfmadd231pd %ymm2,%ymm1,%ymm0
  404c67:	c4 e2 ed b8 c8       	vfmadd231pd %ymm0,%ymm2,%ymm1
  404c6c:	c4 e2 fd b8 d1       	vfmadd231pd %ymm1,%ymm0,%ymm2
  404c71:	c4 e2 f5 b8 c2       	vfmadd231pd %ymm2,%ymm1,%ymm0
  404c76:	c4 e2 ed b8 c8       	vfmadd231pd %ymm0,%ymm2,%ymm1
  404c7b:	c4 e2 fd b8 d1       	vfmadd231pd %ymm1,%ymm0,%ymm2
  404c80:	c4 e2 f5 b8 c2       	vfmadd231pd %ymm2,%ymm1,%ymm0
  404c85:	c4 e2 ed b8 c8       	vfmadd231pd %ymm0,%ymm2,%ymm1
  404c8a:	c4 e2 fd b8 d1       	vfmadd231pd %ymm1,%ymm0,%ymm2
  404c8f:	c4 e2 f5 b8 c2       	vfmadd231pd %ymm2,%ymm1,%ymm0
  404c94:	c4 e2 ed b8 c8       	vfmadd231pd %ymm0,%ymm2,%ymm1
  404c99:	c4 e2 fd b8 d1       	vfmadd231pd %ymm1,%ymm0,%ymm2
  404c9e:	c4 e2 f5 b8 c2       	vfmadd231pd %ymm2,%ymm1,%ymm0
  404ca3:	c4 e2 ed b8 c8       	vfmadd231pd %ymm0,%ymm2,%ymm1
  404ca8:	c4 e2 fd b8 d1       	vfmadd231pd %ymm1,%ymm0,%ymm2
  404cad:	c4 e2 f5 b8 c2       	vfmadd231pd %ymm2,%ymm1,%ymm0
  404cb2:	c4 e2 ed b8 c8       	vfmadd231pd %ymm0,%ymm2,%ymm1
  404cb7:	c4 e2 fd b8 d1       	vfmadd231pd %ymm1,%ymm0,%ymm2
  404cbc:	c4 e2 f5 b8 c2       	vfmadd231pd %ymm2,%ymm1,%ymm0
  404cc1:	c4 e2 ed b8 c8       	vfmadd231pd %ymm0,%ymm2,%ymm1
  404cc6:	c4 e2 fd b8 d1       	vfmadd231pd %ymm1,%ymm0,%ymm2
  404ccb:	c4 e2 f5 b8 c2       	vfmadd231pd %ymm2,%ymm1,%ymm0
  404cd0:	c4 e2 ed b8 c8       	vfmadd231pd %ymm0,%ymm2,%ymm1
  404cd5:	c4 e2 fd b8 d1       	vfmadd231pd %ymm1,%ymm0,%ymm2
  404cda:	c4 e2 f5 b8 c2       	vfmadd231pd %ymm2,%ymm1,%ymm0
  404cdf:	c4 e2 ed b8 c8       	vfmadd231pd %ymm0,%ymm2,%ymm1
  404ce4:	c4 e2 fd b8 d1       	vfmadd231pd %ymm1,%ymm0,%ymm2
  404ce9:	c4 e2 f5 b8 c2       	vfmadd231pd %ymm2,%ymm1,%ymm0
  404cee:	c4 e2 ed b8 c8       	vfmadd231pd %ymm0,%ymm2,%ymm1
  404cf3:	c4 e2 fd b8 d1       	vfmadd231pd %ymm1,%ymm0,%ymm2
  404cf8:	c4 e2 f5 b8 c2       	vfmadd231pd %ymm2,%ymm1,%ymm0
  404cfd:	c4 e2 ed b8 c8       	vfmadd231pd %ymm0,%ymm2,%ymm1
  404d02:	c4 e2 fd b8 d1       	vfmadd231pd %ymm1,%ymm0,%ymm2
  404d07:	c4 e2 f5 b8 c2       	vfmadd231pd %ymm2,%ymm1,%ymm0
  404d0c:	c4 e2 ed b8 c8       	vfmadd231pd %ymm0,%ymm2,%ymm1
  404d11:	c4 e2 fd b8 d1       	vfmadd231pd %ymm1,%ymm0,%ymm2
  404d16:	c4 e2 f5 b8 c2       	vfmadd231pd %ymm2,%ymm1,%ymm0
  404d1b:	c4 e2 ed b8 c8       	vfmadd231pd %ymm0,%ymm2,%ymm1
  404d20:	c4 e2 fd b8 d1       	vfmadd231pd %ymm1,%ymm0,%ymm2
  404d25:	c4 e2 f5 b8 c2       	vfmadd231pd %ymm2,%ymm1,%ymm0
  404d2a:	c4 e2 ed b8 c8       	vfmadd231pd %ymm0,%ymm2,%ymm1
  404d2f:	c4 e2 fd b8 d1       	vfmadd231pd %ymm1,%ymm0,%ymm2
  404d34:	c4 e2 f5 b8 c2       	vfmadd231pd %ymm2,%ymm1,%ymm0
  404d39:	c4 e2 ed b8 c8       	vfmadd231pd %ymm0,%ymm2,%ymm1
  404d3e:	c4 e2 fd b8 d1       	vfmadd231pd %ymm1,%ymm0,%ymm2
  404d43:	c4 e2 f5 b8 c2       	vfmadd231pd %ymm2,%ymm1,%ymm0
  404d48:	c4 e2 ed b8 c8       	vfmadd231pd %ymm0,%ymm2,%ymm1
  404d4d:	c4 e2 fd b8 d1       	vfmadd231pd %ymm1,%ymm0,%ymm2
  404d52:	c4 e2 f5 b8 c2       	vfmadd231pd %ymm2,%ymm1,%ymm0
  404d57:	c4 e2 ed b8 c8       	vfmadd231pd %ymm0,%ymm2,%ymm1
  404d5c:	c4 e2 fd b8 d1       	vfmadd231pd %ymm1,%ymm0,%ymm2
  404d61:	c4 e2 f5 b8 c2       	vfmadd231pd %ymm2,%ymm1,%ymm0
  404d66:	c4 e2 ed b8 c8       	vfmadd231pd %ymm0,%ymm2,%ymm1
  404d6b:	c4 e2 fd b8 d1       	vfmadd231pd %ymm1,%ymm0,%ymm2
  404d70:	c4 e2 f5 b8 c2       	vfmadd231pd %ymm2,%ymm1,%ymm0
  404d75:	c4 e2 ed b8 c8       	vfmadd231pd %ymm0,%ymm2,%ymm1
  404d7a:	c4 e2 fd b8 d1       	vfmadd231pd %ymm1,%ymm0,%ymm2
  404d7f:	c4 e2 f5 b8 c2       	vfmadd231pd %ymm2,%ymm1,%ymm0
  404d84:	c4 e2 ed b8 c8       	vfmadd231pd %ymm0,%ymm2,%ymm1
  404d89:	c4 e2 fd b8 d1       	vfmadd231pd %ymm1,%ymm0,%ymm2
  404d8e:	c4 e2 f5 b8 c2       	vfmadd231pd %ymm2,%ymm1,%ymm0
  404d93:	c4 e2 ed b8 c8       	vfmadd231pd %ymm0,%ymm2,%ymm1
  404d98:	c4 e2 fd b8 d1       	vfmadd231pd %ymm1,%ymm0,%ymm2
  404d9d:	c4 e2 f5 b8 c2       	vfmadd231pd %ymm2,%ymm1,%ymm0
  404da2:	c4 e2 ed b8 c8       	vfmadd231pd %ymm0,%ymm2,%ymm1
  404da7:	c4 e2 fd b8 d1       	vfmadd231pd %ymm1,%ymm0,%ymm2
  404dac:	c4 e2 f5 b8 c2       	vfmadd231pd %ymm2,%ymm1,%ymm0
  404db1:	c4 e2 ed b8 c8       	vfmadd231pd %ymm0,%ymm2,%ymm1
  404db6:	c4 e2 fd b8 d1       	vfmadd231pd %ymm1,%ymm0,%ymm2
  404dbb:	c4 e2 f5 b8 c2       	vfmadd231pd %ymm2,%ymm1,%ymm0
  404dc0:	c4 e2 ed b8 c8       	vfmadd231pd %ymm0,%ymm2,%ymm1
  404dc5:	c4 e2 fd b8 d1       	vfmadd231pd %ymm1,%ymm0,%ymm2
  404dca:	c4 e2 f5 b8 c2       	vfmadd231pd %ymm2,%ymm1,%ymm0
  404dcf:	c4 e2 ed b8 c8       	vfmadd231pd %ymm0,%ymm2,%ymm1
  404dd4:	c4 e2 fd b8 d1       	vfmadd231pd %ymm1,%ymm0,%ymm2
  404dd9:	c4 e2 f5 b8 c2       	vfmadd231pd %ymm2,%ymm1,%ymm0
  404dde:	c4 e2 ed b8 c8       	vfmadd231pd %ymm0,%ymm2,%ymm1
  404de3:	c4 e2 fd b8 d1       	vfmadd231pd %ymm1,%ymm0,%ymm2
  404de8:	c4 e2 f5 b8 c2       	vfmadd231pd %ymm2,%ymm1,%ymm0
  404ded:	c4 e2 ed b8 c8       	vfmadd231pd %ymm0,%ymm2,%ymm1
  404df2:	c4 e2 fd b8 d1       	vfmadd231pd %ymm1,%ymm0,%ymm2
  404df7:	c4 e2 f5 b8 c2       	vfmadd231pd %ymm2,%ymm1,%ymm0
  404dfc:	c4 e2 ed b8 c8       	vfmadd231pd %ymm0,%ymm2,%ymm1
  404e01:	c4 e2 fd b8 d1       	vfmadd231pd %ymm1,%ymm0,%ymm2
  404e06:	c4 e2 f5 b8 c2       	vfmadd231pd %ymm2,%ymm1,%ymm0
  404e0b:	c4 e2 ed b8 c8       	vfmadd231pd %ymm0,%ymm2,%ymm1
  404e10:	c4 e2 fd b8 d1       	vfmadd231pd %ymm1,%ymm0,%ymm2
  404e15:	c4 e2 f5 b8 c2       	vfmadd231pd %ymm2,%ymm1,%ymm0
  404e1a:	c4 e2 ed b8 c8       	vfmadd231pd %ymm0,%ymm2,%ymm1
  404e1f:	c4 e2 fd b8 d1       	vfmadd231pd %ymm1,%ymm0,%ymm2
  404e24:	c4 e2 f5 b8 c2       	vfmadd231pd %ymm2,%ymm1,%ymm0
  404e29:	c4 e2 ed b8 c8       	vfmadd231pd %ymm0,%ymm2,%ymm1
  404e2e:	c4 e2 fd b8 d1       	vfmadd231pd %ymm1,%ymm0,%ymm2
  404e33:	c4 e2 f5 b8 c2       	vfmadd231pd %ymm2,%ymm1,%ymm0
  404e38:	c4 e2 ed b8 c8       	vfmadd231pd %ymm0,%ymm2,%ymm1
  404e3d:	c4 e2 fd b8 d1       	vfmadd231pd %ymm1,%ymm0,%ymm2
  404e42:	c4 e2 f5 b8 c2       	vfmadd231pd %ymm2,%ymm1,%ymm0
  404e47:	c4 e2 ed b8 c8       	vfmadd231pd %ymm0,%ymm2,%ymm1
  404e4c:	c4 e2 fd b8 d1       	vfmadd231pd %ymm1,%ymm0,%ymm2
  404e51:	c4 e2 f5 b8 c2       	vfmadd231pd %ymm2,%ymm1,%ymm0
  404e56:	c4 e2 ed b8 c8       	vfmadd231pd %ymm0,%ymm2,%ymm1
  404e5b:	c4 e2 fd b8 d1       	vfmadd231pd %ymm1,%ymm0,%ymm2
  404e60:	c4 e2 f5 b8 c2       	vfmadd231pd %ymm2,%ymm1,%ymm0
  404e65:	c4 e2 ed b8 c8       	vfmadd231pd %ymm0,%ymm2,%ymm1
  404e6a:	c4 e2 fd b8 d1       	vfmadd231pd %ymm1,%ymm0,%ymm2
  404e6f:	c4 e2 f5 b8 c2       	vfmadd231pd %ymm2,%ymm1,%ymm0
  404e74:	c4 e2 ed b8 c8       	vfmadd231pd %ymm0,%ymm2,%ymm1
  404e79:	c4 e2 fd b8 d1       	vfmadd231pd %ymm1,%ymm0,%ymm2
  404e7e:	c4 e2 f5 b8 c2       	vfmadd231pd %ymm2,%ymm1,%ymm0
  404e83:	c4 e2 ed b8 c8       	vfmadd231pd %ymm0,%ymm2,%ymm1
  404e88:	c4 e2 fd b8 d1       	vfmadd231pd %ymm1,%ymm0,%ymm2
  404e8d:	c4 e2 f5 b8 c2       	vfmadd231pd %ymm2,%ymm1,%ymm0
  404e92:	c4 e2 ed b8 c8       	vfmadd231pd %ymm0,%ymm2,%ymm1
  404e97:	c4 e2 fd b8 d1       	vfmadd231pd %ymm1,%ymm0,%ymm2
  404e9c:	c4 e2 f5 b8 c2       	vfmadd231pd %ymm2,%ymm1,%ymm0
  404ea1:	c4 e2 ed b8 c8       	vfmadd231pd %ymm0,%ymm2,%ymm1
  404ea6:	c4 e2 fd b8 d1       	vfmadd231pd %ymm1,%ymm0,%ymm2
  404eab:	c4 e2 f5 b8 c2       	vfmadd231pd %ymm2,%ymm1,%ymm0
  404eb0:	c4 e2 ed b8 c8       	vfmadd231pd %ymm0,%ymm2,%ymm1
  404eb5:	c4 e2 fd b8 d1       	vfmadd231pd %ymm1,%ymm0,%ymm2
  404eba:	c4 e2 f5 b8 c2       	vfmadd231pd %ymm2,%ymm1,%ymm0
  404ebf:	c4 e2 ed b8 c8       	vfmadd231pd %ymm0,%ymm2,%ymm1
  404ec4:	c4 e2 fd b8 d1       	vfmadd231pd %ymm1,%ymm0,%ymm2
  404ec9:	c4 e2 f5 b8 c2       	vfmadd231pd %ymm2,%ymm1,%ymm0
  404ece:	c4 e2 ed b8 c8       	vfmadd231pd %ymm0,%ymm2,%ymm1
  404ed3:	c4 e2 fd b8 d1       	vfmadd231pd %ymm1,%ymm0,%ymm2
  404ed8:	c4 e2 f5 b8 c2       	vfmadd231pd %ymm2,%ymm1,%ymm0
  404edd:	c4 e2 ed b8 c8       	vfmadd231pd %ymm0,%ymm2,%ymm1
  404ee2:	c4 e2 fd b8 d1       	vfmadd231pd %ymm1,%ymm0,%ymm2
  404ee7:	c4 e2 f5 b8 c2       	vfmadd231pd %ymm2,%ymm1,%ymm0
  404eec:	c4 e2 ed b8 c8       	vfmadd231pd %ymm0,%ymm2,%ymm1
  404ef1:	c4 e2 fd b8 d1       	vfmadd231pd %ymm1,%ymm0,%ymm2
  404ef6:	c4 e2 f5 b8 c2       	vfmadd231pd %ymm2,%ymm1,%ymm0
  404efb:	c4 e2 ed b8 c8       	vfmadd231pd %ymm0,%ymm2,%ymm1
  404f00:	c4 e2 fd b8 d1       	vfmadd231pd %ymm1,%ymm0,%ymm2
  404f05:	c4 e2 f5 b8 c2       	vfmadd231pd %ymm2,%ymm1,%ymm0
  404f0a:	c4 e2 ed b8 c8       	vfmadd231pd %ymm0,%ymm2,%ymm1
  404f0f:	c4 e2 fd b8 d1       	vfmadd231pd %ymm1,%ymm0,%ymm2
  404f14:	c4 e2 f5 b8 c2       	vfmadd231pd %ymm2,%ymm1,%ymm0
  404f19:	c4 e2 ed b8 c8       	vfmadd231pd %ymm0,%ymm2,%ymm1
  404f1e:	c4 e2 fd b8 d1       	vfmadd231pd %ymm1,%ymm0,%ymm2
  404f23:	c4 e2 f5 b8 c2       	vfmadd231pd %ymm2,%ymm1,%ymm0
  404f28:	c4 e2 ed b8 c8       	vfmadd231pd %ymm0,%ymm2,%ymm1
  404f2d:	c4 e2 fd b8 d1       	vfmadd231pd %ymm1,%ymm0,%ymm2
  404f32:	c4 e2 f5 b8 c2       	vfmadd231pd %ymm2,%ymm1,%ymm0
  404f37:	c4 e2 ed b8 c8       	vfmadd231pd %ymm0,%ymm2,%ymm1
  404f3c:	c4 e2 fd b8 d1       	vfmadd231pd %ymm1,%ymm0,%ymm2
  404f41:	c4 e2 f5 b8 c2       	vfmadd231pd %ymm2,%ymm1,%ymm0
  404f46:	c4 e2 ed b8 c8       	vfmadd231pd %ymm0,%ymm2,%ymm1
  404f4b:	c4 e2 fd b8 d1       	vfmadd231pd %ymm1,%ymm0,%ymm2
  404f50:	c4 e2 f5 b8 c2       	vfmadd231pd %ymm2,%ymm1,%ymm0
  404f55:	c4 e2 ed b8 c8       	vfmadd231pd %ymm0,%ymm2,%ymm1
  404f5a:	c4 e2 fd b8 d1       	vfmadd231pd %ymm1,%ymm0,%ymm2
  404f5f:	c4 e2 f5 b8 c2       	vfmadd231pd %ymm2,%ymm1,%ymm0
  404f64:	c4 e2 ed b8 c8       	vfmadd231pd %ymm0,%ymm2,%ymm1
  404f69:	c4 e2 fd b8 d1       	vfmadd231pd %ymm1,%ymm0,%ymm2
  404f6e:	c4 e2 f5 b8 c2       	vfmadd231pd %ymm2,%ymm1,%ymm0
  404f73:	c4 e2 ed b8 c8       	vfmadd231pd %ymm0,%ymm2,%ymm1
  404f78:	c4 e2 fd b8 d1       	vfmadd231pd %ymm1,%ymm0,%ymm2
  404f7d:	c4 e2 f5 b8 c2       	vfmadd231pd %ymm2,%ymm1,%ymm0
  404f82:	c4 e2 ed b8 c8       	vfmadd231pd %ymm0,%ymm2,%ymm1
  404f87:	c4 e2 fd b8 d1       	vfmadd231pd %ymm1,%ymm0,%ymm2
  404f8c:	c4 e2 f5 b8 c2       	vfmadd231pd %ymm2,%ymm1,%ymm0
  404f91:	c4 e2 ed b8 c8       	vfmadd231pd %ymm0,%ymm2,%ymm1
  404f96:	c4 e2 fd b8 d1       	vfmadd231pd %ymm1,%ymm0,%ymm2
  404f9b:	c4 e2 f5 b8 c2       	vfmadd231pd %ymm2,%ymm1,%ymm0
  404fa0:	c4 e2 ed b8 c8       	vfmadd231pd %ymm0,%ymm2,%ymm1
  404fa5:	c4 e2 fd b8 d1       	vfmadd231pd %ymm1,%ymm0,%ymm2
  404faa:	c4 e2 f5 b8 c2       	vfmadd231pd %ymm2,%ymm1,%ymm0
  404faf:	c4 e2 ed b8 c8       	vfmadd231pd %ymm0,%ymm2,%ymm1
  404fb4:	c4 e2 fd b8 d1       	vfmadd231pd %ymm1,%ymm0,%ymm2
  404fb9:	c4 e2 f5 b8 c2       	vfmadd231pd %ymm2,%ymm1,%ymm0
  404fbe:	c4 e2 ed b8 c8       	vfmadd231pd %ymm0,%ymm2,%ymm1
  404fc3:	c4 e2 fd b8 d1       	vfmadd231pd %ymm1,%ymm0,%ymm2
  404fc8:	c4 e2 f5 b8 c2       	vfmadd231pd %ymm2,%ymm1,%ymm0
  404fcd:	c4 e2 ed b8 c8       	vfmadd231pd %ymm0,%ymm2,%ymm1
  404fd2:	c4 e2 fd b8 d1       	vfmadd231pd %ymm1,%ymm0,%ymm2
  404fd7:	c4 e2 f5 b8 c2       	vfmadd231pd %ymm2,%ymm1,%ymm0
  404fdc:	c4 e2 ed b8 c8       	vfmadd231pd %ymm0,%ymm2,%ymm1
  404fe1:	c4 e2 fd b8 d1       	vfmadd231pd %ymm1,%ymm0,%ymm2
  404fe6:	c4 e2 f5 b8 c2       	vfmadd231pd %ymm2,%ymm1,%ymm0
  404feb:	c4 e2 ed b8 c8       	vfmadd231pd %ymm0,%ymm2,%ymm1
  404ff0:	c4 e2 fd b8 d1       	vfmadd231pd %ymm1,%ymm0,%ymm2
  404ff5:	c4 e2 f5 b8 c2       	vfmadd231pd %ymm2,%ymm1,%ymm0
  404ffa:	c4 e2 ed b8 c8       	vfmadd231pd %ymm0,%ymm2,%ymm1
  404fff:	c4 e2 fd b8 d1       	vfmadd231pd %ymm1,%ymm0,%ymm2
  405004:	c4 e2 f5 b8 c2       	vfmadd231pd %ymm2,%ymm1,%ymm0
  405009:	c4 e2 ed b8 c8       	vfmadd231pd %ymm0,%ymm2,%ymm1
  40500e:	c4 e2 fd b8 d1       	vfmadd231pd %ymm1,%ymm0,%ymm2
  405013:	c4 e2 f5 b8 c2       	vfmadd231pd %ymm2,%ymm1,%ymm0
  405018:	c4 e2 ed b8 c8       	vfmadd231pd %ymm0,%ymm2,%ymm1
  40501d:	c4 e2 fd b8 d1       	vfmadd231pd %ymm1,%ymm0,%ymm2
  405022:	c4 e2 f5 b8 c2       	vfmadd231pd %ymm2,%ymm1,%ymm0
  405027:	c4 e2 ed b8 c8       	vfmadd231pd %ymm0,%ymm2,%ymm1
  40502c:	c4 e2 fd b8 d1       	vfmadd231pd %ymm1,%ymm0,%ymm2
  405031:	c4 e2 f5 b8 c2       	vfmadd231pd %ymm2,%ymm1,%ymm0
  405036:	c4 e2 ed b8 c8       	vfmadd231pd %ymm0,%ymm2,%ymm1
  40503b:	c4 e2 fd b8 d1       	vfmadd231pd %ymm1,%ymm0,%ymm2
  405040:	c4 e2 f5 b8 c2       	vfmadd231pd %ymm2,%ymm1,%ymm0
  405045:	c4 e2 ed b8 c8       	vfmadd231pd %ymm0,%ymm2,%ymm1
  40504a:	c4 e2 fd b8 d1       	vfmadd231pd %ymm1,%ymm0,%ymm2
  40504f:	c4 e2 f5 b8 c2       	vfmadd231pd %ymm2,%ymm1,%ymm0
  405054:	c4 e2 ed b8 c8       	vfmadd231pd %ymm0,%ymm2,%ymm1
  405059:	c4 e2 fd b8 d1       	vfmadd231pd %ymm1,%ymm0,%ymm2
  40505e:	c4 e2 f5 b8 c2       	vfmadd231pd %ymm2,%ymm1,%ymm0
  405063:	c4 e2 ed b8 c8       	vfmadd231pd %ymm0,%ymm2,%ymm1
  405068:	c4 e2 fd b8 d1       	vfmadd231pd %ymm1,%ymm0,%ymm2
  40506d:	c4 e2 f5 b8 c2       	vfmadd231pd %ymm2,%ymm1,%ymm0
  405072:	c4 e2 ed b8 c8       	vfmadd231pd %ymm0,%ymm2,%ymm1
  405077:	c4 e2 fd b8 d1       	vfmadd231pd %ymm1,%ymm0,%ymm2
  40507c:	c4 e2 f5 b8 c2       	vfmadd231pd %ymm2,%ymm1,%ymm0
  405081:	c4 e2 ed b8 c8       	vfmadd231pd %ymm0,%ymm2,%ymm1
  405086:	c4 e2 fd b8 d1       	vfmadd231pd %ymm1,%ymm0,%ymm2
  40508b:	c4 e2 f5 b8 c2       	vfmadd231pd %ymm2,%ymm1,%ymm0
  405090:	c4 e2 ed b8 c8       	vfmadd231pd %ymm0,%ymm2,%ymm1
  405095:	c4 e2 fd b8 d1       	vfmadd231pd %ymm1,%ymm0,%ymm2
  40509a:	c4 e2 f5 b8 c2       	vfmadd231pd %ymm2,%ymm1,%ymm0
  40509f:	c4 e2 ed b8 c8       	vfmadd231pd %ymm0,%ymm2,%ymm1
  4050a4:	c4 e2 fd b8 d1       	vfmadd231pd %ymm1,%ymm0,%ymm2
  4050a9:	c4 e2 f5 b8 c2       	vfmadd231pd %ymm2,%ymm1,%ymm0
  4050ae:	c4 e2 ed b8 c8       	vfmadd231pd %ymm0,%ymm2,%ymm1
  4050b3:	c4 e2 fd b8 d1       	vfmadd231pd %ymm1,%ymm0,%ymm2
  4050b8:	c4 e2 f5 b8 c2       	vfmadd231pd %ymm2,%ymm1,%ymm0
  4050bd:	c4 e2 ed b8 c8       	vfmadd231pd %ymm0,%ymm2,%ymm1
  4050c2:	c4 e2 fd b8 d1       	vfmadd231pd %ymm1,%ymm0,%ymm2
  4050c7:	c4 e2 f5 b8 c2       	vfmadd231pd %ymm2,%ymm1,%ymm0
  4050cc:	c4 e2 ed b8 c8       	vfmadd231pd %ymm0,%ymm2,%ymm1
  4050d1:	c4 e2 fd b8 d1       	vfmadd231pd %ymm1,%ymm0,%ymm2
  4050d6:	c4 e2 f5 b8 c2       	vfmadd231pd %ymm2,%ymm1,%ymm0
  4050db:	c4 e2 ed b8 c8       	vfmadd231pd %ymm0,%ymm2,%ymm1
  4050e0:	c4 e2 fd b8 d1       	vfmadd231pd %ymm1,%ymm0,%ymm2
  4050e5:	c4 e2 f5 b8 c2       	vfmadd231pd %ymm2,%ymm1,%ymm0
  4050ea:	c4 e2 ed b8 c8       	vfmadd231pd %ymm0,%ymm2,%ymm1
  4050ef:	c4 e2 fd b8 d1       	vfmadd231pd %ymm1,%ymm0,%ymm2
  4050f4:	c4 e2 f5 b8 c2       	vfmadd231pd %ymm2,%ymm1,%ymm0
  4050f9:	c4 e2 ed b8 c8       	vfmadd231pd %ymm0,%ymm2,%ymm1
  4050fe:	c4 e2 fd b8 d1       	vfmadd231pd %ymm1,%ymm0,%ymm2
  405103:	c4 e2 f5 b8 c2       	vfmadd231pd %ymm2,%ymm1,%ymm0
  405108:	c4 e2 ed b8 c8       	vfmadd231pd %ymm0,%ymm2,%ymm1
  40510d:	c4 e2 fd b8 d1       	vfmadd231pd %ymm1,%ymm0,%ymm2
  405112:	c4 e2 f5 b8 c2       	vfmadd231pd %ymm2,%ymm1,%ymm0
  405117:	c4 e2 ed b8 c8       	vfmadd231pd %ymm0,%ymm2,%ymm1
  40511c:	c4 e2 fd b8 d1       	vfmadd231pd %ymm1,%ymm0,%ymm2
  405121:	c4 e2 f5 b8 c2       	vfmadd231pd %ymm2,%ymm1,%ymm0
  405126:	c4 e2 ed b8 c8       	vfmadd231pd %ymm0,%ymm2,%ymm1
  40512b:	c4 e2 fd b8 d1       	vfmadd231pd %ymm1,%ymm0,%ymm2
  405130:	c4 e2 f5 b8 c2       	vfmadd231pd %ymm2,%ymm1,%ymm0
  405135:	c4 e2 ed b8 c8       	vfmadd231pd %ymm0,%ymm2,%ymm1
  40513a:	c4 e2 fd b8 d1       	vfmadd231pd %ymm1,%ymm0,%ymm2
  40513f:	c4 e2 f5 b8 c2       	vfmadd231pd %ymm2,%ymm1,%ymm0
  405144:	c4 e2 ed b8 c8       	vfmadd231pd %ymm0,%ymm2,%ymm1
  405149:	c4 e2 fd b8 d1       	vfmadd231pd %ymm1,%ymm0,%ymm2
  40514e:	c4 e2 f5 b8 c2       	vfmadd231pd %ymm2,%ymm1,%ymm0
  405153:	c4 e2 ed b8 c8       	vfmadd231pd %ymm0,%ymm2,%ymm1
  405158:	c4 e2 fd b8 d1       	vfmadd231pd %ymm1,%ymm0,%ymm2
  40515d:	c4 e2 f5 b8 c2       	vfmadd231pd %ymm2,%ymm1,%ymm0
  405162:	c4 e2 ed b8 c8       	vfmadd231pd %ymm0,%ymm2,%ymm1
  405167:	c4 e2 fd b8 d1       	vfmadd231pd %ymm1,%ymm0,%ymm2
  40516c:	c4 e2 f5 b8 c2       	vfmadd231pd %ymm2,%ymm1,%ymm0
  405171:	c4 e2 ed b8 c8       	vfmadd231pd %ymm0,%ymm2,%ymm1
  405176:	c4 e2 fd b8 d1       	vfmadd231pd %ymm1,%ymm0,%ymm2
  40517b:	c4 e2 f5 b8 c2       	vfmadd231pd %ymm2,%ymm1,%ymm0
  405180:	c4 e2 ed b8 c8       	vfmadd231pd %ymm0,%ymm2,%ymm1
  405185:	c4 e2 fd b8 d1       	vfmadd231pd %ymm1,%ymm0,%ymm2
  40518a:	c4 e2 f5 b8 c2       	vfmadd231pd %ymm2,%ymm1,%ymm0
  40518f:	c4 e2 ed b8 c8       	vfmadd231pd %ymm0,%ymm2,%ymm1
  405194:	c4 e2 fd b8 d1       	vfmadd231pd %ymm1,%ymm0,%ymm2
  405199:	c4 e2 f5 b8 c2       	vfmadd231pd %ymm2,%ymm1,%ymm0
  40519e:	c4 e2 ed b8 c8       	vfmadd231pd %ymm0,%ymm2,%ymm1
  4051a3:	c4 e2 fd b8 d1       	vfmadd231pd %ymm1,%ymm0,%ymm2
  4051a8:	c4 e2 f5 b8 c2       	vfmadd231pd %ymm2,%ymm1,%ymm0
  4051ad:	c4 e2 ed b8 c8       	vfmadd231pd %ymm0,%ymm2,%ymm1
  4051b2:	c4 e2 fd b8 d1       	vfmadd231pd %ymm1,%ymm0,%ymm2
  4051b7:	c4 e2 f5 b8 c2       	vfmadd231pd %ymm2,%ymm1,%ymm0
  4051bc:	c4 e2 ed b8 c8       	vfmadd231pd %ymm0,%ymm2,%ymm1
  4051c1:	c4 e2 fd b8 d1       	vfmadd231pd %ymm1,%ymm0,%ymm2
  4051c6:	c4 e2 f5 b8 c2       	vfmadd231pd %ymm2,%ymm1,%ymm0
  4051cb:	c4 e2 ed b8 c8       	vfmadd231pd %ymm0,%ymm2,%ymm1
  4051d0:	c4 e2 fd b8 d1       	vfmadd231pd %ymm1,%ymm0,%ymm2
  4051d5:	c4 e2 f5 b8 c2       	vfmadd231pd %ymm2,%ymm1,%ymm0
  4051da:	c4 e2 ed b8 c8       	vfmadd231pd %ymm0,%ymm2,%ymm1
  4051df:	c4 e2 fd b8 d1       	vfmadd231pd %ymm1,%ymm0,%ymm2
  4051e4:	c4 e2 f5 b8 c2       	vfmadd231pd %ymm2,%ymm1,%ymm0
  4051e9:	c4 e2 ed b8 c8       	vfmadd231pd %ymm0,%ymm2,%ymm1
  4051ee:	c4 e2 fd b8 d1       	vfmadd231pd %ymm1,%ymm0,%ymm2
  4051f3:	c4 e2 f5 b8 c2       	vfmadd231pd %ymm2,%ymm1,%ymm0
  4051f8:	c4 e2 ed b8 c8       	vfmadd231pd %ymm0,%ymm2,%ymm1
  4051fd:	c4 e2 fd b8 d1       	vfmadd231pd %ymm1,%ymm0,%ymm2
  405202:	c4 e2 f5 b8 c2       	vfmadd231pd %ymm2,%ymm1,%ymm0
  405207:	c4 e2 ed b8 c8       	vfmadd231pd %ymm0,%ymm2,%ymm1
  40520c:	c4 e2 fd b8 d1       	vfmadd231pd %ymm1,%ymm0,%ymm2
  405211:	c4 e2 f5 b8 c2       	vfmadd231pd %ymm2,%ymm1,%ymm0
  405216:	c4 e2 ed b8 c8       	vfmadd231pd %ymm0,%ymm2,%ymm1
  40521b:	c4 e2 fd b8 d1       	vfmadd231pd %ymm1,%ymm0,%ymm2
  405220:	c4 e2 f5 b8 c2       	vfmadd231pd %ymm2,%ymm1,%ymm0
  405225:	c4 e2 ed b8 c8       	vfmadd231pd %ymm0,%ymm2,%ymm1
  40522a:	c4 e2 fd b8 d1       	vfmadd231pd %ymm1,%ymm0,%ymm2
  40522f:	c4 e2 f5 b8 c2       	vfmadd231pd %ymm2,%ymm1,%ymm0
  405234:	c4 e2 ed b8 c8       	vfmadd231pd %ymm0,%ymm2,%ymm1
  405239:	c4 e2 fd b8 d1       	vfmadd231pd %ymm1,%ymm0,%ymm2
  40523e:	c4 e2 f5 b8 c2       	vfmadd231pd %ymm2,%ymm1,%ymm0
  405243:	c4 e2 ed b8 c8       	vfmadd231pd %ymm0,%ymm2,%ymm1
  405248:	c4 e2 fd b8 d1       	vfmadd231pd %ymm1,%ymm0,%ymm2
  40524d:	c4 e2 f5 b8 c2       	vfmadd231pd %ymm2,%ymm1,%ymm0
  405252:	c4 e2 ed b8 c8       	vfmadd231pd %ymm0,%ymm2,%ymm1
  405257:	c4 e2 fd b8 d1       	vfmadd231pd %ymm1,%ymm0,%ymm2
  40525c:	c4 e2 f5 b8 c2       	vfmadd231pd %ymm2,%ymm1,%ymm0
  405261:	c4 e2 ed b8 c8       	vfmadd231pd %ymm0,%ymm2,%ymm1
  405266:	c4 e2 fd b8 d1       	vfmadd231pd %ymm1,%ymm0,%ymm2
  40526b:	c4 e2 f5 b8 c2       	vfmadd231pd %ymm2,%ymm1,%ymm0
  405270:	c4 e2 ed b8 c8       	vfmadd231pd %ymm0,%ymm2,%ymm1
  405275:	c4 e2 fd b8 d1       	vfmadd231pd %ymm1,%ymm0,%ymm2
  40527a:	c4 e2 f5 b8 c2       	vfmadd231pd %ymm2,%ymm1,%ymm0
  40527f:	c4 e2 ed b8 c8       	vfmadd231pd %ymm0,%ymm2,%ymm1
  405284:	c4 e2 fd b8 d1       	vfmadd231pd %ymm1,%ymm0,%ymm2
  405289:	c4 e2 f5 b8 c2       	vfmadd231pd %ymm2,%ymm1,%ymm0
  40528e:	c4 e2 ed b8 c8       	vfmadd231pd %ymm0,%ymm2,%ymm1
  405293:	c4 e2 fd b8 d1       	vfmadd231pd %ymm1,%ymm0,%ymm2
  405298:	c4 e2 f5 b8 c2       	vfmadd231pd %ymm2,%ymm1,%ymm0
  40529d:	c4 e2 ed b8 c8       	vfmadd231pd %ymm0,%ymm2,%ymm1
  4052a2:	c4 e2 fd b8 d1       	vfmadd231pd %ymm1,%ymm0,%ymm2
  4052a7:	c4 e2 f5 b8 c2       	vfmadd231pd %ymm2,%ymm1,%ymm0
  4052ac:	c4 e2 ed b8 c8       	vfmadd231pd %ymm0,%ymm2,%ymm1
  4052b1:	c4 e2 fd b8 d1       	vfmadd231pd %ymm1,%ymm0,%ymm2
  4052b6:	c4 e2 f5 b8 c2       	vfmadd231pd %ymm2,%ymm1,%ymm0
  4052bb:	c4 e2 ed b8 c8       	vfmadd231pd %ymm0,%ymm2,%ymm1
  4052c0:	c4 e2 fd b8 d1       	vfmadd231pd %ymm1,%ymm0,%ymm2
  4052c5:	c4 e2 f5 b8 c2       	vfmadd231pd %ymm2,%ymm1,%ymm0
  4052ca:	c4 e2 ed b8 c8       	vfmadd231pd %ymm0,%ymm2,%ymm1
  4052cf:	c4 e2 fd b8 d1       	vfmadd231pd %ymm1,%ymm0,%ymm2
  4052d4:	c4 e2 f5 b8 c2       	vfmadd231pd %ymm2,%ymm1,%ymm0
  4052d9:	c4 e2 ed b8 c8       	vfmadd231pd %ymm0,%ymm2,%ymm1
  4052de:	c4 e2 fd b8 d1       	vfmadd231pd %ymm1,%ymm0,%ymm2
  4052e3:	c4 e2 f5 b8 c2       	vfmadd231pd %ymm2,%ymm1,%ymm0
  4052e8:	c4 e2 ed b8 c8       	vfmadd231pd %ymm0,%ymm2,%ymm1
  4052ed:	c4 e2 fd b8 d1       	vfmadd231pd %ymm1,%ymm0,%ymm2
  4052f2:	c4 e2 f5 b8 c2       	vfmadd231pd %ymm2,%ymm1,%ymm0
  4052f7:	c4 e2 ed b8 c8       	vfmadd231pd %ymm0,%ymm2,%ymm1
  4052fc:	c4 e2 fd b8 d1       	vfmadd231pd %ymm1,%ymm0,%ymm2
  405301:	c4 e2 f5 b8 c2       	vfmadd231pd %ymm2,%ymm1,%ymm0
