
latency_simd_add.x:     file format elf64-x86-64


Disassembly of section .init:

0000000000400468 <_init>:
  400468:	f3 0f 1e fa          	endbr64 
  40046c:	48 83 ec 08          	sub    $0x8,%rsp
  400470:	48 8b 05 79 3b 20 00 	mov    0x203b79(%rip),%rax        # 603ff0 <__gmon_start__@Base>
  400477:	48 85 c0             	test   %rax,%rax
  40047a:	74 02                	je     40047e <_init+0x16>
  40047c:	ff d0                	callq  *%rax
  40047e:	48 83 c4 08          	add    $0x8,%rsp
  400482:	c3                   	retq   

Disassembly of section .plt:

0000000000400490 <.plt>:
  400490:	ff 35 72 3b 20 00    	pushq  0x203b72(%rip)        # 604008 <_GLOBAL_OFFSET_TABLE_+0x8>
  400496:	ff 25 74 3b 20 00    	jmpq   *0x203b74(%rip)        # 604010 <_GLOBAL_OFFSET_TABLE_+0x10>
  40049c:	0f 1f 40 00          	nopl   0x0(%rax)

00000000004004a0 <printf@plt>:
  4004a0:	ff 25 72 3b 20 00    	jmpq   *0x203b72(%rip)        # 604018 <printf@GLIBC_2.2.5>
  4004a6:	68 00 00 00 00       	pushq  $0x0
  4004ab:	e9 e0 ff ff ff       	jmpq   400490 <.plt>

Disassembly of section .text:

00000000004004b0 <main>:
  4004b0:	4c 8d 54 24 08       	lea    0x8(%rsp),%r10
  4004b5:	48 83 e4 e0          	and    $0xffffffffffffffe0,%rsp
  4004b9:	bf 64 00 00 00       	mov    $0x64,%edi
  4004be:	c5 fd 28 05 7a 31 00 	vmovapd 0x317a(%rip),%ymm0        # 403640 <__dso_handle+0x58>
  4004c5:	00 
  4004c6:	41 ff 72 f8          	pushq  -0x8(%r10)
  4004ca:	55                   	push   %rbp
  4004cb:	48 89 e5             	mov    %rsp,%rbp
  4004ce:	41 52                	push   %r10
  4004d0:	53                   	push   %rbx
  4004d1:	31 db                	xor    %ebx,%ebx
  4004d3:	0f 1f 44 00 00       	nopl   0x0(%rax,%rax,1)
  4004d8:	0f 31                	rdtsc  
  4004da:	89 d1                	mov    %edx,%ecx
  4004dc:	89 c6                	mov    %eax,%esi
  4004de:	c5 fd 58 c0          	vaddpd %ymm0,%ymm0,%ymm0
  4004e2:	c5 fd 58 c0          	vaddpd %ymm0,%ymm0,%ymm0
  4004e6:	c5 fd 58 c0          	vaddpd %ymm0,%ymm0,%ymm0
  4004ea:	c5 fd 58 c0          	vaddpd %ymm0,%ymm0,%ymm0
  4004ee:	c5 fd 58 c0          	vaddpd %ymm0,%ymm0,%ymm0
  4004f2:	c5 fd 58 c0          	vaddpd %ymm0,%ymm0,%ymm0
  4004f6:	c5 fd 58 c0          	vaddpd %ymm0,%ymm0,%ymm0
  4004fa:	c5 fd 58 c0          	vaddpd %ymm0,%ymm0,%ymm0
  4004fe:	c5 fd 58 c0          	vaddpd %ymm0,%ymm0,%ymm0
  400502:	c5 fd 58 c0          	vaddpd %ymm0,%ymm0,%ymm0
  400506:	c5 fd 58 c0          	vaddpd %ymm0,%ymm0,%ymm0
  40050a:	c5 fd 58 c0          	vaddpd %ymm0,%ymm0,%ymm0
  40050e:	c5 fd 58 c0          	vaddpd %ymm0,%ymm0,%ymm0
  400512:	c5 fd 58 c0          	vaddpd %ymm0,%ymm0,%ymm0
  400516:	c5 fd 58 c0          	vaddpd %ymm0,%ymm0,%ymm0
  40051a:	c5 fd 58 c0          	vaddpd %ymm0,%ymm0,%ymm0
  40051e:	c5 fd 58 c0          	vaddpd %ymm0,%ymm0,%ymm0
  400522:	c5 fd 58 c0          	vaddpd %ymm0,%ymm0,%ymm0
  400526:	c5 fd 58 c0          	vaddpd %ymm0,%ymm0,%ymm0
  40052a:	c5 fd 58 c0          	vaddpd %ymm0,%ymm0,%ymm0
  40052e:	c5 fd 58 c0          	vaddpd %ymm0,%ymm0,%ymm0
  400532:	c5 fd 58 c0          	vaddpd %ymm0,%ymm0,%ymm0
  400536:	c5 fd 58 c0          	vaddpd %ymm0,%ymm0,%ymm0
  40053a:	c5 fd 58 c0          	vaddpd %ymm0,%ymm0,%ymm0
  40053e:	c5 fd 58 c0          	vaddpd %ymm0,%ymm0,%ymm0
  400542:	c5 fd 58 c0          	vaddpd %ymm0,%ymm0,%ymm0
  400546:	c5 fd 58 c0          	vaddpd %ymm0,%ymm0,%ymm0
  40054a:	c5 fd 58 c0          	vaddpd %ymm0,%ymm0,%ymm0
  40054e:	c5 fd 58 c0          	vaddpd %ymm0,%ymm0,%ymm0
  400552:	c5 fd 58 c0          	vaddpd %ymm0,%ymm0,%ymm0
  400556:	c5 fd 58 c0          	vaddpd %ymm0,%ymm0,%ymm0
  40055a:	c5 fd 58 c0          	vaddpd %ymm0,%ymm0,%ymm0
  40055e:	c5 fd 58 c0          	vaddpd %ymm0,%ymm0,%ymm0
  400562:	c5 fd 58 c0          	vaddpd %ymm0,%ymm0,%ymm0
  400566:	c5 fd 58 c0          	vaddpd %ymm0,%ymm0,%ymm0
  40056a:	c5 fd 58 c0          	vaddpd %ymm0,%ymm0,%ymm0
  40056e:	c5 fd 58 c0          	vaddpd %ymm0,%ymm0,%ymm0
  400572:	c5 fd 58 c0          	vaddpd %ymm0,%ymm0,%ymm0
  400576:	c5 fd 58 c0          	vaddpd %ymm0,%ymm0,%ymm0
  40057a:	c5 fd 58 c0          	vaddpd %ymm0,%ymm0,%ymm0
  40057e:	c5 fd 58 c0          	vaddpd %ymm0,%ymm0,%ymm0
  400582:	c5 fd 58 c0          	vaddpd %ymm0,%ymm0,%ymm0
  400586:	c5 fd 58 c0          	vaddpd %ymm0,%ymm0,%ymm0
  40058a:	c5 fd 58 c0          	vaddpd %ymm0,%ymm0,%ymm0
  40058e:	c5 fd 58 c0          	vaddpd %ymm0,%ymm0,%ymm0
  400592:	c5 fd 58 c0          	vaddpd %ymm0,%ymm0,%ymm0
  400596:	c5 fd 58 c0          	vaddpd %ymm0,%ymm0,%ymm0
  40059a:	c5 fd 58 c0          	vaddpd %ymm0,%ymm0,%ymm0
  40059e:	c5 fd 58 c0          	vaddpd %ymm0,%ymm0,%ymm0
  4005a2:	c5 fd 58 c0          	vaddpd %ymm0,%ymm0,%ymm0
  4005a6:	c5 fd 58 c0          	vaddpd %ymm0,%ymm0,%ymm0
  4005aa:	c5 fd 58 c0          	vaddpd %ymm0,%ymm0,%ymm0
  4005ae:	c5 fd 58 c0          	vaddpd %ymm0,%ymm0,%ymm0
  4005b2:	c5 fd 58 c0          	vaddpd %ymm0,%ymm0,%ymm0
  4005b6:	c5 fd 58 c0          	vaddpd %ymm0,%ymm0,%ymm0
  4005ba:	c5 fd 58 c0          	vaddpd %ymm0,%ymm0,%ymm0
  4005be:	c5 fd 58 c0          	vaddpd %ymm0,%ymm0,%ymm0
  4005c2:	c5 fd 58 c0          	vaddpd %ymm0,%ymm0,%ymm0
  4005c6:	c5 fd 58 c0          	vaddpd %ymm0,%ymm0,%ymm0
  4005ca:	c5 fd 58 c0          	vaddpd %ymm0,%ymm0,%ymm0
  4005ce:	c5 fd 58 c0          	vaddpd %ymm0,%ymm0,%ymm0
  4005d2:	c5 fd 58 c0          	vaddpd %ymm0,%ymm0,%ymm0
  4005d6:	c5 fd 58 c0          	vaddpd %ymm0,%ymm0,%ymm0
  4005da:	c5 fd 58 c0          	vaddpd %ymm0,%ymm0,%ymm0
  4005de:	c5 fd 58 c0          	vaddpd %ymm0,%ymm0,%ymm0
  4005e2:	c5 fd 58 c0          	vaddpd %ymm0,%ymm0,%ymm0
  4005e6:	c5 fd 58 c0          	vaddpd %ymm0,%ymm0,%ymm0
  4005ea:	c5 fd 58 c0          	vaddpd %ymm0,%ymm0,%ymm0
  4005ee:	c5 fd 58 c0          	vaddpd %ymm0,%ymm0,%ymm0
  4005f2:	c5 fd 58 c0          	vaddpd %ymm0,%ymm0,%ymm0
  4005f6:	c5 fd 58 c0          	vaddpd %ymm0,%ymm0,%ymm0
  4005fa:	c5 fd 58 c0          	vaddpd %ymm0,%ymm0,%ymm0
  4005fe:	c5 fd 58 c0          	vaddpd %ymm0,%ymm0,%ymm0
  400602:	c5 fd 58 c0          	vaddpd %ymm0,%ymm0,%ymm0
  400606:	c5 fd 58 c0          	vaddpd %ymm0,%ymm0,%ymm0
  40060a:	c5 fd 58 c0          	vaddpd %ymm0,%ymm0,%ymm0
  40060e:	c5 fd 58 c0          	vaddpd %ymm0,%ymm0,%ymm0
  400612:	c5 fd 58 c0          	vaddpd %ymm0,%ymm0,%ymm0
  400616:	c5 fd 58 c0          	vaddpd %ymm0,%ymm0,%ymm0
  40061a:	c5 fd 58 c0          	vaddpd %ymm0,%ymm0,%ymm0
  40061e:	c5 fd 58 c0          	vaddpd %ymm0,%ymm0,%ymm0
  400622:	c5 fd 58 c0          	vaddpd %ymm0,%ymm0,%ymm0
  400626:	c5 fd 58 c0          	vaddpd %ymm0,%ymm0,%ymm0
  40062a:	c5 fd 58 c0          	vaddpd %ymm0,%ymm0,%ymm0
  40062e:	c5 fd 58 c0          	vaddpd %ymm0,%ymm0,%ymm0
  400632:	c5 fd 58 c0          	vaddpd %ymm0,%ymm0,%ymm0
  400636:	c5 fd 58 c0          	vaddpd %ymm0,%ymm0,%ymm0
  40063a:	c5 fd 58 c0          	vaddpd %ymm0,%ymm0,%ymm0
  40063e:	c5 fd 58 c0          	vaddpd %ymm0,%ymm0,%ymm0
  400642:	c5 fd 58 c0          	vaddpd %ymm0,%ymm0,%ymm0
  400646:	c5 fd 58 c0          	vaddpd %ymm0,%ymm0,%ymm0
  40064a:	c5 fd 58 c0          	vaddpd %ymm0,%ymm0,%ymm0
  40064e:	c5 fd 58 c0          	vaddpd %ymm0,%ymm0,%ymm0
  400652:	c5 fd 58 c0          	vaddpd %ymm0,%ymm0,%ymm0
  400656:	c5 fd 58 c0          	vaddpd %ymm0,%ymm0,%ymm0
  40065a:	c5 fd 58 c0          	vaddpd %ymm0,%ymm0,%ymm0
  40065e:	c5 fd 58 c0          	vaddpd %ymm0,%ymm0,%ymm0
  400662:	c5 fd 58 c0          	vaddpd %ymm0,%ymm0,%ymm0
  400666:	c5 fd 58 c0          	vaddpd %ymm0,%ymm0,%ymm0
  40066a:	c5 fd 58 c0          	vaddpd %ymm0,%ymm0,%ymm0
  40066e:	c5 fd 58 c0          	vaddpd %ymm0,%ymm0,%ymm0
  400672:	c5 fd 58 c0          	vaddpd %ymm0,%ymm0,%ymm0
  400676:	c5 fd 58 c0          	vaddpd %ymm0,%ymm0,%ymm0
  40067a:	c5 fd 58 c0          	vaddpd %ymm0,%ymm0,%ymm0
  40067e:	c5 fd 58 c0          	vaddpd %ymm0,%ymm0,%ymm0
  400682:	c5 fd 58 c0          	vaddpd %ymm0,%ymm0,%ymm0
  400686:	c5 fd 58 c0          	vaddpd %ymm0,%ymm0,%ymm0
  40068a:	c5 fd 58 c0          	vaddpd %ymm0,%ymm0,%ymm0
  40068e:	c5 fd 58 c0          	vaddpd %ymm0,%ymm0,%ymm0
  400692:	c5 fd 58 c0          	vaddpd %ymm0,%ymm0,%ymm0
  400696:	c5 fd 58 c0          	vaddpd %ymm0,%ymm0,%ymm0
  40069a:	c5 fd 58 c0          	vaddpd %ymm0,%ymm0,%ymm0
  40069e:	c5 fd 58 c0          	vaddpd %ymm0,%ymm0,%ymm0
  4006a2:	c5 fd 58 c0          	vaddpd %ymm0,%ymm0,%ymm0
  4006a6:	c5 fd 58 c0          	vaddpd %ymm0,%ymm0,%ymm0
  4006aa:	c5 fd 58 c0          	vaddpd %ymm0,%ymm0,%ymm0
  4006ae:	c5 fd 58 c0          	vaddpd %ymm0,%ymm0,%ymm0
  4006b2:	c5 fd 58 c0          	vaddpd %ymm0,%ymm0,%ymm0
  4006b6:	c5 fd 58 c0          	vaddpd %ymm0,%ymm0,%ymm0
  4006ba:	c5 fd 58 c0          	vaddpd %ymm0,%ymm0,%ymm0
  4006be:	c5 fd 58 c0          	vaddpd %ymm0,%ymm0,%ymm0
  4006c2:	c5 fd 58 c0          	vaddpd %ymm0,%ymm0,%ymm0
  4006c6:	c5 fd 58 c0          	vaddpd %ymm0,%ymm0,%ymm0
  4006ca:	c5 fd 58 c0          	vaddpd %ymm0,%ymm0,%ymm0
  4006ce:	c5 fd 58 c0          	vaddpd %ymm0,%ymm0,%ymm0
  4006d2:	c5 fd 58 c0          	vaddpd %ymm0,%ymm0,%ymm0
  4006d6:	c5 fd 58 c0          	vaddpd %ymm0,%ymm0,%ymm0
  4006da:	c5 fd 58 c0          	vaddpd %ymm0,%ymm0,%ymm0
  4006de:	c5 fd 58 c0          	vaddpd %ymm0,%ymm0,%ymm0
  4006e2:	c5 fd 58 c0          	vaddpd %ymm0,%ymm0,%ymm0
  4006e6:	c5 fd 58 c0          	vaddpd %ymm0,%ymm0,%ymm0
  4006ea:	c5 fd 58 c0          	vaddpd %ymm0,%ymm0,%ymm0
  4006ee:	c5 fd 58 c0          	vaddpd %ymm0,%ymm0,%ymm0
  4006f2:	c5 fd 58 c0          	vaddpd %ymm0,%ymm0,%ymm0
  4006f6:	c5 fd 58 c0          	vaddpd %ymm0,%ymm0,%ymm0
  4006fa:	c5 fd 58 c0          	vaddpd %ymm0,%ymm0,%ymm0
  4006fe:	c5 fd 58 c0          	vaddpd %ymm0,%ymm0,%ymm0
  400702:	c5 fd 58 c0          	vaddpd %ymm0,%ymm0,%ymm0
  400706:	c5 fd 58 c0          	vaddpd %ymm0,%ymm0,%ymm0
  40070a:	c5 fd 58 c0          	vaddpd %ymm0,%ymm0,%ymm0
  40070e:	c5 fd 58 c0          	vaddpd %ymm0,%ymm0,%ymm0
  400712:	c5 fd 58 c0          	vaddpd %ymm0,%ymm0,%ymm0
  400716:	c5 fd 58 c0          	vaddpd %ymm0,%ymm0,%ymm0
  40071a:	c5 fd 58 c0          	vaddpd %ymm0,%ymm0,%ymm0
  40071e:	c5 fd 58 c0          	vaddpd %ymm0,%ymm0,%ymm0
  400722:	c5 fd 58 c0          	vaddpd %ymm0,%ymm0,%ymm0
  400726:	c5 fd 58 c0          	vaddpd %ymm0,%ymm0,%ymm0
  40072a:	c5 fd 58 c0          	vaddpd %ymm0,%ymm0,%ymm0
  40072e:	c5 fd 58 c0          	vaddpd %ymm0,%ymm0,%ymm0
  400732:	c5 fd 58 c0          	vaddpd %ymm0,%ymm0,%ymm0
  400736:	c5 fd 58 c0          	vaddpd %ymm0,%ymm0,%ymm0
  40073a:	c5 fd 58 c0          	vaddpd %ymm0,%ymm0,%ymm0
  40073e:	c5 fd 58 c0          	vaddpd %ymm0,%ymm0,%ymm0
  400742:	c5 fd 58 c0          	vaddpd %ymm0,%ymm0,%ymm0
  400746:	c5 fd 58 c0          	vaddpd %ymm0,%ymm0,%ymm0
  40074a:	c5 fd 58 c0          	vaddpd %ymm0,%ymm0,%ymm0
  40074e:	c5 fd 58 c0          	vaddpd %ymm0,%ymm0,%ymm0
  400752:	c5 fd 58 c0          	vaddpd %ymm0,%ymm0,%ymm0
  400756:	c5 fd 58 c0          	vaddpd %ymm0,%ymm0,%ymm0
  40075a:	c5 fd 58 c0          	vaddpd %ymm0,%ymm0,%ymm0
  40075e:	c5 fd 58 c0          	vaddpd %ymm0,%ymm0,%ymm0
  400762:	c5 fd 58 c0          	vaddpd %ymm0,%ymm0,%ymm0
  400766:	c5 fd 58 c0          	vaddpd %ymm0,%ymm0,%ymm0
  40076a:	c5 fd 58 c0          	vaddpd %ymm0,%ymm0,%ymm0
  40076e:	c5 fd 58 c0          	vaddpd %ymm0,%ymm0,%ymm0
  400772:	c5 fd 58 c0          	vaddpd %ymm0,%ymm0,%ymm0
  400776:	c5 fd 58 c0          	vaddpd %ymm0,%ymm0,%ymm0
  40077a:	c5 fd 58 c0          	vaddpd %ymm0,%ymm0,%ymm0
  40077e:	c5 fd 58 c0          	vaddpd %ymm0,%ymm0,%ymm0
  400782:	c5 fd 58 c0          	vaddpd %ymm0,%ymm0,%ymm0
  400786:	c5 fd 58 c0          	vaddpd %ymm0,%ymm0,%ymm0
  40078a:	c5 fd 58 c0          	vaddpd %ymm0,%ymm0,%ymm0
  40078e:	c5 fd 58 c0          	vaddpd %ymm0,%ymm0,%ymm0
  400792:	c5 fd 58 c0          	vaddpd %ymm0,%ymm0,%ymm0
  400796:	c5 fd 58 c0          	vaddpd %ymm0,%ymm0,%ymm0
  40079a:	c5 fd 58 c0          	vaddpd %ymm0,%ymm0,%ymm0
  40079e:	c5 fd 58 c0          	vaddpd %ymm0,%ymm0,%ymm0
  4007a2:	c5 fd 58 c0          	vaddpd %ymm0,%ymm0,%ymm0
  4007a6:	c5 fd 58 c0          	vaddpd %ymm0,%ymm0,%ymm0
  4007aa:	c5 fd 58 c0          	vaddpd %ymm0,%ymm0,%ymm0
  4007ae:	c5 fd 58 c0          	vaddpd %ymm0,%ymm0,%ymm0
  4007b2:	c5 fd 58 c0          	vaddpd %ymm0,%ymm0,%ymm0
  4007b6:	c5 fd 58 c0          	vaddpd %ymm0,%ymm0,%ymm0
  4007ba:	c5 fd 58 c0          	vaddpd %ymm0,%ymm0,%ymm0
  4007be:	c5 fd 58 c0          	vaddpd %ymm0,%ymm0,%ymm0
  4007c2:	c5 fd 58 c0          	vaddpd %ymm0,%ymm0,%ymm0
  4007c6:	c5 fd 58 c0          	vaddpd %ymm0,%ymm0,%ymm0
  4007ca:	c5 fd 58 c0          	vaddpd %ymm0,%ymm0,%ymm0
  4007ce:	c5 fd 58 c0          	vaddpd %ymm0,%ymm0,%ymm0
  4007d2:	c5 fd 58 c0          	vaddpd %ymm0,%ymm0,%ymm0
  4007d6:	c5 fd 58 c0          	vaddpd %ymm0,%ymm0,%ymm0
  4007da:	c5 fd 58 c0          	vaddpd %ymm0,%ymm0,%ymm0
  4007de:	c5 fd 58 c0          	vaddpd %ymm0,%ymm0,%ymm0
  4007e2:	c5 fd 58 c0          	vaddpd %ymm0,%ymm0,%ymm0
  4007e6:	c5 fd 58 c0          	vaddpd %ymm0,%ymm0,%ymm0
  4007ea:	c5 fd 58 c0          	vaddpd %ymm0,%ymm0,%ymm0
  4007ee:	c5 fd 58 c0          	vaddpd %ymm0,%ymm0,%ymm0
  4007f2:	c5 fd 58 c0          	vaddpd %ymm0,%ymm0,%ymm0
  4007f6:	c5 fd 58 c0          	vaddpd %ymm0,%ymm0,%ymm0
  4007fa:	c5 fd 58 c0          	vaddpd %ymm0,%ymm0,%ymm0
  4007fe:	c5 fd 58 c0          	vaddpd %ymm0,%ymm0,%ymm0
  400802:	c5 fd 58 c0          	vaddpd %ymm0,%ymm0,%ymm0
  400806:	c5 fd 58 c0          	vaddpd %ymm0,%ymm0,%ymm0
  40080a:	c5 fd 58 c0          	vaddpd %ymm0,%ymm0,%ymm0
  40080e:	c5 fd 58 c0          	vaddpd %ymm0,%ymm0,%ymm0
  400812:	c5 fd 58 c0          	vaddpd %ymm0,%ymm0,%ymm0
  400816:	c5 fd 58 c0          	vaddpd %ymm0,%ymm0,%ymm0
  40081a:	c5 fd 58 c0          	vaddpd %ymm0,%ymm0,%ymm0
  40081e:	c5 fd 58 c0          	vaddpd %ymm0,%ymm0,%ymm0
  400822:	c5 fd 58 c0          	vaddpd %ymm0,%ymm0,%ymm0
  400826:	c5 fd 58 c0          	vaddpd %ymm0,%ymm0,%ymm0
  40082a:	c5 fd 58 c0          	vaddpd %ymm0,%ymm0,%ymm0
  40082e:	c5 fd 58 c0          	vaddpd %ymm0,%ymm0,%ymm0
  400832:	c5 fd 58 c0          	vaddpd %ymm0,%ymm0,%ymm0
  400836:	c5 fd 58 c0          	vaddpd %ymm0,%ymm0,%ymm0
  40083a:	c5 fd 58 c0          	vaddpd %ymm0,%ymm0,%ymm0
  40083e:	c5 fd 58 c0          	vaddpd %ymm0,%ymm0,%ymm0
  400842:	c5 fd 58 c0          	vaddpd %ymm0,%ymm0,%ymm0
  400846:	c5 fd 58 c0          	vaddpd %ymm0,%ymm0,%ymm0
  40084a:	c5 fd 58 c0          	vaddpd %ymm0,%ymm0,%ymm0
  40084e:	c5 fd 58 c0          	vaddpd %ymm0,%ymm0,%ymm0
  400852:	c5 fd 58 c0          	vaddpd %ymm0,%ymm0,%ymm0
  400856:	c5 fd 58 c0          	vaddpd %ymm0,%ymm0,%ymm0
  40085a:	c5 fd 58 c0          	vaddpd %ymm0,%ymm0,%ymm0
  40085e:	c5 fd 58 c0          	vaddpd %ymm0,%ymm0,%ymm0
  400862:	c5 fd 58 c0          	vaddpd %ymm0,%ymm0,%ymm0
  400866:	c5 fd 58 c0          	vaddpd %ymm0,%ymm0,%ymm0
  40086a:	c5 fd 58 c0          	vaddpd %ymm0,%ymm0,%ymm0
  40086e:	c5 fd 58 c0          	vaddpd %ymm0,%ymm0,%ymm0
  400872:	c5 fd 58 c0          	vaddpd %ymm0,%ymm0,%ymm0
  400876:	c5 fd 58 c0          	vaddpd %ymm0,%ymm0,%ymm0
  40087a:	c5 fd 58 c0          	vaddpd %ymm0,%ymm0,%ymm0
  40087e:	c5 fd 58 c0          	vaddpd %ymm0,%ymm0,%ymm0
  400882:	c5 fd 58 c0          	vaddpd %ymm0,%ymm0,%ymm0
  400886:	c5 fd 58 c0          	vaddpd %ymm0,%ymm0,%ymm0
  40088a:	c5 fd 58 c0          	vaddpd %ymm0,%ymm0,%ymm0
  40088e:	c5 fd 58 c0          	vaddpd %ymm0,%ymm0,%ymm0
  400892:	c5 fd 58 c0          	vaddpd %ymm0,%ymm0,%ymm0
  400896:	c5 fd 58 c0          	vaddpd %ymm0,%ymm0,%ymm0
  40089a:	c5 fd 58 c0          	vaddpd %ymm0,%ymm0,%ymm0
  40089e:	c5 fd 58 c0          	vaddpd %ymm0,%ymm0,%ymm0
  4008a2:	c5 fd 58 c0          	vaddpd %ymm0,%ymm0,%ymm0
  4008a6:	c5 fd 58 c0          	vaddpd %ymm0,%ymm0,%ymm0
  4008aa:	c5 fd 58 c0          	vaddpd %ymm0,%ymm0,%ymm0
  4008ae:	c5 fd 58 c0          	vaddpd %ymm0,%ymm0,%ymm0
  4008b2:	c5 fd 58 c0          	vaddpd %ymm0,%ymm0,%ymm0
  4008b6:	c5 fd 58 c0          	vaddpd %ymm0,%ymm0,%ymm0
  4008ba:	c5 fd 58 c0          	vaddpd %ymm0,%ymm0,%ymm0
  4008be:	c5 fd 58 c0          	vaddpd %ymm0,%ymm0,%ymm0
  4008c2:	c5 fd 58 c0          	vaddpd %ymm0,%ymm0,%ymm0
  4008c6:	c5 fd 58 c0          	vaddpd %ymm0,%ymm0,%ymm0
  4008ca:	c5 fd 58 c0          	vaddpd %ymm0,%ymm0,%ymm0
  4008ce:	c5 fd 58 c0          	vaddpd %ymm0,%ymm0,%ymm0
  4008d2:	c5 fd 58 c0          	vaddpd %ymm0,%ymm0,%ymm0
  4008d6:	c5 fd 58 c0          	vaddpd %ymm0,%ymm0,%ymm0
  4008da:	c5 fd 58 c0          	vaddpd %ymm0,%ymm0,%ymm0
  4008de:	c5 fd 58 c0          	vaddpd %ymm0,%ymm0,%ymm0
  4008e2:	c5 fd 58 c0          	vaddpd %ymm0,%ymm0,%ymm0
  4008e6:	c5 fd 58 c0          	vaddpd %ymm0,%ymm0,%ymm0
  4008ea:	c5 fd 58 c0          	vaddpd %ymm0,%ymm0,%ymm0
  4008ee:	c5 fd 58 c0          	vaddpd %ymm0,%ymm0,%ymm0
  4008f2:	c5 fd 58 c0          	vaddpd %ymm0,%ymm0,%ymm0
  4008f6:	c5 fd 58 c0          	vaddpd %ymm0,%ymm0,%ymm0
  4008fa:	c5 fd 58 c0          	vaddpd %ymm0,%ymm0,%ymm0
  4008fe:	c5 fd 58 c0          	vaddpd %ymm0,%ymm0,%ymm0
  400902:	c5 fd 58 c0          	vaddpd %ymm0,%ymm0,%ymm0
  400906:	c5 fd 58 c0          	vaddpd %ymm0,%ymm0,%ymm0
  40090a:	c5 fd 58 c0          	vaddpd %ymm0,%ymm0,%ymm0
  40090e:	c5 fd 58 c0          	vaddpd %ymm0,%ymm0,%ymm0
  400912:	c5 fd 58 c0          	vaddpd %ymm0,%ymm0,%ymm0
  400916:	c5 fd 58 c0          	vaddpd %ymm0,%ymm0,%ymm0
  40091a:	c5 fd 58 c0          	vaddpd %ymm0,%ymm0,%ymm0
  40091e:	c5 fd 58 c0          	vaddpd %ymm0,%ymm0,%ymm0
  400922:	c5 fd 58 c0          	vaddpd %ymm0,%ymm0,%ymm0
  400926:	c5 fd 58 c0          	vaddpd %ymm0,%ymm0,%ymm0
  40092a:	c5 fd 58 c0          	vaddpd %ymm0,%ymm0,%ymm0
  40092e:	c5 fd 58 c0          	vaddpd %ymm0,%ymm0,%ymm0
  400932:	c5 fd 58 c0          	vaddpd %ymm0,%ymm0,%ymm0
  400936:	c5 fd 58 c0          	vaddpd %ymm0,%ymm0,%ymm0
  40093a:	c5 fd 58 c0          	vaddpd %ymm0,%ymm0,%ymm0
  40093e:	c5 fd 58 c0          	vaddpd %ymm0,%ymm0,%ymm0
  400942:	c5 fd 58 c0          	vaddpd %ymm0,%ymm0,%ymm0
  400946:	c5 fd 58 c0          	vaddpd %ymm0,%ymm0,%ymm0
  40094a:	c5 fd 58 c0          	vaddpd %ymm0,%ymm0,%ymm0
  40094e:	c5 fd 58 c0          	vaddpd %ymm0,%ymm0,%ymm0
  400952:	c5 fd 58 c0          	vaddpd %ymm0,%ymm0,%ymm0
  400956:	c5 fd 58 c0          	vaddpd %ymm0,%ymm0,%ymm0
  40095a:	c5 fd 58 c0          	vaddpd %ymm0,%ymm0,%ymm0
  40095e:	c5 fd 58 c0          	vaddpd %ymm0,%ymm0,%ymm0
  400962:	c5 fd 58 c0          	vaddpd %ymm0,%ymm0,%ymm0
  400966:	c5 fd 58 c0          	vaddpd %ymm0,%ymm0,%ymm0
  40096a:	c5 fd 58 c0          	vaddpd %ymm0,%ymm0,%ymm0
  40096e:	c5 fd 58 c0          	vaddpd %ymm0,%ymm0,%ymm0
  400972:	c5 fd 58 c0          	vaddpd %ymm0,%ymm0,%ymm0
  400976:	c5 fd 58 c0          	vaddpd %ymm0,%ymm0,%ymm0
  40097a:	c5 fd 58 c0          	vaddpd %ymm0,%ymm0,%ymm0
  40097e:	c5 fd 58 c0          	vaddpd %ymm0,%ymm0,%ymm0
  400982:	c5 fd 58 c0          	vaddpd %ymm0,%ymm0,%ymm0
  400986:	c5 fd 58 c0          	vaddpd %ymm0,%ymm0,%ymm0
  40098a:	c5 fd 58 c0          	vaddpd %ymm0,%ymm0,%ymm0
  40098e:	c5 fd 58 c0          	vaddpd %ymm0,%ymm0,%ymm0
  400992:	c5 fd 58 c0          	vaddpd %ymm0,%ymm0,%ymm0
  400996:	c5 fd 58 c0          	vaddpd %ymm0,%ymm0,%ymm0
  40099a:	c5 fd 58 c0          	vaddpd %ymm0,%ymm0,%ymm0
  40099e:	c5 fd 58 c0          	vaddpd %ymm0,%ymm0,%ymm0
  4009a2:	c5 fd 58 c0          	vaddpd %ymm0,%ymm0,%ymm0
  4009a6:	c5 fd 58 c0          	vaddpd %ymm0,%ymm0,%ymm0
  4009aa:	c5 fd 58 c0          	vaddpd %ymm0,%ymm0,%ymm0
  4009ae:	c5 fd 58 c0          	vaddpd %ymm0,%ymm0,%ymm0
  4009b2:	c5 fd 58 c0          	vaddpd %ymm0,%ymm0,%ymm0
  4009b6:	c5 fd 58 c0          	vaddpd %ymm0,%ymm0,%ymm0
  4009ba:	c5 fd 58 c0          	vaddpd %ymm0,%ymm0,%ymm0
  4009be:	c5 fd 58 c0          	vaddpd %ymm0,%ymm0,%ymm0
  4009c2:	c5 fd 58 c0          	vaddpd %ymm0,%ymm0,%ymm0
  4009c6:	c5 fd 58 c0          	vaddpd %ymm0,%ymm0,%ymm0
  4009ca:	c5 fd 58 c0          	vaddpd %ymm0,%ymm0,%ymm0
  4009ce:	c5 fd 58 c0          	vaddpd %ymm0,%ymm0,%ymm0
  4009d2:	c5 fd 58 c0          	vaddpd %ymm0,%ymm0,%ymm0
  4009d6:	c5 fd 58 c0          	vaddpd %ymm0,%ymm0,%ymm0
  4009da:	c5 fd 58 c0          	vaddpd %ymm0,%ymm0,%ymm0
  4009de:	c5 fd 58 c0          	vaddpd %ymm0,%ymm0,%ymm0
  4009e2:	c5 fd 58 c0          	vaddpd %ymm0,%ymm0,%ymm0
  4009e6:	c5 fd 58 c0          	vaddpd %ymm0,%ymm0,%ymm0
  4009ea:	c5 fd 58 c0          	vaddpd %ymm0,%ymm0,%ymm0
  4009ee:	c5 fd 58 c0          	vaddpd %ymm0,%ymm0,%ymm0
  4009f2:	c5 fd 58 c0          	vaddpd %ymm0,%ymm0,%ymm0
  4009f6:	c5 fd 58 c0          	vaddpd %ymm0,%ymm0,%ymm0
  4009fa:	c5 fd 58 c0          	vaddpd %ymm0,%ymm0,%ymm0
  4009fe:	c5 fd 58 c0          	vaddpd %ymm0,%ymm0,%ymm0
  400a02:	c5 fd 58 c0          	vaddpd %ymm0,%ymm0,%ymm0
  400a06:	c5 fd 58 c0          	vaddpd %ymm0,%ymm0,%ymm0
  400a0a:	c5 fd 58 c0          	vaddpd %ymm0,%ymm0,%ymm0
  400a0e:	c5 fd 58 c0          	vaddpd %ymm0,%ymm0,%ymm0
  400a12:	c5 fd 58 c0          	vaddpd %ymm0,%ymm0,%ymm0
  400a16:	c5 fd 58 c0          	vaddpd %ymm0,%ymm0,%ymm0
  400a1a:	c5 fd 58 c0          	vaddpd %ymm0,%ymm0,%ymm0
  400a1e:	c5 fd 58 c0          	vaddpd %ymm0,%ymm0,%ymm0
  400a22:	c5 fd 58 c0          	vaddpd %ymm0,%ymm0,%ymm0
  400a26:	c5 fd 58 c0          	vaddpd %ymm0,%ymm0,%ymm0
  400a2a:	c5 fd 58 c0          	vaddpd %ymm0,%ymm0,%ymm0
  400a2e:	c5 fd 58 c0          	vaddpd %ymm0,%ymm0,%ymm0
  400a32:	c5 fd 58 c0          	vaddpd %ymm0,%ymm0,%ymm0
  400a36:	c5 fd 58 c0          	vaddpd %ymm0,%ymm0,%ymm0
  400a3a:	c5 fd 58 c0          	vaddpd %ymm0,%ymm0,%ymm0
  400a3e:	c5 fd 58 c0          	vaddpd %ymm0,%ymm0,%ymm0
  400a42:	c5 fd 58 c0          	vaddpd %ymm0,%ymm0,%ymm0
  400a46:	c5 fd 58 c0          	vaddpd %ymm0,%ymm0,%ymm0
  400a4a:	c5 fd 58 c0          	vaddpd %ymm0,%ymm0,%ymm0
  400a4e:	c5 fd 58 c0          	vaddpd %ymm0,%ymm0,%ymm0
  400a52:	c5 fd 58 c0          	vaddpd %ymm0,%ymm0,%ymm0
  400a56:	c5 fd 58 c0          	vaddpd %ymm0,%ymm0,%ymm0
  400a5a:	c5 fd 58 c0          	vaddpd %ymm0,%ymm0,%ymm0
  400a5e:	c5 fd 58 c0          	vaddpd %ymm0,%ymm0,%ymm0
  400a62:	c5 fd 58 c0          	vaddpd %ymm0,%ymm0,%ymm0
  400a66:	c5 fd 58 c0          	vaddpd %ymm0,%ymm0,%ymm0
  400a6a:	c5 fd 58 c0          	vaddpd %ymm0,%ymm0,%ymm0
  400a6e:	c5 fd 58 c0          	vaddpd %ymm0,%ymm0,%ymm0
  400a72:	c5 fd 58 c0          	vaddpd %ymm0,%ymm0,%ymm0
  400a76:	c5 fd 58 c0          	vaddpd %ymm0,%ymm0,%ymm0
  400a7a:	c5 fd 58 c0          	vaddpd %ymm0,%ymm0,%ymm0
  400a7e:	c5 fd 58 c0          	vaddpd %ymm0,%ymm0,%ymm0
  400a82:	c5 fd 58 c0          	vaddpd %ymm0,%ymm0,%ymm0
  400a86:	c5 fd 58 c0          	vaddpd %ymm0,%ymm0,%ymm0
  400a8a:	c5 fd 58 c0          	vaddpd %ymm0,%ymm0,%ymm0
  400a8e:	c5 fd 58 c0          	vaddpd %ymm0,%ymm0,%ymm0
  400a92:	c5 fd 58 c0          	vaddpd %ymm0,%ymm0,%ymm0
  400a96:	c5 fd 58 c0          	vaddpd %ymm0,%ymm0,%ymm0
  400a9a:	c5 fd 58 c0          	vaddpd %ymm0,%ymm0,%ymm0
  400a9e:	c5 fd 58 c0          	vaddpd %ymm0,%ymm0,%ymm0
  400aa2:	c5 fd 58 c0          	vaddpd %ymm0,%ymm0,%ymm0
  400aa6:	c5 fd 58 c0          	vaddpd %ymm0,%ymm0,%ymm0
  400aaa:	c5 fd 58 c0          	vaddpd %ymm0,%ymm0,%ymm0
  400aae:	c5 fd 58 c0          	vaddpd %ymm0,%ymm0,%ymm0
  400ab2:	c5 fd 58 c0          	vaddpd %ymm0,%ymm0,%ymm0
  400ab6:	c5 fd 58 c0          	vaddpd %ymm0,%ymm0,%ymm0
  400aba:	c5 fd 58 c0          	vaddpd %ymm0,%ymm0,%ymm0
  400abe:	c5 fd 58 c0          	vaddpd %ymm0,%ymm0,%ymm0
  400ac2:	c5 fd 58 c0          	vaddpd %ymm0,%ymm0,%ymm0
  400ac6:	c5 fd 58 c0          	vaddpd %ymm0,%ymm0,%ymm0
  400aca:	c5 fd 58 c0          	vaddpd %ymm0,%ymm0,%ymm0
  400ace:	c5 fd 58 c0          	vaddpd %ymm0,%ymm0,%ymm0
  400ad2:	c5 fd 58 c0          	vaddpd %ymm0,%ymm0,%ymm0
  400ad6:	c5 fd 58 c0          	vaddpd %ymm0,%ymm0,%ymm0
  400ada:	c5 fd 58 c0          	vaddpd %ymm0,%ymm0,%ymm0
  400ade:	c5 fd 58 c0          	vaddpd %ymm0,%ymm0,%ymm0
  400ae2:	c5 fd 58 c0          	vaddpd %ymm0,%ymm0,%ymm0
  400ae6:	c5 fd 58 c0          	vaddpd %ymm0,%ymm0,%ymm0
  400aea:	c5 fd 58 c0          	vaddpd %ymm0,%ymm0,%ymm0
  400aee:	c5 fd 58 c0          	vaddpd %ymm0,%ymm0,%ymm0
  400af2:	c5 fd 58 c0          	vaddpd %ymm0,%ymm0,%ymm0
  400af6:	c5 fd 58 c0          	vaddpd %ymm0,%ymm0,%ymm0
  400afa:	c5 fd 58 c0          	vaddpd %ymm0,%ymm0,%ymm0
  400afe:	c5 fd 58 c0          	vaddpd %ymm0,%ymm0,%ymm0
  400b02:	c5 fd 58 c0          	vaddpd %ymm0,%ymm0,%ymm0
  400b06:	c5 fd 58 c0          	vaddpd %ymm0,%ymm0,%ymm0
  400b0a:	c5 fd 58 c0          	vaddpd %ymm0,%ymm0,%ymm0
  400b0e:	c5 fd 58 c0          	vaddpd %ymm0,%ymm0,%ymm0
  400b12:	c5 fd 58 c0          	vaddpd %ymm0,%ymm0,%ymm0
  400b16:	c5 fd 58 c0          	vaddpd %ymm0,%ymm0,%ymm0
  400b1a:	c5 fd 58 c0          	vaddpd %ymm0,%ymm0,%ymm0
  400b1e:	c5 fd 58 c0          	vaddpd %ymm0,%ymm0,%ymm0
  400b22:	c5 fd 58 c0          	vaddpd %ymm0,%ymm0,%ymm0
  400b26:	c5 fd 58 c0          	vaddpd %ymm0,%ymm0,%ymm0
  400b2a:	c5 fd 58 c0          	vaddpd %ymm0,%ymm0,%ymm0
  400b2e:	c5 fd 58 c0          	vaddpd %ymm0,%ymm0,%ymm0
  400b32:	c5 fd 58 c0          	vaddpd %ymm0,%ymm0,%ymm0
  400b36:	c5 fd 58 c0          	vaddpd %ymm0,%ymm0,%ymm0
  400b3a:	c5 fd 58 c0          	vaddpd %ymm0,%ymm0,%ymm0
  400b3e:	c5 fd 58 c0          	vaddpd %ymm0,%ymm0,%ymm0
  400b42:	c5 fd 58 c0          	vaddpd %ymm0,%ymm0,%ymm0
  400b46:	c5 fd 58 c0          	vaddpd %ymm0,%ymm0,%ymm0
  400b4a:	c5 fd 58 c0          	vaddpd %ymm0,%ymm0,%ymm0
  400b4e:	c5 fd 58 c0          	vaddpd %ymm0,%ymm0,%ymm0
  400b52:	c5 fd 58 c0          	vaddpd %ymm0,%ymm0,%ymm0
  400b56:	c5 fd 58 c0          	vaddpd %ymm0,%ymm0,%ymm0
  400b5a:	c5 fd 58 c0          	vaddpd %ymm0,%ymm0,%ymm0
  400b5e:	c5 fd 58 c0          	vaddpd %ymm0,%ymm0,%ymm0
  400b62:	c5 fd 58 c0          	vaddpd %ymm0,%ymm0,%ymm0
  400b66:	c5 fd 58 c0          	vaddpd %ymm0,%ymm0,%ymm0
  400b6a:	c5 fd 58 c0          	vaddpd %ymm0,%ymm0,%ymm0
  400b6e:	c5 fd 58 c0          	vaddpd %ymm0,%ymm0,%ymm0
  400b72:	c5 fd 58 c0          	vaddpd %ymm0,%ymm0,%ymm0
  400b76:	c5 fd 58 c0          	vaddpd %ymm0,%ymm0,%ymm0
  400b7a:	c5 fd 58 c0          	vaddpd %ymm0,%ymm0,%ymm0
  400b7e:	c5 fd 58 c0          	vaddpd %ymm0,%ymm0,%ymm0
  400b82:	c5 fd 58 c0          	vaddpd %ymm0,%ymm0,%ymm0
  400b86:	c5 fd 58 c0          	vaddpd %ymm0,%ymm0,%ymm0
  400b8a:	c5 fd 58 c0          	vaddpd %ymm0,%ymm0,%ymm0
  400b8e:	c5 fd 58 c0          	vaddpd %ymm0,%ymm0,%ymm0
  400b92:	c5 fd 58 c0          	vaddpd %ymm0,%ymm0,%ymm0
  400b96:	c5 fd 58 c0          	vaddpd %ymm0,%ymm0,%ymm0
  400b9a:	c5 fd 58 c0          	vaddpd %ymm0,%ymm0,%ymm0
  400b9e:	c5 fd 58 c0          	vaddpd %ymm0,%ymm0,%ymm0
  400ba2:	c5 fd 58 c0          	vaddpd %ymm0,%ymm0,%ymm0
  400ba6:	c5 fd 58 c0          	vaddpd %ymm0,%ymm0,%ymm0
  400baa:	c5 fd 58 c0          	vaddpd %ymm0,%ymm0,%ymm0
  400bae:	c5 fd 58 c0          	vaddpd %ymm0,%ymm0,%ymm0
  400bb2:	c5 fd 58 c0          	vaddpd %ymm0,%ymm0,%ymm0
  400bb6:	c5 fd 58 c0          	vaddpd %ymm0,%ymm0,%ymm0
  400bba:	c5 fd 58 c0          	vaddpd %ymm0,%ymm0,%ymm0
  400bbe:	c5 fd 58 c0          	vaddpd %ymm0,%ymm0,%ymm0
  400bc2:	c5 fd 58 c0          	vaddpd %ymm0,%ymm0,%ymm0
  400bc6:	c5 fd 58 c0          	vaddpd %ymm0,%ymm0,%ymm0
  400bca:	c5 fd 58 c0          	vaddpd %ymm0,%ymm0,%ymm0
  400bce:	c5 fd 58 c0          	vaddpd %ymm0,%ymm0,%ymm0
  400bd2:	c5 fd 58 c0          	vaddpd %ymm0,%ymm0,%ymm0
  400bd6:	c5 fd 58 c0          	vaddpd %ymm0,%ymm0,%ymm0
  400bda:	c5 fd 58 c0          	vaddpd %ymm0,%ymm0,%ymm0
  400bde:	c5 fd 58 c0          	vaddpd %ymm0,%ymm0,%ymm0
  400be2:	c5 fd 58 c0          	vaddpd %ymm0,%ymm0,%ymm0
  400be6:	c5 fd 58 c0          	vaddpd %ymm0,%ymm0,%ymm0
  400bea:	c5 fd 58 c0          	vaddpd %ymm0,%ymm0,%ymm0
  400bee:	c5 fd 58 c0          	vaddpd %ymm0,%ymm0,%ymm0
  400bf2:	c5 fd 58 c0          	vaddpd %ymm0,%ymm0,%ymm0
  400bf6:	c5 fd 58 c0          	vaddpd %ymm0,%ymm0,%ymm0
  400bfa:	c5 fd 58 c0          	vaddpd %ymm0,%ymm0,%ymm0
  400bfe:	c5 fd 58 c0          	vaddpd %ymm0,%ymm0,%ymm0
  400c02:	c5 fd 58 c0          	vaddpd %ymm0,%ymm0,%ymm0
  400c06:	c5 fd 58 c0          	vaddpd %ymm0,%ymm0,%ymm0
  400c0a:	c5 fd 58 c0          	vaddpd %ymm0,%ymm0,%ymm0
  400c0e:	c5 fd 58 c0          	vaddpd %ymm0,%ymm0,%ymm0
  400c12:	c5 fd 58 c0          	vaddpd %ymm0,%ymm0,%ymm0
  400c16:	c5 fd 58 c0          	vaddpd %ymm0,%ymm0,%ymm0
  400c1a:	c5 fd 58 c0          	vaddpd %ymm0,%ymm0,%ymm0
  400c1e:	c5 fd 58 c0          	vaddpd %ymm0,%ymm0,%ymm0
  400c22:	c5 fd 58 c0          	vaddpd %ymm0,%ymm0,%ymm0
  400c26:	c5 fd 58 c0          	vaddpd %ymm0,%ymm0,%ymm0
  400c2a:	c5 fd 58 c0          	vaddpd %ymm0,%ymm0,%ymm0
  400c2e:	c5 fd 58 c0          	vaddpd %ymm0,%ymm0,%ymm0
  400c32:	c5 fd 58 c0          	vaddpd %ymm0,%ymm0,%ymm0
  400c36:	c5 fd 58 c0          	vaddpd %ymm0,%ymm0,%ymm0
  400c3a:	c5 fd 58 c0          	vaddpd %ymm0,%ymm0,%ymm0
  400c3e:	c5 fd 58 c0          	vaddpd %ymm0,%ymm0,%ymm0
  400c42:	c5 fd 58 c0          	vaddpd %ymm0,%ymm0,%ymm0
  400c46:	c5 fd 58 c0          	vaddpd %ymm0,%ymm0,%ymm0
  400c4a:	c5 fd 58 c0          	vaddpd %ymm0,%ymm0,%ymm0
  400c4e:	c5 fd 58 c0          	vaddpd %ymm0,%ymm0,%ymm0
  400c52:	c5 fd 58 c0          	vaddpd %ymm0,%ymm0,%ymm0
  400c56:	c5 fd 58 c0          	vaddpd %ymm0,%ymm0,%ymm0
  400c5a:	c5 fd 58 c0          	vaddpd %ymm0,%ymm0,%ymm0
  400c5e:	c5 fd 58 c0          	vaddpd %ymm0,%ymm0,%ymm0
  400c62:	c5 fd 58 c0          	vaddpd %ymm0,%ymm0,%ymm0
  400c66:	c5 fd 58 c0          	vaddpd %ymm0,%ymm0,%ymm0
  400c6a:	c5 fd 58 c0          	vaddpd %ymm0,%ymm0,%ymm0
  400c6e:	c5 fd 58 c0          	vaddpd %ymm0,%ymm0,%ymm0
  400c72:	c5 fd 58 c0          	vaddpd %ymm0,%ymm0,%ymm0
  400c76:	c5 fd 58 c0          	vaddpd %ymm0,%ymm0,%ymm0
  400c7a:	c5 fd 58 c0          	vaddpd %ymm0,%ymm0,%ymm0
  400c7e:	c5 fd 58 c0          	vaddpd %ymm0,%ymm0,%ymm0
  400c82:	c5 fd 58 c0          	vaddpd %ymm0,%ymm0,%ymm0
  400c86:	c5 fd 58 c0          	vaddpd %ymm0,%ymm0,%ymm0
  400c8a:	c5 fd 58 c0          	vaddpd %ymm0,%ymm0,%ymm0
  400c8e:	c5 fd 58 c0          	vaddpd %ymm0,%ymm0,%ymm0
  400c92:	c5 fd 58 c0          	vaddpd %ymm0,%ymm0,%ymm0
  400c96:	c5 fd 58 c0          	vaddpd %ymm0,%ymm0,%ymm0
  400c9a:	c5 fd 58 c0          	vaddpd %ymm0,%ymm0,%ymm0
  400c9e:	c5 fd 58 c0          	vaddpd %ymm0,%ymm0,%ymm0
  400ca2:	c5 fd 58 c0          	vaddpd %ymm0,%ymm0,%ymm0
  400ca6:	c5 fd 58 c0          	vaddpd %ymm0,%ymm0,%ymm0
  400caa:	c5 fd 58 c0          	vaddpd %ymm0,%ymm0,%ymm0
  400cae:	c5 fd 58 c0          	vaddpd %ymm0,%ymm0,%ymm0
  400cb2:	c5 fd 58 c0          	vaddpd %ymm0,%ymm0,%ymm0
  400cb6:	c5 fd 58 c0          	vaddpd %ymm0,%ymm0,%ymm0
  400cba:	c5 fd 58 c0          	vaddpd %ymm0,%ymm0,%ymm0
  400cbe:	c5 fd 58 c0          	vaddpd %ymm0,%ymm0,%ymm0
  400cc2:	c5 fd 58 c0          	vaddpd %ymm0,%ymm0,%ymm0
  400cc6:	c5 fd 58 c0          	vaddpd %ymm0,%ymm0,%ymm0
  400cca:	c5 fd 58 c0          	vaddpd %ymm0,%ymm0,%ymm0
  400cce:	c5 fd 58 c0          	vaddpd %ymm0,%ymm0,%ymm0
  400cd2:	c5 fd 58 c0          	vaddpd %ymm0,%ymm0,%ymm0
  400cd6:	c5 fd 58 c0          	vaddpd %ymm0,%ymm0,%ymm0
  400cda:	c5 fd 58 c0          	vaddpd %ymm0,%ymm0,%ymm0
  400cde:	c5 fd 58 c0          	vaddpd %ymm0,%ymm0,%ymm0
  400ce2:	c5 fd 58 c0          	vaddpd %ymm0,%ymm0,%ymm0
  400ce6:	c5 fd 58 c0          	vaddpd %ymm0,%ymm0,%ymm0
  400cea:	c5 fd 58 c0          	vaddpd %ymm0,%ymm0,%ymm0
  400cee:	c5 fd 58 c0          	vaddpd %ymm0,%ymm0,%ymm0
  400cf2:	c5 fd 58 c0          	vaddpd %ymm0,%ymm0,%ymm0
  400cf6:	c5 fd 58 c0          	vaddpd %ymm0,%ymm0,%ymm0
  400cfa:	c5 fd 58 c0          	vaddpd %ymm0,%ymm0,%ymm0
  400cfe:	c5 fd 58 c0          	vaddpd %ymm0,%ymm0,%ymm0
  400d02:	c5 fd 58 c0          	vaddpd %ymm0,%ymm0,%ymm0
  400d06:	c5 fd 58 c0          	vaddpd %ymm0,%ymm0,%ymm0
  400d0a:	c5 fd 58 c0          	vaddpd %ymm0,%ymm0,%ymm0
  400d0e:	c5 fd 58 c0          	vaddpd %ymm0,%ymm0,%ymm0
  400d12:	c5 fd 58 c0          	vaddpd %ymm0,%ymm0,%ymm0
  400d16:	c5 fd 58 c0          	vaddpd %ymm0,%ymm0,%ymm0
  400d1a:	c5 fd 58 c0          	vaddpd %ymm0,%ymm0,%ymm0
  400d1e:	c5 fd 58 c0          	vaddpd %ymm0,%ymm0,%ymm0
  400d22:	c5 fd 58 c0          	vaddpd %ymm0,%ymm0,%ymm0
  400d26:	c5 fd 58 c0          	vaddpd %ymm0,%ymm0,%ymm0
  400d2a:	c5 fd 58 c0          	vaddpd %ymm0,%ymm0,%ymm0
  400d2e:	c5 fd 58 c0          	vaddpd %ymm0,%ymm0,%ymm0
  400d32:	c5 fd 58 c0          	vaddpd %ymm0,%ymm0,%ymm0
  400d36:	c5 fd 58 c0          	vaddpd %ymm0,%ymm0,%ymm0
  400d3a:	c5 fd 58 c0          	vaddpd %ymm0,%ymm0,%ymm0
  400d3e:	c5 fd 58 c0          	vaddpd %ymm0,%ymm0,%ymm0
  400d42:	c5 fd 58 c0          	vaddpd %ymm0,%ymm0,%ymm0
  400d46:	c5 fd 58 c0          	vaddpd %ymm0,%ymm0,%ymm0
  400d4a:	c5 fd 58 c0          	vaddpd %ymm0,%ymm0,%ymm0
  400d4e:	c5 fd 58 c0          	vaddpd %ymm0,%ymm0,%ymm0
  400d52:	c5 fd 58 c0          	vaddpd %ymm0,%ymm0,%ymm0
  400d56:	c5 fd 58 c0          	vaddpd %ymm0,%ymm0,%ymm0
  400d5a:	c5 fd 58 c0          	vaddpd %ymm0,%ymm0,%ymm0
  400d5e:	c5 fd 58 c0          	vaddpd %ymm0,%ymm0,%ymm0
  400d62:	c5 fd 58 c0          	vaddpd %ymm0,%ymm0,%ymm0
  400d66:	c5 fd 58 c0          	vaddpd %ymm0,%ymm0,%ymm0
  400d6a:	c5 fd 58 c0          	vaddpd %ymm0,%ymm0,%ymm0
  400d6e:	c5 fd 58 c0          	vaddpd %ymm0,%ymm0,%ymm0
  400d72:	c5 fd 58 c0          	vaddpd %ymm0,%ymm0,%ymm0
  400d76:	c5 fd 58 c0          	vaddpd %ymm0,%ymm0,%ymm0
  400d7a:	c5 fd 58 c0          	vaddpd %ymm0,%ymm0,%ymm0
  400d7e:	c5 fd 58 c0          	vaddpd %ymm0,%ymm0,%ymm0
  400d82:	c5 fd 58 c0          	vaddpd %ymm0,%ymm0,%ymm0
  400d86:	c5 fd 58 c0          	vaddpd %ymm0,%ymm0,%ymm0
  400d8a:	c5 fd 58 c0          	vaddpd %ymm0,%ymm0,%ymm0
  400d8e:	c5 fd 58 c0          	vaddpd %ymm0,%ymm0,%ymm0
  400d92:	c5 fd 58 c0          	vaddpd %ymm0,%ymm0,%ymm0
  400d96:	c5 fd 58 c0          	vaddpd %ymm0,%ymm0,%ymm0
  400d9a:	c5 fd 58 c0          	vaddpd %ymm0,%ymm0,%ymm0
  400d9e:	c5 fd 58 c0          	vaddpd %ymm0,%ymm0,%ymm0
  400da2:	c5 fd 58 c0          	vaddpd %ymm0,%ymm0,%ymm0
  400da6:	c5 fd 58 c0          	vaddpd %ymm0,%ymm0,%ymm0
  400daa:	c5 fd 58 c0          	vaddpd %ymm0,%ymm0,%ymm0
  400dae:	c5 fd 58 c0          	vaddpd %ymm0,%ymm0,%ymm0
  400db2:	c5 fd 58 c0          	vaddpd %ymm0,%ymm0,%ymm0
  400db6:	c5 fd 58 c0          	vaddpd %ymm0,%ymm0,%ymm0
  400dba:	c5 fd 58 c0          	vaddpd %ymm0,%ymm0,%ymm0
  400dbe:	c5 fd 58 c0          	vaddpd %ymm0,%ymm0,%ymm0
  400dc2:	c5 fd 58 c0          	vaddpd %ymm0,%ymm0,%ymm0
  400dc6:	c5 fd 58 c0          	vaddpd %ymm0,%ymm0,%ymm0
  400dca:	c5 fd 58 c0          	vaddpd %ymm0,%ymm0,%ymm0
  400dce:	c5 fd 58 c0          	vaddpd %ymm0,%ymm0,%ymm0
  400dd2:	c5 fd 58 c0          	vaddpd %ymm0,%ymm0,%ymm0
  400dd6:	c5 fd 58 c0          	vaddpd %ymm0,%ymm0,%ymm0
  400dda:	c5 fd 58 c0          	vaddpd %ymm0,%ymm0,%ymm0
  400dde:	c5 fd 58 c0          	vaddpd %ymm0,%ymm0,%ymm0
  400de2:	c5 fd 58 c0          	vaddpd %ymm0,%ymm0,%ymm0
  400de6:	c5 fd 58 c0          	vaddpd %ymm0,%ymm0,%ymm0
  400dea:	c5 fd 58 c0          	vaddpd %ymm0,%ymm0,%ymm0
  400dee:	c5 fd 58 c0          	vaddpd %ymm0,%ymm0,%ymm0
  400df2:	c5 fd 58 c0          	vaddpd %ymm0,%ymm0,%ymm0
  400df6:	c5 fd 58 c0          	vaddpd %ymm0,%ymm0,%ymm0
  400dfa:	c5 fd 58 c0          	vaddpd %ymm0,%ymm0,%ymm0
  400dfe:	c5 fd 58 c0          	vaddpd %ymm0,%ymm0,%ymm0
  400e02:	c5 fd 58 c0          	vaddpd %ymm0,%ymm0,%ymm0
  400e06:	c5 fd 58 c0          	vaddpd %ymm0,%ymm0,%ymm0
  400e0a:	c5 fd 58 c0          	vaddpd %ymm0,%ymm0,%ymm0
  400e0e:	c5 fd 58 c0          	vaddpd %ymm0,%ymm0,%ymm0
  400e12:	c5 fd 58 c0          	vaddpd %ymm0,%ymm0,%ymm0
  400e16:	c5 fd 58 c0          	vaddpd %ymm0,%ymm0,%ymm0
  400e1a:	c5 fd 58 c0          	vaddpd %ymm0,%ymm0,%ymm0
  400e1e:	c5 fd 58 c0          	vaddpd %ymm0,%ymm0,%ymm0
  400e22:	c5 fd 58 c0          	vaddpd %ymm0,%ymm0,%ymm0
  400e26:	c5 fd 58 c0          	vaddpd %ymm0,%ymm0,%ymm0
  400e2a:	c5 fd 58 c0          	vaddpd %ymm0,%ymm0,%ymm0
  400e2e:	c5 fd 58 c0          	vaddpd %ymm0,%ymm0,%ymm0
  400e32:	c5 fd 58 c0          	vaddpd %ymm0,%ymm0,%ymm0
  400e36:	c5 fd 58 c0          	vaddpd %ymm0,%ymm0,%ymm0
  400e3a:	c5 fd 58 c0          	vaddpd %ymm0,%ymm0,%ymm0
  400e3e:	c5 fd 58 c0          	vaddpd %ymm0,%ymm0,%ymm0
  400e42:	c5 fd 58 c0          	vaddpd %ymm0,%ymm0,%ymm0
  400e46:	c5 fd 58 c0          	vaddpd %ymm0,%ymm0,%ymm0
  400e4a:	c5 fd 58 c0          	vaddpd %ymm0,%ymm0,%ymm0
  400e4e:	c5 fd 58 c0          	vaddpd %ymm0,%ymm0,%ymm0
  400e52:	c5 fd 58 c0          	vaddpd %ymm0,%ymm0,%ymm0
  400e56:	c5 fd 58 c0          	vaddpd %ymm0,%ymm0,%ymm0
  400e5a:	c5 fd 58 c0          	vaddpd %ymm0,%ymm0,%ymm0
  400e5e:	c5 fd 58 c0          	vaddpd %ymm0,%ymm0,%ymm0
  400e62:	c5 fd 58 c0          	vaddpd %ymm0,%ymm0,%ymm0
  400e66:	c5 fd 58 c0          	vaddpd %ymm0,%ymm0,%ymm0
  400e6a:	c5 fd 58 c0          	vaddpd %ymm0,%ymm0,%ymm0
  400e6e:	c5 fd 58 c0          	vaddpd %ymm0,%ymm0,%ymm0
  400e72:	c5 fd 58 c0          	vaddpd %ymm0,%ymm0,%ymm0
  400e76:	c5 fd 58 c0          	vaddpd %ymm0,%ymm0,%ymm0
  400e7a:	c5 fd 58 c0          	vaddpd %ymm0,%ymm0,%ymm0
  400e7e:	c5 fd 58 c0          	vaddpd %ymm0,%ymm0,%ymm0
  400e82:	c5 fd 58 c0          	vaddpd %ymm0,%ymm0,%ymm0
  400e86:	c5 fd 58 c0          	vaddpd %ymm0,%ymm0,%ymm0
  400e8a:	c5 fd 58 c0          	vaddpd %ymm0,%ymm0,%ymm0
  400e8e:	c5 fd 58 c0          	vaddpd %ymm0,%ymm0,%ymm0
  400e92:	c5 fd 58 c0          	vaddpd %ymm0,%ymm0,%ymm0
  400e96:	c5 fd 58 c0          	vaddpd %ymm0,%ymm0,%ymm0
  400e9a:	c5 fd 58 c0          	vaddpd %ymm0,%ymm0,%ymm0
  400e9e:	c5 fd 58 c0          	vaddpd %ymm0,%ymm0,%ymm0
  400ea2:	c5 fd 58 c0          	vaddpd %ymm0,%ymm0,%ymm0
  400ea6:	c5 fd 58 c0          	vaddpd %ymm0,%ymm0,%ymm0
  400eaa:	c5 fd 58 c0          	vaddpd %ymm0,%ymm0,%ymm0
  400eae:	c5 fd 58 c0          	vaddpd %ymm0,%ymm0,%ymm0
  400eb2:	c5 fd 58 c0          	vaddpd %ymm0,%ymm0,%ymm0
  400eb6:	c5 fd 58 c0          	vaddpd %ymm0,%ymm0,%ymm0
  400eba:	c5 fd 58 c0          	vaddpd %ymm0,%ymm0,%ymm0
  400ebe:	c5 fd 58 c0          	vaddpd %ymm0,%ymm0,%ymm0
  400ec2:	c5 fd 58 c0          	vaddpd %ymm0,%ymm0,%ymm0
  400ec6:	c5 fd 58 c0          	vaddpd %ymm0,%ymm0,%ymm0
  400eca:	c5 fd 58 c0          	vaddpd %ymm0,%ymm0,%ymm0
  400ece:	c5 fd 58 c0          	vaddpd %ymm0,%ymm0,%ymm0
  400ed2:	c5 fd 58 c0          	vaddpd %ymm0,%ymm0,%ymm0
  400ed6:	c5 fd 58 c0          	vaddpd %ymm0,%ymm0,%ymm0
  400eda:	c5 fd 58 c0          	vaddpd %ymm0,%ymm0,%ymm0
  400ede:	c5 fd 58 c0          	vaddpd %ymm0,%ymm0,%ymm0
  400ee2:	c5 fd 58 c0          	vaddpd %ymm0,%ymm0,%ymm0
  400ee6:	c5 fd 58 c0          	vaddpd %ymm0,%ymm0,%ymm0
  400eea:	c5 fd 58 c0          	vaddpd %ymm0,%ymm0,%ymm0
  400eee:	c5 fd 58 c0          	vaddpd %ymm0,%ymm0,%ymm0
  400ef2:	c5 fd 58 c0          	vaddpd %ymm0,%ymm0,%ymm0
  400ef6:	c5 fd 58 c0          	vaddpd %ymm0,%ymm0,%ymm0
  400efa:	c5 fd 58 c0          	vaddpd %ymm0,%ymm0,%ymm0
  400efe:	c5 fd 58 c0          	vaddpd %ymm0,%ymm0,%ymm0
  400f02:	c5 fd 58 c0          	vaddpd %ymm0,%ymm0,%ymm0
  400f06:	c5 fd 58 c0          	vaddpd %ymm0,%ymm0,%ymm0
  400f0a:	c5 fd 58 c0          	vaddpd %ymm0,%ymm0,%ymm0
  400f0e:	c5 fd 58 c0          	vaddpd %ymm0,%ymm0,%ymm0
  400f12:	c5 fd 58 c0          	vaddpd %ymm0,%ymm0,%ymm0
  400f16:	c5 fd 58 c0          	vaddpd %ymm0,%ymm0,%ymm0
  400f1a:	c5 fd 58 c0          	vaddpd %ymm0,%ymm0,%ymm0
  400f1e:	c5 fd 58 c0          	vaddpd %ymm0,%ymm0,%ymm0
  400f22:	c5 fd 58 c0          	vaddpd %ymm0,%ymm0,%ymm0
  400f26:	c5 fd 58 c0          	vaddpd %ymm0,%ymm0,%ymm0
  400f2a:	c5 fd 58 c0          	vaddpd %ymm0,%ymm0,%ymm0
  400f2e:	c5 fd 58 c0          	vaddpd %ymm0,%ymm0,%ymm0
  400f32:	c5 fd 58 c0          	vaddpd %ymm0,%ymm0,%ymm0
  400f36:	c5 fd 58 c0          	vaddpd %ymm0,%ymm0,%ymm0
  400f3a:	c5 fd 58 c0          	vaddpd %ymm0,%ymm0,%ymm0
  400f3e:	c5 fd 58 c0          	vaddpd %ymm0,%ymm0,%ymm0
  400f42:	c5 fd 58 c0          	vaddpd %ymm0,%ymm0,%ymm0
  400f46:	c5 fd 58 c0          	vaddpd %ymm0,%ymm0,%ymm0
  400f4a:	c5 fd 58 c0          	vaddpd %ymm0,%ymm0,%ymm0
  400f4e:	c5 fd 58 c0          	vaddpd %ymm0,%ymm0,%ymm0
  400f52:	c5 fd 58 c0          	vaddpd %ymm0,%ymm0,%ymm0
  400f56:	c5 fd 58 c0          	vaddpd %ymm0,%ymm0,%ymm0
  400f5a:	c5 fd 58 c0          	vaddpd %ymm0,%ymm0,%ymm0
  400f5e:	c5 fd 58 c0          	vaddpd %ymm0,%ymm0,%ymm0
  400f62:	c5 fd 58 c0          	vaddpd %ymm0,%ymm0,%ymm0
  400f66:	c5 fd 58 c0          	vaddpd %ymm0,%ymm0,%ymm0
  400f6a:	c5 fd 58 c0          	vaddpd %ymm0,%ymm0,%ymm0
  400f6e:	c5 fd 58 c0          	vaddpd %ymm0,%ymm0,%ymm0
  400f72:	c5 fd 58 c0          	vaddpd %ymm0,%ymm0,%ymm0
  400f76:	c5 fd 58 c0          	vaddpd %ymm0,%ymm0,%ymm0
  400f7a:	c5 fd 58 c0          	vaddpd %ymm0,%ymm0,%ymm0
  400f7e:	c5 fd 58 c0          	vaddpd %ymm0,%ymm0,%ymm0
  400f82:	c5 fd 58 c0          	vaddpd %ymm0,%ymm0,%ymm0
  400f86:	c5 fd 58 c0          	vaddpd %ymm0,%ymm0,%ymm0
  400f8a:	c5 fd 58 c0          	vaddpd %ymm0,%ymm0,%ymm0
  400f8e:	c5 fd 58 c0          	vaddpd %ymm0,%ymm0,%ymm0
  400f92:	c5 fd 58 c0          	vaddpd %ymm0,%ymm0,%ymm0
  400f96:	c5 fd 58 c0          	vaddpd %ymm0,%ymm0,%ymm0
  400f9a:	c5 fd 58 c0          	vaddpd %ymm0,%ymm0,%ymm0
  400f9e:	c5 fd 58 c0          	vaddpd %ymm0,%ymm0,%ymm0
  400fa2:	c5 fd 58 c0          	vaddpd %ymm0,%ymm0,%ymm0
  400fa6:	c5 fd 58 c0          	vaddpd %ymm0,%ymm0,%ymm0
  400faa:	c5 fd 58 c0          	vaddpd %ymm0,%ymm0,%ymm0
  400fae:	c5 fd 58 c0          	vaddpd %ymm0,%ymm0,%ymm0
  400fb2:	c5 fd 58 c0          	vaddpd %ymm0,%ymm0,%ymm0
  400fb6:	c5 fd 58 c0          	vaddpd %ymm0,%ymm0,%ymm0
  400fba:	c5 fd 58 c0          	vaddpd %ymm0,%ymm0,%ymm0
  400fbe:	c5 fd 58 c0          	vaddpd %ymm0,%ymm0,%ymm0
  400fc2:	c5 fd 58 c0          	vaddpd %ymm0,%ymm0,%ymm0
  400fc6:	c5 fd 58 c0          	vaddpd %ymm0,%ymm0,%ymm0
  400fca:	c5 fd 58 c0          	vaddpd %ymm0,%ymm0,%ymm0
  400fce:	c5 fd 58 c0          	vaddpd %ymm0,%ymm0,%ymm0
  400fd2:	c5 fd 58 c0          	vaddpd %ymm0,%ymm0,%ymm0
  400fd6:	c5 fd 58 c0          	vaddpd %ymm0,%ymm0,%ymm0
  400fda:	c5 fd 58 c0          	vaddpd %ymm0,%ymm0,%ymm0
  400fde:	c5 fd 58 c0          	vaddpd %ymm0,%ymm0,%ymm0
  400fe2:	c5 fd 58 c0          	vaddpd %ymm0,%ymm0,%ymm0
  400fe6:	c5 fd 58 c0          	vaddpd %ymm0,%ymm0,%ymm0
  400fea:	c5 fd 58 c0          	vaddpd %ymm0,%ymm0,%ymm0
  400fee:	c5 fd 58 c0          	vaddpd %ymm0,%ymm0,%ymm0
  400ff2:	c5 fd 58 c0          	vaddpd %ymm0,%ymm0,%ymm0
  400ff6:	c5 fd 58 c0          	vaddpd %ymm0,%ymm0,%ymm0
  400ffa:	c5 fd 58 c0          	vaddpd %ymm0,%ymm0,%ymm0
  400ffe:	c5 fd 58 c0          	vaddpd %ymm0,%ymm0,%ymm0
  401002:	c5 fd 58 c0          	vaddpd %ymm0,%ymm0,%ymm0
  401006:	c5 fd 58 c0          	vaddpd %ymm0,%ymm0,%ymm0
  40100a:	c5 fd 58 c0          	vaddpd %ymm0,%ymm0,%ymm0
  40100e:	c5 fd 58 c0          	vaddpd %ymm0,%ymm0,%ymm0
  401012:	c5 fd 58 c0          	vaddpd %ymm0,%ymm0,%ymm0
  401016:	c5 fd 58 c0          	vaddpd %ymm0,%ymm0,%ymm0
  40101a:	c5 fd 58 c0          	vaddpd %ymm0,%ymm0,%ymm0
  40101e:	c5 fd 58 c0          	vaddpd %ymm0,%ymm0,%ymm0
  401022:	c5 fd 58 c0          	vaddpd %ymm0,%ymm0,%ymm0
  401026:	c5 fd 58 c0          	vaddpd %ymm0,%ymm0,%ymm0
  40102a:	c5 fd 58 c0          	vaddpd %ymm0,%ymm0,%ymm0
  40102e:	c5 fd 58 c0          	vaddpd %ymm0,%ymm0,%ymm0
  401032:	c5 fd 58 c0          	vaddpd %ymm0,%ymm0,%ymm0
  401036:	c5 fd 58 c0          	vaddpd %ymm0,%ymm0,%ymm0
  40103a:	c5 fd 58 c0          	vaddpd %ymm0,%ymm0,%ymm0
  40103e:	c5 fd 58 c0          	vaddpd %ymm0,%ymm0,%ymm0
  401042:	c5 fd 58 c0          	vaddpd %ymm0,%ymm0,%ymm0
  401046:	c5 fd 58 c0          	vaddpd %ymm0,%ymm0,%ymm0
  40104a:	c5 fd 58 c0          	vaddpd %ymm0,%ymm0,%ymm0
  40104e:	c5 fd 58 c0          	vaddpd %ymm0,%ymm0,%ymm0
  401052:	c5 fd 58 c0          	vaddpd %ymm0,%ymm0,%ymm0
  401056:	c5 fd 58 c0          	vaddpd %ymm0,%ymm0,%ymm0
  40105a:	c5 fd 58 c0          	vaddpd %ymm0,%ymm0,%ymm0
  40105e:	c5 fd 58 c0          	vaddpd %ymm0,%ymm0,%ymm0
  401062:	c5 fd 58 c0          	vaddpd %ymm0,%ymm0,%ymm0
  401066:	c5 fd 58 c0          	vaddpd %ymm0,%ymm0,%ymm0
  40106a:	c5 fd 58 c0          	vaddpd %ymm0,%ymm0,%ymm0
  40106e:	c5 fd 58 c0          	vaddpd %ymm0,%ymm0,%ymm0
  401072:	c5 fd 58 c0          	vaddpd %ymm0,%ymm0,%ymm0
  401076:	c5 fd 58 c0          	vaddpd %ymm0,%ymm0,%ymm0
  40107a:	c5 fd 58 c0          	vaddpd %ymm0,%ymm0,%ymm0
  40107e:	c5 fd 58 c0          	vaddpd %ymm0,%ymm0,%ymm0
  401082:	c5 fd 58 c0          	vaddpd %ymm0,%ymm0,%ymm0
  401086:	c5 fd 58 c0          	vaddpd %ymm0,%ymm0,%ymm0
  40108a:	c5 fd 58 c0          	vaddpd %ymm0,%ymm0,%ymm0
  40108e:	c5 fd 58 c0          	vaddpd %ymm0,%ymm0,%ymm0
  401092:	c5 fd 58 c0          	vaddpd %ymm0,%ymm0,%ymm0
  401096:	c5 fd 58 c0          	vaddpd %ymm0,%ymm0,%ymm0
  40109a:	c5 fd 58 c0          	vaddpd %ymm0,%ymm0,%ymm0
  40109e:	c5 fd 58 c0          	vaddpd %ymm0,%ymm0,%ymm0
  4010a2:	c5 fd 58 c0          	vaddpd %ymm0,%ymm0,%ymm0
  4010a6:	c5 fd 58 c0          	vaddpd %ymm0,%ymm0,%ymm0
  4010aa:	c5 fd 58 c0          	vaddpd %ymm0,%ymm0,%ymm0
  4010ae:	c5 fd 58 c0          	vaddpd %ymm0,%ymm0,%ymm0
  4010b2:	c5 fd 58 c0          	vaddpd %ymm0,%ymm0,%ymm0
  4010b6:	c5 fd 58 c0          	vaddpd %ymm0,%ymm0,%ymm0
  4010ba:	c5 fd 58 c0          	vaddpd %ymm0,%ymm0,%ymm0
  4010be:	c5 fd 58 c0          	vaddpd %ymm0,%ymm0,%ymm0
  4010c2:	c5 fd 58 c0          	vaddpd %ymm0,%ymm0,%ymm0
  4010c6:	c5 fd 58 c0          	vaddpd %ymm0,%ymm0,%ymm0
  4010ca:	c5 fd 58 c0          	vaddpd %ymm0,%ymm0,%ymm0
  4010ce:	c5 fd 58 c0          	vaddpd %ymm0,%ymm0,%ymm0
  4010d2:	c5 fd 58 c0          	vaddpd %ymm0,%ymm0,%ymm0
  4010d6:	c5 fd 58 c0          	vaddpd %ymm0,%ymm0,%ymm0
  4010da:	c5 fd 58 c0          	vaddpd %ymm0,%ymm0,%ymm0
  4010de:	c5 fd 58 c0          	vaddpd %ymm0,%ymm0,%ymm0
  4010e2:	c5 fd 58 c0          	vaddpd %ymm0,%ymm0,%ymm0
  4010e6:	c5 fd 58 c0          	vaddpd %ymm0,%ymm0,%ymm0
  4010ea:	c5 fd 58 c0          	vaddpd %ymm0,%ymm0,%ymm0
  4010ee:	c5 fd 58 c0          	vaddpd %ymm0,%ymm0,%ymm0
  4010f2:	c5 fd 58 c0          	vaddpd %ymm0,%ymm0,%ymm0
  4010f6:	c5 fd 58 c0          	vaddpd %ymm0,%ymm0,%ymm0
  4010fa:	c5 fd 58 c0          	vaddpd %ymm0,%ymm0,%ymm0
  4010fe:	c5 fd 58 c0          	vaddpd %ymm0,%ymm0,%ymm0
  401102:	c5 fd 58 c0          	vaddpd %ymm0,%ymm0,%ymm0
  401106:	c5 fd 58 c0          	vaddpd %ymm0,%ymm0,%ymm0
  40110a:	c5 fd 58 c0          	vaddpd %ymm0,%ymm0,%ymm0
  40110e:	c5 fd 58 c0          	vaddpd %ymm0,%ymm0,%ymm0
  401112:	c5 fd 58 c0          	vaddpd %ymm0,%ymm0,%ymm0
  401116:	c5 fd 58 c0          	vaddpd %ymm0,%ymm0,%ymm0
  40111a:	c5 fd 58 c0          	vaddpd %ymm0,%ymm0,%ymm0
  40111e:	c5 fd 58 c0          	vaddpd %ymm0,%ymm0,%ymm0
  401122:	c5 fd 58 c0          	vaddpd %ymm0,%ymm0,%ymm0
  401126:	c5 fd 58 c0          	vaddpd %ymm0,%ymm0,%ymm0
  40112a:	c5 fd 58 c0          	vaddpd %ymm0,%ymm0,%ymm0
  40112e:	c5 fd 58 c0          	vaddpd %ymm0,%ymm0,%ymm0
  401132:	c5 fd 58 c0          	vaddpd %ymm0,%ymm0,%ymm0
  401136:	c5 fd 58 c0          	vaddpd %ymm0,%ymm0,%ymm0
  40113a:	c5 fd 58 c0          	vaddpd %ymm0,%ymm0,%ymm0
  40113e:	c5 fd 58 c0          	vaddpd %ymm0,%ymm0,%ymm0
  401142:	c5 fd 58 c0          	vaddpd %ymm0,%ymm0,%ymm0
  401146:	c5 fd 58 c0          	vaddpd %ymm0,%ymm0,%ymm0
  40114a:	c5 fd 58 c0          	vaddpd %ymm0,%ymm0,%ymm0
  40114e:	c5 fd 58 c0          	vaddpd %ymm0,%ymm0,%ymm0
  401152:	c5 fd 58 c0          	vaddpd %ymm0,%ymm0,%ymm0
  401156:	c5 fd 58 c0          	vaddpd %ymm0,%ymm0,%ymm0
  40115a:	c5 fd 58 c0          	vaddpd %ymm0,%ymm0,%ymm0
  40115e:	c5 fd 58 c0          	vaddpd %ymm0,%ymm0,%ymm0
  401162:	c5 fd 58 c0          	vaddpd %ymm0,%ymm0,%ymm0
  401166:	c5 fd 58 c0          	vaddpd %ymm0,%ymm0,%ymm0
  40116a:	c5 fd 58 c0          	vaddpd %ymm0,%ymm0,%ymm0
  40116e:	c5 fd 58 c0          	vaddpd %ymm0,%ymm0,%ymm0
  401172:	c5 fd 58 c0          	vaddpd %ymm0,%ymm0,%ymm0
  401176:	c5 fd 58 c0          	vaddpd %ymm0,%ymm0,%ymm0
  40117a:	c5 fd 58 c0          	vaddpd %ymm0,%ymm0,%ymm0
  40117e:	c5 fd 58 c0          	vaddpd %ymm0,%ymm0,%ymm0
  401182:	c5 fd 58 c0          	vaddpd %ymm0,%ymm0,%ymm0
  401186:	c5 fd 58 c0          	vaddpd %ymm0,%ymm0,%ymm0
  40118a:	c5 fd 58 c0          	vaddpd %ymm0,%ymm0,%ymm0
  40118e:	c5 fd 58 c0          	vaddpd %ymm0,%ymm0,%ymm0
  401192:	c5 fd 58 c0          	vaddpd %ymm0,%ymm0,%ymm0
  401196:	c5 fd 58 c0          	vaddpd %ymm0,%ymm0,%ymm0
  40119a:	c5 fd 58 c0          	vaddpd %ymm0,%ymm0,%ymm0
  40119e:	c5 fd 58 c0          	vaddpd %ymm0,%ymm0,%ymm0
  4011a2:	c5 fd 58 c0          	vaddpd %ymm0,%ymm0,%ymm0
  4011a6:	c5 fd 58 c0          	vaddpd %ymm0,%ymm0,%ymm0
  4011aa:	c5 fd 58 c0          	vaddpd %ymm0,%ymm0,%ymm0
  4011ae:	c5 fd 58 c0          	vaddpd %ymm0,%ymm0,%ymm0
  4011b2:	c5 fd 58 c0          	vaddpd %ymm0,%ymm0,%ymm0
  4011b6:	c5 fd 58 c0          	vaddpd %ymm0,%ymm0,%ymm0
  4011ba:	c5 fd 58 c0          	vaddpd %ymm0,%ymm0,%ymm0
  4011be:	c5 fd 58 c0          	vaddpd %ymm0,%ymm0,%ymm0
  4011c2:	c5 fd 58 c0          	vaddpd %ymm0,%ymm0,%ymm0
  4011c6:	c5 fd 58 c0          	vaddpd %ymm0,%ymm0,%ymm0
  4011ca:	c5 fd 58 c0          	vaddpd %ymm0,%ymm0,%ymm0
  4011ce:	c5 fd 58 c0          	vaddpd %ymm0,%ymm0,%ymm0
  4011d2:	c5 fd 58 c0          	vaddpd %ymm0,%ymm0,%ymm0
  4011d6:	c5 fd 58 c0          	vaddpd %ymm0,%ymm0,%ymm0
  4011da:	c5 fd 58 c0          	vaddpd %ymm0,%ymm0,%ymm0
  4011de:	c5 fd 58 c0          	vaddpd %ymm0,%ymm0,%ymm0
  4011e2:	c5 fd 58 c0          	vaddpd %ymm0,%ymm0,%ymm0
  4011e6:	c5 fd 58 c0          	vaddpd %ymm0,%ymm0,%ymm0
  4011ea:	c5 fd 58 c0          	vaddpd %ymm0,%ymm0,%ymm0
  4011ee:	c5 fd 58 c0          	vaddpd %ymm0,%ymm0,%ymm0
  4011f2:	c5 fd 58 c0          	vaddpd %ymm0,%ymm0,%ymm0
  4011f6:	c5 fd 58 c0          	vaddpd %ymm0,%ymm0,%ymm0
  4011fa:	c5 fd 58 c0          	vaddpd %ymm0,%ymm0,%ymm0
  4011fe:	c5 fd 58 c0          	vaddpd %ymm0,%ymm0,%ymm0
  401202:	c5 fd 58 c0          	vaddpd %ymm0,%ymm0,%ymm0
  401206:	c5 fd 58 c0          	vaddpd %ymm0,%ymm0,%ymm0
  40120a:	c5 fd 58 c0          	vaddpd %ymm0,%ymm0,%ymm0
  40120e:	c5 fd 58 c0          	vaddpd %ymm0,%ymm0,%ymm0
  401212:	c5 fd 58 c0          	vaddpd %ymm0,%ymm0,%ymm0
  401216:	c5 fd 58 c0          	vaddpd %ymm0,%ymm0,%ymm0
  40121a:	c5 fd 58 c0          	vaddpd %ymm0,%ymm0,%ymm0
  40121e:	c5 fd 58 c0          	vaddpd %ymm0,%ymm0,%ymm0
  401222:	c5 fd 58 c0          	vaddpd %ymm0,%ymm0,%ymm0
  401226:	c5 fd 58 c0          	vaddpd %ymm0,%ymm0,%ymm0
  40122a:	c5 fd 58 c0          	vaddpd %ymm0,%ymm0,%ymm0
  40122e:	c5 fd 58 c0          	vaddpd %ymm0,%ymm0,%ymm0
  401232:	c5 fd 58 c0          	vaddpd %ymm0,%ymm0,%ymm0
  401236:	c5 fd 58 c0          	vaddpd %ymm0,%ymm0,%ymm0
  40123a:	c5 fd 58 c0          	vaddpd %ymm0,%ymm0,%ymm0
  40123e:	c5 fd 58 c0          	vaddpd %ymm0,%ymm0,%ymm0
  401242:	c5 fd 58 c0          	vaddpd %ymm0,%ymm0,%ymm0
  401246:	c5 fd 58 c0          	vaddpd %ymm0,%ymm0,%ymm0
  40124a:	c5 fd 58 c0          	vaddpd %ymm0,%ymm0,%ymm0
  40124e:	c5 fd 58 c0          	vaddpd %ymm0,%ymm0,%ymm0
  401252:	c5 fd 58 c0          	vaddpd %ymm0,%ymm0,%ymm0
  401256:	c5 fd 58 c0          	vaddpd %ymm0,%ymm0,%ymm0
  40125a:	c5 fd 58 c0          	vaddpd %ymm0,%ymm0,%ymm0
  40125e:	c5 fd 58 c0          	vaddpd %ymm0,%ymm0,%ymm0
  401262:	c5 fd 58 c0          	vaddpd %ymm0,%ymm0,%ymm0
  401266:	c5 fd 58 c0          	vaddpd %ymm0,%ymm0,%ymm0
  40126a:	c5 fd 58 c0          	vaddpd %ymm0,%ymm0,%ymm0
  40126e:	c5 fd 58 c0          	vaddpd %ymm0,%ymm0,%ymm0
  401272:	c5 fd 58 c0          	vaddpd %ymm0,%ymm0,%ymm0
  401276:	c5 fd 58 c0          	vaddpd %ymm0,%ymm0,%ymm0
  40127a:	c5 fd 58 c0          	vaddpd %ymm0,%ymm0,%ymm0
  40127e:	c5 fd 58 c0          	vaddpd %ymm0,%ymm0,%ymm0
  401282:	c5 fd 58 c0          	vaddpd %ymm0,%ymm0,%ymm0
  401286:	c5 fd 58 c0          	vaddpd %ymm0,%ymm0,%ymm0
  40128a:	c5 fd 58 c0          	vaddpd %ymm0,%ymm0,%ymm0
  40128e:	c5 fd 58 c0          	vaddpd %ymm0,%ymm0,%ymm0
  401292:	c5 fd 58 c0          	vaddpd %ymm0,%ymm0,%ymm0
  401296:	c5 fd 58 c0          	vaddpd %ymm0,%ymm0,%ymm0
  40129a:	c5 fd 58 c0          	vaddpd %ymm0,%ymm0,%ymm0
  40129e:	c5 fd 58 c0          	vaddpd %ymm0,%ymm0,%ymm0
  4012a2:	c5 fd 58 c0          	vaddpd %ymm0,%ymm0,%ymm0
  4012a6:	c5 fd 58 c0          	vaddpd %ymm0,%ymm0,%ymm0
  4012aa:	c5 fd 58 c0          	vaddpd %ymm0,%ymm0,%ymm0
  4012ae:	c5 fd 58 c0          	vaddpd %ymm0,%ymm0,%ymm0
  4012b2:	c5 fd 58 c0          	vaddpd %ymm0,%ymm0,%ymm0
  4012b6:	c5 fd 58 c0          	vaddpd %ymm0,%ymm0,%ymm0
  4012ba:	c5 fd 58 c0          	vaddpd %ymm0,%ymm0,%ymm0
  4012be:	c5 fd 58 c0          	vaddpd %ymm0,%ymm0,%ymm0
  4012c2:	c5 fd 58 c0          	vaddpd %ymm0,%ymm0,%ymm0
  4012c6:	c5 fd 58 c0          	vaddpd %ymm0,%ymm0,%ymm0
  4012ca:	c5 fd 58 c0          	vaddpd %ymm0,%ymm0,%ymm0
  4012ce:	c5 fd 58 c0          	vaddpd %ymm0,%ymm0,%ymm0
  4012d2:	c5 fd 58 c0          	vaddpd %ymm0,%ymm0,%ymm0
  4012d6:	c5 fd 58 c0          	vaddpd %ymm0,%ymm0,%ymm0
  4012da:	c5 fd 58 c0          	vaddpd %ymm0,%ymm0,%ymm0
  4012de:	c5 fd 58 c0          	vaddpd %ymm0,%ymm0,%ymm0
  4012e2:	c5 fd 58 c0          	vaddpd %ymm0,%ymm0,%ymm0
  4012e6:	c5 fd 58 c0          	vaddpd %ymm0,%ymm0,%ymm0
  4012ea:	c5 fd 58 c0          	vaddpd %ymm0,%ymm0,%ymm0
  4012ee:	c5 fd 58 c0          	vaddpd %ymm0,%ymm0,%ymm0
  4012f2:	c5 fd 58 c0          	vaddpd %ymm0,%ymm0,%ymm0
  4012f6:	c5 fd 58 c0          	vaddpd %ymm0,%ymm0,%ymm0
  4012fa:	c5 fd 58 c0          	vaddpd %ymm0,%ymm0,%ymm0
  4012fe:	c5 fd 58 c0          	vaddpd %ymm0,%ymm0,%ymm0
  401302:	c5 fd 58 c0          	vaddpd %ymm0,%ymm0,%ymm0
  401306:	c5 fd 58 c0          	vaddpd %ymm0,%ymm0,%ymm0
  40130a:	c5 fd 58 c0          	vaddpd %ymm0,%ymm0,%ymm0
  40130e:	c5 fd 58 c0          	vaddpd %ymm0,%ymm0,%ymm0
  401312:	c5 fd 58 c0          	vaddpd %ymm0,%ymm0,%ymm0
  401316:	c5 fd 58 c0          	vaddpd %ymm0,%ymm0,%ymm0
  40131a:	c5 fd 58 c0          	vaddpd %ymm0,%ymm0,%ymm0
  40131e:	c5 fd 58 c0          	vaddpd %ymm0,%ymm0,%ymm0
  401322:	c5 fd 58 c0          	vaddpd %ymm0,%ymm0,%ymm0
  401326:	c5 fd 58 c0          	vaddpd %ymm0,%ymm0,%ymm0
  40132a:	c5 fd 58 c0          	vaddpd %ymm0,%ymm0,%ymm0
  40132e:	c5 fd 58 c0          	vaddpd %ymm0,%ymm0,%ymm0
  401332:	c5 fd 58 c0          	vaddpd %ymm0,%ymm0,%ymm0
  401336:	c5 fd 58 c0          	vaddpd %ymm0,%ymm0,%ymm0
  40133a:	c5 fd 58 c0          	vaddpd %ymm0,%ymm0,%ymm0
  40133e:	c5 fd 58 c0          	vaddpd %ymm0,%ymm0,%ymm0
  401342:	c5 fd 58 c0          	vaddpd %ymm0,%ymm0,%ymm0
  401346:	c5 fd 58 c0          	vaddpd %ymm0,%ymm0,%ymm0
  40134a:	c5 fd 58 c0          	vaddpd %ymm0,%ymm0,%ymm0
  40134e:	c5 fd 58 c0          	vaddpd %ymm0,%ymm0,%ymm0
  401352:	c5 fd 58 c0          	vaddpd %ymm0,%ymm0,%ymm0
  401356:	c5 fd 58 c0          	vaddpd %ymm0,%ymm0,%ymm0
  40135a:	c5 fd 58 c0          	vaddpd %ymm0,%ymm0,%ymm0
  40135e:	c5 fd 58 c0          	vaddpd %ymm0,%ymm0,%ymm0
  401362:	c5 fd 58 c0          	vaddpd %ymm0,%ymm0,%ymm0
  401366:	c5 fd 58 c0          	vaddpd %ymm0,%ymm0,%ymm0
  40136a:	c5 fd 58 c0          	vaddpd %ymm0,%ymm0,%ymm0
  40136e:	c5 fd 58 c0          	vaddpd %ymm0,%ymm0,%ymm0
  401372:	c5 fd 58 c0          	vaddpd %ymm0,%ymm0,%ymm0
  401376:	c5 fd 58 c0          	vaddpd %ymm0,%ymm0,%ymm0
  40137a:	c5 fd 58 c0          	vaddpd %ymm0,%ymm0,%ymm0
  40137e:	c5 fd 58 c0          	vaddpd %ymm0,%ymm0,%ymm0
  401382:	c5 fd 58 c0          	vaddpd %ymm0,%ymm0,%ymm0
  401386:	c5 fd 58 c0          	vaddpd %ymm0,%ymm0,%ymm0
  40138a:	c5 fd 58 c0          	vaddpd %ymm0,%ymm0,%ymm0
  40138e:	c5 fd 58 c0          	vaddpd %ymm0,%ymm0,%ymm0
  401392:	c5 fd 58 c0          	vaddpd %ymm0,%ymm0,%ymm0
  401396:	c5 fd 58 c0          	vaddpd %ymm0,%ymm0,%ymm0
  40139a:	c5 fd 58 c0          	vaddpd %ymm0,%ymm0,%ymm0
  40139e:	c5 fd 58 c0          	vaddpd %ymm0,%ymm0,%ymm0
  4013a2:	c5 fd 58 c0          	vaddpd %ymm0,%ymm0,%ymm0
  4013a6:	c5 fd 58 c0          	vaddpd %ymm0,%ymm0,%ymm0
  4013aa:	c5 fd 58 c0          	vaddpd %ymm0,%ymm0,%ymm0
  4013ae:	c5 fd 58 c0          	vaddpd %ymm0,%ymm0,%ymm0
  4013b2:	c5 fd 58 c0          	vaddpd %ymm0,%ymm0,%ymm0
  4013b6:	c5 fd 58 c0          	vaddpd %ymm0,%ymm0,%ymm0
  4013ba:	c5 fd 58 c0          	vaddpd %ymm0,%ymm0,%ymm0
  4013be:	c5 fd 58 c0          	vaddpd %ymm0,%ymm0,%ymm0
  4013c2:	c5 fd 58 c0          	vaddpd %ymm0,%ymm0,%ymm0
  4013c6:	c5 fd 58 c0          	vaddpd %ymm0,%ymm0,%ymm0
  4013ca:	c5 fd 58 c0          	vaddpd %ymm0,%ymm0,%ymm0
  4013ce:	c5 fd 58 c0          	vaddpd %ymm0,%ymm0,%ymm0
  4013d2:	c5 fd 58 c0          	vaddpd %ymm0,%ymm0,%ymm0
  4013d6:	c5 fd 58 c0          	vaddpd %ymm0,%ymm0,%ymm0
  4013da:	c5 fd 58 c0          	vaddpd %ymm0,%ymm0,%ymm0
  4013de:	c5 fd 58 c0          	vaddpd %ymm0,%ymm0,%ymm0
  4013e2:	c5 fd 58 c0          	vaddpd %ymm0,%ymm0,%ymm0
  4013e6:	c5 fd 58 c0          	vaddpd %ymm0,%ymm0,%ymm0
  4013ea:	c5 fd 58 c0          	vaddpd %ymm0,%ymm0,%ymm0
  4013ee:	c5 fd 58 c0          	vaddpd %ymm0,%ymm0,%ymm0
  4013f2:	c5 fd 58 c0          	vaddpd %ymm0,%ymm0,%ymm0
  4013f6:	c5 fd 58 c0          	vaddpd %ymm0,%ymm0,%ymm0
  4013fa:	c5 fd 58 c0          	vaddpd %ymm0,%ymm0,%ymm0
  4013fe:	c5 fd 58 c0          	vaddpd %ymm0,%ymm0,%ymm0
  401402:	c5 fd 58 c0          	vaddpd %ymm0,%ymm0,%ymm0
  401406:	c5 fd 58 c0          	vaddpd %ymm0,%ymm0,%ymm0
  40140a:	c5 fd 58 c0          	vaddpd %ymm0,%ymm0,%ymm0
  40140e:	c5 fd 58 c0          	vaddpd %ymm0,%ymm0,%ymm0
  401412:	c5 fd 58 c0          	vaddpd %ymm0,%ymm0,%ymm0
  401416:	c5 fd 58 c0          	vaddpd %ymm0,%ymm0,%ymm0
  40141a:	c5 fd 58 c0          	vaddpd %ymm0,%ymm0,%ymm0
  40141e:	c5 fd 58 c0          	vaddpd %ymm0,%ymm0,%ymm0
  401422:	c5 fd 58 c0          	vaddpd %ymm0,%ymm0,%ymm0
  401426:	c5 fd 58 c0          	vaddpd %ymm0,%ymm0,%ymm0
  40142a:	c5 fd 58 c0          	vaddpd %ymm0,%ymm0,%ymm0
  40142e:	c5 fd 58 c0          	vaddpd %ymm0,%ymm0,%ymm0
  401432:	c5 fd 58 c0          	vaddpd %ymm0,%ymm0,%ymm0
  401436:	c5 fd 58 c0          	vaddpd %ymm0,%ymm0,%ymm0
  40143a:	c5 fd 58 c0          	vaddpd %ymm0,%ymm0,%ymm0
  40143e:	c5 fd 58 c0          	vaddpd %ymm0,%ymm0,%ymm0
  401442:	c5 fd 58 c0          	vaddpd %ymm0,%ymm0,%ymm0
  401446:	c5 fd 58 c0          	vaddpd %ymm0,%ymm0,%ymm0
  40144a:	c5 fd 58 c0          	vaddpd %ymm0,%ymm0,%ymm0
  40144e:	c5 fd 58 c0          	vaddpd %ymm0,%ymm0,%ymm0
  401452:	c5 fd 58 c0          	vaddpd %ymm0,%ymm0,%ymm0
  401456:	c5 fd 58 c0          	vaddpd %ymm0,%ymm0,%ymm0
  40145a:	c5 fd 58 c0          	vaddpd %ymm0,%ymm0,%ymm0
  40145e:	c5 fd 58 c0          	vaddpd %ymm0,%ymm0,%ymm0
  401462:	c5 fd 58 c0          	vaddpd %ymm0,%ymm0,%ymm0
  401466:	c5 fd 58 c0          	vaddpd %ymm0,%ymm0,%ymm0
  40146a:	c5 fd 58 c0          	vaddpd %ymm0,%ymm0,%ymm0
  40146e:	c5 fd 58 c0          	vaddpd %ymm0,%ymm0,%ymm0
  401472:	c5 fd 58 c0          	vaddpd %ymm0,%ymm0,%ymm0
  401476:	c5 fd 58 c0          	vaddpd %ymm0,%ymm0,%ymm0
  40147a:	c5 fd 58 c0          	vaddpd %ymm0,%ymm0,%ymm0
  40147e:	c5 fd 58 c0          	vaddpd %ymm0,%ymm0,%ymm0
  401482:	c5 fd 58 c0          	vaddpd %ymm0,%ymm0,%ymm0
  401486:	c5 fd 58 c0          	vaddpd %ymm0,%ymm0,%ymm0
  40148a:	c5 fd 58 c0          	vaddpd %ymm0,%ymm0,%ymm0
  40148e:	c5 fd 58 c0          	vaddpd %ymm0,%ymm0,%ymm0
  401492:	c5 fd 58 c0          	vaddpd %ymm0,%ymm0,%ymm0
  401496:	c5 fd 58 c0          	vaddpd %ymm0,%ymm0,%ymm0
  40149a:	c5 fd 58 c0          	vaddpd %ymm0,%ymm0,%ymm0
  40149e:	c5 fd 58 c0          	vaddpd %ymm0,%ymm0,%ymm0
  4014a2:	c5 fd 58 c0          	vaddpd %ymm0,%ymm0,%ymm0
  4014a6:	c5 fd 58 c0          	vaddpd %ymm0,%ymm0,%ymm0
  4014aa:	c5 fd 58 c0          	vaddpd %ymm0,%ymm0,%ymm0
  4014ae:	c5 fd 58 c0          	vaddpd %ymm0,%ymm0,%ymm0
  4014b2:	c5 fd 58 c0          	vaddpd %ymm0,%ymm0,%ymm0
  4014b6:	c5 fd 58 c0          	vaddpd %ymm0,%ymm0,%ymm0
  4014ba:	c5 fd 58 c0          	vaddpd %ymm0,%ymm0,%ymm0
  4014be:	c5 fd 58 c0          	vaddpd %ymm0,%ymm0,%ymm0
  4014c2:	c5 fd 58 c0          	vaddpd %ymm0,%ymm0,%ymm0
  4014c6:	c5 fd 58 c0          	vaddpd %ymm0,%ymm0,%ymm0
  4014ca:	c5 fd 58 c0          	vaddpd %ymm0,%ymm0,%ymm0
  4014ce:	c5 fd 58 c0          	vaddpd %ymm0,%ymm0,%ymm0
  4014d2:	c5 fd 58 c0          	vaddpd %ymm0,%ymm0,%ymm0
  4014d6:	c5 fd 58 c0          	vaddpd %ymm0,%ymm0,%ymm0
  4014da:	c5 fd 58 c0          	vaddpd %ymm0,%ymm0,%ymm0
  4014de:	c5 fd 58 c0          	vaddpd %ymm0,%ymm0,%ymm0
  4014e2:	c5 fd 58 c0          	vaddpd %ymm0,%ymm0,%ymm0
  4014e6:	c5 fd 58 c0          	vaddpd %ymm0,%ymm0,%ymm0
  4014ea:	c5 fd 58 c0          	vaddpd %ymm0,%ymm0,%ymm0
  4014ee:	c5 fd 58 c0          	vaddpd %ymm0,%ymm0,%ymm0
  4014f2:	c5 fd 58 c0          	vaddpd %ymm0,%ymm0,%ymm0
  4014f6:	c5 fd 58 c0          	vaddpd %ymm0,%ymm0,%ymm0
  4014fa:	c5 fd 58 c0          	vaddpd %ymm0,%ymm0,%ymm0
  4014fe:	c5 fd 58 c0          	vaddpd %ymm0,%ymm0,%ymm0
  401502:	c5 fd 58 c0          	vaddpd %ymm0,%ymm0,%ymm0
  401506:	c5 fd 58 c0          	vaddpd %ymm0,%ymm0,%ymm0
  40150a:	c5 fd 58 c0          	vaddpd %ymm0,%ymm0,%ymm0
  40150e:	c5 fd 58 c0          	vaddpd %ymm0,%ymm0,%ymm0
  401512:	c5 fd 58 c0          	vaddpd %ymm0,%ymm0,%ymm0
  401516:	c5 fd 58 c0          	vaddpd %ymm0,%ymm0,%ymm0
  40151a:	c5 fd 58 c0          	vaddpd %ymm0,%ymm0,%ymm0
  40151e:	c5 fd 58 c0          	vaddpd %ymm0,%ymm0,%ymm0
  401522:	c5 fd 58 c0          	vaddpd %ymm0,%ymm0,%ymm0
  401526:	c5 fd 58 c0          	vaddpd %ymm0,%ymm0,%ymm0
  40152a:	c5 fd 58 c0          	vaddpd %ymm0,%ymm0,%ymm0
  40152e:	c5 fd 58 c0          	vaddpd %ymm0,%ymm0,%ymm0
  401532:	c5 fd 58 c0          	vaddpd %ymm0,%ymm0,%ymm0
  401536:	c5 fd 58 c0          	vaddpd %ymm0,%ymm0,%ymm0
  40153a:	c5 fd 58 c0          	vaddpd %ymm0,%ymm0,%ymm0
  40153e:	c5 fd 58 c0          	vaddpd %ymm0,%ymm0,%ymm0
  401542:	c5 fd 58 c0          	vaddpd %ymm0,%ymm0,%ymm0
  401546:	c5 fd 58 c0          	vaddpd %ymm0,%ymm0,%ymm0
  40154a:	c5 fd 58 c0          	vaddpd %ymm0,%ymm0,%ymm0
  40154e:	c5 fd 58 c0          	vaddpd %ymm0,%ymm0,%ymm0
  401552:	c5 fd 58 c0          	vaddpd %ymm0,%ymm0,%ymm0
  401556:	c5 fd 58 c0          	vaddpd %ymm0,%ymm0,%ymm0
  40155a:	c5 fd 58 c0          	vaddpd %ymm0,%ymm0,%ymm0
  40155e:	c5 fd 58 c0          	vaddpd %ymm0,%ymm0,%ymm0
  401562:	c5 fd 58 c0          	vaddpd %ymm0,%ymm0,%ymm0
  401566:	c5 fd 58 c0          	vaddpd %ymm0,%ymm0,%ymm0
  40156a:	c5 fd 58 c0          	vaddpd %ymm0,%ymm0,%ymm0
  40156e:	c5 fd 58 c0          	vaddpd %ymm0,%ymm0,%ymm0
  401572:	c5 fd 58 c0          	vaddpd %ymm0,%ymm0,%ymm0
  401576:	c5 fd 58 c0          	vaddpd %ymm0,%ymm0,%ymm0
  40157a:	c5 fd 58 c0          	vaddpd %ymm0,%ymm0,%ymm0
  40157e:	c5 fd 58 c0          	vaddpd %ymm0,%ymm0,%ymm0
  401582:	c5 fd 58 c0          	vaddpd %ymm0,%ymm0,%ymm0
  401586:	c5 fd 58 c0          	vaddpd %ymm0,%ymm0,%ymm0
  40158a:	c5 fd 58 c0          	vaddpd %ymm0,%ymm0,%ymm0
  40158e:	c5 fd 58 c0          	vaddpd %ymm0,%ymm0,%ymm0
  401592:	c5 fd 58 c0          	vaddpd %ymm0,%ymm0,%ymm0
  401596:	c5 fd 58 c0          	vaddpd %ymm0,%ymm0,%ymm0
  40159a:	c5 fd 58 c0          	vaddpd %ymm0,%ymm0,%ymm0
  40159e:	c5 fd 58 c0          	vaddpd %ymm0,%ymm0,%ymm0
  4015a2:	c5 fd 58 c0          	vaddpd %ymm0,%ymm0,%ymm0
  4015a6:	c5 fd 58 c0          	vaddpd %ymm0,%ymm0,%ymm0
  4015aa:	c5 fd 58 c0          	vaddpd %ymm0,%ymm0,%ymm0
  4015ae:	c5 fd 58 c0          	vaddpd %ymm0,%ymm0,%ymm0
  4015b2:	c5 fd 58 c0          	vaddpd %ymm0,%ymm0,%ymm0
  4015b6:	c5 fd 58 c0          	vaddpd %ymm0,%ymm0,%ymm0
  4015ba:	c5 fd 58 c0          	vaddpd %ymm0,%ymm0,%ymm0
  4015be:	c5 fd 58 c0          	vaddpd %ymm0,%ymm0,%ymm0
  4015c2:	c5 fd 58 c0          	vaddpd %ymm0,%ymm0,%ymm0
  4015c6:	c5 fd 58 c0          	vaddpd %ymm0,%ymm0,%ymm0
  4015ca:	c5 fd 58 c0          	vaddpd %ymm0,%ymm0,%ymm0
  4015ce:	c5 fd 58 c0          	vaddpd %ymm0,%ymm0,%ymm0
  4015d2:	c5 fd 58 c0          	vaddpd %ymm0,%ymm0,%ymm0
  4015d6:	c5 fd 58 c0          	vaddpd %ymm0,%ymm0,%ymm0
  4015da:	c5 fd 58 c0          	vaddpd %ymm0,%ymm0,%ymm0
  4015de:	c5 fd 58 c0          	vaddpd %ymm0,%ymm0,%ymm0
  4015e2:	c5 fd 58 c0          	vaddpd %ymm0,%ymm0,%ymm0
  4015e6:	c5 fd 58 c0          	vaddpd %ymm0,%ymm0,%ymm0
  4015ea:	c5 fd 58 c0          	vaddpd %ymm0,%ymm0,%ymm0
  4015ee:	c5 fd 58 c0          	vaddpd %ymm0,%ymm0,%ymm0
  4015f2:	c5 fd 58 c0          	vaddpd %ymm0,%ymm0,%ymm0
  4015f6:	c5 fd 58 c0          	vaddpd %ymm0,%ymm0,%ymm0
  4015fa:	c5 fd 58 c0          	vaddpd %ymm0,%ymm0,%ymm0
  4015fe:	c5 fd 58 c0          	vaddpd %ymm0,%ymm0,%ymm0
  401602:	c5 fd 58 c0          	vaddpd %ymm0,%ymm0,%ymm0
  401606:	c5 fd 58 c0          	vaddpd %ymm0,%ymm0,%ymm0
  40160a:	c5 fd 58 c0          	vaddpd %ymm0,%ymm0,%ymm0
  40160e:	c5 fd 58 c0          	vaddpd %ymm0,%ymm0,%ymm0
  401612:	c5 fd 58 c0          	vaddpd %ymm0,%ymm0,%ymm0
  401616:	c5 fd 58 c0          	vaddpd %ymm0,%ymm0,%ymm0
  40161a:	c5 fd 58 c0          	vaddpd %ymm0,%ymm0,%ymm0
  40161e:	c5 fd 58 c0          	vaddpd %ymm0,%ymm0,%ymm0
  401622:	c5 fd 58 c0          	vaddpd %ymm0,%ymm0,%ymm0
  401626:	c5 fd 58 c0          	vaddpd %ymm0,%ymm0,%ymm0
  40162a:	c5 fd 58 c0          	vaddpd %ymm0,%ymm0,%ymm0
  40162e:	c5 fd 58 c0          	vaddpd %ymm0,%ymm0,%ymm0
  401632:	c5 fd 58 c0          	vaddpd %ymm0,%ymm0,%ymm0
  401636:	c5 fd 58 c0          	vaddpd %ymm0,%ymm0,%ymm0
  40163a:	c5 fd 58 c0          	vaddpd %ymm0,%ymm0,%ymm0
  40163e:	c5 fd 58 c0          	vaddpd %ymm0,%ymm0,%ymm0
  401642:	c5 fd 58 c0          	vaddpd %ymm0,%ymm0,%ymm0
  401646:	c5 fd 58 c0          	vaddpd %ymm0,%ymm0,%ymm0
  40164a:	c5 fd 58 c0          	vaddpd %ymm0,%ymm0,%ymm0
  40164e:	c5 fd 58 c0          	vaddpd %ymm0,%ymm0,%ymm0
  401652:	c5 fd 58 c0          	vaddpd %ymm0,%ymm0,%ymm0
  401656:	c5 fd 58 c0          	vaddpd %ymm0,%ymm0,%ymm0
  40165a:	c5 fd 58 c0          	vaddpd %ymm0,%ymm0,%ymm0
  40165e:	c5 fd 58 c0          	vaddpd %ymm0,%ymm0,%ymm0
  401662:	c5 fd 58 c0          	vaddpd %ymm0,%ymm0,%ymm0
  401666:	c5 fd 58 c0          	vaddpd %ymm0,%ymm0,%ymm0
  40166a:	c5 fd 58 c0          	vaddpd %ymm0,%ymm0,%ymm0
  40166e:	c5 fd 58 c0          	vaddpd %ymm0,%ymm0,%ymm0
  401672:	c5 fd 58 c0          	vaddpd %ymm0,%ymm0,%ymm0
  401676:	c5 fd 58 c0          	vaddpd %ymm0,%ymm0,%ymm0
  40167a:	c5 fd 58 c0          	vaddpd %ymm0,%ymm0,%ymm0
  40167e:	c5 fd 58 c0          	vaddpd %ymm0,%ymm0,%ymm0
  401682:	c5 fd 58 c0          	vaddpd %ymm0,%ymm0,%ymm0
  401686:	c5 fd 58 c0          	vaddpd %ymm0,%ymm0,%ymm0
  40168a:	c5 fd 58 c0          	vaddpd %ymm0,%ymm0,%ymm0
  40168e:	c5 fd 58 c0          	vaddpd %ymm0,%ymm0,%ymm0
  401692:	c5 fd 58 c0          	vaddpd %ymm0,%ymm0,%ymm0
  401696:	c5 fd 58 c0          	vaddpd %ymm0,%ymm0,%ymm0
  40169a:	c5 fd 58 c0          	vaddpd %ymm0,%ymm0,%ymm0
  40169e:	c5 fd 58 c0          	vaddpd %ymm0,%ymm0,%ymm0
  4016a2:	c5 fd 58 c0          	vaddpd %ymm0,%ymm0,%ymm0
  4016a6:	c5 fd 58 c0          	vaddpd %ymm0,%ymm0,%ymm0
  4016aa:	c5 fd 58 c0          	vaddpd %ymm0,%ymm0,%ymm0
  4016ae:	c5 fd 58 c0          	vaddpd %ymm0,%ymm0,%ymm0
  4016b2:	c5 fd 58 c0          	vaddpd %ymm0,%ymm0,%ymm0
  4016b6:	c5 fd 58 c0          	vaddpd %ymm0,%ymm0,%ymm0
  4016ba:	c5 fd 58 c0          	vaddpd %ymm0,%ymm0,%ymm0
  4016be:	c5 fd 58 c0          	vaddpd %ymm0,%ymm0,%ymm0
  4016c2:	c5 fd 58 c0          	vaddpd %ymm0,%ymm0,%ymm0
  4016c6:	c5 fd 58 c0          	vaddpd %ymm0,%ymm0,%ymm0
  4016ca:	c5 fd 58 c0          	vaddpd %ymm0,%ymm0,%ymm0
  4016ce:	c5 fd 58 c0          	vaddpd %ymm0,%ymm0,%ymm0
  4016d2:	c5 fd 58 c0          	vaddpd %ymm0,%ymm0,%ymm0
  4016d6:	c5 fd 58 c0          	vaddpd %ymm0,%ymm0,%ymm0
  4016da:	c5 fd 58 c0          	vaddpd %ymm0,%ymm0,%ymm0
  4016de:	c5 fd 58 c0          	vaddpd %ymm0,%ymm0,%ymm0
  4016e2:	c5 fd 58 c0          	vaddpd %ymm0,%ymm0,%ymm0
  4016e6:	c5 fd 58 c0          	vaddpd %ymm0,%ymm0,%ymm0
  4016ea:	c5 fd 58 c0          	vaddpd %ymm0,%ymm0,%ymm0
  4016ee:	c5 fd 58 c0          	vaddpd %ymm0,%ymm0,%ymm0
  4016f2:	c5 fd 58 c0          	vaddpd %ymm0,%ymm0,%ymm0
  4016f6:	c5 fd 58 c0          	vaddpd %ymm0,%ymm0,%ymm0
  4016fa:	c5 fd 58 c0          	vaddpd %ymm0,%ymm0,%ymm0
  4016fe:	c5 fd 58 c0          	vaddpd %ymm0,%ymm0,%ymm0
  401702:	c5 fd 58 c0          	vaddpd %ymm0,%ymm0,%ymm0
  401706:	c5 fd 58 c0          	vaddpd %ymm0,%ymm0,%ymm0
  40170a:	c5 fd 58 c0          	vaddpd %ymm0,%ymm0,%ymm0
  40170e:	c5 fd 58 c0          	vaddpd %ymm0,%ymm0,%ymm0
  401712:	c5 fd 58 c0          	vaddpd %ymm0,%ymm0,%ymm0
  401716:	c5 fd 58 c0          	vaddpd %ymm0,%ymm0,%ymm0
  40171a:	c5 fd 58 c0          	vaddpd %ymm0,%ymm0,%ymm0
  40171e:	c5 fd 58 c0          	vaddpd %ymm0,%ymm0,%ymm0
  401722:	c5 fd 58 c0          	vaddpd %ymm0,%ymm0,%ymm0
  401726:	c5 fd 58 c0          	vaddpd %ymm0,%ymm0,%ymm0
  40172a:	c5 fd 58 c0          	vaddpd %ymm0,%ymm0,%ymm0
  40172e:	c5 fd 58 c0          	vaddpd %ymm0,%ymm0,%ymm0
  401732:	c5 fd 58 c0          	vaddpd %ymm0,%ymm0,%ymm0
  401736:	c5 fd 58 c0          	vaddpd %ymm0,%ymm0,%ymm0
  40173a:	c5 fd 58 c0          	vaddpd %ymm0,%ymm0,%ymm0
  40173e:	c5 fd 58 c0          	vaddpd %ymm0,%ymm0,%ymm0
  401742:	c5 fd 58 c0          	vaddpd %ymm0,%ymm0,%ymm0
  401746:	c5 fd 58 c0          	vaddpd %ymm0,%ymm0,%ymm0
  40174a:	c5 fd 58 c0          	vaddpd %ymm0,%ymm0,%ymm0
  40174e:	c5 fd 58 c0          	vaddpd %ymm0,%ymm0,%ymm0
  401752:	c5 fd 58 c0          	vaddpd %ymm0,%ymm0,%ymm0
  401756:	c5 fd 58 c0          	vaddpd %ymm0,%ymm0,%ymm0
  40175a:	c5 fd 58 c0          	vaddpd %ymm0,%ymm0,%ymm0
  40175e:	c5 fd 58 c0          	vaddpd %ymm0,%ymm0,%ymm0
  401762:	c5 fd 58 c0          	vaddpd %ymm0,%ymm0,%ymm0
  401766:	c5 fd 58 c0          	vaddpd %ymm0,%ymm0,%ymm0
  40176a:	c5 fd 58 c0          	vaddpd %ymm0,%ymm0,%ymm0
  40176e:	c5 fd 58 c0          	vaddpd %ymm0,%ymm0,%ymm0
  401772:	c5 fd 58 c0          	vaddpd %ymm0,%ymm0,%ymm0
  401776:	c5 fd 58 c0          	vaddpd %ymm0,%ymm0,%ymm0
  40177a:	c5 fd 58 c0          	vaddpd %ymm0,%ymm0,%ymm0
  40177e:	c5 fd 58 c0          	vaddpd %ymm0,%ymm0,%ymm0
  401782:	c5 fd 58 c0          	vaddpd %ymm0,%ymm0,%ymm0
  401786:	c5 fd 58 c0          	vaddpd %ymm0,%ymm0,%ymm0
  40178a:	c5 fd 58 c0          	vaddpd %ymm0,%ymm0,%ymm0
  40178e:	c5 fd 58 c0          	vaddpd %ymm0,%ymm0,%ymm0
  401792:	c5 fd 58 c0          	vaddpd %ymm0,%ymm0,%ymm0
  401796:	c5 fd 58 c0          	vaddpd %ymm0,%ymm0,%ymm0
  40179a:	c5 fd 58 c0          	vaddpd %ymm0,%ymm0,%ymm0
  40179e:	c5 fd 58 c0          	vaddpd %ymm0,%ymm0,%ymm0
  4017a2:	c5 fd 58 c0          	vaddpd %ymm0,%ymm0,%ymm0
  4017a6:	c5 fd 58 c0          	vaddpd %ymm0,%ymm0,%ymm0
  4017aa:	c5 fd 58 c0          	vaddpd %ymm0,%ymm0,%ymm0
  4017ae:	c5 fd 58 c0          	vaddpd %ymm0,%ymm0,%ymm0
  4017b2:	c5 fd 58 c0          	vaddpd %ymm0,%ymm0,%ymm0
  4017b6:	c5 fd 58 c0          	vaddpd %ymm0,%ymm0,%ymm0
  4017ba:	c5 fd 58 c0          	vaddpd %ymm0,%ymm0,%ymm0
  4017be:	c5 fd 58 c0          	vaddpd %ymm0,%ymm0,%ymm0
  4017c2:	c5 fd 58 c0          	vaddpd %ymm0,%ymm0,%ymm0
  4017c6:	c5 fd 58 c0          	vaddpd %ymm0,%ymm0,%ymm0
  4017ca:	c5 fd 58 c0          	vaddpd %ymm0,%ymm0,%ymm0
  4017ce:	c5 fd 58 c0          	vaddpd %ymm0,%ymm0,%ymm0
  4017d2:	c5 fd 58 c0          	vaddpd %ymm0,%ymm0,%ymm0
  4017d6:	c5 fd 58 c0          	vaddpd %ymm0,%ymm0,%ymm0
  4017da:	c5 fd 58 c0          	vaddpd %ymm0,%ymm0,%ymm0
  4017de:	c5 fd 58 c0          	vaddpd %ymm0,%ymm0,%ymm0
  4017e2:	c5 fd 58 c0          	vaddpd %ymm0,%ymm0,%ymm0
  4017e6:	c5 fd 58 c0          	vaddpd %ymm0,%ymm0,%ymm0
  4017ea:	c5 fd 58 c0          	vaddpd %ymm0,%ymm0,%ymm0
  4017ee:	c5 fd 58 c0          	vaddpd %ymm0,%ymm0,%ymm0
  4017f2:	c5 fd 58 c0          	vaddpd %ymm0,%ymm0,%ymm0
  4017f6:	c5 fd 58 c0          	vaddpd %ymm0,%ymm0,%ymm0
  4017fa:	c5 fd 58 c0          	vaddpd %ymm0,%ymm0,%ymm0
  4017fe:	c5 fd 58 c0          	vaddpd %ymm0,%ymm0,%ymm0
  401802:	c5 fd 58 c0          	vaddpd %ymm0,%ymm0,%ymm0
  401806:	c5 fd 58 c0          	vaddpd %ymm0,%ymm0,%ymm0
  40180a:	c5 fd 58 c0          	vaddpd %ymm0,%ymm0,%ymm0
  40180e:	c5 fd 58 c0          	vaddpd %ymm0,%ymm0,%ymm0
  401812:	c5 fd 58 c0          	vaddpd %ymm0,%ymm0,%ymm0
  401816:	c5 fd 58 c0          	vaddpd %ymm0,%ymm0,%ymm0
  40181a:	c5 fd 58 c0          	vaddpd %ymm0,%ymm0,%ymm0
  40181e:	c5 fd 58 c0          	vaddpd %ymm0,%ymm0,%ymm0
  401822:	c5 fd 58 c0          	vaddpd %ymm0,%ymm0,%ymm0
  401826:	c5 fd 58 c0          	vaddpd %ymm0,%ymm0,%ymm0
  40182a:	c5 fd 58 c0          	vaddpd %ymm0,%ymm0,%ymm0
  40182e:	c5 fd 58 c0          	vaddpd %ymm0,%ymm0,%ymm0
  401832:	c5 fd 58 c0          	vaddpd %ymm0,%ymm0,%ymm0
  401836:	c5 fd 58 c0          	vaddpd %ymm0,%ymm0,%ymm0
  40183a:	c5 fd 58 c0          	vaddpd %ymm0,%ymm0,%ymm0
  40183e:	c5 fd 58 c0          	vaddpd %ymm0,%ymm0,%ymm0
  401842:	c5 fd 58 c0          	vaddpd %ymm0,%ymm0,%ymm0
  401846:	c5 fd 58 c0          	vaddpd %ymm0,%ymm0,%ymm0
  40184a:	c5 fd 58 c0          	vaddpd %ymm0,%ymm0,%ymm0
  40184e:	c5 fd 58 c0          	vaddpd %ymm0,%ymm0,%ymm0
  401852:	c5 fd 58 c0          	vaddpd %ymm0,%ymm0,%ymm0
  401856:	c5 fd 58 c0          	vaddpd %ymm0,%ymm0,%ymm0
  40185a:	c5 fd 58 c0          	vaddpd %ymm0,%ymm0,%ymm0
  40185e:	c5 fd 58 c0          	vaddpd %ymm0,%ymm0,%ymm0
  401862:	c5 fd 58 c0          	vaddpd %ymm0,%ymm0,%ymm0
  401866:	c5 fd 58 c0          	vaddpd %ymm0,%ymm0,%ymm0
  40186a:	c5 fd 58 c0          	vaddpd %ymm0,%ymm0,%ymm0
  40186e:	c5 fd 58 c0          	vaddpd %ymm0,%ymm0,%ymm0
  401872:	c5 fd 58 c0          	vaddpd %ymm0,%ymm0,%ymm0
  401876:	c5 fd 58 c0          	vaddpd %ymm0,%ymm0,%ymm0
  40187a:	c5 fd 58 c0          	vaddpd %ymm0,%ymm0,%ymm0
  40187e:	c5 fd 58 c0          	vaddpd %ymm0,%ymm0,%ymm0
  401882:	c5 fd 58 c0          	vaddpd %ymm0,%ymm0,%ymm0
  401886:	c5 fd 58 c0          	vaddpd %ymm0,%ymm0,%ymm0
  40188a:	c5 fd 58 c0          	vaddpd %ymm0,%ymm0,%ymm0
  40188e:	c5 fd 58 c0          	vaddpd %ymm0,%ymm0,%ymm0
  401892:	c5 fd 58 c0          	vaddpd %ymm0,%ymm0,%ymm0
  401896:	c5 fd 58 c0          	vaddpd %ymm0,%ymm0,%ymm0
  40189a:	c5 fd 58 c0          	vaddpd %ymm0,%ymm0,%ymm0
  40189e:	c5 fd 58 c0          	vaddpd %ymm0,%ymm0,%ymm0
  4018a2:	c5 fd 58 c0          	vaddpd %ymm0,%ymm0,%ymm0
  4018a6:	c5 fd 58 c0          	vaddpd %ymm0,%ymm0,%ymm0
  4018aa:	c5 fd 58 c0          	vaddpd %ymm0,%ymm0,%ymm0
  4018ae:	c5 fd 58 c0          	vaddpd %ymm0,%ymm0,%ymm0
  4018b2:	c5 fd 58 c0          	vaddpd %ymm0,%ymm0,%ymm0
  4018b6:	c5 fd 58 c0          	vaddpd %ymm0,%ymm0,%ymm0
  4018ba:	c5 fd 58 c0          	vaddpd %ymm0,%ymm0,%ymm0
  4018be:	c5 fd 58 c0          	vaddpd %ymm0,%ymm0,%ymm0
  4018c2:	c5 fd 58 c0          	vaddpd %ymm0,%ymm0,%ymm0
  4018c6:	c5 fd 58 c0          	vaddpd %ymm0,%ymm0,%ymm0
  4018ca:	c5 fd 58 c0          	vaddpd %ymm0,%ymm0,%ymm0
  4018ce:	c5 fd 58 c0          	vaddpd %ymm0,%ymm0,%ymm0
  4018d2:	c5 fd 58 c0          	vaddpd %ymm0,%ymm0,%ymm0
  4018d6:	c5 fd 58 c0          	vaddpd %ymm0,%ymm0,%ymm0
  4018da:	c5 fd 58 c0          	vaddpd %ymm0,%ymm0,%ymm0
  4018de:	c5 fd 58 c0          	vaddpd %ymm0,%ymm0,%ymm0
  4018e2:	c5 fd 58 c0          	vaddpd %ymm0,%ymm0,%ymm0
  4018e6:	c5 fd 58 c0          	vaddpd %ymm0,%ymm0,%ymm0
  4018ea:	c5 fd 58 c0          	vaddpd %ymm0,%ymm0,%ymm0
  4018ee:	c5 fd 58 c0          	vaddpd %ymm0,%ymm0,%ymm0
  4018f2:	c5 fd 58 c0          	vaddpd %ymm0,%ymm0,%ymm0
  4018f6:	c5 fd 58 c0          	vaddpd %ymm0,%ymm0,%ymm0
  4018fa:	c5 fd 58 c0          	vaddpd %ymm0,%ymm0,%ymm0
  4018fe:	c5 fd 58 c0          	vaddpd %ymm0,%ymm0,%ymm0
  401902:	c5 fd 58 c0          	vaddpd %ymm0,%ymm0,%ymm0
  401906:	c5 fd 58 c0          	vaddpd %ymm0,%ymm0,%ymm0
  40190a:	c5 fd 58 c0          	vaddpd %ymm0,%ymm0,%ymm0
  40190e:	c5 fd 58 c0          	vaddpd %ymm0,%ymm0,%ymm0
  401912:	c5 fd 58 c0          	vaddpd %ymm0,%ymm0,%ymm0
  401916:	c5 fd 58 c0          	vaddpd %ymm0,%ymm0,%ymm0
  40191a:	c5 fd 58 c0          	vaddpd %ymm0,%ymm0,%ymm0
  40191e:	c5 fd 58 c0          	vaddpd %ymm0,%ymm0,%ymm0
  401922:	c5 fd 58 c0          	vaddpd %ymm0,%ymm0,%ymm0
  401926:	c5 fd 58 c0          	vaddpd %ymm0,%ymm0,%ymm0
  40192a:	c5 fd 58 c0          	vaddpd %ymm0,%ymm0,%ymm0
  40192e:	c5 fd 58 c0          	vaddpd %ymm0,%ymm0,%ymm0
  401932:	c5 fd 58 c0          	vaddpd %ymm0,%ymm0,%ymm0
  401936:	c5 fd 58 c0          	vaddpd %ymm0,%ymm0,%ymm0
  40193a:	c5 fd 58 c0          	vaddpd %ymm0,%ymm0,%ymm0
  40193e:	c5 fd 58 c0          	vaddpd %ymm0,%ymm0,%ymm0
  401942:	c5 fd 58 c0          	vaddpd %ymm0,%ymm0,%ymm0
  401946:	c5 fd 58 c0          	vaddpd %ymm0,%ymm0,%ymm0
  40194a:	c5 fd 58 c0          	vaddpd %ymm0,%ymm0,%ymm0
  40194e:	c5 fd 58 c0          	vaddpd %ymm0,%ymm0,%ymm0
  401952:	c5 fd 58 c0          	vaddpd %ymm0,%ymm0,%ymm0
  401956:	c5 fd 58 c0          	vaddpd %ymm0,%ymm0,%ymm0
  40195a:	c5 fd 58 c0          	vaddpd %ymm0,%ymm0,%ymm0
  40195e:	c5 fd 58 c0          	vaddpd %ymm0,%ymm0,%ymm0
  401962:	c5 fd 58 c0          	vaddpd %ymm0,%ymm0,%ymm0
  401966:	c5 fd 58 c0          	vaddpd %ymm0,%ymm0,%ymm0
  40196a:	c5 fd 58 c0          	vaddpd %ymm0,%ymm0,%ymm0
  40196e:	c5 fd 58 c0          	vaddpd %ymm0,%ymm0,%ymm0
  401972:	c5 fd 58 c0          	vaddpd %ymm0,%ymm0,%ymm0
  401976:	c5 fd 58 c0          	vaddpd %ymm0,%ymm0,%ymm0
  40197a:	c5 fd 58 c0          	vaddpd %ymm0,%ymm0,%ymm0
  40197e:	c5 fd 58 c0          	vaddpd %ymm0,%ymm0,%ymm0
  401982:	c5 fd 58 c0          	vaddpd %ymm0,%ymm0,%ymm0
  401986:	c5 fd 58 c0          	vaddpd %ymm0,%ymm0,%ymm0
  40198a:	c5 fd 58 c0          	vaddpd %ymm0,%ymm0,%ymm0
  40198e:	c5 fd 58 c0          	vaddpd %ymm0,%ymm0,%ymm0
  401992:	c5 fd 58 c0          	vaddpd %ymm0,%ymm0,%ymm0
  401996:	c5 fd 58 c0          	vaddpd %ymm0,%ymm0,%ymm0
  40199a:	c5 fd 58 c0          	vaddpd %ymm0,%ymm0,%ymm0
  40199e:	c5 fd 58 c0          	vaddpd %ymm0,%ymm0,%ymm0
  4019a2:	c5 fd 58 c0          	vaddpd %ymm0,%ymm0,%ymm0
  4019a6:	c5 fd 58 c0          	vaddpd %ymm0,%ymm0,%ymm0
  4019aa:	c5 fd 58 c0          	vaddpd %ymm0,%ymm0,%ymm0
  4019ae:	c5 fd 58 c0          	vaddpd %ymm0,%ymm0,%ymm0
  4019b2:	c5 fd 58 c0          	vaddpd %ymm0,%ymm0,%ymm0
  4019b6:	c5 fd 58 c0          	vaddpd %ymm0,%ymm0,%ymm0
  4019ba:	c5 fd 58 c0          	vaddpd %ymm0,%ymm0,%ymm0
  4019be:	c5 fd 58 c0          	vaddpd %ymm0,%ymm0,%ymm0
  4019c2:	c5 fd 58 c0          	vaddpd %ymm0,%ymm0,%ymm0
  4019c6:	c5 fd 58 c0          	vaddpd %ymm0,%ymm0,%ymm0
  4019ca:	c5 fd 58 c0          	vaddpd %ymm0,%ymm0,%ymm0
  4019ce:	c5 fd 58 c0          	vaddpd %ymm0,%ymm0,%ymm0
  4019d2:	c5 fd 58 c0          	vaddpd %ymm0,%ymm0,%ymm0
  4019d6:	c5 fd 58 c0          	vaddpd %ymm0,%ymm0,%ymm0
  4019da:	c5 fd 58 c0          	vaddpd %ymm0,%ymm0,%ymm0
  4019de:	c5 fd 58 c0          	vaddpd %ymm0,%ymm0,%ymm0
  4019e2:	c5 fd 58 c0          	vaddpd %ymm0,%ymm0,%ymm0
  4019e6:	c5 fd 58 c0          	vaddpd %ymm0,%ymm0,%ymm0
  4019ea:	c5 fd 58 c0          	vaddpd %ymm0,%ymm0,%ymm0
  4019ee:	c5 fd 58 c0          	vaddpd %ymm0,%ymm0,%ymm0
  4019f2:	c5 fd 58 c0          	vaddpd %ymm0,%ymm0,%ymm0
  4019f6:	c5 fd 58 c0          	vaddpd %ymm0,%ymm0,%ymm0
  4019fa:	c5 fd 58 c0          	vaddpd %ymm0,%ymm0,%ymm0
  4019fe:	c5 fd 58 c0          	vaddpd %ymm0,%ymm0,%ymm0
  401a02:	c5 fd 58 c0          	vaddpd %ymm0,%ymm0,%ymm0
  401a06:	c5 fd 58 c0          	vaddpd %ymm0,%ymm0,%ymm0
  401a0a:	c5 fd 58 c0          	vaddpd %ymm0,%ymm0,%ymm0
  401a0e:	c5 fd 58 c0          	vaddpd %ymm0,%ymm0,%ymm0
  401a12:	c5 fd 58 c0          	vaddpd %ymm0,%ymm0,%ymm0
  401a16:	c5 fd 58 c0          	vaddpd %ymm0,%ymm0,%ymm0
  401a1a:	c5 fd 58 c0          	vaddpd %ymm0,%ymm0,%ymm0
  401a1e:	c5 fd 58 c0          	vaddpd %ymm0,%ymm0,%ymm0
  401a22:	c5 fd 58 c0          	vaddpd %ymm0,%ymm0,%ymm0
  401a26:	c5 fd 58 c0          	vaddpd %ymm0,%ymm0,%ymm0
  401a2a:	c5 fd 58 c0          	vaddpd %ymm0,%ymm0,%ymm0
  401a2e:	c5 fd 58 c0          	vaddpd %ymm0,%ymm0,%ymm0
  401a32:	c5 fd 58 c0          	vaddpd %ymm0,%ymm0,%ymm0
  401a36:	c5 fd 58 c0          	vaddpd %ymm0,%ymm0,%ymm0
  401a3a:	c5 fd 58 c0          	vaddpd %ymm0,%ymm0,%ymm0
  401a3e:	c5 fd 58 c0          	vaddpd %ymm0,%ymm0,%ymm0
  401a42:	c5 fd 58 c0          	vaddpd %ymm0,%ymm0,%ymm0
  401a46:	c5 fd 58 c0          	vaddpd %ymm0,%ymm0,%ymm0
  401a4a:	c5 fd 58 c0          	vaddpd %ymm0,%ymm0,%ymm0
  401a4e:	c5 fd 58 c0          	vaddpd %ymm0,%ymm0,%ymm0
  401a52:	c5 fd 58 c0          	vaddpd %ymm0,%ymm0,%ymm0
  401a56:	c5 fd 58 c0          	vaddpd %ymm0,%ymm0,%ymm0
  401a5a:	c5 fd 58 c0          	vaddpd %ymm0,%ymm0,%ymm0
  401a5e:	c5 fd 58 c0          	vaddpd %ymm0,%ymm0,%ymm0
  401a62:	c5 fd 58 c0          	vaddpd %ymm0,%ymm0,%ymm0
  401a66:	c5 fd 58 c0          	vaddpd %ymm0,%ymm0,%ymm0
  401a6a:	c5 fd 58 c0          	vaddpd %ymm0,%ymm0,%ymm0
  401a6e:	c5 fd 58 c0          	vaddpd %ymm0,%ymm0,%ymm0
  401a72:	c5 fd 58 c0          	vaddpd %ymm0,%ymm0,%ymm0
  401a76:	c5 fd 58 c0          	vaddpd %ymm0,%ymm0,%ymm0
  401a7a:	c5 fd 58 c0          	vaddpd %ymm0,%ymm0,%ymm0
  401a7e:	c5 fd 58 c0          	vaddpd %ymm0,%ymm0,%ymm0
  401a82:	c5 fd 58 c0          	vaddpd %ymm0,%ymm0,%ymm0
  401a86:	c5 fd 58 c0          	vaddpd %ymm0,%ymm0,%ymm0
  401a8a:	c5 fd 58 c0          	vaddpd %ymm0,%ymm0,%ymm0
  401a8e:	c5 fd 58 c0          	vaddpd %ymm0,%ymm0,%ymm0
  401a92:	c5 fd 58 c0          	vaddpd %ymm0,%ymm0,%ymm0
  401a96:	c5 fd 58 c0          	vaddpd %ymm0,%ymm0,%ymm0
  401a9a:	c5 fd 58 c0          	vaddpd %ymm0,%ymm0,%ymm0
  401a9e:	c5 fd 58 c0          	vaddpd %ymm0,%ymm0,%ymm0
  401aa2:	c5 fd 58 c0          	vaddpd %ymm0,%ymm0,%ymm0
  401aa6:	c5 fd 58 c0          	vaddpd %ymm0,%ymm0,%ymm0
  401aaa:	c5 fd 58 c0          	vaddpd %ymm0,%ymm0,%ymm0
  401aae:	c5 fd 58 c0          	vaddpd %ymm0,%ymm0,%ymm0
  401ab2:	c5 fd 58 c0          	vaddpd %ymm0,%ymm0,%ymm0
  401ab6:	c5 fd 58 c0          	vaddpd %ymm0,%ymm0,%ymm0
  401aba:	c5 fd 58 c0          	vaddpd %ymm0,%ymm0,%ymm0
  401abe:	c5 fd 58 c0          	vaddpd %ymm0,%ymm0,%ymm0
  401ac2:	c5 fd 58 c0          	vaddpd %ymm0,%ymm0,%ymm0
  401ac6:	c5 fd 58 c0          	vaddpd %ymm0,%ymm0,%ymm0
  401aca:	c5 fd 58 c0          	vaddpd %ymm0,%ymm0,%ymm0
  401ace:	c5 fd 58 c0          	vaddpd %ymm0,%ymm0,%ymm0
  401ad2:	c5 fd 58 c0          	vaddpd %ymm0,%ymm0,%ymm0
  401ad6:	c5 fd 58 c0          	vaddpd %ymm0,%ymm0,%ymm0
  401ada:	c5 fd 58 c0          	vaddpd %ymm0,%ymm0,%ymm0
  401ade:	c5 fd 58 c0          	vaddpd %ymm0,%ymm0,%ymm0
  401ae2:	c5 fd 58 c0          	vaddpd %ymm0,%ymm0,%ymm0
  401ae6:	c5 fd 58 c0          	vaddpd %ymm0,%ymm0,%ymm0
  401aea:	c5 fd 58 c0          	vaddpd %ymm0,%ymm0,%ymm0
  401aee:	c5 fd 58 c0          	vaddpd %ymm0,%ymm0,%ymm0
  401af2:	c5 fd 58 c0          	vaddpd %ymm0,%ymm0,%ymm0
  401af6:	c5 fd 58 c0          	vaddpd %ymm0,%ymm0,%ymm0
  401afa:	c5 fd 58 c0          	vaddpd %ymm0,%ymm0,%ymm0
  401afe:	c5 fd 58 c0          	vaddpd %ymm0,%ymm0,%ymm0
  401b02:	c5 fd 58 c0          	vaddpd %ymm0,%ymm0,%ymm0
  401b06:	c5 fd 58 c0          	vaddpd %ymm0,%ymm0,%ymm0
  401b0a:	c5 fd 58 c0          	vaddpd %ymm0,%ymm0,%ymm0
  401b0e:	c5 fd 58 c0          	vaddpd %ymm0,%ymm0,%ymm0
  401b12:	c5 fd 58 c0          	vaddpd %ymm0,%ymm0,%ymm0
  401b16:	c5 fd 58 c0          	vaddpd %ymm0,%ymm0,%ymm0
  401b1a:	c5 fd 58 c0          	vaddpd %ymm0,%ymm0,%ymm0
  401b1e:	c5 fd 58 c0          	vaddpd %ymm0,%ymm0,%ymm0
  401b22:	c5 fd 58 c0          	vaddpd %ymm0,%ymm0,%ymm0
  401b26:	c5 fd 58 c0          	vaddpd %ymm0,%ymm0,%ymm0
  401b2a:	c5 fd 58 c0          	vaddpd %ymm0,%ymm0,%ymm0
  401b2e:	c5 fd 58 c0          	vaddpd %ymm0,%ymm0,%ymm0
  401b32:	c5 fd 58 c0          	vaddpd %ymm0,%ymm0,%ymm0
  401b36:	c5 fd 58 c0          	vaddpd %ymm0,%ymm0,%ymm0
  401b3a:	c5 fd 58 c0          	vaddpd %ymm0,%ymm0,%ymm0
  401b3e:	c5 fd 58 c0          	vaddpd %ymm0,%ymm0,%ymm0
  401b42:	c5 fd 58 c0          	vaddpd %ymm0,%ymm0,%ymm0
  401b46:	c5 fd 58 c0          	vaddpd %ymm0,%ymm0,%ymm0
  401b4a:	c5 fd 58 c0          	vaddpd %ymm0,%ymm0,%ymm0
  401b4e:	c5 fd 58 c0          	vaddpd %ymm0,%ymm0,%ymm0
  401b52:	c5 fd 58 c0          	vaddpd %ymm0,%ymm0,%ymm0
  401b56:	c5 fd 58 c0          	vaddpd %ymm0,%ymm0,%ymm0
  401b5a:	c5 fd 58 c0          	vaddpd %ymm0,%ymm0,%ymm0
  401b5e:	c5 fd 58 c0          	vaddpd %ymm0,%ymm0,%ymm0
  401b62:	c5 fd 58 c0          	vaddpd %ymm0,%ymm0,%ymm0
  401b66:	c5 fd 58 c0          	vaddpd %ymm0,%ymm0,%ymm0
  401b6a:	c5 fd 58 c0          	vaddpd %ymm0,%ymm0,%ymm0
  401b6e:	c5 fd 58 c0          	vaddpd %ymm0,%ymm0,%ymm0
  401b72:	c5 fd 58 c0          	vaddpd %ymm0,%ymm0,%ymm0
  401b76:	c5 fd 58 c0          	vaddpd %ymm0,%ymm0,%ymm0
  401b7a:	c5 fd 58 c0          	vaddpd %ymm0,%ymm0,%ymm0
  401b7e:	c5 fd 58 c0          	vaddpd %ymm0,%ymm0,%ymm0
  401b82:	c5 fd 58 c0          	vaddpd %ymm0,%ymm0,%ymm0
  401b86:	c5 fd 58 c0          	vaddpd %ymm0,%ymm0,%ymm0
  401b8a:	c5 fd 58 c0          	vaddpd %ymm0,%ymm0,%ymm0
  401b8e:	c5 fd 58 c0          	vaddpd %ymm0,%ymm0,%ymm0
  401b92:	c5 fd 58 c0          	vaddpd %ymm0,%ymm0,%ymm0
  401b96:	c5 fd 58 c0          	vaddpd %ymm0,%ymm0,%ymm0
  401b9a:	c5 fd 58 c0          	vaddpd %ymm0,%ymm0,%ymm0
  401b9e:	c5 fd 58 c0          	vaddpd %ymm0,%ymm0,%ymm0
  401ba2:	c5 fd 58 c0          	vaddpd %ymm0,%ymm0,%ymm0
  401ba6:	c5 fd 58 c0          	vaddpd %ymm0,%ymm0,%ymm0
  401baa:	c5 fd 58 c0          	vaddpd %ymm0,%ymm0,%ymm0
  401bae:	c5 fd 58 c0          	vaddpd %ymm0,%ymm0,%ymm0
  401bb2:	c5 fd 58 c0          	vaddpd %ymm0,%ymm0,%ymm0
  401bb6:	c5 fd 58 c0          	vaddpd %ymm0,%ymm0,%ymm0
  401bba:	c5 fd 58 c0          	vaddpd %ymm0,%ymm0,%ymm0
  401bbe:	c5 fd 58 c0          	vaddpd %ymm0,%ymm0,%ymm0
  401bc2:	c5 fd 58 c0          	vaddpd %ymm0,%ymm0,%ymm0
  401bc6:	c5 fd 58 c0          	vaddpd %ymm0,%ymm0,%ymm0
  401bca:	c5 fd 58 c0          	vaddpd %ymm0,%ymm0,%ymm0
  401bce:	c5 fd 58 c0          	vaddpd %ymm0,%ymm0,%ymm0
  401bd2:	c5 fd 58 c0          	vaddpd %ymm0,%ymm0,%ymm0
  401bd6:	c5 fd 58 c0          	vaddpd %ymm0,%ymm0,%ymm0
  401bda:	c5 fd 58 c0          	vaddpd %ymm0,%ymm0,%ymm0
  401bde:	c5 fd 58 c0          	vaddpd %ymm0,%ymm0,%ymm0
  401be2:	c5 fd 58 c0          	vaddpd %ymm0,%ymm0,%ymm0
  401be6:	c5 fd 58 c0          	vaddpd %ymm0,%ymm0,%ymm0
  401bea:	c5 fd 58 c0          	vaddpd %ymm0,%ymm0,%ymm0
  401bee:	c5 fd 58 c0          	vaddpd %ymm0,%ymm0,%ymm0
  401bf2:	c5 fd 58 c0          	vaddpd %ymm0,%ymm0,%ymm0
  401bf6:	c5 fd 58 c0          	vaddpd %ymm0,%ymm0,%ymm0
  401bfa:	c5 fd 58 c0          	vaddpd %ymm0,%ymm0,%ymm0
  401bfe:	c5 fd 58 c0          	vaddpd %ymm0,%ymm0,%ymm0
  401c02:	c5 fd 58 c0          	vaddpd %ymm0,%ymm0,%ymm0
  401c06:	c5 fd 58 c0          	vaddpd %ymm0,%ymm0,%ymm0
  401c0a:	c5 fd 58 c0          	vaddpd %ymm0,%ymm0,%ymm0
  401c0e:	c5 fd 58 c0          	vaddpd %ymm0,%ymm0,%ymm0
  401c12:	c5 fd 58 c0          	vaddpd %ymm0,%ymm0,%ymm0
  401c16:	c5 fd 58 c0          	vaddpd %ymm0,%ymm0,%ymm0
  401c1a:	c5 fd 58 c0          	vaddpd %ymm0,%ymm0,%ymm0
  401c1e:	c5 fd 58 c0          	vaddpd %ymm0,%ymm0,%ymm0
  401c22:	c5 fd 58 c0          	vaddpd %ymm0,%ymm0,%ymm0
  401c26:	c5 fd 58 c0          	vaddpd %ymm0,%ymm0,%ymm0
  401c2a:	c5 fd 58 c0          	vaddpd %ymm0,%ymm0,%ymm0
  401c2e:	c5 fd 58 c0          	vaddpd %ymm0,%ymm0,%ymm0
  401c32:	c5 fd 58 c0          	vaddpd %ymm0,%ymm0,%ymm0
  401c36:	c5 fd 58 c0          	vaddpd %ymm0,%ymm0,%ymm0
  401c3a:	c5 fd 58 c0          	vaddpd %ymm0,%ymm0,%ymm0
  401c3e:	c5 fd 58 c0          	vaddpd %ymm0,%ymm0,%ymm0
  401c42:	c5 fd 58 c0          	vaddpd %ymm0,%ymm0,%ymm0
  401c46:	c5 fd 58 c0          	vaddpd %ymm0,%ymm0,%ymm0
  401c4a:	c5 fd 58 c0          	vaddpd %ymm0,%ymm0,%ymm0
  401c4e:	c5 fd 58 c0          	vaddpd %ymm0,%ymm0,%ymm0
  401c52:	c5 fd 58 c0          	vaddpd %ymm0,%ymm0,%ymm0
  401c56:	c5 fd 58 c0          	vaddpd %ymm0,%ymm0,%ymm0
  401c5a:	c5 fd 58 c0          	vaddpd %ymm0,%ymm0,%ymm0
  401c5e:	c5 fd 58 c0          	vaddpd %ymm0,%ymm0,%ymm0
  401c62:	c5 fd 58 c0          	vaddpd %ymm0,%ymm0,%ymm0
  401c66:	c5 fd 58 c0          	vaddpd %ymm0,%ymm0,%ymm0
  401c6a:	c5 fd 58 c0          	vaddpd %ymm0,%ymm0,%ymm0
  401c6e:	c5 fd 58 c0          	vaddpd %ymm0,%ymm0,%ymm0
  401c72:	c5 fd 58 c0          	vaddpd %ymm0,%ymm0,%ymm0
  401c76:	c5 fd 58 c0          	vaddpd %ymm0,%ymm0,%ymm0
  401c7a:	c5 fd 58 c0          	vaddpd %ymm0,%ymm0,%ymm0
  401c7e:	c5 fd 58 c0          	vaddpd %ymm0,%ymm0,%ymm0
  401c82:	c5 fd 58 c0          	vaddpd %ymm0,%ymm0,%ymm0
  401c86:	c5 fd 58 c0          	vaddpd %ymm0,%ymm0,%ymm0
  401c8a:	c5 fd 58 c0          	vaddpd %ymm0,%ymm0,%ymm0
  401c8e:	c5 fd 58 c0          	vaddpd %ymm0,%ymm0,%ymm0
  401c92:	c5 fd 58 c0          	vaddpd %ymm0,%ymm0,%ymm0
  401c96:	c5 fd 58 c0          	vaddpd %ymm0,%ymm0,%ymm0
  401c9a:	c5 fd 58 c0          	vaddpd %ymm0,%ymm0,%ymm0
  401c9e:	c5 fd 58 c0          	vaddpd %ymm0,%ymm0,%ymm0
  401ca2:	c5 fd 58 c0          	vaddpd %ymm0,%ymm0,%ymm0
  401ca6:	c5 fd 58 c0          	vaddpd %ymm0,%ymm0,%ymm0
  401caa:	c5 fd 58 c0          	vaddpd %ymm0,%ymm0,%ymm0
  401cae:	c5 fd 58 c0          	vaddpd %ymm0,%ymm0,%ymm0
  401cb2:	c5 fd 58 c0          	vaddpd %ymm0,%ymm0,%ymm0
  401cb6:	c5 fd 58 c0          	vaddpd %ymm0,%ymm0,%ymm0
  401cba:	c5 fd 58 c0          	vaddpd %ymm0,%ymm0,%ymm0
  401cbe:	c5 fd 58 c0          	vaddpd %ymm0,%ymm0,%ymm0
  401cc2:	c5 fd 58 c0          	vaddpd %ymm0,%ymm0,%ymm0
  401cc6:	c5 fd 58 c0          	vaddpd %ymm0,%ymm0,%ymm0
  401cca:	c5 fd 58 c0          	vaddpd %ymm0,%ymm0,%ymm0
  401cce:	c5 fd 58 c0          	vaddpd %ymm0,%ymm0,%ymm0
  401cd2:	c5 fd 58 c0          	vaddpd %ymm0,%ymm0,%ymm0
  401cd6:	c5 fd 58 c0          	vaddpd %ymm0,%ymm0,%ymm0
  401cda:	c5 fd 58 c0          	vaddpd %ymm0,%ymm0,%ymm0
  401cde:	c5 fd 58 c0          	vaddpd %ymm0,%ymm0,%ymm0
  401ce2:	c5 fd 58 c0          	vaddpd %ymm0,%ymm0,%ymm0
  401ce6:	c5 fd 58 c0          	vaddpd %ymm0,%ymm0,%ymm0
  401cea:	c5 fd 58 c0          	vaddpd %ymm0,%ymm0,%ymm0
  401cee:	c5 fd 58 c0          	vaddpd %ymm0,%ymm0,%ymm0
  401cf2:	c5 fd 58 c0          	vaddpd %ymm0,%ymm0,%ymm0
  401cf6:	c5 fd 58 c0          	vaddpd %ymm0,%ymm0,%ymm0
  401cfa:	c5 fd 58 c0          	vaddpd %ymm0,%ymm0,%ymm0
  401cfe:	c5 fd 58 c0          	vaddpd %ymm0,%ymm0,%ymm0
  401d02:	c5 fd 58 c0          	vaddpd %ymm0,%ymm0,%ymm0
  401d06:	c5 fd 58 c0          	vaddpd %ymm0,%ymm0,%ymm0
  401d0a:	c5 fd 58 c0          	vaddpd %ymm0,%ymm0,%ymm0
  401d0e:	c5 fd 58 c0          	vaddpd %ymm0,%ymm0,%ymm0
  401d12:	c5 fd 58 c0          	vaddpd %ymm0,%ymm0,%ymm0
  401d16:	c5 fd 58 c0          	vaddpd %ymm0,%ymm0,%ymm0
  401d1a:	c5 fd 58 c0          	vaddpd %ymm0,%ymm0,%ymm0
  401d1e:	c5 fd 58 c0          	vaddpd %ymm0,%ymm0,%ymm0
  401d22:	c5 fd 58 c0          	vaddpd %ymm0,%ymm0,%ymm0
  401d26:	c5 fd 58 c0          	vaddpd %ymm0,%ymm0,%ymm0
  401d2a:	c5 fd 58 c0          	vaddpd %ymm0,%ymm0,%ymm0
  401d2e:	c5 fd 58 c0          	vaddpd %ymm0,%ymm0,%ymm0
  401d32:	c5 fd 58 c0          	vaddpd %ymm0,%ymm0,%ymm0
  401d36:	c5 fd 58 c0          	vaddpd %ymm0,%ymm0,%ymm0
  401d3a:	c5 fd 58 c0          	vaddpd %ymm0,%ymm0,%ymm0
  401d3e:	c5 fd 58 c0          	vaddpd %ymm0,%ymm0,%ymm0
  401d42:	c5 fd 58 c0          	vaddpd %ymm0,%ymm0,%ymm0
  401d46:	c5 fd 58 c0          	vaddpd %ymm0,%ymm0,%ymm0
  401d4a:	c5 fd 58 c0          	vaddpd %ymm0,%ymm0,%ymm0
  401d4e:	c5 fd 58 c0          	vaddpd %ymm0,%ymm0,%ymm0
  401d52:	c5 fd 58 c0          	vaddpd %ymm0,%ymm0,%ymm0
  401d56:	c5 fd 58 c0          	vaddpd %ymm0,%ymm0,%ymm0
  401d5a:	c5 fd 58 c0          	vaddpd %ymm0,%ymm0,%ymm0
  401d5e:	c5 fd 58 c0          	vaddpd %ymm0,%ymm0,%ymm0
  401d62:	c5 fd 58 c0          	vaddpd %ymm0,%ymm0,%ymm0
  401d66:	c5 fd 58 c0          	vaddpd %ymm0,%ymm0,%ymm0
  401d6a:	c5 fd 58 c0          	vaddpd %ymm0,%ymm0,%ymm0
  401d6e:	c5 fd 58 c0          	vaddpd %ymm0,%ymm0,%ymm0
  401d72:	c5 fd 58 c0          	vaddpd %ymm0,%ymm0,%ymm0
  401d76:	c5 fd 58 c0          	vaddpd %ymm0,%ymm0,%ymm0
  401d7a:	c5 fd 58 c0          	vaddpd %ymm0,%ymm0,%ymm0
  401d7e:	c5 fd 58 c0          	vaddpd %ymm0,%ymm0,%ymm0
  401d82:	c5 fd 58 c0          	vaddpd %ymm0,%ymm0,%ymm0
  401d86:	c5 fd 58 c0          	vaddpd %ymm0,%ymm0,%ymm0
  401d8a:	c5 fd 58 c0          	vaddpd %ymm0,%ymm0,%ymm0
  401d8e:	c5 fd 58 c0          	vaddpd %ymm0,%ymm0,%ymm0
  401d92:	c5 fd 58 c0          	vaddpd %ymm0,%ymm0,%ymm0
  401d96:	c5 fd 58 c0          	vaddpd %ymm0,%ymm0,%ymm0
  401d9a:	c5 fd 58 c0          	vaddpd %ymm0,%ymm0,%ymm0
  401d9e:	c5 fd 58 c0          	vaddpd %ymm0,%ymm0,%ymm0
  401da2:	c5 fd 58 c0          	vaddpd %ymm0,%ymm0,%ymm0
  401da6:	c5 fd 58 c0          	vaddpd %ymm0,%ymm0,%ymm0
  401daa:	c5 fd 58 c0          	vaddpd %ymm0,%ymm0,%ymm0
  401dae:	c5 fd 58 c0          	vaddpd %ymm0,%ymm0,%ymm0
  401db2:	c5 fd 58 c0          	vaddpd %ymm0,%ymm0,%ymm0
  401db6:	c5 fd 58 c0          	vaddpd %ymm0,%ymm0,%ymm0
  401dba:	c5 fd 58 c0          	vaddpd %ymm0,%ymm0,%ymm0
  401dbe:	c5 fd 58 c0          	vaddpd %ymm0,%ymm0,%ymm0
  401dc2:	c5 fd 58 c0          	vaddpd %ymm0,%ymm0,%ymm0
  401dc6:	c5 fd 58 c0          	vaddpd %ymm0,%ymm0,%ymm0
  401dca:	c5 fd 58 c0          	vaddpd %ymm0,%ymm0,%ymm0
  401dce:	c5 fd 58 c0          	vaddpd %ymm0,%ymm0,%ymm0
  401dd2:	c5 fd 58 c0          	vaddpd %ymm0,%ymm0,%ymm0
  401dd6:	c5 fd 58 c0          	vaddpd %ymm0,%ymm0,%ymm0
  401dda:	c5 fd 58 c0          	vaddpd %ymm0,%ymm0,%ymm0
  401dde:	c5 fd 58 c0          	vaddpd %ymm0,%ymm0,%ymm0
  401de2:	c5 fd 58 c0          	vaddpd %ymm0,%ymm0,%ymm0
  401de6:	c5 fd 58 c0          	vaddpd %ymm0,%ymm0,%ymm0
  401dea:	c5 fd 58 c0          	vaddpd %ymm0,%ymm0,%ymm0
  401dee:	c5 fd 58 c0          	vaddpd %ymm0,%ymm0,%ymm0
  401df2:	c5 fd 58 c0          	vaddpd %ymm0,%ymm0,%ymm0
  401df6:	c5 fd 58 c0          	vaddpd %ymm0,%ymm0,%ymm0
  401dfa:	c5 fd 58 c0          	vaddpd %ymm0,%ymm0,%ymm0
  401dfe:	c5 fd 58 c0          	vaddpd %ymm0,%ymm0,%ymm0
  401e02:	c5 fd 58 c0          	vaddpd %ymm0,%ymm0,%ymm0
  401e06:	c5 fd 58 c0          	vaddpd %ymm0,%ymm0,%ymm0
  401e0a:	c5 fd 58 c0          	vaddpd %ymm0,%ymm0,%ymm0
  401e0e:	c5 fd 58 c0          	vaddpd %ymm0,%ymm0,%ymm0
  401e12:	c5 fd 58 c0          	vaddpd %ymm0,%ymm0,%ymm0
  401e16:	c5 fd 58 c0          	vaddpd %ymm0,%ymm0,%ymm0
  401e1a:	c5 fd 58 c0          	vaddpd %ymm0,%ymm0,%ymm0
  401e1e:	c5 fd 58 c0          	vaddpd %ymm0,%ymm0,%ymm0
  401e22:	c5 fd 58 c0          	vaddpd %ymm0,%ymm0,%ymm0
  401e26:	c5 fd 58 c0          	vaddpd %ymm0,%ymm0,%ymm0
  401e2a:	c5 fd 58 c0          	vaddpd %ymm0,%ymm0,%ymm0
  401e2e:	c5 fd 58 c0          	vaddpd %ymm0,%ymm0,%ymm0
  401e32:	c5 fd 58 c0          	vaddpd %ymm0,%ymm0,%ymm0
  401e36:	c5 fd 58 c0          	vaddpd %ymm0,%ymm0,%ymm0
  401e3a:	c5 fd 58 c0          	vaddpd %ymm0,%ymm0,%ymm0
  401e3e:	c5 fd 58 c0          	vaddpd %ymm0,%ymm0,%ymm0
  401e42:	c5 fd 58 c0          	vaddpd %ymm0,%ymm0,%ymm0
  401e46:	c5 fd 58 c0          	vaddpd %ymm0,%ymm0,%ymm0
  401e4a:	c5 fd 58 c0          	vaddpd %ymm0,%ymm0,%ymm0
  401e4e:	c5 fd 58 c0          	vaddpd %ymm0,%ymm0,%ymm0
  401e52:	c5 fd 58 c0          	vaddpd %ymm0,%ymm0,%ymm0
  401e56:	c5 fd 58 c0          	vaddpd %ymm0,%ymm0,%ymm0
  401e5a:	c5 fd 58 c0          	vaddpd %ymm0,%ymm0,%ymm0
  401e5e:	c5 fd 58 c0          	vaddpd %ymm0,%ymm0,%ymm0
  401e62:	c5 fd 58 c0          	vaddpd %ymm0,%ymm0,%ymm0
  401e66:	c5 fd 58 c0          	vaddpd %ymm0,%ymm0,%ymm0
  401e6a:	c5 fd 58 c0          	vaddpd %ymm0,%ymm0,%ymm0
  401e6e:	c5 fd 58 c0          	vaddpd %ymm0,%ymm0,%ymm0
  401e72:	c5 fd 58 c0          	vaddpd %ymm0,%ymm0,%ymm0
  401e76:	c5 fd 58 c0          	vaddpd %ymm0,%ymm0,%ymm0
  401e7a:	c5 fd 58 c0          	vaddpd %ymm0,%ymm0,%ymm0
  401e7e:	c5 fd 58 c0          	vaddpd %ymm0,%ymm0,%ymm0
  401e82:	c5 fd 58 c0          	vaddpd %ymm0,%ymm0,%ymm0
  401e86:	c5 fd 58 c0          	vaddpd %ymm0,%ymm0,%ymm0
  401e8a:	c5 fd 58 c0          	vaddpd %ymm0,%ymm0,%ymm0
  401e8e:	c5 fd 58 c0          	vaddpd %ymm0,%ymm0,%ymm0
  401e92:	c5 fd 58 c0          	vaddpd %ymm0,%ymm0,%ymm0
  401e96:	c5 fd 58 c0          	vaddpd %ymm0,%ymm0,%ymm0
  401e9a:	c5 fd 58 c0          	vaddpd %ymm0,%ymm0,%ymm0
  401e9e:	c5 fd 58 c0          	vaddpd %ymm0,%ymm0,%ymm0
  401ea2:	c5 fd 58 c0          	vaddpd %ymm0,%ymm0,%ymm0
  401ea6:	c5 fd 58 c0          	vaddpd %ymm0,%ymm0,%ymm0
  401eaa:	c5 fd 58 c0          	vaddpd %ymm0,%ymm0,%ymm0
  401eae:	c5 fd 58 c0          	vaddpd %ymm0,%ymm0,%ymm0
  401eb2:	c5 fd 58 c0          	vaddpd %ymm0,%ymm0,%ymm0
  401eb6:	c5 fd 58 c0          	vaddpd %ymm0,%ymm0,%ymm0
  401eba:	c5 fd 58 c0          	vaddpd %ymm0,%ymm0,%ymm0
  401ebe:	c5 fd 58 c0          	vaddpd %ymm0,%ymm0,%ymm0
  401ec2:	c5 fd 58 c0          	vaddpd %ymm0,%ymm0,%ymm0
  401ec6:	c5 fd 58 c0          	vaddpd %ymm0,%ymm0,%ymm0
  401eca:	c5 fd 58 c0          	vaddpd %ymm0,%ymm0,%ymm0
  401ece:	c5 fd 58 c0          	vaddpd %ymm0,%ymm0,%ymm0
  401ed2:	c5 fd 58 c0          	vaddpd %ymm0,%ymm0,%ymm0
  401ed6:	c5 fd 58 c0          	vaddpd %ymm0,%ymm0,%ymm0
  401eda:	c5 fd 58 c0          	vaddpd %ymm0,%ymm0,%ymm0
  401ede:	c5 fd 58 c0          	vaddpd %ymm0,%ymm0,%ymm0
  401ee2:	c5 fd 58 c0          	vaddpd %ymm0,%ymm0,%ymm0
  401ee6:	c5 fd 58 c0          	vaddpd %ymm0,%ymm0,%ymm0
  401eea:	c5 fd 58 c0          	vaddpd %ymm0,%ymm0,%ymm0
  401eee:	c5 fd 58 c0          	vaddpd %ymm0,%ymm0,%ymm0
  401ef2:	c5 fd 58 c0          	vaddpd %ymm0,%ymm0,%ymm0
  401ef6:	c5 fd 58 c0          	vaddpd %ymm0,%ymm0,%ymm0
  401efa:	c5 fd 58 c0          	vaddpd %ymm0,%ymm0,%ymm0
  401efe:	c5 fd 58 c0          	vaddpd %ymm0,%ymm0,%ymm0
  401f02:	c5 fd 58 c0          	vaddpd %ymm0,%ymm0,%ymm0
  401f06:	c5 fd 58 c0          	vaddpd %ymm0,%ymm0,%ymm0
  401f0a:	c5 fd 58 c0          	vaddpd %ymm0,%ymm0,%ymm0
  401f0e:	c5 fd 58 c0          	vaddpd %ymm0,%ymm0,%ymm0
  401f12:	c5 fd 58 c0          	vaddpd %ymm0,%ymm0,%ymm0
  401f16:	c5 fd 58 c0          	vaddpd %ymm0,%ymm0,%ymm0
  401f1a:	c5 fd 58 c0          	vaddpd %ymm0,%ymm0,%ymm0
  401f1e:	c5 fd 58 c0          	vaddpd %ymm0,%ymm0,%ymm0
  401f22:	c5 fd 58 c0          	vaddpd %ymm0,%ymm0,%ymm0
  401f26:	c5 fd 58 c0          	vaddpd %ymm0,%ymm0,%ymm0
  401f2a:	c5 fd 58 c0          	vaddpd %ymm0,%ymm0,%ymm0
  401f2e:	c5 fd 58 c0          	vaddpd %ymm0,%ymm0,%ymm0
  401f32:	c5 fd 58 c0          	vaddpd %ymm0,%ymm0,%ymm0
  401f36:	c5 fd 58 c0          	vaddpd %ymm0,%ymm0,%ymm0
  401f3a:	c5 fd 58 c0          	vaddpd %ymm0,%ymm0,%ymm0
  401f3e:	c5 fd 58 c0          	vaddpd %ymm0,%ymm0,%ymm0
  401f42:	c5 fd 58 c0          	vaddpd %ymm0,%ymm0,%ymm0
  401f46:	c5 fd 58 c0          	vaddpd %ymm0,%ymm0,%ymm0
  401f4a:	c5 fd 58 c0          	vaddpd %ymm0,%ymm0,%ymm0
  401f4e:	c5 fd 58 c0          	vaddpd %ymm0,%ymm0,%ymm0
  401f52:	c5 fd 58 c0          	vaddpd %ymm0,%ymm0,%ymm0
  401f56:	c5 fd 58 c0          	vaddpd %ymm0,%ymm0,%ymm0
  401f5a:	c5 fd 58 c0          	vaddpd %ymm0,%ymm0,%ymm0
  401f5e:	c5 fd 58 c0          	vaddpd %ymm0,%ymm0,%ymm0
  401f62:	c5 fd 58 c0          	vaddpd %ymm0,%ymm0,%ymm0
  401f66:	c5 fd 58 c0          	vaddpd %ymm0,%ymm0,%ymm0
  401f6a:	c5 fd 58 c0          	vaddpd %ymm0,%ymm0,%ymm0
  401f6e:	c5 fd 58 c0          	vaddpd %ymm0,%ymm0,%ymm0
  401f72:	c5 fd 58 c0          	vaddpd %ymm0,%ymm0,%ymm0
  401f76:	c5 fd 58 c0          	vaddpd %ymm0,%ymm0,%ymm0
  401f7a:	c5 fd 58 c0          	vaddpd %ymm0,%ymm0,%ymm0
  401f7e:	c5 fd 58 c0          	vaddpd %ymm0,%ymm0,%ymm0
  401f82:	c5 fd 58 c0          	vaddpd %ymm0,%ymm0,%ymm0
  401f86:	c5 fd 58 c0          	vaddpd %ymm0,%ymm0,%ymm0
  401f8a:	c5 fd 58 c0          	vaddpd %ymm0,%ymm0,%ymm0
  401f8e:	c5 fd 58 c0          	vaddpd %ymm0,%ymm0,%ymm0
  401f92:	c5 fd 58 c0          	vaddpd %ymm0,%ymm0,%ymm0
  401f96:	c5 fd 58 c0          	vaddpd %ymm0,%ymm0,%ymm0
  401f9a:	c5 fd 58 c0          	vaddpd %ymm0,%ymm0,%ymm0
  401f9e:	c5 fd 58 c0          	vaddpd %ymm0,%ymm0,%ymm0
  401fa2:	c5 fd 58 c0          	vaddpd %ymm0,%ymm0,%ymm0
  401fa6:	c5 fd 58 c0          	vaddpd %ymm0,%ymm0,%ymm0
  401faa:	c5 fd 58 c0          	vaddpd %ymm0,%ymm0,%ymm0
  401fae:	c5 fd 58 c0          	vaddpd %ymm0,%ymm0,%ymm0
  401fb2:	c5 fd 58 c0          	vaddpd %ymm0,%ymm0,%ymm0
  401fb6:	c5 fd 58 c0          	vaddpd %ymm0,%ymm0,%ymm0
  401fba:	c5 fd 58 c0          	vaddpd %ymm0,%ymm0,%ymm0
  401fbe:	c5 fd 58 c0          	vaddpd %ymm0,%ymm0,%ymm0
  401fc2:	c5 fd 58 c0          	vaddpd %ymm0,%ymm0,%ymm0
  401fc6:	c5 fd 58 c0          	vaddpd %ymm0,%ymm0,%ymm0
  401fca:	c5 fd 58 c0          	vaddpd %ymm0,%ymm0,%ymm0
  401fce:	c5 fd 58 c0          	vaddpd %ymm0,%ymm0,%ymm0
  401fd2:	c5 fd 58 c0          	vaddpd %ymm0,%ymm0,%ymm0
  401fd6:	c5 fd 58 c0          	vaddpd %ymm0,%ymm0,%ymm0
  401fda:	c5 fd 58 c0          	vaddpd %ymm0,%ymm0,%ymm0
  401fde:	c5 fd 58 c0          	vaddpd %ymm0,%ymm0,%ymm0
  401fe2:	c5 fd 58 c0          	vaddpd %ymm0,%ymm0,%ymm0
  401fe6:	c5 fd 58 c0          	vaddpd %ymm0,%ymm0,%ymm0
  401fea:	c5 fd 58 c0          	vaddpd %ymm0,%ymm0,%ymm0
  401fee:	c5 fd 58 c0          	vaddpd %ymm0,%ymm0,%ymm0
  401ff2:	c5 fd 58 c0          	vaddpd %ymm0,%ymm0,%ymm0
  401ff6:	c5 fd 58 c0          	vaddpd %ymm0,%ymm0,%ymm0
  401ffa:	c5 fd 58 c0          	vaddpd %ymm0,%ymm0,%ymm0
  401ffe:	c5 fd 58 c0          	vaddpd %ymm0,%ymm0,%ymm0
  402002:	c5 fd 58 c0          	vaddpd %ymm0,%ymm0,%ymm0
  402006:	c5 fd 58 c0          	vaddpd %ymm0,%ymm0,%ymm0
  40200a:	c5 fd 58 c0          	vaddpd %ymm0,%ymm0,%ymm0
  40200e:	c5 fd 58 c0          	vaddpd %ymm0,%ymm0,%ymm0
  402012:	c5 fd 58 c0          	vaddpd %ymm0,%ymm0,%ymm0
  402016:	c5 fd 58 c0          	vaddpd %ymm0,%ymm0,%ymm0
  40201a:	c5 fd 58 c0          	vaddpd %ymm0,%ymm0,%ymm0
  40201e:	c5 fd 58 c0          	vaddpd %ymm0,%ymm0,%ymm0
  402022:	c5 fd 58 c0          	vaddpd %ymm0,%ymm0,%ymm0
  402026:	c5 fd 58 c0          	vaddpd %ymm0,%ymm0,%ymm0
  40202a:	c5 fd 58 c0          	vaddpd %ymm0,%ymm0,%ymm0
  40202e:	c5 fd 58 c0          	vaddpd %ymm0,%ymm0,%ymm0
  402032:	c5 fd 58 c0          	vaddpd %ymm0,%ymm0,%ymm0
  402036:	c5 fd 58 c0          	vaddpd %ymm0,%ymm0,%ymm0
  40203a:	c5 fd 58 c0          	vaddpd %ymm0,%ymm0,%ymm0
  40203e:	c5 fd 58 c0          	vaddpd %ymm0,%ymm0,%ymm0
  402042:	c5 fd 58 c0          	vaddpd %ymm0,%ymm0,%ymm0
  402046:	c5 fd 58 c0          	vaddpd %ymm0,%ymm0,%ymm0
  40204a:	c5 fd 58 c0          	vaddpd %ymm0,%ymm0,%ymm0
  40204e:	c5 fd 58 c0          	vaddpd %ymm0,%ymm0,%ymm0
  402052:	c5 fd 58 c0          	vaddpd %ymm0,%ymm0,%ymm0
  402056:	c5 fd 58 c0          	vaddpd %ymm0,%ymm0,%ymm0
  40205a:	c5 fd 58 c0          	vaddpd %ymm0,%ymm0,%ymm0
  40205e:	c5 fd 58 c0          	vaddpd %ymm0,%ymm0,%ymm0
  402062:	c5 fd 58 c0          	vaddpd %ymm0,%ymm0,%ymm0
  402066:	c5 fd 58 c0          	vaddpd %ymm0,%ymm0,%ymm0
  40206a:	c5 fd 58 c0          	vaddpd %ymm0,%ymm0,%ymm0
  40206e:	c5 fd 58 c0          	vaddpd %ymm0,%ymm0,%ymm0
  402072:	c5 fd 58 c0          	vaddpd %ymm0,%ymm0,%ymm0
  402076:	c5 fd 58 c0          	vaddpd %ymm0,%ymm0,%ymm0
  40207a:	c5 fd 58 c0          	vaddpd %ymm0,%ymm0,%ymm0
  40207e:	c5 fd 58 c0          	vaddpd %ymm0,%ymm0,%ymm0
  402082:	c5 fd 58 c0          	vaddpd %ymm0,%ymm0,%ymm0
  402086:	c5 fd 58 c0          	vaddpd %ymm0,%ymm0,%ymm0
  40208a:	c5 fd 58 c0          	vaddpd %ymm0,%ymm0,%ymm0
  40208e:	c5 fd 58 c0          	vaddpd %ymm0,%ymm0,%ymm0
  402092:	c5 fd 58 c0          	vaddpd %ymm0,%ymm0,%ymm0
  402096:	c5 fd 58 c0          	vaddpd %ymm0,%ymm0,%ymm0
  40209a:	c5 fd 58 c0          	vaddpd %ymm0,%ymm0,%ymm0
  40209e:	c5 fd 58 c0          	vaddpd %ymm0,%ymm0,%ymm0
  4020a2:	c5 fd 58 c0          	vaddpd %ymm0,%ymm0,%ymm0
  4020a6:	c5 fd 58 c0          	vaddpd %ymm0,%ymm0,%ymm0
  4020aa:	c5 fd 58 c0          	vaddpd %ymm0,%ymm0,%ymm0
  4020ae:	c5 fd 58 c0          	vaddpd %ymm0,%ymm0,%ymm0
  4020b2:	c5 fd 58 c0          	vaddpd %ymm0,%ymm0,%ymm0
  4020b6:	c5 fd 58 c0          	vaddpd %ymm0,%ymm0,%ymm0
  4020ba:	c5 fd 58 c0          	vaddpd %ymm0,%ymm0,%ymm0
  4020be:	c5 fd 58 c0          	vaddpd %ymm0,%ymm0,%ymm0
  4020c2:	c5 fd 58 c0          	vaddpd %ymm0,%ymm0,%ymm0
  4020c6:	c5 fd 58 c0          	vaddpd %ymm0,%ymm0,%ymm0
  4020ca:	c5 fd 58 c0          	vaddpd %ymm0,%ymm0,%ymm0
  4020ce:	c5 fd 58 c0          	vaddpd %ymm0,%ymm0,%ymm0
  4020d2:	c5 fd 58 c0          	vaddpd %ymm0,%ymm0,%ymm0
  4020d6:	c5 fd 58 c0          	vaddpd %ymm0,%ymm0,%ymm0
  4020da:	c5 fd 58 c0          	vaddpd %ymm0,%ymm0,%ymm0
  4020de:	c5 fd 58 c0          	vaddpd %ymm0,%ymm0,%ymm0
  4020e2:	c5 fd 58 c0          	vaddpd %ymm0,%ymm0,%ymm0
  4020e6:	c5 fd 58 c0          	vaddpd %ymm0,%ymm0,%ymm0
  4020ea:	c5 fd 58 c0          	vaddpd %ymm0,%ymm0,%ymm0
  4020ee:	c5 fd 58 c0          	vaddpd %ymm0,%ymm0,%ymm0
  4020f2:	c5 fd 58 c0          	vaddpd %ymm0,%ymm0,%ymm0
  4020f6:	c5 fd 58 c0          	vaddpd %ymm0,%ymm0,%ymm0
  4020fa:	c5 fd 58 c0          	vaddpd %ymm0,%ymm0,%ymm0
  4020fe:	c5 fd 58 c0          	vaddpd %ymm0,%ymm0,%ymm0
  402102:	c5 fd 58 c0          	vaddpd %ymm0,%ymm0,%ymm0
  402106:	c5 fd 58 c0          	vaddpd %ymm0,%ymm0,%ymm0
  40210a:	c5 fd 58 c0          	vaddpd %ymm0,%ymm0,%ymm0
  40210e:	c5 fd 58 c0          	vaddpd %ymm0,%ymm0,%ymm0
  402112:	c5 fd 58 c0          	vaddpd %ymm0,%ymm0,%ymm0
  402116:	c5 fd 58 c0          	vaddpd %ymm0,%ymm0,%ymm0
  40211a:	c5 fd 58 c0          	vaddpd %ymm0,%ymm0,%ymm0
  40211e:	c5 fd 58 c0          	vaddpd %ymm0,%ymm0,%ymm0
  402122:	c5 fd 58 c0          	vaddpd %ymm0,%ymm0,%ymm0
  402126:	c5 fd 58 c0          	vaddpd %ymm0,%ymm0,%ymm0
  40212a:	c5 fd 58 c0          	vaddpd %ymm0,%ymm0,%ymm0
  40212e:	c5 fd 58 c0          	vaddpd %ymm0,%ymm0,%ymm0
  402132:	c5 fd 58 c0          	vaddpd %ymm0,%ymm0,%ymm0
  402136:	c5 fd 58 c0          	vaddpd %ymm0,%ymm0,%ymm0
  40213a:	c5 fd 58 c0          	vaddpd %ymm0,%ymm0,%ymm0
  40213e:	c5 fd 58 c0          	vaddpd %ymm0,%ymm0,%ymm0
  402142:	c5 fd 58 c0          	vaddpd %ymm0,%ymm0,%ymm0
  402146:	c5 fd 58 c0          	vaddpd %ymm0,%ymm0,%ymm0
  40214a:	c5 fd 58 c0          	vaddpd %ymm0,%ymm0,%ymm0
  40214e:	c5 fd 58 c0          	vaddpd %ymm0,%ymm0,%ymm0
  402152:	c5 fd 58 c0          	vaddpd %ymm0,%ymm0,%ymm0
  402156:	c5 fd 58 c0          	vaddpd %ymm0,%ymm0,%ymm0
  40215a:	c5 fd 58 c0          	vaddpd %ymm0,%ymm0,%ymm0
  40215e:	c5 fd 58 c0          	vaddpd %ymm0,%ymm0,%ymm0
  402162:	c5 fd 58 c0          	vaddpd %ymm0,%ymm0,%ymm0
  402166:	c5 fd 58 c0          	vaddpd %ymm0,%ymm0,%ymm0
  40216a:	c5 fd 58 c0          	vaddpd %ymm0,%ymm0,%ymm0
  40216e:	c5 fd 58 c0          	vaddpd %ymm0,%ymm0,%ymm0
  402172:	c5 fd 58 c0          	vaddpd %ymm0,%ymm0,%ymm0
  402176:	c5 fd 58 c0          	vaddpd %ymm0,%ymm0,%ymm0
  40217a:	c5 fd 58 c0          	vaddpd %ymm0,%ymm0,%ymm0
  40217e:	c5 fd 58 c0          	vaddpd %ymm0,%ymm0,%ymm0
  402182:	c5 fd 58 c0          	vaddpd %ymm0,%ymm0,%ymm0
  402186:	c5 fd 58 c0          	vaddpd %ymm0,%ymm0,%ymm0
  40218a:	c5 fd 58 c0          	vaddpd %ymm0,%ymm0,%ymm0
  40218e:	c5 fd 58 c0          	vaddpd %ymm0,%ymm0,%ymm0
  402192:	c5 fd 58 c0          	vaddpd %ymm0,%ymm0,%ymm0
  402196:	c5 fd 58 c0          	vaddpd %ymm0,%ymm0,%ymm0
  40219a:	c5 fd 58 c0          	vaddpd %ymm0,%ymm0,%ymm0
  40219e:	c5 fd 58 c0          	vaddpd %ymm0,%ymm0,%ymm0
  4021a2:	c5 fd 58 c0          	vaddpd %ymm0,%ymm0,%ymm0
  4021a6:	c5 fd 58 c0          	vaddpd %ymm0,%ymm0,%ymm0
  4021aa:	c5 fd 58 c0          	vaddpd %ymm0,%ymm0,%ymm0
  4021ae:	c5 fd 58 c0          	vaddpd %ymm0,%ymm0,%ymm0
  4021b2:	c5 fd 58 c0          	vaddpd %ymm0,%ymm0,%ymm0
  4021b6:	c5 fd 58 c0          	vaddpd %ymm0,%ymm0,%ymm0
  4021ba:	c5 fd 58 c0          	vaddpd %ymm0,%ymm0,%ymm0
  4021be:	c5 fd 58 c0          	vaddpd %ymm0,%ymm0,%ymm0
  4021c2:	c5 fd 58 c0          	vaddpd %ymm0,%ymm0,%ymm0
  4021c6:	c5 fd 58 c0          	vaddpd %ymm0,%ymm0,%ymm0
  4021ca:	c5 fd 58 c0          	vaddpd %ymm0,%ymm0,%ymm0
  4021ce:	c5 fd 58 c0          	vaddpd %ymm0,%ymm0,%ymm0
  4021d2:	c5 fd 58 c0          	vaddpd %ymm0,%ymm0,%ymm0
  4021d6:	c5 fd 58 c0          	vaddpd %ymm0,%ymm0,%ymm0
  4021da:	c5 fd 58 c0          	vaddpd %ymm0,%ymm0,%ymm0
  4021de:	c5 fd 58 c0          	vaddpd %ymm0,%ymm0,%ymm0
  4021e2:	c5 fd 58 c0          	vaddpd %ymm0,%ymm0,%ymm0
  4021e6:	c5 fd 58 c0          	vaddpd %ymm0,%ymm0,%ymm0
  4021ea:	c5 fd 58 c0          	vaddpd %ymm0,%ymm0,%ymm0
  4021ee:	c5 fd 58 c0          	vaddpd %ymm0,%ymm0,%ymm0
  4021f2:	c5 fd 58 c0          	vaddpd %ymm0,%ymm0,%ymm0
  4021f6:	c5 fd 58 c0          	vaddpd %ymm0,%ymm0,%ymm0
  4021fa:	c5 fd 58 c0          	vaddpd %ymm0,%ymm0,%ymm0
  4021fe:	c5 fd 58 c0          	vaddpd %ymm0,%ymm0,%ymm0
  402202:	c5 fd 58 c0          	vaddpd %ymm0,%ymm0,%ymm0
  402206:	c5 fd 58 c0          	vaddpd %ymm0,%ymm0,%ymm0
  40220a:	c5 fd 58 c0          	vaddpd %ymm0,%ymm0,%ymm0
  40220e:	c5 fd 58 c0          	vaddpd %ymm0,%ymm0,%ymm0
  402212:	c5 fd 58 c0          	vaddpd %ymm0,%ymm0,%ymm0
  402216:	c5 fd 58 c0          	vaddpd %ymm0,%ymm0,%ymm0
  40221a:	c5 fd 58 c0          	vaddpd %ymm0,%ymm0,%ymm0
  40221e:	c5 fd 58 c0          	vaddpd %ymm0,%ymm0,%ymm0
  402222:	c5 fd 58 c0          	vaddpd %ymm0,%ymm0,%ymm0
  402226:	c5 fd 58 c0          	vaddpd %ymm0,%ymm0,%ymm0
  40222a:	c5 fd 58 c0          	vaddpd %ymm0,%ymm0,%ymm0
  40222e:	c5 fd 58 c0          	vaddpd %ymm0,%ymm0,%ymm0
  402232:	c5 fd 58 c0          	vaddpd %ymm0,%ymm0,%ymm0
  402236:	c5 fd 58 c0          	vaddpd %ymm0,%ymm0,%ymm0
  40223a:	c5 fd 58 c0          	vaddpd %ymm0,%ymm0,%ymm0
  40223e:	c5 fd 58 c0          	vaddpd %ymm0,%ymm0,%ymm0
  402242:	c5 fd 58 c0          	vaddpd %ymm0,%ymm0,%ymm0
  402246:	c5 fd 58 c0          	vaddpd %ymm0,%ymm0,%ymm0
  40224a:	c5 fd 58 c0          	vaddpd %ymm0,%ymm0,%ymm0
  40224e:	c5 fd 58 c0          	vaddpd %ymm0,%ymm0,%ymm0
  402252:	c5 fd 58 c0          	vaddpd %ymm0,%ymm0,%ymm0
  402256:	c5 fd 58 c0          	vaddpd %ymm0,%ymm0,%ymm0
  40225a:	c5 fd 58 c0          	vaddpd %ymm0,%ymm0,%ymm0
  40225e:	c5 fd 58 c0          	vaddpd %ymm0,%ymm0,%ymm0
  402262:	c5 fd 58 c0          	vaddpd %ymm0,%ymm0,%ymm0
  402266:	c5 fd 58 c0          	vaddpd %ymm0,%ymm0,%ymm0
  40226a:	c5 fd 58 c0          	vaddpd %ymm0,%ymm0,%ymm0
  40226e:	c5 fd 58 c0          	vaddpd %ymm0,%ymm0,%ymm0
  402272:	c5 fd 58 c0          	vaddpd %ymm0,%ymm0,%ymm0
  402276:	c5 fd 58 c0          	vaddpd %ymm0,%ymm0,%ymm0
  40227a:	c5 fd 58 c0          	vaddpd %ymm0,%ymm0,%ymm0
  40227e:	c5 fd 58 c0          	vaddpd %ymm0,%ymm0,%ymm0
  402282:	c5 fd 58 c0          	vaddpd %ymm0,%ymm0,%ymm0
  402286:	c5 fd 58 c0          	vaddpd %ymm0,%ymm0,%ymm0
  40228a:	c5 fd 58 c0          	vaddpd %ymm0,%ymm0,%ymm0
  40228e:	c5 fd 58 c0          	vaddpd %ymm0,%ymm0,%ymm0
  402292:	c5 fd 58 c0          	vaddpd %ymm0,%ymm0,%ymm0
  402296:	c5 fd 58 c0          	vaddpd %ymm0,%ymm0,%ymm0
  40229a:	c5 fd 58 c0          	vaddpd %ymm0,%ymm0,%ymm0
  40229e:	c5 fd 58 c0          	vaddpd %ymm0,%ymm0,%ymm0
  4022a2:	c5 fd 58 c0          	vaddpd %ymm0,%ymm0,%ymm0
  4022a6:	c5 fd 58 c0          	vaddpd %ymm0,%ymm0,%ymm0
  4022aa:	c5 fd 58 c0          	vaddpd %ymm0,%ymm0,%ymm0
  4022ae:	c5 fd 58 c0          	vaddpd %ymm0,%ymm0,%ymm0
  4022b2:	c5 fd 58 c0          	vaddpd %ymm0,%ymm0,%ymm0
  4022b6:	c5 fd 58 c0          	vaddpd %ymm0,%ymm0,%ymm0
  4022ba:	c5 fd 58 c0          	vaddpd %ymm0,%ymm0,%ymm0
  4022be:	c5 fd 58 c0          	vaddpd %ymm0,%ymm0,%ymm0
  4022c2:	c5 fd 58 c0          	vaddpd %ymm0,%ymm0,%ymm0
  4022c6:	c5 fd 58 c0          	vaddpd %ymm0,%ymm0,%ymm0
  4022ca:	c5 fd 58 c0          	vaddpd %ymm0,%ymm0,%ymm0
  4022ce:	c5 fd 58 c0          	vaddpd %ymm0,%ymm0,%ymm0
  4022d2:	c5 fd 58 c0          	vaddpd %ymm0,%ymm0,%ymm0
  4022d6:	c5 fd 58 c0          	vaddpd %ymm0,%ymm0,%ymm0
  4022da:	c5 fd 58 c0          	vaddpd %ymm0,%ymm0,%ymm0
  4022de:	c5 fd 58 c0          	vaddpd %ymm0,%ymm0,%ymm0
  4022e2:	c5 fd 58 c0          	vaddpd %ymm0,%ymm0,%ymm0
  4022e6:	c5 fd 58 c0          	vaddpd %ymm0,%ymm0,%ymm0
  4022ea:	c5 fd 58 c0          	vaddpd %ymm0,%ymm0,%ymm0
  4022ee:	c5 fd 58 c0          	vaddpd %ymm0,%ymm0,%ymm0
  4022f2:	c5 fd 58 c0          	vaddpd %ymm0,%ymm0,%ymm0
  4022f6:	c5 fd 58 c0          	vaddpd %ymm0,%ymm0,%ymm0
  4022fa:	c5 fd 58 c0          	vaddpd %ymm0,%ymm0,%ymm0
  4022fe:	c5 fd 58 c0          	vaddpd %ymm0,%ymm0,%ymm0
  402302:	c5 fd 58 c0          	vaddpd %ymm0,%ymm0,%ymm0
  402306:	c5 fd 58 c0          	vaddpd %ymm0,%ymm0,%ymm0
  40230a:	c5 fd 58 c0          	vaddpd %ymm0,%ymm0,%ymm0
  40230e:	c5 fd 58 c0          	vaddpd %ymm0,%ymm0,%ymm0
  402312:	c5 fd 58 c0          	vaddpd %ymm0,%ymm0,%ymm0
  402316:	c5 fd 58 c0          	vaddpd %ymm0,%ymm0,%ymm0
  40231a:	c5 fd 58 c0          	vaddpd %ymm0,%ymm0,%ymm0
  40231e:	c5 fd 58 c0          	vaddpd %ymm0,%ymm0,%ymm0
  402322:	c5 fd 58 c0          	vaddpd %ymm0,%ymm0,%ymm0
  402326:	c5 fd 58 c0          	vaddpd %ymm0,%ymm0,%ymm0
  40232a:	c5 fd 58 c0          	vaddpd %ymm0,%ymm0,%ymm0
  40232e:	c5 fd 58 c0          	vaddpd %ymm0,%ymm0,%ymm0
  402332:	c5 fd 58 c0          	vaddpd %ymm0,%ymm0,%ymm0
  402336:	c5 fd 58 c0          	vaddpd %ymm0,%ymm0,%ymm0
  40233a:	c5 fd 58 c0          	vaddpd %ymm0,%ymm0,%ymm0
  40233e:	c5 fd 58 c0          	vaddpd %ymm0,%ymm0,%ymm0
  402342:	c5 fd 58 c0          	vaddpd %ymm0,%ymm0,%ymm0
  402346:	c5 fd 58 c0          	vaddpd %ymm0,%ymm0,%ymm0
  40234a:	c5 fd 58 c0          	vaddpd %ymm0,%ymm0,%ymm0
  40234e:	c5 fd 58 c0          	vaddpd %ymm0,%ymm0,%ymm0
  402352:	c5 fd 58 c0          	vaddpd %ymm0,%ymm0,%ymm0
  402356:	c5 fd 58 c0          	vaddpd %ymm0,%ymm0,%ymm0
  40235a:	c5 fd 58 c0          	vaddpd %ymm0,%ymm0,%ymm0
  40235e:	c5 fd 58 c0          	vaddpd %ymm0,%ymm0,%ymm0
  402362:	c5 fd 58 c0          	vaddpd %ymm0,%ymm0,%ymm0
  402366:	c5 fd 58 c0          	vaddpd %ymm0,%ymm0,%ymm0
  40236a:	c5 fd 58 c0          	vaddpd %ymm0,%ymm0,%ymm0
  40236e:	c5 fd 58 c0          	vaddpd %ymm0,%ymm0,%ymm0
  402372:	c5 fd 58 c0          	vaddpd %ymm0,%ymm0,%ymm0
  402376:	c5 fd 58 c0          	vaddpd %ymm0,%ymm0,%ymm0
  40237a:	c5 fd 58 c0          	vaddpd %ymm0,%ymm0,%ymm0
  40237e:	c5 fd 58 c0          	vaddpd %ymm0,%ymm0,%ymm0
  402382:	c5 fd 58 c0          	vaddpd %ymm0,%ymm0,%ymm0
  402386:	c5 fd 58 c0          	vaddpd %ymm0,%ymm0,%ymm0
  40238a:	c5 fd 58 c0          	vaddpd %ymm0,%ymm0,%ymm0
  40238e:	c5 fd 58 c0          	vaddpd %ymm0,%ymm0,%ymm0
  402392:	c5 fd 58 c0          	vaddpd %ymm0,%ymm0,%ymm0
  402396:	c5 fd 58 c0          	vaddpd %ymm0,%ymm0,%ymm0
  40239a:	c5 fd 58 c0          	vaddpd %ymm0,%ymm0,%ymm0
  40239e:	c5 fd 58 c0          	vaddpd %ymm0,%ymm0,%ymm0
  4023a2:	c5 fd 58 c0          	vaddpd %ymm0,%ymm0,%ymm0
  4023a6:	c5 fd 58 c0          	vaddpd %ymm0,%ymm0,%ymm0
  4023aa:	c5 fd 58 c0          	vaddpd %ymm0,%ymm0,%ymm0
  4023ae:	c5 fd 58 c0          	vaddpd %ymm0,%ymm0,%ymm0
  4023b2:	c5 fd 58 c0          	vaddpd %ymm0,%ymm0,%ymm0
  4023b6:	c5 fd 58 c0          	vaddpd %ymm0,%ymm0,%ymm0
  4023ba:	c5 fd 58 c0          	vaddpd %ymm0,%ymm0,%ymm0
  4023be:	c5 fd 58 c0          	vaddpd %ymm0,%ymm0,%ymm0
  4023c2:	c5 fd 58 c0          	vaddpd %ymm0,%ymm0,%ymm0
  4023c6:	c5 fd 58 c0          	vaddpd %ymm0,%ymm0,%ymm0
  4023ca:	c5 fd 58 c0          	vaddpd %ymm0,%ymm0,%ymm0
  4023ce:	c5 fd 58 c0          	vaddpd %ymm0,%ymm0,%ymm0
  4023d2:	c5 fd 58 c0          	vaddpd %ymm0,%ymm0,%ymm0
  4023d6:	c5 fd 58 c0          	vaddpd %ymm0,%ymm0,%ymm0
  4023da:	c5 fd 58 c0          	vaddpd %ymm0,%ymm0,%ymm0
  4023de:	c5 fd 58 c0          	vaddpd %ymm0,%ymm0,%ymm0
  4023e2:	c5 fd 58 c0          	vaddpd %ymm0,%ymm0,%ymm0
  4023e6:	c5 fd 58 c0          	vaddpd %ymm0,%ymm0,%ymm0
  4023ea:	c5 fd 58 c0          	vaddpd %ymm0,%ymm0,%ymm0
  4023ee:	c5 fd 58 c0          	vaddpd %ymm0,%ymm0,%ymm0
  4023f2:	c5 fd 58 c0          	vaddpd %ymm0,%ymm0,%ymm0
  4023f6:	c5 fd 58 c0          	vaddpd %ymm0,%ymm0,%ymm0
  4023fa:	c5 fd 58 c0          	vaddpd %ymm0,%ymm0,%ymm0
  4023fe:	c5 fd 58 c0          	vaddpd %ymm0,%ymm0,%ymm0
  402402:	c5 fd 58 c0          	vaddpd %ymm0,%ymm0,%ymm0
  402406:	c5 fd 58 c0          	vaddpd %ymm0,%ymm0,%ymm0
  40240a:	c5 fd 58 c0          	vaddpd %ymm0,%ymm0,%ymm0
  40240e:	c5 fd 58 c0          	vaddpd %ymm0,%ymm0,%ymm0
  402412:	c5 fd 58 c0          	vaddpd %ymm0,%ymm0,%ymm0
  402416:	c5 fd 58 c0          	vaddpd %ymm0,%ymm0,%ymm0
  40241a:	c5 fd 58 c0          	vaddpd %ymm0,%ymm0,%ymm0
  40241e:	c5 fd 58 c0          	vaddpd %ymm0,%ymm0,%ymm0
  402422:	c5 fd 58 c0          	vaddpd %ymm0,%ymm0,%ymm0
  402426:	c5 fd 58 c0          	vaddpd %ymm0,%ymm0,%ymm0
  40242a:	c5 fd 58 c0          	vaddpd %ymm0,%ymm0,%ymm0
  40242e:	c5 fd 58 c0          	vaddpd %ymm0,%ymm0,%ymm0
  402432:	c5 fd 58 c0          	vaddpd %ymm0,%ymm0,%ymm0
  402436:	c5 fd 58 c0          	vaddpd %ymm0,%ymm0,%ymm0
  40243a:	c5 fd 58 c0          	vaddpd %ymm0,%ymm0,%ymm0
  40243e:	c5 fd 58 c0          	vaddpd %ymm0,%ymm0,%ymm0
  402442:	c5 fd 58 c0          	vaddpd %ymm0,%ymm0,%ymm0
  402446:	c5 fd 58 c0          	vaddpd %ymm0,%ymm0,%ymm0
  40244a:	c5 fd 58 c0          	vaddpd %ymm0,%ymm0,%ymm0
  40244e:	c5 fd 58 c0          	vaddpd %ymm0,%ymm0,%ymm0
  402452:	c5 fd 58 c0          	vaddpd %ymm0,%ymm0,%ymm0
  402456:	c5 fd 58 c0          	vaddpd %ymm0,%ymm0,%ymm0
  40245a:	c5 fd 58 c0          	vaddpd %ymm0,%ymm0,%ymm0
  40245e:	c5 fd 58 c0          	vaddpd %ymm0,%ymm0,%ymm0
  402462:	c5 fd 58 c0          	vaddpd %ymm0,%ymm0,%ymm0
  402466:	c5 fd 58 c0          	vaddpd %ymm0,%ymm0,%ymm0
  40246a:	c5 fd 58 c0          	vaddpd %ymm0,%ymm0,%ymm0
  40246e:	c5 fd 58 c0          	vaddpd %ymm0,%ymm0,%ymm0
  402472:	c5 fd 58 c0          	vaddpd %ymm0,%ymm0,%ymm0
  402476:	c5 fd 58 c0          	vaddpd %ymm0,%ymm0,%ymm0
  40247a:	c5 fd 58 c0          	vaddpd %ymm0,%ymm0,%ymm0
  40247e:	c5 fd 58 c0          	vaddpd %ymm0,%ymm0,%ymm0
  402482:	c5 fd 58 c0          	vaddpd %ymm0,%ymm0,%ymm0
  402486:	c5 fd 58 c0          	vaddpd %ymm0,%ymm0,%ymm0
  40248a:	c5 fd 58 c0          	vaddpd %ymm0,%ymm0,%ymm0
  40248e:	c5 fd 58 c0          	vaddpd %ymm0,%ymm0,%ymm0
  402492:	c5 fd 58 c0          	vaddpd %ymm0,%ymm0,%ymm0
  402496:	c5 fd 58 c0          	vaddpd %ymm0,%ymm0,%ymm0
  40249a:	c5 fd 58 c0          	vaddpd %ymm0,%ymm0,%ymm0
  40249e:	c5 fd 58 c0          	vaddpd %ymm0,%ymm0,%ymm0
  4024a2:	c5 fd 58 c0          	vaddpd %ymm0,%ymm0,%ymm0
  4024a6:	c5 fd 58 c0          	vaddpd %ymm0,%ymm0,%ymm0
  4024aa:	c5 fd 58 c0          	vaddpd %ymm0,%ymm0,%ymm0
  4024ae:	c5 fd 58 c0          	vaddpd %ymm0,%ymm0,%ymm0
  4024b2:	c5 fd 58 c0          	vaddpd %ymm0,%ymm0,%ymm0
  4024b6:	c5 fd 58 c0          	vaddpd %ymm0,%ymm0,%ymm0
  4024ba:	c5 fd 58 c0          	vaddpd %ymm0,%ymm0,%ymm0
  4024be:	c5 fd 58 c0          	vaddpd %ymm0,%ymm0,%ymm0
  4024c2:	c5 fd 58 c0          	vaddpd %ymm0,%ymm0,%ymm0
  4024c6:	c5 fd 58 c0          	vaddpd %ymm0,%ymm0,%ymm0
  4024ca:	c5 fd 58 c0          	vaddpd %ymm0,%ymm0,%ymm0
  4024ce:	c5 fd 58 c0          	vaddpd %ymm0,%ymm0,%ymm0
  4024d2:	c5 fd 58 c0          	vaddpd %ymm0,%ymm0,%ymm0
  4024d6:	c5 fd 58 c0          	vaddpd %ymm0,%ymm0,%ymm0
  4024da:	c5 fd 58 c0          	vaddpd %ymm0,%ymm0,%ymm0
  4024de:	c5 fd 58 c0          	vaddpd %ymm0,%ymm0,%ymm0
  4024e2:	c5 fd 58 c0          	vaddpd %ymm0,%ymm0,%ymm0
  4024e6:	c5 fd 58 c0          	vaddpd %ymm0,%ymm0,%ymm0
  4024ea:	c5 fd 58 c0          	vaddpd %ymm0,%ymm0,%ymm0
  4024ee:	c5 fd 58 c0          	vaddpd %ymm0,%ymm0,%ymm0
  4024f2:	c5 fd 58 c0          	vaddpd %ymm0,%ymm0,%ymm0
  4024f6:	c5 fd 58 c0          	vaddpd %ymm0,%ymm0,%ymm0
  4024fa:	c5 fd 58 c0          	vaddpd %ymm0,%ymm0,%ymm0
  4024fe:	c5 fd 58 c0          	vaddpd %ymm0,%ymm0,%ymm0
  402502:	c5 fd 58 c0          	vaddpd %ymm0,%ymm0,%ymm0
  402506:	c5 fd 58 c0          	vaddpd %ymm0,%ymm0,%ymm0
  40250a:	c5 fd 58 c0          	vaddpd %ymm0,%ymm0,%ymm0
  40250e:	c5 fd 58 c0          	vaddpd %ymm0,%ymm0,%ymm0
  402512:	c5 fd 58 c0          	vaddpd %ymm0,%ymm0,%ymm0
  402516:	c5 fd 58 c0          	vaddpd %ymm0,%ymm0,%ymm0
  40251a:	c5 fd 58 c0          	vaddpd %ymm0,%ymm0,%ymm0
  40251e:	c5 fd 58 c0          	vaddpd %ymm0,%ymm0,%ymm0
  402522:	c5 fd 58 c0          	vaddpd %ymm0,%ymm0,%ymm0
  402526:	c5 fd 58 c0          	vaddpd %ymm0,%ymm0,%ymm0
  40252a:	c5 fd 58 c0          	vaddpd %ymm0,%ymm0,%ymm0
  40252e:	c5 fd 58 c0          	vaddpd %ymm0,%ymm0,%ymm0
  402532:	c5 fd 58 c0          	vaddpd %ymm0,%ymm0,%ymm0
  402536:	c5 fd 58 c0          	vaddpd %ymm0,%ymm0,%ymm0
  40253a:	c5 fd 58 c0          	vaddpd %ymm0,%ymm0,%ymm0
  40253e:	c5 fd 58 c0          	vaddpd %ymm0,%ymm0,%ymm0
  402542:	c5 fd 58 c0          	vaddpd %ymm0,%ymm0,%ymm0
  402546:	c5 fd 58 c0          	vaddpd %ymm0,%ymm0,%ymm0
  40254a:	c5 fd 58 c0          	vaddpd %ymm0,%ymm0,%ymm0
  40254e:	c5 fd 58 c0          	vaddpd %ymm0,%ymm0,%ymm0
  402552:	c5 fd 58 c0          	vaddpd %ymm0,%ymm0,%ymm0
  402556:	c5 fd 58 c0          	vaddpd %ymm0,%ymm0,%ymm0
  40255a:	c5 fd 58 c0          	vaddpd %ymm0,%ymm0,%ymm0
  40255e:	c5 fd 58 c0          	vaddpd %ymm0,%ymm0,%ymm0
  402562:	c5 fd 58 c0          	vaddpd %ymm0,%ymm0,%ymm0
  402566:	c5 fd 58 c0          	vaddpd %ymm0,%ymm0,%ymm0
  40256a:	c5 fd 58 c0          	vaddpd %ymm0,%ymm0,%ymm0
  40256e:	c5 fd 58 c0          	vaddpd %ymm0,%ymm0,%ymm0
  402572:	c5 fd 58 c0          	vaddpd %ymm0,%ymm0,%ymm0
  402576:	c5 fd 58 c0          	vaddpd %ymm0,%ymm0,%ymm0
  40257a:	c5 fd 58 c0          	vaddpd %ymm0,%ymm0,%ymm0
  40257e:	c5 fd 58 c0          	vaddpd %ymm0,%ymm0,%ymm0
  402582:	c5 fd 58 c0          	vaddpd %ymm0,%ymm0,%ymm0
  402586:	c5 fd 58 c0          	vaddpd %ymm0,%ymm0,%ymm0
  40258a:	c5 fd 58 c0          	vaddpd %ymm0,%ymm0,%ymm0
  40258e:	c5 fd 58 c0          	vaddpd %ymm0,%ymm0,%ymm0
  402592:	c5 fd 58 c0          	vaddpd %ymm0,%ymm0,%ymm0
  402596:	c5 fd 58 c0          	vaddpd %ymm0,%ymm0,%ymm0
  40259a:	c5 fd 58 c0          	vaddpd %ymm0,%ymm0,%ymm0
  40259e:	c5 fd 58 c0          	vaddpd %ymm0,%ymm0,%ymm0
  4025a2:	c5 fd 58 c0          	vaddpd %ymm0,%ymm0,%ymm0
  4025a6:	c5 fd 58 c0          	vaddpd %ymm0,%ymm0,%ymm0
  4025aa:	c5 fd 58 c0          	vaddpd %ymm0,%ymm0,%ymm0
  4025ae:	c5 fd 58 c0          	vaddpd %ymm0,%ymm0,%ymm0
  4025b2:	c5 fd 58 c0          	vaddpd %ymm0,%ymm0,%ymm0
  4025b6:	c5 fd 58 c0          	vaddpd %ymm0,%ymm0,%ymm0
  4025ba:	c5 fd 58 c0          	vaddpd %ymm0,%ymm0,%ymm0
  4025be:	c5 fd 58 c0          	vaddpd %ymm0,%ymm0,%ymm0
  4025c2:	c5 fd 58 c0          	vaddpd %ymm0,%ymm0,%ymm0
  4025c6:	c5 fd 58 c0          	vaddpd %ymm0,%ymm0,%ymm0
  4025ca:	c5 fd 58 c0          	vaddpd %ymm0,%ymm0,%ymm0
  4025ce:	c5 fd 58 c0          	vaddpd %ymm0,%ymm0,%ymm0
  4025d2:	c5 fd 58 c0          	vaddpd %ymm0,%ymm0,%ymm0
  4025d6:	c5 fd 58 c0          	vaddpd %ymm0,%ymm0,%ymm0
  4025da:	c5 fd 58 c0          	vaddpd %ymm0,%ymm0,%ymm0
  4025de:	c5 fd 58 c0          	vaddpd %ymm0,%ymm0,%ymm0
  4025e2:	c5 fd 58 c0          	vaddpd %ymm0,%ymm0,%ymm0
  4025e6:	c5 fd 58 c0          	vaddpd %ymm0,%ymm0,%ymm0
  4025ea:	c5 fd 58 c0          	vaddpd %ymm0,%ymm0,%ymm0
  4025ee:	c5 fd 58 c0          	vaddpd %ymm0,%ymm0,%ymm0
  4025f2:	c5 fd 58 c0          	vaddpd %ymm0,%ymm0,%ymm0
  4025f6:	c5 fd 58 c0          	vaddpd %ymm0,%ymm0,%ymm0
  4025fa:	c5 fd 58 c0          	vaddpd %ymm0,%ymm0,%ymm0
  4025fe:	c5 fd 58 c0          	vaddpd %ymm0,%ymm0,%ymm0
  402602:	c5 fd 58 c0          	vaddpd %ymm0,%ymm0,%ymm0
  402606:	c5 fd 58 c0          	vaddpd %ymm0,%ymm0,%ymm0
  40260a:	c5 fd 58 c0          	vaddpd %ymm0,%ymm0,%ymm0
  40260e:	c5 fd 58 c0          	vaddpd %ymm0,%ymm0,%ymm0
  402612:	c5 fd 58 c0          	vaddpd %ymm0,%ymm0,%ymm0
  402616:	c5 fd 58 c0          	vaddpd %ymm0,%ymm0,%ymm0
  40261a:	c5 fd 58 c0          	vaddpd %ymm0,%ymm0,%ymm0
  40261e:	c5 fd 58 c0          	vaddpd %ymm0,%ymm0,%ymm0
  402622:	c5 fd 58 c0          	vaddpd %ymm0,%ymm0,%ymm0
  402626:	c5 fd 58 c0          	vaddpd %ymm0,%ymm0,%ymm0
  40262a:	c5 fd 58 c0          	vaddpd %ymm0,%ymm0,%ymm0
  40262e:	c5 fd 58 c0          	vaddpd %ymm0,%ymm0,%ymm0
  402632:	c5 fd 58 c0          	vaddpd %ymm0,%ymm0,%ymm0
  402636:	c5 fd 58 c0          	vaddpd %ymm0,%ymm0,%ymm0
  40263a:	c5 fd 58 c0          	vaddpd %ymm0,%ymm0,%ymm0
  40263e:	c5 fd 58 c0          	vaddpd %ymm0,%ymm0,%ymm0
  402642:	c5 fd 58 c0          	vaddpd %ymm0,%ymm0,%ymm0
  402646:	c5 fd 58 c0          	vaddpd %ymm0,%ymm0,%ymm0
  40264a:	c5 fd 58 c0          	vaddpd %ymm0,%ymm0,%ymm0
  40264e:	c5 fd 58 c0          	vaddpd %ymm0,%ymm0,%ymm0
  402652:	c5 fd 58 c0          	vaddpd %ymm0,%ymm0,%ymm0
  402656:	c5 fd 58 c0          	vaddpd %ymm0,%ymm0,%ymm0
  40265a:	c5 fd 58 c0          	vaddpd %ymm0,%ymm0,%ymm0
  40265e:	c5 fd 58 c0          	vaddpd %ymm0,%ymm0,%ymm0
  402662:	c5 fd 58 c0          	vaddpd %ymm0,%ymm0,%ymm0
  402666:	c5 fd 58 c0          	vaddpd %ymm0,%ymm0,%ymm0
  40266a:	c5 fd 58 c0          	vaddpd %ymm0,%ymm0,%ymm0
  40266e:	c5 fd 58 c0          	vaddpd %ymm0,%ymm0,%ymm0
  402672:	c5 fd 58 c0          	vaddpd %ymm0,%ymm0,%ymm0
  402676:	c5 fd 58 c0          	vaddpd %ymm0,%ymm0,%ymm0
  40267a:	c5 fd 58 c0          	vaddpd %ymm0,%ymm0,%ymm0
  40267e:	c5 fd 58 c0          	vaddpd %ymm0,%ymm0,%ymm0
  402682:	c5 fd 58 c0          	vaddpd %ymm0,%ymm0,%ymm0
  402686:	c5 fd 58 c0          	vaddpd %ymm0,%ymm0,%ymm0
  40268a:	c5 fd 58 c0          	vaddpd %ymm0,%ymm0,%ymm0
  40268e:	c5 fd 58 c0          	vaddpd %ymm0,%ymm0,%ymm0
  402692:	c5 fd 58 c0          	vaddpd %ymm0,%ymm0,%ymm0
  402696:	c5 fd 58 c0          	vaddpd %ymm0,%ymm0,%ymm0
  40269a:	c5 fd 58 c0          	vaddpd %ymm0,%ymm0,%ymm0
  40269e:	c5 fd 58 c0          	vaddpd %ymm0,%ymm0,%ymm0
  4026a2:	c5 fd 58 c0          	vaddpd %ymm0,%ymm0,%ymm0
  4026a6:	c5 fd 58 c0          	vaddpd %ymm0,%ymm0,%ymm0
  4026aa:	c5 fd 58 c0          	vaddpd %ymm0,%ymm0,%ymm0
  4026ae:	c5 fd 58 c0          	vaddpd %ymm0,%ymm0,%ymm0
  4026b2:	c5 fd 58 c0          	vaddpd %ymm0,%ymm0,%ymm0
  4026b6:	c5 fd 58 c0          	vaddpd %ymm0,%ymm0,%ymm0
  4026ba:	c5 fd 58 c0          	vaddpd %ymm0,%ymm0,%ymm0
  4026be:	c5 fd 58 c0          	vaddpd %ymm0,%ymm0,%ymm0
  4026c2:	c5 fd 58 c0          	vaddpd %ymm0,%ymm0,%ymm0
  4026c6:	c5 fd 58 c0          	vaddpd %ymm0,%ymm0,%ymm0
  4026ca:	c5 fd 58 c0          	vaddpd %ymm0,%ymm0,%ymm0
  4026ce:	c5 fd 58 c0          	vaddpd %ymm0,%ymm0,%ymm0
  4026d2:	c5 fd 58 c0          	vaddpd %ymm0,%ymm0,%ymm0
  4026d6:	c5 fd 58 c0          	vaddpd %ymm0,%ymm0,%ymm0
  4026da:	c5 fd 58 c0          	vaddpd %ymm0,%ymm0,%ymm0
  4026de:	c5 fd 58 c0          	vaddpd %ymm0,%ymm0,%ymm0
  4026e2:	c5 fd 58 c0          	vaddpd %ymm0,%ymm0,%ymm0
  4026e6:	c5 fd 58 c0          	vaddpd %ymm0,%ymm0,%ymm0
  4026ea:	c5 fd 58 c0          	vaddpd %ymm0,%ymm0,%ymm0
  4026ee:	c5 fd 58 c0          	vaddpd %ymm0,%ymm0,%ymm0
  4026f2:	c5 fd 58 c0          	vaddpd %ymm0,%ymm0,%ymm0
  4026f6:	c5 fd 58 c0          	vaddpd %ymm0,%ymm0,%ymm0
  4026fa:	c5 fd 58 c0          	vaddpd %ymm0,%ymm0,%ymm0
  4026fe:	c5 fd 58 c0          	vaddpd %ymm0,%ymm0,%ymm0
  402702:	c5 fd 58 c0          	vaddpd %ymm0,%ymm0,%ymm0
  402706:	c5 fd 58 c0          	vaddpd %ymm0,%ymm0,%ymm0
  40270a:	c5 fd 58 c0          	vaddpd %ymm0,%ymm0,%ymm0
  40270e:	c5 fd 58 c0          	vaddpd %ymm0,%ymm0,%ymm0
  402712:	c5 fd 58 c0          	vaddpd %ymm0,%ymm0,%ymm0
  402716:	c5 fd 58 c0          	vaddpd %ymm0,%ymm0,%ymm0
  40271a:	c5 fd 58 c0          	vaddpd %ymm0,%ymm0,%ymm0
  40271e:	c5 fd 58 c0          	vaddpd %ymm0,%ymm0,%ymm0
  402722:	c5 fd 58 c0          	vaddpd %ymm0,%ymm0,%ymm0
  402726:	c5 fd 58 c0          	vaddpd %ymm0,%ymm0,%ymm0
  40272a:	c5 fd 58 c0          	vaddpd %ymm0,%ymm0,%ymm0
  40272e:	c5 fd 58 c0          	vaddpd %ymm0,%ymm0,%ymm0
  402732:	c5 fd 58 c0          	vaddpd %ymm0,%ymm0,%ymm0
  402736:	c5 fd 58 c0          	vaddpd %ymm0,%ymm0,%ymm0
  40273a:	c5 fd 58 c0          	vaddpd %ymm0,%ymm0,%ymm0
  40273e:	c5 fd 58 c0          	vaddpd %ymm0,%ymm0,%ymm0
  402742:	c5 fd 58 c0          	vaddpd %ymm0,%ymm0,%ymm0
  402746:	c5 fd 58 c0          	vaddpd %ymm0,%ymm0,%ymm0
  40274a:	c5 fd 58 c0          	vaddpd %ymm0,%ymm0,%ymm0
  40274e:	c5 fd 58 c0          	vaddpd %ymm0,%ymm0,%ymm0
  402752:	c5 fd 58 c0          	vaddpd %ymm0,%ymm0,%ymm0
  402756:	c5 fd 58 c0          	vaddpd %ymm0,%ymm0,%ymm0
  40275a:	c5 fd 58 c0          	vaddpd %ymm0,%ymm0,%ymm0
  40275e:	c5 fd 58 c0          	vaddpd %ymm0,%ymm0,%ymm0
  402762:	c5 fd 58 c0          	vaddpd %ymm0,%ymm0,%ymm0
  402766:	c5 fd 58 c0          	vaddpd %ymm0,%ymm0,%ymm0
  40276a:	c5 fd 58 c0          	vaddpd %ymm0,%ymm0,%ymm0
  40276e:	c5 fd 58 c0          	vaddpd %ymm0,%ymm0,%ymm0
  402772:	c5 fd 58 c0          	vaddpd %ymm0,%ymm0,%ymm0
  402776:	c5 fd 58 c0          	vaddpd %ymm0,%ymm0,%ymm0
  40277a:	c5 fd 58 c0          	vaddpd %ymm0,%ymm0,%ymm0
  40277e:	c5 fd 58 c0          	vaddpd %ymm0,%ymm0,%ymm0
  402782:	c5 fd 58 c0          	vaddpd %ymm0,%ymm0,%ymm0
  402786:	c5 fd 58 c0          	vaddpd %ymm0,%ymm0,%ymm0
  40278a:	c5 fd 58 c0          	vaddpd %ymm0,%ymm0,%ymm0
  40278e:	c5 fd 58 c0          	vaddpd %ymm0,%ymm0,%ymm0
  402792:	c5 fd 58 c0          	vaddpd %ymm0,%ymm0,%ymm0
  402796:	c5 fd 58 c0          	vaddpd %ymm0,%ymm0,%ymm0
  40279a:	c5 fd 58 c0          	vaddpd %ymm0,%ymm0,%ymm0
  40279e:	c5 fd 58 c0          	vaddpd %ymm0,%ymm0,%ymm0
  4027a2:	c5 fd 58 c0          	vaddpd %ymm0,%ymm0,%ymm0
  4027a6:	c5 fd 58 c0          	vaddpd %ymm0,%ymm0,%ymm0
  4027aa:	c5 fd 58 c0          	vaddpd %ymm0,%ymm0,%ymm0
  4027ae:	c5 fd 58 c0          	vaddpd %ymm0,%ymm0,%ymm0
  4027b2:	c5 fd 58 c0          	vaddpd %ymm0,%ymm0,%ymm0
  4027b6:	c5 fd 58 c0          	vaddpd %ymm0,%ymm0,%ymm0
  4027ba:	c5 fd 58 c0          	vaddpd %ymm0,%ymm0,%ymm0
  4027be:	c5 fd 58 c0          	vaddpd %ymm0,%ymm0,%ymm0
  4027c2:	c5 fd 58 c0          	vaddpd %ymm0,%ymm0,%ymm0
  4027c6:	c5 fd 58 c0          	vaddpd %ymm0,%ymm0,%ymm0
  4027ca:	c5 fd 58 c0          	vaddpd %ymm0,%ymm0,%ymm0
  4027ce:	c5 fd 58 c0          	vaddpd %ymm0,%ymm0,%ymm0
  4027d2:	c5 fd 58 c0          	vaddpd %ymm0,%ymm0,%ymm0
  4027d6:	c5 fd 58 c0          	vaddpd %ymm0,%ymm0,%ymm0
  4027da:	c5 fd 58 c0          	vaddpd %ymm0,%ymm0,%ymm0
  4027de:	c5 fd 58 c0          	vaddpd %ymm0,%ymm0,%ymm0
  4027e2:	c5 fd 58 c0          	vaddpd %ymm0,%ymm0,%ymm0
  4027e6:	c5 fd 58 c0          	vaddpd %ymm0,%ymm0,%ymm0
  4027ea:	c5 fd 58 c0          	vaddpd %ymm0,%ymm0,%ymm0
  4027ee:	c5 fd 58 c0          	vaddpd %ymm0,%ymm0,%ymm0
  4027f2:	c5 fd 58 c0          	vaddpd %ymm0,%ymm0,%ymm0
  4027f6:	c5 fd 58 c0          	vaddpd %ymm0,%ymm0,%ymm0
  4027fa:	c5 fd 58 c0          	vaddpd %ymm0,%ymm0,%ymm0
  4027fe:	c5 fd 58 c0          	vaddpd %ymm0,%ymm0,%ymm0
  402802:	c5 fd 58 c0          	vaddpd %ymm0,%ymm0,%ymm0
  402806:	c5 fd 58 c0          	vaddpd %ymm0,%ymm0,%ymm0
  40280a:	c5 fd 58 c0          	vaddpd %ymm0,%ymm0,%ymm0
  40280e:	c5 fd 58 c0          	vaddpd %ymm0,%ymm0,%ymm0
  402812:	c5 fd 58 c0          	vaddpd %ymm0,%ymm0,%ymm0
  402816:	c5 fd 58 c0          	vaddpd %ymm0,%ymm0,%ymm0
  40281a:	c5 fd 58 c0          	vaddpd %ymm0,%ymm0,%ymm0
  40281e:	c5 fd 58 c0          	vaddpd %ymm0,%ymm0,%ymm0
  402822:	c5 fd 58 c0          	vaddpd %ymm0,%ymm0,%ymm0
  402826:	c5 fd 58 c0          	vaddpd %ymm0,%ymm0,%ymm0
  40282a:	c5 fd 58 c0          	vaddpd %ymm0,%ymm0,%ymm0
  40282e:	c5 fd 58 c0          	vaddpd %ymm0,%ymm0,%ymm0
  402832:	c5 fd 58 c0          	vaddpd %ymm0,%ymm0,%ymm0
  402836:	c5 fd 58 c0          	vaddpd %ymm0,%ymm0,%ymm0
  40283a:	c5 fd 58 c0          	vaddpd %ymm0,%ymm0,%ymm0
  40283e:	c5 fd 58 c0          	vaddpd %ymm0,%ymm0,%ymm0
  402842:	c5 fd 58 c0          	vaddpd %ymm0,%ymm0,%ymm0
  402846:	c5 fd 58 c0          	vaddpd %ymm0,%ymm0,%ymm0
  40284a:	c5 fd 58 c0          	vaddpd %ymm0,%ymm0,%ymm0
  40284e:	c5 fd 58 c0          	vaddpd %ymm0,%ymm0,%ymm0
  402852:	c5 fd 58 c0          	vaddpd %ymm0,%ymm0,%ymm0
  402856:	c5 fd 58 c0          	vaddpd %ymm0,%ymm0,%ymm0
  40285a:	c5 fd 58 c0          	vaddpd %ymm0,%ymm0,%ymm0
  40285e:	c5 fd 58 c0          	vaddpd %ymm0,%ymm0,%ymm0
  402862:	c5 fd 58 c0          	vaddpd %ymm0,%ymm0,%ymm0
  402866:	c5 fd 58 c0          	vaddpd %ymm0,%ymm0,%ymm0
  40286a:	c5 fd 58 c0          	vaddpd %ymm0,%ymm0,%ymm0
  40286e:	c5 fd 58 c0          	vaddpd %ymm0,%ymm0,%ymm0
  402872:	c5 fd 58 c0          	vaddpd %ymm0,%ymm0,%ymm0
  402876:	c5 fd 58 c0          	vaddpd %ymm0,%ymm0,%ymm0
  40287a:	c5 fd 58 c0          	vaddpd %ymm0,%ymm0,%ymm0
  40287e:	c5 fd 58 c0          	vaddpd %ymm0,%ymm0,%ymm0
  402882:	c5 fd 58 c0          	vaddpd %ymm0,%ymm0,%ymm0
  402886:	c5 fd 58 c0          	vaddpd %ymm0,%ymm0,%ymm0
  40288a:	c5 fd 58 c0          	vaddpd %ymm0,%ymm0,%ymm0
  40288e:	c5 fd 58 c0          	vaddpd %ymm0,%ymm0,%ymm0
  402892:	c5 fd 58 c0          	vaddpd %ymm0,%ymm0,%ymm0
  402896:	c5 fd 58 c0          	vaddpd %ymm0,%ymm0,%ymm0
  40289a:	c5 fd 58 c0          	vaddpd %ymm0,%ymm0,%ymm0
  40289e:	c5 fd 58 c0          	vaddpd %ymm0,%ymm0,%ymm0
  4028a2:	c5 fd 58 c0          	vaddpd %ymm0,%ymm0,%ymm0
  4028a6:	c5 fd 58 c0          	vaddpd %ymm0,%ymm0,%ymm0
  4028aa:	c5 fd 58 c0          	vaddpd %ymm0,%ymm0,%ymm0
  4028ae:	c5 fd 58 c0          	vaddpd %ymm0,%ymm0,%ymm0
  4028b2:	c5 fd 58 c0          	vaddpd %ymm0,%ymm0,%ymm0
  4028b6:	c5 fd 58 c0          	vaddpd %ymm0,%ymm0,%ymm0
  4028ba:	c5 fd 58 c0          	vaddpd %ymm0,%ymm0,%ymm0
  4028be:	c5 fd 58 c0          	vaddpd %ymm0,%ymm0,%ymm0
  4028c2:	c5 fd 58 c0          	vaddpd %ymm0,%ymm0,%ymm0
  4028c6:	c5 fd 58 c0          	vaddpd %ymm0,%ymm0,%ymm0
  4028ca:	c5 fd 58 c0          	vaddpd %ymm0,%ymm0,%ymm0
  4028ce:	c5 fd 58 c0          	vaddpd %ymm0,%ymm0,%ymm0
  4028d2:	c5 fd 58 c0          	vaddpd %ymm0,%ymm0,%ymm0
  4028d6:	c5 fd 58 c0          	vaddpd %ymm0,%ymm0,%ymm0
  4028da:	c5 fd 58 c0          	vaddpd %ymm0,%ymm0,%ymm0
  4028de:	c5 fd 58 c0          	vaddpd %ymm0,%ymm0,%ymm0
  4028e2:	c5 fd 58 c0          	vaddpd %ymm0,%ymm0,%ymm0
  4028e6:	c5 fd 58 c0          	vaddpd %ymm0,%ymm0,%ymm0
  4028ea:	c5 fd 58 c0          	vaddpd %ymm0,%ymm0,%ymm0
  4028ee:	c5 fd 58 c0          	vaddpd %ymm0,%ymm0,%ymm0
  4028f2:	c5 fd 58 c0          	vaddpd %ymm0,%ymm0,%ymm0
  4028f6:	c5 fd 58 c0          	vaddpd %ymm0,%ymm0,%ymm0
  4028fa:	c5 fd 58 c0          	vaddpd %ymm0,%ymm0,%ymm0
  4028fe:	c5 fd 58 c0          	vaddpd %ymm0,%ymm0,%ymm0
  402902:	c5 fd 58 c0          	vaddpd %ymm0,%ymm0,%ymm0
  402906:	c5 fd 58 c0          	vaddpd %ymm0,%ymm0,%ymm0
  40290a:	c5 fd 58 c0          	vaddpd %ymm0,%ymm0,%ymm0
  40290e:	c5 fd 58 c0          	vaddpd %ymm0,%ymm0,%ymm0
  402912:	c5 fd 58 c0          	vaddpd %ymm0,%ymm0,%ymm0
  402916:	c5 fd 58 c0          	vaddpd %ymm0,%ymm0,%ymm0
  40291a:	c5 fd 58 c0          	vaddpd %ymm0,%ymm0,%ymm0
  40291e:	c5 fd 58 c0          	vaddpd %ymm0,%ymm0,%ymm0
  402922:	c5 fd 58 c0          	vaddpd %ymm0,%ymm0,%ymm0
  402926:	c5 fd 58 c0          	vaddpd %ymm0,%ymm0,%ymm0
  40292a:	c5 fd 58 c0          	vaddpd %ymm0,%ymm0,%ymm0
  40292e:	c5 fd 58 c0          	vaddpd %ymm0,%ymm0,%ymm0
  402932:	c5 fd 58 c0          	vaddpd %ymm0,%ymm0,%ymm0
  402936:	c5 fd 58 c0          	vaddpd %ymm0,%ymm0,%ymm0
  40293a:	c5 fd 58 c0          	vaddpd %ymm0,%ymm0,%ymm0
  40293e:	c5 fd 58 c0          	vaddpd %ymm0,%ymm0,%ymm0
  402942:	c5 fd 58 c0          	vaddpd %ymm0,%ymm0,%ymm0
  402946:	c5 fd 58 c0          	vaddpd %ymm0,%ymm0,%ymm0
  40294a:	c5 fd 58 c0          	vaddpd %ymm0,%ymm0,%ymm0
  40294e:	c5 fd 58 c0          	vaddpd %ymm0,%ymm0,%ymm0
  402952:	c5 fd 58 c0          	vaddpd %ymm0,%ymm0,%ymm0
  402956:	c5 fd 58 c0          	vaddpd %ymm0,%ymm0,%ymm0
  40295a:	c5 fd 58 c0          	vaddpd %ymm0,%ymm0,%ymm0
  40295e:	c5 fd 58 c0          	vaddpd %ymm0,%ymm0,%ymm0
  402962:	c5 fd 58 c0          	vaddpd %ymm0,%ymm0,%ymm0
  402966:	c5 fd 58 c0          	vaddpd %ymm0,%ymm0,%ymm0
  40296a:	c5 fd 58 c0          	vaddpd %ymm0,%ymm0,%ymm0
  40296e:	c5 fd 58 c0          	vaddpd %ymm0,%ymm0,%ymm0
  402972:	c5 fd 58 c0          	vaddpd %ymm0,%ymm0,%ymm0
  402976:	c5 fd 58 c0          	vaddpd %ymm0,%ymm0,%ymm0
  40297a:	c5 fd 58 c0          	vaddpd %ymm0,%ymm0,%ymm0
  40297e:	c5 fd 58 c0          	vaddpd %ymm0,%ymm0,%ymm0
  402982:	c5 fd 58 c0          	vaddpd %ymm0,%ymm0,%ymm0
  402986:	c5 fd 58 c0          	vaddpd %ymm0,%ymm0,%ymm0
  40298a:	c5 fd 58 c0          	vaddpd %ymm0,%ymm0,%ymm0
  40298e:	c5 fd 58 c0          	vaddpd %ymm0,%ymm0,%ymm0
  402992:	c5 fd 58 c0          	vaddpd %ymm0,%ymm0,%ymm0
  402996:	c5 fd 58 c0          	vaddpd %ymm0,%ymm0,%ymm0
  40299a:	c5 fd 58 c0          	vaddpd %ymm0,%ymm0,%ymm0
  40299e:	c5 fd 58 c0          	vaddpd %ymm0,%ymm0,%ymm0
  4029a2:	c5 fd 58 c0          	vaddpd %ymm0,%ymm0,%ymm0
  4029a6:	c5 fd 58 c0          	vaddpd %ymm0,%ymm0,%ymm0
  4029aa:	c5 fd 58 c0          	vaddpd %ymm0,%ymm0,%ymm0
  4029ae:	c5 fd 58 c0          	vaddpd %ymm0,%ymm0,%ymm0
  4029b2:	c5 fd 58 c0          	vaddpd %ymm0,%ymm0,%ymm0
  4029b6:	c5 fd 58 c0          	vaddpd %ymm0,%ymm0,%ymm0
  4029ba:	c5 fd 58 c0          	vaddpd %ymm0,%ymm0,%ymm0
  4029be:	c5 fd 58 c0          	vaddpd %ymm0,%ymm0,%ymm0
  4029c2:	c5 fd 58 c0          	vaddpd %ymm0,%ymm0,%ymm0
  4029c6:	c5 fd 58 c0          	vaddpd %ymm0,%ymm0,%ymm0
  4029ca:	c5 fd 58 c0          	vaddpd %ymm0,%ymm0,%ymm0
  4029ce:	c5 fd 58 c0          	vaddpd %ymm0,%ymm0,%ymm0
  4029d2:	c5 fd 58 c0          	vaddpd %ymm0,%ymm0,%ymm0
  4029d6:	c5 fd 58 c0          	vaddpd %ymm0,%ymm0,%ymm0
  4029da:	c5 fd 58 c0          	vaddpd %ymm0,%ymm0,%ymm0
  4029de:	c5 fd 58 c0          	vaddpd %ymm0,%ymm0,%ymm0
  4029e2:	c5 fd 58 c0          	vaddpd %ymm0,%ymm0,%ymm0
  4029e6:	c5 fd 58 c0          	vaddpd %ymm0,%ymm0,%ymm0
  4029ea:	c5 fd 58 c0          	vaddpd %ymm0,%ymm0,%ymm0
  4029ee:	c5 fd 58 c0          	vaddpd %ymm0,%ymm0,%ymm0
  4029f2:	c5 fd 58 c0          	vaddpd %ymm0,%ymm0,%ymm0
  4029f6:	c5 fd 58 c0          	vaddpd %ymm0,%ymm0,%ymm0
  4029fa:	c5 fd 58 c0          	vaddpd %ymm0,%ymm0,%ymm0
  4029fe:	c5 fd 58 c0          	vaddpd %ymm0,%ymm0,%ymm0
  402a02:	c5 fd 58 c0          	vaddpd %ymm0,%ymm0,%ymm0
  402a06:	c5 fd 58 c0          	vaddpd %ymm0,%ymm0,%ymm0
  402a0a:	c5 fd 58 c0          	vaddpd %ymm0,%ymm0,%ymm0
  402a0e:	c5 fd 58 c0          	vaddpd %ymm0,%ymm0,%ymm0
  402a12:	c5 fd 58 c0          	vaddpd %ymm0,%ymm0,%ymm0
  402a16:	c5 fd 58 c0          	vaddpd %ymm0,%ymm0,%ymm0
  402a1a:	c5 fd 58 c0          	vaddpd %ymm0,%ymm0,%ymm0
  402a1e:	c5 fd 58 c0          	vaddpd %ymm0,%ymm0,%ymm0
  402a22:	c5 fd 58 c0          	vaddpd %ymm0,%ymm0,%ymm0
  402a26:	c5 fd 58 c0          	vaddpd %ymm0,%ymm0,%ymm0
  402a2a:	c5 fd 58 c0          	vaddpd %ymm0,%ymm0,%ymm0
  402a2e:	c5 fd 58 c0          	vaddpd %ymm0,%ymm0,%ymm0
  402a32:	c5 fd 58 c0          	vaddpd %ymm0,%ymm0,%ymm0
  402a36:	c5 fd 58 c0          	vaddpd %ymm0,%ymm0,%ymm0
  402a3a:	c5 fd 58 c0          	vaddpd %ymm0,%ymm0,%ymm0
  402a3e:	c5 fd 58 c0          	vaddpd %ymm0,%ymm0,%ymm0
  402a42:	c5 fd 58 c0          	vaddpd %ymm0,%ymm0,%ymm0
  402a46:	c5 fd 58 c0          	vaddpd %ymm0,%ymm0,%ymm0
  402a4a:	c5 fd 58 c0          	vaddpd %ymm0,%ymm0,%ymm0
  402a4e:	c5 fd 58 c0          	vaddpd %ymm0,%ymm0,%ymm0
  402a52:	c5 fd 58 c0          	vaddpd %ymm0,%ymm0,%ymm0
  402a56:	c5 fd 58 c0          	vaddpd %ymm0,%ymm0,%ymm0
  402a5a:	c5 fd 58 c0          	vaddpd %ymm0,%ymm0,%ymm0
  402a5e:	c5 fd 58 c0          	vaddpd %ymm0,%ymm0,%ymm0
  402a62:	c5 fd 58 c0          	vaddpd %ymm0,%ymm0,%ymm0
  402a66:	c5 fd 58 c0          	vaddpd %ymm0,%ymm0,%ymm0
  402a6a:	c5 fd 58 c0          	vaddpd %ymm0,%ymm0,%ymm0
  402a6e:	c5 fd 58 c0          	vaddpd %ymm0,%ymm0,%ymm0
  402a72:	c5 fd 58 c0          	vaddpd %ymm0,%ymm0,%ymm0
  402a76:	c5 fd 58 c0          	vaddpd %ymm0,%ymm0,%ymm0
  402a7a:	c5 fd 58 c0          	vaddpd %ymm0,%ymm0,%ymm0
  402a7e:	c5 fd 58 c0          	vaddpd %ymm0,%ymm0,%ymm0
  402a82:	c5 fd 58 c0          	vaddpd %ymm0,%ymm0,%ymm0
  402a86:	c5 fd 58 c0          	vaddpd %ymm0,%ymm0,%ymm0
  402a8a:	c5 fd 58 c0          	vaddpd %ymm0,%ymm0,%ymm0
  402a8e:	c5 fd 58 c0          	vaddpd %ymm0,%ymm0,%ymm0
  402a92:	c5 fd 58 c0          	vaddpd %ymm0,%ymm0,%ymm0
  402a96:	c5 fd 58 c0          	vaddpd %ymm0,%ymm0,%ymm0
  402a9a:	c5 fd 58 c0          	vaddpd %ymm0,%ymm0,%ymm0
  402a9e:	c5 fd 58 c0          	vaddpd %ymm0,%ymm0,%ymm0
  402aa2:	c5 fd 58 c0          	vaddpd %ymm0,%ymm0,%ymm0
  402aa6:	c5 fd 58 c0          	vaddpd %ymm0,%ymm0,%ymm0
  402aaa:	c5 fd 58 c0          	vaddpd %ymm0,%ymm0,%ymm0
  402aae:	c5 fd 58 c0          	vaddpd %ymm0,%ymm0,%ymm0
  402ab2:	c5 fd 58 c0          	vaddpd %ymm0,%ymm0,%ymm0
  402ab6:	c5 fd 58 c0          	vaddpd %ymm0,%ymm0,%ymm0
  402aba:	c5 fd 58 c0          	vaddpd %ymm0,%ymm0,%ymm0
  402abe:	c5 fd 58 c0          	vaddpd %ymm0,%ymm0,%ymm0
  402ac2:	c5 fd 58 c0          	vaddpd %ymm0,%ymm0,%ymm0
  402ac6:	c5 fd 58 c0          	vaddpd %ymm0,%ymm0,%ymm0
  402aca:	c5 fd 58 c0          	vaddpd %ymm0,%ymm0,%ymm0
  402ace:	c5 fd 58 c0          	vaddpd %ymm0,%ymm0,%ymm0
  402ad2:	c5 fd 58 c0          	vaddpd %ymm0,%ymm0,%ymm0
  402ad6:	c5 fd 58 c0          	vaddpd %ymm0,%ymm0,%ymm0
  402ada:	c5 fd 58 c0          	vaddpd %ymm0,%ymm0,%ymm0
  402ade:	c5 fd 58 c0          	vaddpd %ymm0,%ymm0,%ymm0
  402ae2:	c5 fd 58 c0          	vaddpd %ymm0,%ymm0,%ymm0
  402ae6:	c5 fd 58 c0          	vaddpd %ymm0,%ymm0,%ymm0
  402aea:	c5 fd 58 c0          	vaddpd %ymm0,%ymm0,%ymm0
  402aee:	c5 fd 58 c0          	vaddpd %ymm0,%ymm0,%ymm0
  402af2:	c5 fd 58 c0          	vaddpd %ymm0,%ymm0,%ymm0
  402af6:	c5 fd 58 c0          	vaddpd %ymm0,%ymm0,%ymm0
  402afa:	c5 fd 58 c0          	vaddpd %ymm0,%ymm0,%ymm0
  402afe:	c5 fd 58 c0          	vaddpd %ymm0,%ymm0,%ymm0
  402b02:	c5 fd 58 c0          	vaddpd %ymm0,%ymm0,%ymm0
  402b06:	c5 fd 58 c0          	vaddpd %ymm0,%ymm0,%ymm0
  402b0a:	c5 fd 58 c0          	vaddpd %ymm0,%ymm0,%ymm0
  402b0e:	c5 fd 58 c0          	vaddpd %ymm0,%ymm0,%ymm0
  402b12:	c5 fd 58 c0          	vaddpd %ymm0,%ymm0,%ymm0
  402b16:	c5 fd 58 c0          	vaddpd %ymm0,%ymm0,%ymm0
  402b1a:	c5 fd 58 c0          	vaddpd %ymm0,%ymm0,%ymm0
  402b1e:	c5 fd 58 c0          	vaddpd %ymm0,%ymm0,%ymm0
  402b22:	c5 fd 58 c0          	vaddpd %ymm0,%ymm0,%ymm0
  402b26:	c5 fd 58 c0          	vaddpd %ymm0,%ymm0,%ymm0
  402b2a:	c5 fd 58 c0          	vaddpd %ymm0,%ymm0,%ymm0
  402b2e:	c5 fd 58 c0          	vaddpd %ymm0,%ymm0,%ymm0
  402b32:	c5 fd 58 c0          	vaddpd %ymm0,%ymm0,%ymm0
  402b36:	c5 fd 58 c0          	vaddpd %ymm0,%ymm0,%ymm0
  402b3a:	c5 fd 58 c0          	vaddpd %ymm0,%ymm0,%ymm0
  402b3e:	c5 fd 58 c0          	vaddpd %ymm0,%ymm0,%ymm0
  402b42:	c5 fd 58 c0          	vaddpd %ymm0,%ymm0,%ymm0
  402b46:	c5 fd 58 c0          	vaddpd %ymm0,%ymm0,%ymm0
  402b4a:	c5 fd 58 c0          	vaddpd %ymm0,%ymm0,%ymm0
  402b4e:	c5 fd 58 c0          	vaddpd %ymm0,%ymm0,%ymm0
  402b52:	c5 fd 58 c0          	vaddpd %ymm0,%ymm0,%ymm0
  402b56:	c5 fd 58 c0          	vaddpd %ymm0,%ymm0,%ymm0
  402b5a:	c5 fd 58 c0          	vaddpd %ymm0,%ymm0,%ymm0
  402b5e:	c5 fd 58 c0          	vaddpd %ymm0,%ymm0,%ymm0
  402b62:	c5 fd 58 c0          	vaddpd %ymm0,%ymm0,%ymm0
  402b66:	c5 fd 58 c0          	vaddpd %ymm0,%ymm0,%ymm0
  402b6a:	c5 fd 58 c0          	vaddpd %ymm0,%ymm0,%ymm0
  402b6e:	c5 fd 58 c0          	vaddpd %ymm0,%ymm0,%ymm0
  402b72:	c5 fd 58 c0          	vaddpd %ymm0,%ymm0,%ymm0
  402b76:	c5 fd 58 c0          	vaddpd %ymm0,%ymm0,%ymm0
  402b7a:	c5 fd 58 c0          	vaddpd %ymm0,%ymm0,%ymm0
  402b7e:	c5 fd 58 c0          	vaddpd %ymm0,%ymm0,%ymm0
  402b82:	c5 fd 58 c0          	vaddpd %ymm0,%ymm0,%ymm0
  402b86:	c5 fd 58 c0          	vaddpd %ymm0,%ymm0,%ymm0
  402b8a:	c5 fd 58 c0          	vaddpd %ymm0,%ymm0,%ymm0
  402b8e:	c5 fd 58 c0          	vaddpd %ymm0,%ymm0,%ymm0
  402b92:	c5 fd 58 c0          	vaddpd %ymm0,%ymm0,%ymm0
  402b96:	c5 fd 58 c0          	vaddpd %ymm0,%ymm0,%ymm0
  402b9a:	c5 fd 58 c0          	vaddpd %ymm0,%ymm0,%ymm0
  402b9e:	c5 fd 58 c0          	vaddpd %ymm0,%ymm0,%ymm0
  402ba2:	c5 fd 58 c0          	vaddpd %ymm0,%ymm0,%ymm0
  402ba6:	c5 fd 58 c0          	vaddpd %ymm0,%ymm0,%ymm0
  402baa:	c5 fd 58 c0          	vaddpd %ymm0,%ymm0,%ymm0
  402bae:	c5 fd 58 c0          	vaddpd %ymm0,%ymm0,%ymm0
  402bb2:	c5 fd 58 c0          	vaddpd %ymm0,%ymm0,%ymm0
  402bb6:	c5 fd 58 c0          	vaddpd %ymm0,%ymm0,%ymm0
  402bba:	c5 fd 58 c0          	vaddpd %ymm0,%ymm0,%ymm0
  402bbe:	c5 fd 58 c0          	vaddpd %ymm0,%ymm0,%ymm0
  402bc2:	c5 fd 58 c0          	vaddpd %ymm0,%ymm0,%ymm0
  402bc6:	c5 fd 58 c0          	vaddpd %ymm0,%ymm0,%ymm0
  402bca:	c5 fd 58 c0          	vaddpd %ymm0,%ymm0,%ymm0
  402bce:	c5 fd 58 c0          	vaddpd %ymm0,%ymm0,%ymm0
  402bd2:	c5 fd 58 c0          	vaddpd %ymm0,%ymm0,%ymm0
  402bd6:	c5 fd 58 c0          	vaddpd %ymm0,%ymm0,%ymm0
  402bda:	c5 fd 58 c0          	vaddpd %ymm0,%ymm0,%ymm0
  402bde:	c5 fd 58 c0          	vaddpd %ymm0,%ymm0,%ymm0
  402be2:	c5 fd 58 c0          	vaddpd %ymm0,%ymm0,%ymm0
  402be6:	c5 fd 58 c0          	vaddpd %ymm0,%ymm0,%ymm0
  402bea:	c5 fd 58 c0          	vaddpd %ymm0,%ymm0,%ymm0
  402bee:	c5 fd 58 c0          	vaddpd %ymm0,%ymm0,%ymm0
  402bf2:	c5 fd 58 c0          	vaddpd %ymm0,%ymm0,%ymm0
  402bf6:	c5 fd 58 c0          	vaddpd %ymm0,%ymm0,%ymm0
  402bfa:	c5 fd 58 c0          	vaddpd %ymm0,%ymm0,%ymm0
  402bfe:	c5 fd 58 c0          	vaddpd %ymm0,%ymm0,%ymm0
  402c02:	c5 fd 58 c0          	vaddpd %ymm0,%ymm0,%ymm0
  402c06:	c5 fd 58 c0          	vaddpd %ymm0,%ymm0,%ymm0
  402c0a:	c5 fd 58 c0          	vaddpd %ymm0,%ymm0,%ymm0
  402c0e:	c5 fd 58 c0          	vaddpd %ymm0,%ymm0,%ymm0
  402c12:	c5 fd 58 c0          	vaddpd %ymm0,%ymm0,%ymm0
  402c16:	c5 fd 58 c0          	vaddpd %ymm0,%ymm0,%ymm0
  402c1a:	c5 fd 58 c0          	vaddpd %ymm0,%ymm0,%ymm0
  402c1e:	c5 fd 58 c0          	vaddpd %ymm0,%ymm0,%ymm0
  402c22:	c5 fd 58 c0          	vaddpd %ymm0,%ymm0,%ymm0
  402c26:	c5 fd 58 c0          	vaddpd %ymm0,%ymm0,%ymm0
  402c2a:	c5 fd 58 c0          	vaddpd %ymm0,%ymm0,%ymm0
  402c2e:	c5 fd 58 c0          	vaddpd %ymm0,%ymm0,%ymm0
  402c32:	c5 fd 58 c0          	vaddpd %ymm0,%ymm0,%ymm0
  402c36:	c5 fd 58 c0          	vaddpd %ymm0,%ymm0,%ymm0
  402c3a:	c5 fd 58 c0          	vaddpd %ymm0,%ymm0,%ymm0
  402c3e:	c5 fd 58 c0          	vaddpd %ymm0,%ymm0,%ymm0
  402c42:	c5 fd 58 c0          	vaddpd %ymm0,%ymm0,%ymm0
  402c46:	c5 fd 58 c0          	vaddpd %ymm0,%ymm0,%ymm0
  402c4a:	c5 fd 58 c0          	vaddpd %ymm0,%ymm0,%ymm0
  402c4e:	c5 fd 58 c0          	vaddpd %ymm0,%ymm0,%ymm0
  402c52:	c5 fd 58 c0          	vaddpd %ymm0,%ymm0,%ymm0
  402c56:	c5 fd 58 c0          	vaddpd %ymm0,%ymm0,%ymm0
  402c5a:	c5 fd 58 c0          	vaddpd %ymm0,%ymm0,%ymm0
  402c5e:	c5 fd 58 c0          	vaddpd %ymm0,%ymm0,%ymm0
  402c62:	c5 fd 58 c0          	vaddpd %ymm0,%ymm0,%ymm0
  402c66:	c5 fd 58 c0          	vaddpd %ymm0,%ymm0,%ymm0
  402c6a:	c5 fd 58 c0          	vaddpd %ymm0,%ymm0,%ymm0
  402c6e:	c5 fd 58 c0          	vaddpd %ymm0,%ymm0,%ymm0
  402c72:	c5 fd 58 c0          	vaddpd %ymm0,%ymm0,%ymm0
  402c76:	c5 fd 58 c0          	vaddpd %ymm0,%ymm0,%ymm0
  402c7a:	c5 fd 58 c0          	vaddpd %ymm0,%ymm0,%ymm0
  402c7e:	c5 fd 58 c0          	vaddpd %ymm0,%ymm0,%ymm0
  402c82:	c5 fd 58 c0          	vaddpd %ymm0,%ymm0,%ymm0
  402c86:	c5 fd 58 c0          	vaddpd %ymm0,%ymm0,%ymm0
  402c8a:	c5 fd 58 c0          	vaddpd %ymm0,%ymm0,%ymm0
  402c8e:	c5 fd 58 c0          	vaddpd %ymm0,%ymm0,%ymm0
  402c92:	c5 fd 58 c0          	vaddpd %ymm0,%ymm0,%ymm0
  402c96:	c5 fd 58 c0          	vaddpd %ymm0,%ymm0,%ymm0
  402c9a:	c5 fd 58 c0          	vaddpd %ymm0,%ymm0,%ymm0
  402c9e:	c5 fd 58 c0          	vaddpd %ymm0,%ymm0,%ymm0
  402ca2:	c5 fd 58 c0          	vaddpd %ymm0,%ymm0,%ymm0
  402ca6:	c5 fd 58 c0          	vaddpd %ymm0,%ymm0,%ymm0
  402caa:	c5 fd 58 c0          	vaddpd %ymm0,%ymm0,%ymm0
  402cae:	c5 fd 58 c0          	vaddpd %ymm0,%ymm0,%ymm0
  402cb2:	c5 fd 58 c0          	vaddpd %ymm0,%ymm0,%ymm0
  402cb6:	c5 fd 58 c0          	vaddpd %ymm0,%ymm0,%ymm0
  402cba:	c5 fd 58 c0          	vaddpd %ymm0,%ymm0,%ymm0
  402cbe:	c5 fd 58 c0          	vaddpd %ymm0,%ymm0,%ymm0
  402cc2:	c5 fd 58 c0          	vaddpd %ymm0,%ymm0,%ymm0
  402cc6:	c5 fd 58 c0          	vaddpd %ymm0,%ymm0,%ymm0
  402cca:	c5 fd 58 c0          	vaddpd %ymm0,%ymm0,%ymm0
  402cce:	c5 fd 58 c0          	vaddpd %ymm0,%ymm0,%ymm0
  402cd2:	c5 fd 58 c0          	vaddpd %ymm0,%ymm0,%ymm0
  402cd6:	c5 fd 58 c0          	vaddpd %ymm0,%ymm0,%ymm0
  402cda:	c5 fd 58 c0          	vaddpd %ymm0,%ymm0,%ymm0
  402cde:	c5 fd 58 c0          	vaddpd %ymm0,%ymm0,%ymm0
  402ce2:	c5 fd 58 c0          	vaddpd %ymm0,%ymm0,%ymm0
  402ce6:	c5 fd 58 c0          	vaddpd %ymm0,%ymm0,%ymm0
  402cea:	c5 fd 58 c0          	vaddpd %ymm0,%ymm0,%ymm0
  402cee:	c5 fd 58 c0          	vaddpd %ymm0,%ymm0,%ymm0
  402cf2:	c5 fd 58 c0          	vaddpd %ymm0,%ymm0,%ymm0
  402cf6:	c5 fd 58 c0          	vaddpd %ymm0,%ymm0,%ymm0
  402cfa:	c5 fd 58 c0          	vaddpd %ymm0,%ymm0,%ymm0
  402cfe:	c5 fd 58 c0          	vaddpd %ymm0,%ymm0,%ymm0
  402d02:	c5 fd 58 c0          	vaddpd %ymm0,%ymm0,%ymm0
  402d06:	c5 fd 58 c0          	vaddpd %ymm0,%ymm0,%ymm0
  402d0a:	c5 fd 58 c0          	vaddpd %ymm0,%ymm0,%ymm0
  402d0e:	c5 fd 58 c0          	vaddpd %ymm0,%ymm0,%ymm0
  402d12:	c5 fd 58 c0          	vaddpd %ymm0,%ymm0,%ymm0
  402d16:	c5 fd 58 c0          	vaddpd %ymm0,%ymm0,%ymm0
  402d1a:	c5 fd 58 c0          	vaddpd %ymm0,%ymm0,%ymm0
  402d1e:	c5 fd 58 c0          	vaddpd %ymm0,%ymm0,%ymm0
  402d22:	c5 fd 58 c0          	vaddpd %ymm0,%ymm0,%ymm0
  402d26:	c5 fd 58 c0          	vaddpd %ymm0,%ymm0,%ymm0
  402d2a:	c5 fd 58 c0          	vaddpd %ymm0,%ymm0,%ymm0
  402d2e:	c5 fd 58 c0          	vaddpd %ymm0,%ymm0,%ymm0
  402d32:	c5 fd 58 c0          	vaddpd %ymm0,%ymm0,%ymm0
  402d36:	c5 fd 58 c0          	vaddpd %ymm0,%ymm0,%ymm0
  402d3a:	c5 fd 58 c0          	vaddpd %ymm0,%ymm0,%ymm0
  402d3e:	c5 fd 58 c0          	vaddpd %ymm0,%ymm0,%ymm0
  402d42:	c5 fd 58 c0          	vaddpd %ymm0,%ymm0,%ymm0
  402d46:	c5 fd 58 c0          	vaddpd %ymm0,%ymm0,%ymm0
  402d4a:	c5 fd 58 c0          	vaddpd %ymm0,%ymm0,%ymm0
  402d4e:	c5 fd 58 c0          	vaddpd %ymm0,%ymm0,%ymm0
  402d52:	c5 fd 58 c0          	vaddpd %ymm0,%ymm0,%ymm0
  402d56:	c5 fd 58 c0          	vaddpd %ymm0,%ymm0,%ymm0
  402d5a:	c5 fd 58 c0          	vaddpd %ymm0,%ymm0,%ymm0
  402d5e:	c5 fd 58 c0          	vaddpd %ymm0,%ymm0,%ymm0
  402d62:	c5 fd 58 c0          	vaddpd %ymm0,%ymm0,%ymm0
  402d66:	c5 fd 58 c0          	vaddpd %ymm0,%ymm0,%ymm0
  402d6a:	c5 fd 58 c0          	vaddpd %ymm0,%ymm0,%ymm0
  402d6e:	c5 fd 58 c0          	vaddpd %ymm0,%ymm0,%ymm0
  402d72:	c5 fd 58 c0          	vaddpd %ymm0,%ymm0,%ymm0
  402d76:	c5 fd 58 c0          	vaddpd %ymm0,%ymm0,%ymm0
  402d7a:	c5 fd 58 c0          	vaddpd %ymm0,%ymm0,%ymm0
  402d7e:	c5 fd 58 c0          	vaddpd %ymm0,%ymm0,%ymm0
  402d82:	c5 fd 58 c0          	vaddpd %ymm0,%ymm0,%ymm0
  402d86:	c5 fd 58 c0          	vaddpd %ymm0,%ymm0,%ymm0
  402d8a:	c5 fd 58 c0          	vaddpd %ymm0,%ymm0,%ymm0
  402d8e:	c5 fd 58 c0          	vaddpd %ymm0,%ymm0,%ymm0
  402d92:	c5 fd 58 c0          	vaddpd %ymm0,%ymm0,%ymm0
  402d96:	c5 fd 58 c0          	vaddpd %ymm0,%ymm0,%ymm0
  402d9a:	c5 fd 58 c0          	vaddpd %ymm0,%ymm0,%ymm0
  402d9e:	c5 fd 58 c0          	vaddpd %ymm0,%ymm0,%ymm0
  402da2:	c5 fd 58 c0          	vaddpd %ymm0,%ymm0,%ymm0
  402da6:	c5 fd 58 c0          	vaddpd %ymm0,%ymm0,%ymm0
  402daa:	c5 fd 58 c0          	vaddpd %ymm0,%ymm0,%ymm0
  402dae:	c5 fd 58 c0          	vaddpd %ymm0,%ymm0,%ymm0
  402db2:	c5 fd 58 c0          	vaddpd %ymm0,%ymm0,%ymm0
  402db6:	c5 fd 58 c0          	vaddpd %ymm0,%ymm0,%ymm0
  402dba:	c5 fd 58 c0          	vaddpd %ymm0,%ymm0,%ymm0
  402dbe:	c5 fd 58 c0          	vaddpd %ymm0,%ymm0,%ymm0
  402dc2:	c5 fd 58 c0          	vaddpd %ymm0,%ymm0,%ymm0
  402dc6:	c5 fd 58 c0          	vaddpd %ymm0,%ymm0,%ymm0
  402dca:	c5 fd 58 c0          	vaddpd %ymm0,%ymm0,%ymm0
  402dce:	c5 fd 58 c0          	vaddpd %ymm0,%ymm0,%ymm0
  402dd2:	c5 fd 58 c0          	vaddpd %ymm0,%ymm0,%ymm0
  402dd6:	c5 fd 58 c0          	vaddpd %ymm0,%ymm0,%ymm0
  402dda:	c5 fd 58 c0          	vaddpd %ymm0,%ymm0,%ymm0
  402dde:	c5 fd 58 c0          	vaddpd %ymm0,%ymm0,%ymm0
  402de2:	c5 fd 58 c0          	vaddpd %ymm0,%ymm0,%ymm0
  402de6:	c5 fd 58 c0          	vaddpd %ymm0,%ymm0,%ymm0
  402dea:	c5 fd 58 c0          	vaddpd %ymm0,%ymm0,%ymm0
  402dee:	c5 fd 58 c0          	vaddpd %ymm0,%ymm0,%ymm0
  402df2:	c5 fd 58 c0          	vaddpd %ymm0,%ymm0,%ymm0
  402df6:	c5 fd 58 c0          	vaddpd %ymm0,%ymm0,%ymm0
  402dfa:	c5 fd 58 c0          	vaddpd %ymm0,%ymm0,%ymm0
  402dfe:	c5 fd 58 c0          	vaddpd %ymm0,%ymm0,%ymm0
  402e02:	c5 fd 58 c0          	vaddpd %ymm0,%ymm0,%ymm0
  402e06:	c5 fd 58 c0          	vaddpd %ymm0,%ymm0,%ymm0
  402e0a:	c5 fd 58 c0          	vaddpd %ymm0,%ymm0,%ymm0
  402e0e:	c5 fd 58 c0          	vaddpd %ymm0,%ymm0,%ymm0
  402e12:	c5 fd 58 c0          	vaddpd %ymm0,%ymm0,%ymm0
  402e16:	c5 fd 58 c0          	vaddpd %ymm0,%ymm0,%ymm0
  402e1a:	c5 fd 58 c0          	vaddpd %ymm0,%ymm0,%ymm0
  402e1e:	c5 fd 58 c0          	vaddpd %ymm0,%ymm0,%ymm0
  402e22:	c5 fd 58 c0          	vaddpd %ymm0,%ymm0,%ymm0
  402e26:	c5 fd 58 c0          	vaddpd %ymm0,%ymm0,%ymm0
  402e2a:	c5 fd 58 c0          	vaddpd %ymm0,%ymm0,%ymm0
  402e2e:	c5 fd 58 c0          	vaddpd %ymm0,%ymm0,%ymm0
  402e32:	c5 fd 58 c0          	vaddpd %ymm0,%ymm0,%ymm0
  402e36:	c5 fd 58 c0          	vaddpd %ymm0,%ymm0,%ymm0
  402e3a:	c5 fd 58 c0          	vaddpd %ymm0,%ymm0,%ymm0
  402e3e:	c5 fd 58 c0          	vaddpd %ymm0,%ymm0,%ymm0
  402e42:	c5 fd 58 c0          	vaddpd %ymm0,%ymm0,%ymm0
  402e46:	c5 fd 58 c0          	vaddpd %ymm0,%ymm0,%ymm0
  402e4a:	c5 fd 58 c0          	vaddpd %ymm0,%ymm0,%ymm0
  402e4e:	c5 fd 58 c0          	vaddpd %ymm0,%ymm0,%ymm0
  402e52:	c5 fd 58 c0          	vaddpd %ymm0,%ymm0,%ymm0
  402e56:	c5 fd 58 c0          	vaddpd %ymm0,%ymm0,%ymm0
  402e5a:	c5 fd 58 c0          	vaddpd %ymm0,%ymm0,%ymm0
  402e5e:	c5 fd 58 c0          	vaddpd %ymm0,%ymm0,%ymm0
  402e62:	c5 fd 58 c0          	vaddpd %ymm0,%ymm0,%ymm0
  402e66:	c5 fd 58 c0          	vaddpd %ymm0,%ymm0,%ymm0
  402e6a:	c5 fd 58 c0          	vaddpd %ymm0,%ymm0,%ymm0
  402e6e:	c5 fd 58 c0          	vaddpd %ymm0,%ymm0,%ymm0
  402e72:	c5 fd 58 c0          	vaddpd %ymm0,%ymm0,%ymm0
  402e76:	c5 fd 58 c0          	vaddpd %ymm0,%ymm0,%ymm0
  402e7a:	c5 fd 58 c0          	vaddpd %ymm0,%ymm0,%ymm0
  402e7e:	c5 fd 58 c0          	vaddpd %ymm0,%ymm0,%ymm0
  402e82:	c5 fd 58 c0          	vaddpd %ymm0,%ymm0,%ymm0
  402e86:	c5 fd 58 c0          	vaddpd %ymm0,%ymm0,%ymm0
  402e8a:	c5 fd 58 c0          	vaddpd %ymm0,%ymm0,%ymm0
  402e8e:	c5 fd 58 c0          	vaddpd %ymm0,%ymm0,%ymm0
  402e92:	c5 fd 58 c0          	vaddpd %ymm0,%ymm0,%ymm0
  402e96:	c5 fd 58 c0          	vaddpd %ymm0,%ymm0,%ymm0
  402e9a:	c5 fd 58 c0          	vaddpd %ymm0,%ymm0,%ymm0
  402e9e:	c5 fd 58 c0          	vaddpd %ymm0,%ymm0,%ymm0
  402ea2:	c5 fd 58 c0          	vaddpd %ymm0,%ymm0,%ymm0
  402ea6:	c5 fd 58 c0          	vaddpd %ymm0,%ymm0,%ymm0
  402eaa:	c5 fd 58 c0          	vaddpd %ymm0,%ymm0,%ymm0
  402eae:	c5 fd 58 c0          	vaddpd %ymm0,%ymm0,%ymm0
  402eb2:	c5 fd 58 c0          	vaddpd %ymm0,%ymm0,%ymm0
  402eb6:	c5 fd 58 c0          	vaddpd %ymm0,%ymm0,%ymm0
  402eba:	c5 fd 58 c0          	vaddpd %ymm0,%ymm0,%ymm0
  402ebe:	c5 fd 58 c0          	vaddpd %ymm0,%ymm0,%ymm0
  402ec2:	c5 fd 58 c0          	vaddpd %ymm0,%ymm0,%ymm0
  402ec6:	c5 fd 58 c0          	vaddpd %ymm0,%ymm0,%ymm0
  402eca:	c5 fd 58 c0          	vaddpd %ymm0,%ymm0,%ymm0
  402ece:	c5 fd 58 c0          	vaddpd %ymm0,%ymm0,%ymm0
  402ed2:	c5 fd 58 c0          	vaddpd %ymm0,%ymm0,%ymm0
  402ed6:	c5 fd 58 c0          	vaddpd %ymm0,%ymm0,%ymm0
  402eda:	c5 fd 58 c0          	vaddpd %ymm0,%ymm0,%ymm0
  402ede:	c5 fd 58 c0          	vaddpd %ymm0,%ymm0,%ymm0
  402ee2:	c5 fd 58 c0          	vaddpd %ymm0,%ymm0,%ymm0
  402ee6:	c5 fd 58 c0          	vaddpd %ymm0,%ymm0,%ymm0
  402eea:	c5 fd 58 c0          	vaddpd %ymm0,%ymm0,%ymm0
  402eee:	c5 fd 58 c0          	vaddpd %ymm0,%ymm0,%ymm0
  402ef2:	c5 fd 58 c0          	vaddpd %ymm0,%ymm0,%ymm0
  402ef6:	c5 fd 58 c0          	vaddpd %ymm0,%ymm0,%ymm0
  402efa:	c5 fd 58 c0          	vaddpd %ymm0,%ymm0,%ymm0
  402efe:	c5 fd 58 c0          	vaddpd %ymm0,%ymm0,%ymm0
  402f02:	c5 fd 58 c0          	vaddpd %ymm0,%ymm0,%ymm0
  402f06:	c5 fd 58 c0          	vaddpd %ymm0,%ymm0,%ymm0
  402f0a:	c5 fd 58 c0          	vaddpd %ymm0,%ymm0,%ymm0
  402f0e:	c5 fd 58 c0          	vaddpd %ymm0,%ymm0,%ymm0
  402f12:	c5 fd 58 c0          	vaddpd %ymm0,%ymm0,%ymm0
  402f16:	c5 fd 58 c0          	vaddpd %ymm0,%ymm0,%ymm0
  402f1a:	c5 fd 58 c0          	vaddpd %ymm0,%ymm0,%ymm0
  402f1e:	c5 fd 58 c0          	vaddpd %ymm0,%ymm0,%ymm0
  402f22:	c5 fd 58 c0          	vaddpd %ymm0,%ymm0,%ymm0
  402f26:	c5 fd 58 c0          	vaddpd %ymm0,%ymm0,%ymm0
  402f2a:	c5 fd 58 c0          	vaddpd %ymm0,%ymm0,%ymm0
  402f2e:	c5 fd 58 c0          	vaddpd %ymm0,%ymm0,%ymm0
  402f32:	c5 fd 58 c0          	vaddpd %ymm0,%ymm0,%ymm0
  402f36:	c5 fd 58 c0          	vaddpd %ymm0,%ymm0,%ymm0
  402f3a:	c5 fd 58 c0          	vaddpd %ymm0,%ymm0,%ymm0
  402f3e:	c5 fd 58 c0          	vaddpd %ymm0,%ymm0,%ymm0
  402f42:	c5 fd 58 c0          	vaddpd %ymm0,%ymm0,%ymm0
  402f46:	c5 fd 58 c0          	vaddpd %ymm0,%ymm0,%ymm0
  402f4a:	c5 fd 58 c0          	vaddpd %ymm0,%ymm0,%ymm0
  402f4e:	c5 fd 58 c0          	vaddpd %ymm0,%ymm0,%ymm0
  402f52:	c5 fd 58 c0          	vaddpd %ymm0,%ymm0,%ymm0
  402f56:	c5 fd 58 c0          	vaddpd %ymm0,%ymm0,%ymm0
  402f5a:	c5 fd 58 c0          	vaddpd %ymm0,%ymm0,%ymm0
  402f5e:	c5 fd 58 c0          	vaddpd %ymm0,%ymm0,%ymm0
  402f62:	c5 fd 58 c0          	vaddpd %ymm0,%ymm0,%ymm0
  402f66:	c5 fd 58 c0          	vaddpd %ymm0,%ymm0,%ymm0
  402f6a:	c5 fd 58 c0          	vaddpd %ymm0,%ymm0,%ymm0
  402f6e:	c5 fd 58 c0          	vaddpd %ymm0,%ymm0,%ymm0
  402f72:	c5 fd 58 c0          	vaddpd %ymm0,%ymm0,%ymm0
  402f76:	c5 fd 58 c0          	vaddpd %ymm0,%ymm0,%ymm0
  402f7a:	c5 fd 58 c0          	vaddpd %ymm0,%ymm0,%ymm0
  402f7e:	c5 fd 58 c0          	vaddpd %ymm0,%ymm0,%ymm0
  402f82:	c5 fd 58 c0          	vaddpd %ymm0,%ymm0,%ymm0
  402f86:	c5 fd 58 c0          	vaddpd %ymm0,%ymm0,%ymm0
  402f8a:	c5 fd 58 c0          	vaddpd %ymm0,%ymm0,%ymm0
  402f8e:	c5 fd 58 c0          	vaddpd %ymm0,%ymm0,%ymm0
  402f92:	c5 fd 58 c0          	vaddpd %ymm0,%ymm0,%ymm0
  402f96:	c5 fd 58 c0          	vaddpd %ymm0,%ymm0,%ymm0
  402f9a:	c5 fd 58 c0          	vaddpd %ymm0,%ymm0,%ymm0
  402f9e:	c5 fd 58 c0          	vaddpd %ymm0,%ymm0,%ymm0
  402fa2:	c5 fd 58 c0          	vaddpd %ymm0,%ymm0,%ymm0
  402fa6:	c5 fd 58 c0          	vaddpd %ymm0,%ymm0,%ymm0
  402faa:	c5 fd 58 c0          	vaddpd %ymm0,%ymm0,%ymm0
  402fae:	c5 fd 58 c0          	vaddpd %ymm0,%ymm0,%ymm0
  402fb2:	c5 fd 58 c0          	vaddpd %ymm0,%ymm0,%ymm0
  402fb6:	c5 fd 58 c0          	vaddpd %ymm0,%ymm0,%ymm0
  402fba:	c5 fd 58 c0          	vaddpd %ymm0,%ymm0,%ymm0
  402fbe:	c5 fd 58 c0          	vaddpd %ymm0,%ymm0,%ymm0
  402fc2:	c5 fd 58 c0          	vaddpd %ymm0,%ymm0,%ymm0
  402fc6:	c5 fd 58 c0          	vaddpd %ymm0,%ymm0,%ymm0
  402fca:	c5 fd 58 c0          	vaddpd %ymm0,%ymm0,%ymm0
  402fce:	c5 fd 58 c0          	vaddpd %ymm0,%ymm0,%ymm0
  402fd2:	c5 fd 58 c0          	vaddpd %ymm0,%ymm0,%ymm0
  402fd6:	c5 fd 58 c0          	vaddpd %ymm0,%ymm0,%ymm0
  402fda:	c5 fd 58 c0          	vaddpd %ymm0,%ymm0,%ymm0
  402fde:	c5 fd 58 c0          	vaddpd %ymm0,%ymm0,%ymm0
  402fe2:	c5 fd 58 c0          	vaddpd %ymm0,%ymm0,%ymm0
  402fe6:	c5 fd 58 c0          	vaddpd %ymm0,%ymm0,%ymm0
  402fea:	c5 fd 58 c0          	vaddpd %ymm0,%ymm0,%ymm0
  402fee:	c5 fd 58 c0          	vaddpd %ymm0,%ymm0,%ymm0
  402ff2:	c5 fd 58 c0          	vaddpd %ymm0,%ymm0,%ymm0
  402ff6:	c5 fd 58 c0          	vaddpd %ymm0,%ymm0,%ymm0
  402ffa:	c5 fd 58 c0          	vaddpd %ymm0,%ymm0,%ymm0
  402ffe:	c5 fd 58 c0          	vaddpd %ymm0,%ymm0,%ymm0
  403002:	c5 fd 58 c0          	vaddpd %ymm0,%ymm0,%ymm0
  403006:	c5 fd 58 c0          	vaddpd %ymm0,%ymm0,%ymm0
  40300a:	c5 fd 58 c0          	vaddpd %ymm0,%ymm0,%ymm0
  40300e:	c5 fd 58 c0          	vaddpd %ymm0,%ymm0,%ymm0
  403012:	c5 fd 58 c0          	vaddpd %ymm0,%ymm0,%ymm0
  403016:	c5 fd 58 c0          	vaddpd %ymm0,%ymm0,%ymm0
  40301a:	c5 fd 58 c0          	vaddpd %ymm0,%ymm0,%ymm0
  40301e:	c5 fd 58 c0          	vaddpd %ymm0,%ymm0,%ymm0
  403022:	c5 fd 58 c0          	vaddpd %ymm0,%ymm0,%ymm0
  403026:	c5 fd 58 c0          	vaddpd %ymm0,%ymm0,%ymm0
  40302a:	c5 fd 58 c0          	vaddpd %ymm0,%ymm0,%ymm0
  40302e:	c5 fd 58 c0          	vaddpd %ymm0,%ymm0,%ymm0
  403032:	c5 fd 58 c0          	vaddpd %ymm0,%ymm0,%ymm0
  403036:	c5 fd 58 c0          	vaddpd %ymm0,%ymm0,%ymm0
  40303a:	c5 fd 58 c0          	vaddpd %ymm0,%ymm0,%ymm0
  40303e:	c5 fd 58 c0          	vaddpd %ymm0,%ymm0,%ymm0
  403042:	c5 fd 58 c0          	vaddpd %ymm0,%ymm0,%ymm0
  403046:	c5 fd 58 c0          	vaddpd %ymm0,%ymm0,%ymm0
  40304a:	c5 fd 58 c0          	vaddpd %ymm0,%ymm0,%ymm0
  40304e:	c5 fd 58 c0          	vaddpd %ymm0,%ymm0,%ymm0
  403052:	c5 fd 58 c0          	vaddpd %ymm0,%ymm0,%ymm0
  403056:	c5 fd 58 c0          	vaddpd %ymm0,%ymm0,%ymm0
  40305a:	c5 fd 58 c0          	vaddpd %ymm0,%ymm0,%ymm0
  40305e:	c5 fd 58 c0          	vaddpd %ymm0,%ymm0,%ymm0
  403062:	c5 fd 58 c0          	vaddpd %ymm0,%ymm0,%ymm0
  403066:	c5 fd 58 c0          	vaddpd %ymm0,%ymm0,%ymm0
  40306a:	c5 fd 58 c0          	vaddpd %ymm0,%ymm0,%ymm0
  40306e:	c5 fd 58 c0          	vaddpd %ymm0,%ymm0,%ymm0
  403072:	c5 fd 58 c0          	vaddpd %ymm0,%ymm0,%ymm0
  403076:	c5 fd 58 c0          	vaddpd %ymm0,%ymm0,%ymm0
  40307a:	c5 fd 58 c0          	vaddpd %ymm0,%ymm0,%ymm0
  40307e:	c5 fd 58 c0          	vaddpd %ymm0,%ymm0,%ymm0
  403082:	c5 fd 58 c0          	vaddpd %ymm0,%ymm0,%ymm0
  403086:	c5 fd 58 c0          	vaddpd %ymm0,%ymm0,%ymm0
  40308a:	c5 fd 58 c0          	vaddpd %ymm0,%ymm0,%ymm0
  40308e:	c5 fd 58 c0          	vaddpd %ymm0,%ymm0,%ymm0
  403092:	c5 fd 58 c0          	vaddpd %ymm0,%ymm0,%ymm0
  403096:	c5 fd 58 c0          	vaddpd %ymm0,%ymm0,%ymm0
  40309a:	c5 fd 58 c0          	vaddpd %ymm0,%ymm0,%ymm0
  40309e:	c5 fd 58 c0          	vaddpd %ymm0,%ymm0,%ymm0
  4030a2:	c5 fd 58 c0          	vaddpd %ymm0,%ymm0,%ymm0
  4030a6:	c5 fd 58 c0          	vaddpd %ymm0,%ymm0,%ymm0
  4030aa:	c5 fd 58 c0          	vaddpd %ymm0,%ymm0,%ymm0
  4030ae:	c5 fd 58 c0          	vaddpd %ymm0,%ymm0,%ymm0
  4030b2:	c5 fd 58 c0          	vaddpd %ymm0,%ymm0,%ymm0
  4030b6:	c5 fd 58 c0          	vaddpd %ymm0,%ymm0,%ymm0
  4030ba:	c5 fd 58 c0          	vaddpd %ymm0,%ymm0,%ymm0
  4030be:	c5 fd 58 c0          	vaddpd %ymm0,%ymm0,%ymm0
  4030c2:	c5 fd 58 c0          	vaddpd %ymm0,%ymm0,%ymm0
  4030c6:	c5 fd 58 c0          	vaddpd %ymm0,%ymm0,%ymm0
  4030ca:	c5 fd 58 c0          	vaddpd %ymm0,%ymm0,%ymm0
  4030ce:	c5 fd 58 c0          	vaddpd %ymm0,%ymm0,%ymm0
  4030d2:	c5 fd 58 c0          	vaddpd %ymm0,%ymm0,%ymm0
  4030d6:	c5 fd 58 c0          	vaddpd %ymm0,%ymm0,%ymm0
  4030da:	c5 fd 58 c0          	vaddpd %ymm0,%ymm0,%ymm0
  4030de:	c5 fd 58 c0          	vaddpd %ymm0,%ymm0,%ymm0
  4030e2:	c5 fd 58 c0          	vaddpd %ymm0,%ymm0,%ymm0
  4030e6:	c5 fd 58 c0          	vaddpd %ymm0,%ymm0,%ymm0
  4030ea:	c5 fd 58 c0          	vaddpd %ymm0,%ymm0,%ymm0
  4030ee:	c5 fd 58 c0          	vaddpd %ymm0,%ymm0,%ymm0
  4030f2:	c5 fd 58 c0          	vaddpd %ymm0,%ymm0,%ymm0
  4030f6:	c5 fd 58 c0          	vaddpd %ymm0,%ymm0,%ymm0
  4030fa:	c5 fd 58 c0          	vaddpd %ymm0,%ymm0,%ymm0
  4030fe:	c5 fd 58 c0          	vaddpd %ymm0,%ymm0,%ymm0
  403102:	c5 fd 58 c0          	vaddpd %ymm0,%ymm0,%ymm0
  403106:	c5 fd 58 c0          	vaddpd %ymm0,%ymm0,%ymm0
  40310a:	c5 fd 58 c0          	vaddpd %ymm0,%ymm0,%ymm0
  40310e:	c5 fd 58 c0          	vaddpd %ymm0,%ymm0,%ymm0
  403112:	c5 fd 58 c0          	vaddpd %ymm0,%ymm0,%ymm0
  403116:	c5 fd 58 c0          	vaddpd %ymm0,%ymm0,%ymm0
  40311a:	c5 fd 58 c0          	vaddpd %ymm0,%ymm0,%ymm0
  40311e:	c5 fd 58 c0          	vaddpd %ymm0,%ymm0,%ymm0
  403122:	c5 fd 58 c0          	vaddpd %ymm0,%ymm0,%ymm0
  403126:	c5 fd 58 c0          	vaddpd %ymm0,%ymm0,%ymm0
  40312a:	c5 fd 58 c0          	vaddpd %ymm0,%ymm0,%ymm0
  40312e:	c5 fd 58 c0          	vaddpd %ymm0,%ymm0,%ymm0
  403132:	c5 fd 58 c0          	vaddpd %ymm0,%ymm0,%ymm0
  403136:	c5 fd 58 c0          	vaddpd %ymm0,%ymm0,%ymm0
  40313a:	c5 fd 58 c0          	vaddpd %ymm0,%ymm0,%ymm0
  40313e:	c5 fd 58 c0          	vaddpd %ymm0,%ymm0,%ymm0
  403142:	c5 fd 58 c0          	vaddpd %ymm0,%ymm0,%ymm0
  403146:	c5 fd 58 c0          	vaddpd %ymm0,%ymm0,%ymm0
  40314a:	c5 fd 58 c0          	vaddpd %ymm0,%ymm0,%ymm0
  40314e:	c5 fd 58 c0          	vaddpd %ymm0,%ymm0,%ymm0
  403152:	c5 fd 58 c0          	vaddpd %ymm0,%ymm0,%ymm0
  403156:	c5 fd 58 c0          	vaddpd %ymm0,%ymm0,%ymm0
  40315a:	c5 fd 58 c0          	vaddpd %ymm0,%ymm0,%ymm0
  40315e:	c5 fd 58 c0          	vaddpd %ymm0,%ymm0,%ymm0
  403162:	c5 fd 58 c0          	vaddpd %ymm0,%ymm0,%ymm0
  403166:	c5 fd 58 c0          	vaddpd %ymm0,%ymm0,%ymm0
  40316a:	c5 fd 58 c0          	vaddpd %ymm0,%ymm0,%ymm0
  40316e:	c5 fd 58 c0          	vaddpd %ymm0,%ymm0,%ymm0
  403172:	c5 fd 58 c0          	vaddpd %ymm0,%ymm0,%ymm0
  403176:	c5 fd 58 c0          	vaddpd %ymm0,%ymm0,%ymm0
  40317a:	c5 fd 58 c0          	vaddpd %ymm0,%ymm0,%ymm0
  40317e:	c5 fd 58 c0          	vaddpd %ymm0,%ymm0,%ymm0
  403182:	c5 fd 58 c0          	vaddpd %ymm0,%ymm0,%ymm0
  403186:	c5 fd 58 c0          	vaddpd %ymm0,%ymm0,%ymm0
  40318a:	c5 fd 58 c0          	vaddpd %ymm0,%ymm0,%ymm0
  40318e:	c5 fd 58 c0          	vaddpd %ymm0,%ymm0,%ymm0
  403192:	c5 fd 58 c0          	vaddpd %ymm0,%ymm0,%ymm0
  403196:	c5 fd 58 c0          	vaddpd %ymm0,%ymm0,%ymm0
  40319a:	c5 fd 58 c0          	vaddpd %ymm0,%ymm0,%ymm0
  40319e:	c5 fd 58 c0          	vaddpd %ymm0,%ymm0,%ymm0
  4031a2:	c5 fd 58 c0          	vaddpd %ymm0,%ymm0,%ymm0
  4031a6:	c5 fd 58 c0          	vaddpd %ymm0,%ymm0,%ymm0
  4031aa:	c5 fd 58 c0          	vaddpd %ymm0,%ymm0,%ymm0
  4031ae:	c5 fd 58 c0          	vaddpd %ymm0,%ymm0,%ymm0
  4031b2:	c5 fd 58 c0          	vaddpd %ymm0,%ymm0,%ymm0
  4031b6:	c5 fd 58 c0          	vaddpd %ymm0,%ymm0,%ymm0
  4031ba:	c5 fd 58 c0          	vaddpd %ymm0,%ymm0,%ymm0
  4031be:	c5 fd 58 c0          	vaddpd %ymm0,%ymm0,%ymm0
  4031c2:	c5 fd 58 c0          	vaddpd %ymm0,%ymm0,%ymm0
  4031c6:	c5 fd 58 c0          	vaddpd %ymm0,%ymm0,%ymm0
  4031ca:	c5 fd 58 c0          	vaddpd %ymm0,%ymm0,%ymm0
  4031ce:	c5 fd 58 c0          	vaddpd %ymm0,%ymm0,%ymm0
  4031d2:	c5 fd 58 c0          	vaddpd %ymm0,%ymm0,%ymm0
  4031d6:	c5 fd 58 c0          	vaddpd %ymm0,%ymm0,%ymm0
  4031da:	c5 fd 58 c0          	vaddpd %ymm0,%ymm0,%ymm0
  4031de:	c5 fd 58 c0          	vaddpd %ymm0,%ymm0,%ymm0
  4031e2:	c5 fd 58 c0          	vaddpd %ymm0,%ymm0,%ymm0
  4031e6:	c5 fd 58 c0          	vaddpd %ymm0,%ymm0,%ymm0
  4031ea:	c5 fd 58 c0          	vaddpd %ymm0,%ymm0,%ymm0
  4031ee:	c5 fd 58 c0          	vaddpd %ymm0,%ymm0,%ymm0
  4031f2:	c5 fd 58 c0          	vaddpd %ymm0,%ymm0,%ymm0
  4031f6:	c5 fd 58 c0          	vaddpd %ymm0,%ymm0,%ymm0
  4031fa:	c5 fd 58 c0          	vaddpd %ymm0,%ymm0,%ymm0
  4031fe:	c5 fd 58 c0          	vaddpd %ymm0,%ymm0,%ymm0
  403202:	c5 fd 58 c0          	vaddpd %ymm0,%ymm0,%ymm0
  403206:	c5 fd 58 c0          	vaddpd %ymm0,%ymm0,%ymm0
  40320a:	c5 fd 58 c0          	vaddpd %ymm0,%ymm0,%ymm0
  40320e:	c5 fd 58 c0          	vaddpd %ymm0,%ymm0,%ymm0
  403212:	c5 fd 58 c0          	vaddpd %ymm0,%ymm0,%ymm0
  403216:	c5 fd 58 c0          	vaddpd %ymm0,%ymm0,%ymm0
  40321a:	c5 fd 58 c0          	vaddpd %ymm0,%ymm0,%ymm0
  40321e:	c5 fd 58 c0          	vaddpd %ymm0,%ymm0,%ymm0
  403222:	c5 fd 58 c0          	vaddpd %ymm0,%ymm0,%ymm0
  403226:	c5 fd 58 c0          	vaddpd %ymm0,%ymm0,%ymm0
  40322a:	c5 fd 58 c0          	vaddpd %ymm0,%ymm0,%ymm0
  40322e:	c5 fd 58 c0          	vaddpd %ymm0,%ymm0,%ymm0
  403232:	c5 fd 58 c0          	vaddpd %ymm0,%ymm0,%ymm0
  403236:	c5 fd 58 c0          	vaddpd %ymm0,%ymm0,%ymm0
  40323a:	c5 fd 58 c0          	vaddpd %ymm0,%ymm0,%ymm0
  40323e:	c5 fd 58 c0          	vaddpd %ymm0,%ymm0,%ymm0
  403242:	c5 fd 58 c0          	vaddpd %ymm0,%ymm0,%ymm0
  403246:	c5 fd 58 c0          	vaddpd %ymm0,%ymm0,%ymm0
  40324a:	c5 fd 58 c0          	vaddpd %ymm0,%ymm0,%ymm0
  40324e:	c5 fd 58 c0          	vaddpd %ymm0,%ymm0,%ymm0
  403252:	c5 fd 58 c0          	vaddpd %ymm0,%ymm0,%ymm0
  403256:	c5 fd 58 c0          	vaddpd %ymm0,%ymm0,%ymm0
  40325a:	c5 fd 58 c0          	vaddpd %ymm0,%ymm0,%ymm0
  40325e:	c5 fd 58 c0          	vaddpd %ymm0,%ymm0,%ymm0
  403262:	c5 fd 58 c0          	vaddpd %ymm0,%ymm0,%ymm0
  403266:	c5 fd 58 c0          	vaddpd %ymm0,%ymm0,%ymm0
  40326a:	c5 fd 58 c0          	vaddpd %ymm0,%ymm0,%ymm0
  40326e:	c5 fd 58 c0          	vaddpd %ymm0,%ymm0,%ymm0
  403272:	c5 fd 58 c0          	vaddpd %ymm0,%ymm0,%ymm0
  403276:	c5 fd 58 c0          	vaddpd %ymm0,%ymm0,%ymm0
  40327a:	c5 fd 58 c0          	vaddpd %ymm0,%ymm0,%ymm0
  40327e:	c5 fd 58 c0          	vaddpd %ymm0,%ymm0,%ymm0
  403282:	c5 fd 58 c0          	vaddpd %ymm0,%ymm0,%ymm0
  403286:	c5 fd 58 c0          	vaddpd %ymm0,%ymm0,%ymm0
  40328a:	c5 fd 58 c0          	vaddpd %ymm0,%ymm0,%ymm0
  40328e:	c5 fd 58 c0          	vaddpd %ymm0,%ymm0,%ymm0
  403292:	c5 fd 58 c0          	vaddpd %ymm0,%ymm0,%ymm0
  403296:	c5 fd 58 c0          	vaddpd %ymm0,%ymm0,%ymm0
  40329a:	c5 fd 58 c0          	vaddpd %ymm0,%ymm0,%ymm0
  40329e:	c5 fd 58 c0          	vaddpd %ymm0,%ymm0,%ymm0
  4032a2:	c5 fd 58 c0          	vaddpd %ymm0,%ymm0,%ymm0
  4032a6:	c5 fd 58 c0          	vaddpd %ymm0,%ymm0,%ymm0
  4032aa:	c5 fd 58 c0          	vaddpd %ymm0,%ymm0,%ymm0
  4032ae:	c5 fd 58 c0          	vaddpd %ymm0,%ymm0,%ymm0
  4032b2:	c5 fd 58 c0          	vaddpd %ymm0,%ymm0,%ymm0
  4032b6:	c5 fd 58 c0          	vaddpd %ymm0,%ymm0,%ymm0
  4032ba:	c5 fd 58 c0          	vaddpd %ymm0,%ymm0,%ymm0
  4032be:	c5 fd 58 c0          	vaddpd %ymm0,%ymm0,%ymm0
  4032c2:	c5 fd 58 c0          	vaddpd %ymm0,%ymm0,%ymm0
  4032c6:	c5 fd 58 c0          	vaddpd %ymm0,%ymm0,%ymm0
  4032ca:	c5 fd 58 c0          	vaddpd %ymm0,%ymm0,%ymm0
  4032ce:	c5 fd 58 c0          	vaddpd %ymm0,%ymm0,%ymm0
  4032d2:	c5 fd 58 c0          	vaddpd %ymm0,%ymm0,%ymm0
  4032d6:	c5 fd 58 c0          	vaddpd %ymm0,%ymm0,%ymm0
  4032da:	c5 fd 58 c0          	vaddpd %ymm0,%ymm0,%ymm0
  4032de:	c5 fd 58 c0          	vaddpd %ymm0,%ymm0,%ymm0
  4032e2:	c5 fd 58 c0          	vaddpd %ymm0,%ymm0,%ymm0
  4032e6:	c5 fd 58 c0          	vaddpd %ymm0,%ymm0,%ymm0
  4032ea:	c5 fd 58 c0          	vaddpd %ymm0,%ymm0,%ymm0
  4032ee:	c5 fd 58 c0          	vaddpd %ymm0,%ymm0,%ymm0
  4032f2:	c5 fd 58 c0          	vaddpd %ymm0,%ymm0,%ymm0
  4032f6:	c5 fd 58 c0          	vaddpd %ymm0,%ymm0,%ymm0
  4032fa:	c5 fd 58 c0          	vaddpd %ymm0,%ymm0,%ymm0
  4032fe:	c5 fd 58 c0          	vaddpd %ymm0,%ymm0,%ymm0
  403302:	c5 fd 58 c0          	vaddpd %ymm0,%ymm0,%ymm0
  403306:	c5 fd 58 c0          	vaddpd %ymm0,%ymm0,%ymm0
  40330a:	c5 fd 58 c0          	vaddpd %ymm0,%ymm0,%ymm0
  40330e:	c5 fd 58 c0          	vaddpd %ymm0,%ymm0,%ymm0
  403312:	c5 fd 58 c0          	vaddpd %ymm0,%ymm0,%ymm0
  403316:	c5 fd 58 c0          	vaddpd %ymm0,%ymm0,%ymm0
  40331a:	c5 fd 58 c0          	vaddpd %ymm0,%ymm0,%ymm0
  40331e:	c5 fd 58 c0          	vaddpd %ymm0,%ymm0,%ymm0
  403322:	c5 fd 58 c0          	vaddpd %ymm0,%ymm0,%ymm0
  403326:	c5 fd 58 c0          	vaddpd %ymm0,%ymm0,%ymm0
  40332a:	c5 fd 58 c0          	vaddpd %ymm0,%ymm0,%ymm0
  40332e:	c5 fd 58 c0          	vaddpd %ymm0,%ymm0,%ymm0
  403332:	c5 fd 58 c0          	vaddpd %ymm0,%ymm0,%ymm0
  403336:	c5 fd 58 c0          	vaddpd %ymm0,%ymm0,%ymm0
  40333a:	c5 fd 58 c0          	vaddpd %ymm0,%ymm0,%ymm0
  40333e:	c5 fd 58 c0          	vaddpd %ymm0,%ymm0,%ymm0
  403342:	c5 fd 58 c0          	vaddpd %ymm0,%ymm0,%ymm0
  403346:	c5 fd 58 c0          	vaddpd %ymm0,%ymm0,%ymm0
  40334a:	c5 fd 58 c0          	vaddpd %ymm0,%ymm0,%ymm0
  40334e:	c5 fd 58 c0          	vaddpd %ymm0,%ymm0,%ymm0
  403352:	c5 fd 58 c0          	vaddpd %ymm0,%ymm0,%ymm0
  403356:	c5 fd 58 c0          	vaddpd %ymm0,%ymm0,%ymm0
  40335a:	c5 fd 58 c0          	vaddpd %ymm0,%ymm0,%ymm0
  40335e:	c5 fd 58 c0          	vaddpd %ymm0,%ymm0,%ymm0
  403362:	c5 fd 58 c0          	vaddpd %ymm0,%ymm0,%ymm0
  403366:	c5 fd 58 c0          	vaddpd %ymm0,%ymm0,%ymm0
  40336a:	c5 fd 58 c0          	vaddpd %ymm0,%ymm0,%ymm0
  40336e:	c5 fd 58 c0          	vaddpd %ymm0,%ymm0,%ymm0
  403372:	c5 fd 58 c0          	vaddpd %ymm0,%ymm0,%ymm0
  403376:	c5 fd 58 c0          	vaddpd %ymm0,%ymm0,%ymm0
  40337a:	c5 fd 58 c0          	vaddpd %ymm0,%ymm0,%ymm0
  40337e:	c5 fd 58 c0          	vaddpd %ymm0,%ymm0,%ymm0
  403382:	c5 fd 58 c0          	vaddpd %ymm0,%ymm0,%ymm0
  403386:	c5 fd 58 c0          	vaddpd %ymm0,%ymm0,%ymm0
  40338a:	c5 fd 58 c0          	vaddpd %ymm0,%ymm0,%ymm0
  40338e:	c5 fd 58 c0          	vaddpd %ymm0,%ymm0,%ymm0
  403392:	c5 fd 58 c0          	vaddpd %ymm0,%ymm0,%ymm0
  403396:	c5 fd 58 c0          	vaddpd %ymm0,%ymm0,%ymm0
  40339a:	c5 fd 58 c0          	vaddpd %ymm0,%ymm0,%ymm0
  40339e:	c5 fd 58 c0          	vaddpd %ymm0,%ymm0,%ymm0
  4033a2:	c5 fd 58 c0          	vaddpd %ymm0,%ymm0,%ymm0
  4033a6:	c5 fd 58 c0          	vaddpd %ymm0,%ymm0,%ymm0
  4033aa:	c5 fd 58 c0          	vaddpd %ymm0,%ymm0,%ymm0
  4033ae:	c5 fd 58 c0          	vaddpd %ymm0,%ymm0,%ymm0
  4033b2:	c5 fd 58 c0          	vaddpd %ymm0,%ymm0,%ymm0
  4033b6:	c5 fd 58 c0          	vaddpd %ymm0,%ymm0,%ymm0
  4033ba:	c5 fd 58 c0          	vaddpd %ymm0,%ymm0,%ymm0
  4033be:	0f 31                	rdtsc  
  4033c0:	48 c1 e2 20          	shl    $0x20,%rdx
  4033c4:	89 c0                	mov    %eax,%eax
  4033c6:	48 c1 e1 20          	shl    $0x20,%rcx
  4033ca:	48 09 c2             	or     %rax,%rdx
  4033cd:	48 09 f1             	or     %rsi,%rcx
  4033d0:	48 29 ca             	sub    %rcx,%rdx
  4033d3:	48 01 d3             	add    %rdx,%rbx
  4033d6:	83 ef 01             	sub    $0x1,%edi
  4033d9:	0f 85 f9 d0 ff ff    	jne    4004d8 <main+0x28>
  4033df:	48 89 de             	mov    %rbx,%rsi
  4033e2:	bf f0 35 40 00       	mov    $0x4035f0,%edi
  4033e7:	31 c0                	xor    %eax,%eax
  4033e9:	c5 f8 77             	vzeroupper 
  4033ec:	e8 af d0 ff ff       	callq  4004a0 <printf@plt>
  4033f1:	48 85 db             	test   %rbx,%rbx
  4033f4:	78 33                	js     403429 <main+0x2f79>
  4033f6:	c5 f9 57 c0          	vxorpd %xmm0,%xmm0,%xmm0
  4033fa:	c4 e1 fb 2a c3       	vcvtsi2sd %rbx,%xmm0,%xmm0
  4033ff:	c5 fb 59 05 59 02 00 	vmulsd 0x259(%rip),%xmm0,%xmm0        # 403660 <__dso_handle+0x78>
  403406:	00 
  403407:	bf 20 36 40 00       	mov    $0x403620,%edi
  40340c:	b8 01 00 00 00       	mov    $0x1,%eax
  403411:	c5 fb 5e 05 4f 02 00 	vdivsd 0x24f(%rip),%xmm0,%xmm0        # 403668 <__dso_handle+0x80>
  403418:	00 
  403419:	e8 82 d0 ff ff       	callq  4004a0 <printf@plt>
  40341e:	5b                   	pop    %rbx
  40341f:	41 5a                	pop    %r10
  403421:	31 c0                	xor    %eax,%eax
  403423:	5d                   	pop    %rbp
  403424:	49 8d 62 f8          	lea    -0x8(%r10),%rsp
  403428:	c3                   	retq   
  403429:	48 89 d8             	mov    %rbx,%rax
  40342c:	83 e3 01             	and    $0x1,%ebx
  40342f:	c5 f9 57 c0          	vxorpd %xmm0,%xmm0,%xmm0
  403433:	48 d1 e8             	shr    %rax
  403436:	48 09 d8             	or     %rbx,%rax
  403439:	c4 e1 fb 2a c0       	vcvtsi2sd %rax,%xmm0,%xmm0
  40343e:	c5 fb 58 c0          	vaddsd %xmm0,%xmm0,%xmm0
  403442:	eb bb                	jmp    4033ff <main+0x2f4f>

0000000000403444 <.annobin_elf_init.c.hot>:
  403444:	66 2e 0f 1f 84 00 00 	nopw   %cs:0x0(%rax,%rax,1)
  40344b:	00 00 00 
  40344e:	66 90                	xchg   %ax,%ax

0000000000403450 <_start>:
  403450:	f3 0f 1e fa          	endbr64 
  403454:	31 ed                	xor    %ebp,%ebp
  403456:	49 89 d1             	mov    %rdx,%r9
  403459:	5e                   	pop    %rsi
  40345a:	48 89 e2             	mov    %rsp,%rdx
  40345d:	48 83 e4 f0          	and    $0xfffffffffffffff0,%rsp
  403461:	50                   	push   %rax
  403462:	54                   	push   %rsp
  403463:	49 c7 c0 b0 35 40 00 	mov    $0x4035b0,%r8
  40346a:	48 c7 c1 40 35 40 00 	mov    $0x403540,%rcx
  403471:	48 c7 c7 b0 04 40 00 	mov    $0x4004b0,%rdi
  403478:	ff 15 6a 0b 20 00    	callq  *0x200b6a(%rip)        # 603fe8 <__libc_start_main@GLIBC_2.2.5>
  40347e:	f4                   	hlt    

000000000040347f <.annobin_init.c>:
  40347f:	90                   	nop

0000000000403480 <_dl_relocate_static_pie>:
  403480:	f3 0f 1e fa          	endbr64 
  403484:	c3                   	retq   

0000000000403485 <.annobin__dl_relocate_static_pie.end>:
  403485:	66 2e 0f 1f 84 00 00 	nopw   %cs:0x0(%rax,%rax,1)
  40348c:	00 00 00 
  40348f:	90                   	nop

0000000000403490 <deregister_tm_clones>:
  403490:	48 8d 3d 91 0b 20 00 	lea    0x200b91(%rip),%rdi        # 604028 <__TMC_END__>
  403497:	48 8d 05 8a 0b 20 00 	lea    0x200b8a(%rip),%rax        # 604028 <__TMC_END__>
  40349e:	48 39 f8             	cmp    %rdi,%rax
  4034a1:	74 15                	je     4034b8 <deregister_tm_clones+0x28>
  4034a3:	48 8b 05 36 0b 20 00 	mov    0x200b36(%rip),%rax        # 603fe0 <_ITM_deregisterTMCloneTable@Base>
  4034aa:	48 85 c0             	test   %rax,%rax
  4034ad:	74 09                	je     4034b8 <deregister_tm_clones+0x28>
  4034af:	ff e0                	jmpq   *%rax
  4034b1:	0f 1f 80 00 00 00 00 	nopl   0x0(%rax)
  4034b8:	c3                   	retq   
  4034b9:	0f 1f 80 00 00 00 00 	nopl   0x0(%rax)

00000000004034c0 <register_tm_clones>:
  4034c0:	48 8d 3d 61 0b 20 00 	lea    0x200b61(%rip),%rdi        # 604028 <__TMC_END__>
  4034c7:	48 8d 35 5a 0b 20 00 	lea    0x200b5a(%rip),%rsi        # 604028 <__TMC_END__>
  4034ce:	48 29 fe             	sub    %rdi,%rsi
  4034d1:	48 c1 fe 03          	sar    $0x3,%rsi
  4034d5:	48 89 f0             	mov    %rsi,%rax
  4034d8:	48 c1 e8 3f          	shr    $0x3f,%rax
  4034dc:	48 01 c6             	add    %rax,%rsi
  4034df:	48 d1 fe             	sar    %rsi
  4034e2:	74 14                	je     4034f8 <register_tm_clones+0x38>
  4034e4:	48 8b 05 0d 0b 20 00 	mov    0x200b0d(%rip),%rax        # 603ff8 <_ITM_registerTMCloneTable@Base>
  4034eb:	48 85 c0             	test   %rax,%rax
  4034ee:	74 08                	je     4034f8 <register_tm_clones+0x38>
  4034f0:	ff e0                	jmpq   *%rax
  4034f2:	66 0f 1f 44 00 00    	nopw   0x0(%rax,%rax,1)
  4034f8:	c3                   	retq   
  4034f9:	0f 1f 80 00 00 00 00 	nopl   0x0(%rax)

0000000000403500 <__do_global_dtors_aux>:
  403500:	f3 0f 1e fa          	endbr64 
  403504:	80 3d 19 0b 20 00 00 	cmpb   $0x0,0x200b19(%rip)        # 604024 <_edata>
  40350b:	75 13                	jne    403520 <__do_global_dtors_aux+0x20>
  40350d:	55                   	push   %rbp
  40350e:	48 89 e5             	mov    %rsp,%rbp
  403511:	e8 7a ff ff ff       	callq  403490 <deregister_tm_clones>
  403516:	c6 05 07 0b 20 00 01 	movb   $0x1,0x200b07(%rip)        # 604024 <_edata>
  40351d:	5d                   	pop    %rbp
  40351e:	c3                   	retq   
  40351f:	90                   	nop
  403520:	c3                   	retq   
  403521:	66 66 2e 0f 1f 84 00 	data16 nopw %cs:0x0(%rax,%rax,1)
  403528:	00 00 00 00 
  40352c:	0f 1f 40 00          	nopl   0x0(%rax)

0000000000403530 <frame_dummy>:
  403530:	f3 0f 1e fa          	endbr64 
  403534:	eb 8a                	jmp    4034c0 <register_tm_clones>
  403536:	66 2e 0f 1f 84 00 00 	nopw   %cs:0x0(%rax,%rax,1)
  40353d:	00 00 00 

0000000000403540 <__libc_csu_init>:
  403540:	f3 0f 1e fa          	endbr64 
  403544:	41 57                	push   %r15
  403546:	49 89 d7             	mov    %rdx,%r15
  403549:	41 56                	push   %r14
  40354b:	49 89 f6             	mov    %rsi,%r14
  40354e:	41 55                	push   %r13
  403550:	41 89 fd             	mov    %edi,%r13d
  403553:	41 54                	push   %r12
  403555:	4c 8d 25 a4 08 20 00 	lea    0x2008a4(%rip),%r12        # 603e00 <__frame_dummy_init_array_entry>
  40355c:	55                   	push   %rbp
  40355d:	48 8d 2d a4 08 20 00 	lea    0x2008a4(%rip),%rbp        # 603e08 <__init_array_end>
  403564:	53                   	push   %rbx
  403565:	4c 29 e5             	sub    %r12,%rbp
  403568:	48 83 ec 08          	sub    $0x8,%rsp
  40356c:	e8 f7 ce ff ff       	callq  400468 <_init>
  403571:	48 c1 fd 03          	sar    $0x3,%rbp
  403575:	74 1f                	je     403596 <__libc_csu_init+0x56>
  403577:	31 db                	xor    %ebx,%ebx
  403579:	0f 1f 80 00 00 00 00 	nopl   0x0(%rax)
  403580:	4c 89 fa             	mov    %r15,%rdx
  403583:	4c 89 f6             	mov    %r14,%rsi
  403586:	44 89 ef             	mov    %r13d,%edi
  403589:	41 ff 14 dc          	callq  *(%r12,%rbx,8)
  40358d:	48 83 c3 01          	add    $0x1,%rbx
  403591:	48 39 dd             	cmp    %rbx,%rbp
  403594:	75 ea                	jne    403580 <__libc_csu_init+0x40>
  403596:	48 83 c4 08          	add    $0x8,%rsp
  40359a:	5b                   	pop    %rbx
  40359b:	5d                   	pop    %rbp
  40359c:	41 5c                	pop    %r12
  40359e:	41 5d                	pop    %r13
  4035a0:	41 5e                	pop    %r14
  4035a2:	41 5f                	pop    %r15
  4035a4:	c3                   	retq   

00000000004035a5 <.annobin___libc_csu_fini.start>:
  4035a5:	66 66 2e 0f 1f 84 00 	data16 nopw %cs:0x0(%rax,%rax,1)
  4035ac:	00 00 00 00 

00000000004035b0 <__libc_csu_fini>:
  4035b0:	f3 0f 1e fa          	endbr64 
  4035b4:	c3                   	retq   

Disassembly of section .fini:

00000000004035b8 <_fini>:
  4035b8:	f3 0f 1e fa          	endbr64 
  4035bc:	48 83 ec 08          	sub    $0x8,%rsp
  4035c0:	48 83 c4 08          	add    $0x8,%rsp
  4035c4:	c3                   	retq   
