
./throughput_simd_fma.x:     file format elf64-x86-64


Disassembly of section .init:

0000000000400468 <_init>:
  400468:	f3 0f 1e fa          	endbr64 
  40046c:	48 83 ec 08          	sub    $0x8,%rsp
  400470:	48 8b 05 79 eb 21 00 	mov    0x21eb79(%rip),%rax        # 61eff0 <__gmon_start__@Base>
  400477:	48 85 c0             	test   %rax,%rax
  40047a:	74 02                	je     40047e <_init+0x16>
  40047c:	ff d0                	callq  *%rax
  40047e:	48 83 c4 08          	add    $0x8,%rsp
  400482:	c3                   	retq   

Disassembly of section .plt:

0000000000400490 <.plt>:
  400490:	ff 35 72 eb 21 00    	pushq  0x21eb72(%rip)        # 61f008 <_GLOBAL_OFFSET_TABLE_+0x8>
  400496:	ff 25 74 eb 21 00    	jmpq   *0x21eb74(%rip)        # 61f010 <_GLOBAL_OFFSET_TABLE_+0x10>
  40049c:	0f 1f 40 00          	nopl   0x0(%rax)

00000000004004a0 <printf@plt>:
  4004a0:	ff 25 72 eb 21 00    	jmpq   *0x21eb72(%rip)        # 61f018 <printf@GLIBC_2.2.5>
  4004a6:	68 00 00 00 00       	pushq  $0x0
  4004ab:	e9 e0 ff ff ff       	jmpq   400490 <.plt>

Disassembly of section .text:

00000000004004b0 <main>:
  4004b0:	4c 8d 54 24 08       	lea    0x8(%rsp),%r10
  4004b5:	48 83 e4 e0          	and    $0xffffffffffffffe0,%rsp
  4004b9:	bf 64 00 00 00       	mov    $0x64,%edi
  4004be:	41 ff 72 f8          	pushq  -0x8(%r10)
  4004c2:	55                   	push   %rbp
  4004c3:	48 89 e5             	mov    %rsp,%rbp
  4004c6:	41 52                	push   %r10
  4004c8:	53                   	push   %rbx
  4004c9:	31 db                	xor    %ebx,%ebx
  4004cb:	48 83 ec 20          	sub    $0x20,%rsp
  4004cf:	c5 fd 28 05 c9 d7 01 	vmovapd 0x1d7c9(%rip),%ymm0        # 41dca0 <__dso_handle+0x98>
  4004d6:	00 
  4004d7:	c5 fd 28 d0          	vmovapd %ymm0,%ymm2
  4004db:	c5 fd 28 c8          	vmovapd %ymm0,%ymm1
  4004df:	c5 fd 28 d8          	vmovapd %ymm0,%ymm3
  4004e3:	c5 fd 28 e8          	vmovapd %ymm0,%ymm5
  4004e7:	c5 fd 28 e0          	vmovapd %ymm0,%ymm4
  4004eb:	c5 fd 28 f0          	vmovapd %ymm0,%ymm6
  4004ef:	c5 fd 28 f8          	vmovapd %ymm0,%ymm7
  4004f3:	0f 1f 44 00 00       	nopl   0x0(%rax,%rax,1)
  4004f8:	0f 31                	rdtsc  
  4004fa:	89 d1                	mov    %edx,%ecx
  4004fc:	89 c6                	mov    %eax,%esi
  4004fe:	c4 e2 c5 b8 ff       	vfmadd231pd %ymm7,%ymm7,%ymm7
  400503:	c4 e2 cd b8 f6       	vfmadd231pd %ymm6,%ymm6,%ymm6
  400508:	c4 e2 dd b8 e4       	vfmadd231pd %ymm4,%ymm4,%ymm4
  40050d:	c4 e2 d5 b8 ed       	vfmadd231pd %ymm5,%ymm5,%ymm5
  400512:	c4 e2 e5 b8 db       	vfmadd231pd %ymm3,%ymm3,%ymm3
  400517:	c4 e2 f5 b8 c9       	vfmadd231pd %ymm1,%ymm1,%ymm1
  40051c:	c4 e2 ed b8 d2       	vfmadd231pd %ymm2,%ymm2,%ymm2
  400521:	c4 e2 fd b8 c0       	vfmadd231pd %ymm0,%ymm0,%ymm0
  400526:	c4 e2 c5 b8 ff       	vfmadd231pd %ymm7,%ymm7,%ymm7
  40052b:	c4 e2 cd b8 f6       	vfmadd231pd %ymm6,%ymm6,%ymm6
  400530:	c4 e2 dd b8 e4       	vfmadd231pd %ymm4,%ymm4,%ymm4
  400535:	c4 e2 d5 b8 ed       	vfmadd231pd %ymm5,%ymm5,%ymm5
  40053a:	c4 e2 e5 b8 db       	vfmadd231pd %ymm3,%ymm3,%ymm3
  40053f:	c4 e2 f5 b8 c9       	vfmadd231pd %ymm1,%ymm1,%ymm1
  400544:	c4 e2 ed b8 d2       	vfmadd231pd %ymm2,%ymm2,%ymm2
  400549:	c4 e2 fd b8 c0       	vfmadd231pd %ymm0,%ymm0,%ymm0
  40054e:	c4 e2 c5 b8 ff       	vfmadd231pd %ymm7,%ymm7,%ymm7
  400553:	c4 e2 cd b8 f6       	vfmadd231pd %ymm6,%ymm6,%ymm6
  400558:	c4 e2 dd b8 e4       	vfmadd231pd %ymm4,%ymm4,%ymm4
  40055d:	c4 e2 d5 b8 ed       	vfmadd231pd %ymm5,%ymm5,%ymm5
  400562:	c4 e2 e5 b8 db       	vfmadd231pd %ymm3,%ymm3,%ymm3
  400567:	c4 e2 f5 b8 c9       	vfmadd231pd %ymm1,%ymm1,%ymm1
  40056c:	c4 e2 ed b8 d2       	vfmadd231pd %ymm2,%ymm2,%ymm2
  400571:	c4 e2 fd b8 c0       	vfmadd231pd %ymm0,%ymm0,%ymm0
  400576:	c4 e2 c5 b8 ff       	vfmadd231pd %ymm7,%ymm7,%ymm7
  40057b:	c4 e2 cd b8 f6       	vfmadd231pd %ymm6,%ymm6,%ymm6
  400580:	c4 e2 dd b8 e4       	vfmadd231pd %ymm4,%ymm4,%ymm4
  400585:	c4 e2 d5 b8 ed       	vfmadd231pd %ymm5,%ymm5,%ymm5
  40058a:	c4 e2 e5 b8 db       	vfmadd231pd %ymm3,%ymm3,%ymm3
  40058f:	c4 e2 f5 b8 c9       	vfmadd231pd %ymm1,%ymm1,%ymm1
  400594:	c4 e2 ed b8 d2       	vfmadd231pd %ymm2,%ymm2,%ymm2
  400599:	c4 e2 fd b8 c0       	vfmadd231pd %ymm0,%ymm0,%ymm0
  40059e:	c4 e2 c5 b8 ff       	vfmadd231pd %ymm7,%ymm7,%ymm7
  4005a3:	c4 e2 cd b8 f6       	vfmadd231pd %ymm6,%ymm6,%ymm6
  4005a8:	c4 e2 dd b8 e4       	vfmadd231pd %ymm4,%ymm4,%ymm4
  4005ad:	c4 e2 d5 b8 ed       	vfmadd231pd %ymm5,%ymm5,%ymm5
  4005b2:	c4 e2 e5 b8 db       	vfmadd231pd %ymm3,%ymm3,%ymm3
  4005b7:	c4 e2 f5 b8 c9       	vfmadd231pd %ymm1,%ymm1,%ymm1
  4005bc:	c4 e2 ed b8 d2       	vfmadd231pd %ymm2,%ymm2,%ymm2
  4005c1:	c4 e2 fd b8 c0       	vfmadd231pd %ymm0,%ymm0,%ymm0
  4005c6:	c4 e2 c5 b8 ff       	vfmadd231pd %ymm7,%ymm7,%ymm7
  4005cb:	c4 e2 cd b8 f6       	vfmadd231pd %ymm6,%ymm6,%ymm6
  4005d0:	c4 e2 dd b8 e4       	vfmadd231pd %ymm4,%ymm4,%ymm4
  4005d5:	c4 e2 d5 b8 ed       	vfmadd231pd %ymm5,%ymm5,%ymm5
  4005da:	c4 e2 e5 b8 db       	vfmadd231pd %ymm3,%ymm3,%ymm3
  4005df:	c4 e2 f5 b8 c9       	vfmadd231pd %ymm1,%ymm1,%ymm1
  4005e4:	c4 e2 ed b8 d2       	vfmadd231pd %ymm2,%ymm2,%ymm2
  4005e9:	c4 e2 fd b8 c0       	vfmadd231pd %ymm0,%ymm0,%ymm0
  4005ee:	c4 e2 c5 b8 ff       	vfmadd231pd %ymm7,%ymm7,%ymm7
  4005f3:	c4 e2 cd b8 f6       	vfmadd231pd %ymm6,%ymm6,%ymm6
  4005f8:	c4 e2 dd b8 e4       	vfmadd231pd %ymm4,%ymm4,%ymm4
  4005fd:	c4 e2 d5 b8 ed       	vfmadd231pd %ymm5,%ymm5,%ymm5
  400602:	c4 e2 e5 b8 db       	vfmadd231pd %ymm3,%ymm3,%ymm3
  400607:	c4 e2 f5 b8 c9       	vfmadd231pd %ymm1,%ymm1,%ymm1
  40060c:	c4 e2 ed b8 d2       	vfmadd231pd %ymm2,%ymm2,%ymm2
  400611:	c4 e2 fd b8 c0       	vfmadd231pd %ymm0,%ymm0,%ymm0
  400616:	c4 e2 c5 b8 ff       	vfmadd231pd %ymm7,%ymm7,%ymm7
  40061b:	c4 e2 cd b8 f6       	vfmadd231pd %ymm6,%ymm6,%ymm6
  400620:	c4 e2 dd b8 e4       	vfmadd231pd %ymm4,%ymm4,%ymm4
  400625:	c4 e2 d5 b8 ed       	vfmadd231pd %ymm5,%ymm5,%ymm5
  40062a:	c4 e2 e5 b8 db       	vfmadd231pd %ymm3,%ymm3,%ymm3
  40062f:	c4 e2 f5 b8 c9       	vfmadd231pd %ymm1,%ymm1,%ymm1
  400634:	c4 e2 ed b8 d2       	vfmadd231pd %ymm2,%ymm2,%ymm2
  400639:	c4 e2 fd b8 c0       	vfmadd231pd %ymm0,%ymm0,%ymm0
  40063e:	c4 e2 c5 b8 ff       	vfmadd231pd %ymm7,%ymm7,%ymm7
  400643:	c4 e2 cd b8 f6       	vfmadd231pd %ymm6,%ymm6,%ymm6
  400648:	c4 e2 dd b8 e4       	vfmadd231pd %ymm4,%ymm4,%ymm4
  40064d:	c4 e2 d5 b8 ed       	vfmadd231pd %ymm5,%ymm5,%ymm5
  400652:	c4 e2 e5 b8 db       	vfmadd231pd %ymm3,%ymm3,%ymm3
  400657:	c4 e2 f5 b8 c9       	vfmadd231pd %ymm1,%ymm1,%ymm1
  40065c:	c4 e2 ed b8 d2       	vfmadd231pd %ymm2,%ymm2,%ymm2
  400661:	c4 e2 fd b8 c0       	vfmadd231pd %ymm0,%ymm0,%ymm0
  400666:	c4 e2 c5 b8 ff       	vfmadd231pd %ymm7,%ymm7,%ymm7
  40066b:	c4 e2 cd b8 f6       	vfmadd231pd %ymm6,%ymm6,%ymm6
  400670:	c4 e2 dd b8 e4       	vfmadd231pd %ymm4,%ymm4,%ymm4
  400675:	c4 e2 d5 b8 ed       	vfmadd231pd %ymm5,%ymm5,%ymm5
  40067a:	c4 e2 e5 b8 db       	vfmadd231pd %ymm3,%ymm3,%ymm3
  40067f:	c4 e2 f5 b8 c9       	vfmadd231pd %ymm1,%ymm1,%ymm1
  400684:	c4 e2 ed b8 d2       	vfmadd231pd %ymm2,%ymm2,%ymm2
  400689:	c4 e2 fd b8 c0       	vfmadd231pd %ymm0,%ymm0,%ymm0
  40068e:	c4 e2 c5 b8 ff       	vfmadd231pd %ymm7,%ymm7,%ymm7
  400693:	c4 e2 cd b8 f6       	vfmadd231pd %ymm6,%ymm6,%ymm6
  400698:	c4 e2 dd b8 e4       	vfmadd231pd %ymm4,%ymm4,%ymm4
  40069d:	c4 e2 d5 b8 ed       	vfmadd231pd %ymm5,%ymm5,%ymm5
  4006a2:	c4 e2 e5 b8 db       	vfmadd231pd %ymm3,%ymm3,%ymm3
  4006a7:	c4 e2 f5 b8 c9       	vfmadd231pd %ymm1,%ymm1,%ymm1
  4006ac:	c4 e2 ed b8 d2       	vfmadd231pd %ymm2,%ymm2,%ymm2
  4006b1:	c4 e2 fd b8 c0       	vfmadd231pd %ymm0,%ymm0,%ymm0
  4006b6:	c4 e2 c5 b8 ff       	vfmadd231pd %ymm7,%ymm7,%ymm7
  4006bb:	c4 e2 cd b8 f6       	vfmadd231pd %ymm6,%ymm6,%ymm6
  4006c0:	c4 e2 dd b8 e4       	vfmadd231pd %ymm4,%ymm4,%ymm4
  4006c5:	c4 e2 d5 b8 ed       	vfmadd231pd %ymm5,%ymm5,%ymm5
  4006ca:	c4 e2 e5 b8 db       	vfmadd231pd %ymm3,%ymm3,%ymm3
  4006cf:	c4 e2 f5 b8 c9       	vfmadd231pd %ymm1,%ymm1,%ymm1
  4006d4:	c4 e2 ed b8 d2       	vfmadd231pd %ymm2,%ymm2,%ymm2
  4006d9:	c4 e2 fd b8 c0       	vfmadd231pd %ymm0,%ymm0,%ymm0
  4006de:	c4 e2 c5 b8 ff       	vfmadd231pd %ymm7,%ymm7,%ymm7
  4006e3:	c4 e2 cd b8 f6       	vfmadd231pd %ymm6,%ymm6,%ymm6
  4006e8:	c4 e2 dd b8 e4       	vfmadd231pd %ymm4,%ymm4,%ymm4
  4006ed:	c4 e2 d5 b8 ed       	vfmadd231pd %ymm5,%ymm5,%ymm5
  4006f2:	c4 e2 e5 b8 db       	vfmadd231pd %ymm3,%ymm3,%ymm3
  4006f7:	c4 e2 f5 b8 c9       	vfmadd231pd %ymm1,%ymm1,%ymm1
  4006fc:	c4 e2 ed b8 d2       	vfmadd231pd %ymm2,%ymm2,%ymm2
  400701:	c4 e2 fd b8 c0       	vfmadd231pd %ymm0,%ymm0,%ymm0
  400706:	c4 e2 c5 b8 ff       	vfmadd231pd %ymm7,%ymm7,%ymm7
  40070b:	c4 e2 cd b8 f6       	vfmadd231pd %ymm6,%ymm6,%ymm6
  400710:	c4 e2 dd b8 e4       	vfmadd231pd %ymm4,%ymm4,%ymm4
  400715:	c4 e2 d5 b8 ed       	vfmadd231pd %ymm5,%ymm5,%ymm5
  40071a:	c4 e2 e5 b8 db       	vfmadd231pd %ymm3,%ymm3,%ymm3
  40071f:	c4 e2 f5 b8 c9       	vfmadd231pd %ymm1,%ymm1,%ymm1
  400724:	c4 e2 ed b8 d2       	vfmadd231pd %ymm2,%ymm2,%ymm2
  400729:	c4 e2 fd b8 c0       	vfmadd231pd %ymm0,%ymm0,%ymm0
  40072e:	c4 e2 c5 b8 ff       	vfmadd231pd %ymm7,%ymm7,%ymm7
  400733:	c4 e2 cd b8 f6       	vfmadd231pd %ymm6,%ymm6,%ymm6
  400738:	c4 e2 dd b8 e4       	vfmadd231pd %ymm4,%ymm4,%ymm4
  40073d:	c4 e2 d5 b8 ed       	vfmadd231pd %ymm5,%ymm5,%ymm5
  400742:	c4 e2 e5 b8 db       	vfmadd231pd %ymm3,%ymm3,%ymm3
  400747:	c4 e2 f5 b8 c9       	vfmadd231pd %ymm1,%ymm1,%ymm1
  40074c:	c4 e2 ed b8 d2       	vfmadd231pd %ymm2,%ymm2,%ymm2
  400751:	c4 e2 fd b8 c0       	vfmadd231pd %ymm0,%ymm0,%ymm0
  400756:	c4 e2 c5 b8 ff       	vfmadd231pd %ymm7,%ymm7,%ymm7
  40075b:	c4 e2 cd b8 f6       	vfmadd231pd %ymm6,%ymm6,%ymm6
  400760:	c4 e2 dd b8 e4       	vfmadd231pd %ymm4,%ymm4,%ymm4
  400765:	c4 e2 d5 b8 ed       	vfmadd231pd %ymm5,%ymm5,%ymm5
  40076a:	c4 e2 e5 b8 db       	vfmadd231pd %ymm3,%ymm3,%ymm3
  40076f:	c4 e2 f5 b8 c9       	vfmadd231pd %ymm1,%ymm1,%ymm1
  400774:	c4 e2 ed b8 d2       	vfmadd231pd %ymm2,%ymm2,%ymm2
  400779:	c4 e2 fd b8 c0       	vfmadd231pd %ymm0,%ymm0,%ymm0
  40077e:	c4 e2 c5 b8 ff       	vfmadd231pd %ymm7,%ymm7,%ymm7
  400783:	c4 e2 cd b8 f6       	vfmadd231pd %ymm6,%ymm6,%ymm6
  400788:	c4 e2 dd b8 e4       	vfmadd231pd %ymm4,%ymm4,%ymm4
  40078d:	c4 e2 d5 b8 ed       	vfmadd231pd %ymm5,%ymm5,%ymm5
  400792:	c4 e2 e5 b8 db       	vfmadd231pd %ymm3,%ymm3,%ymm3
  400797:	c4 e2 f5 b8 c9       	vfmadd231pd %ymm1,%ymm1,%ymm1
  40079c:	c4 e2 ed b8 d2       	vfmadd231pd %ymm2,%ymm2,%ymm2
  4007a1:	c4 e2 fd b8 c0       	vfmadd231pd %ymm0,%ymm0,%ymm0
  4007a6:	c4 e2 c5 b8 ff       	vfmadd231pd %ymm7,%ymm7,%ymm7
  4007ab:	c4 e2 cd b8 f6       	vfmadd231pd %ymm6,%ymm6,%ymm6
  4007b0:	c4 e2 dd b8 e4       	vfmadd231pd %ymm4,%ymm4,%ymm4
  4007b5:	c4 e2 d5 b8 ed       	vfmadd231pd %ymm5,%ymm5,%ymm5
  4007ba:	c4 e2 e5 b8 db       	vfmadd231pd %ymm3,%ymm3,%ymm3
  4007bf:	c4 e2 f5 b8 c9       	vfmadd231pd %ymm1,%ymm1,%ymm1
  4007c4:	c4 e2 ed b8 d2       	vfmadd231pd %ymm2,%ymm2,%ymm2
  4007c9:	c4 e2 fd b8 c0       	vfmadd231pd %ymm0,%ymm0,%ymm0
  4007ce:	c4 e2 c5 b8 ff       	vfmadd231pd %ymm7,%ymm7,%ymm7
  4007d3:	c4 e2 cd b8 f6       	vfmadd231pd %ymm6,%ymm6,%ymm6
  4007d8:	c4 e2 dd b8 e4       	vfmadd231pd %ymm4,%ymm4,%ymm4
  4007dd:	c4 e2 d5 b8 ed       	vfmadd231pd %ymm5,%ymm5,%ymm5
  4007e2:	c4 e2 e5 b8 db       	vfmadd231pd %ymm3,%ymm3,%ymm3
  4007e7:	c4 e2 f5 b8 c9       	vfmadd231pd %ymm1,%ymm1,%ymm1
  4007ec:	c4 e2 ed b8 d2       	vfmadd231pd %ymm2,%ymm2,%ymm2
  4007f1:	c4 e2 fd b8 c0       	vfmadd231pd %ymm0,%ymm0,%ymm0
  4007f6:	c4 e2 c5 b8 ff       	vfmadd231pd %ymm7,%ymm7,%ymm7
  4007fb:	c4 e2 cd b8 f6       	vfmadd231pd %ymm6,%ymm6,%ymm6
  400800:	c4 e2 dd b8 e4       	vfmadd231pd %ymm4,%ymm4,%ymm4
  400805:	c4 e2 d5 b8 ed       	vfmadd231pd %ymm5,%ymm5,%ymm5
  40080a:	c4 e2 e5 b8 db       	vfmadd231pd %ymm3,%ymm3,%ymm3
  40080f:	c4 e2 f5 b8 c9       	vfmadd231pd %ymm1,%ymm1,%ymm1
  400814:	c4 e2 ed b8 d2       	vfmadd231pd %ymm2,%ymm2,%ymm2
  400819:	c4 e2 fd b8 c0       	vfmadd231pd %ymm0,%ymm0,%ymm0
  40081e:	c4 e2 c5 b8 ff       	vfmadd231pd %ymm7,%ymm7,%ymm7
  400823:	c4 e2 cd b8 f6       	vfmadd231pd %ymm6,%ymm6,%ymm6
  400828:	c4 e2 dd b8 e4       	vfmadd231pd %ymm4,%ymm4,%ymm4
  40082d:	c4 e2 d5 b8 ed       	vfmadd231pd %ymm5,%ymm5,%ymm5
  400832:	c4 e2 e5 b8 db       	vfmadd231pd %ymm3,%ymm3,%ymm3
  400837:	c4 e2 f5 b8 c9       	vfmadd231pd %ymm1,%ymm1,%ymm1
  40083c:	c4 e2 ed b8 d2       	vfmadd231pd %ymm2,%ymm2,%ymm2
  400841:	c4 e2 fd b8 c0       	vfmadd231pd %ymm0,%ymm0,%ymm0
  400846:	c4 e2 c5 b8 ff       	vfmadd231pd %ymm7,%ymm7,%ymm7
  40084b:	c4 e2 cd b8 f6       	vfmadd231pd %ymm6,%ymm6,%ymm6
  400850:	c4 e2 dd b8 e4       	vfmadd231pd %ymm4,%ymm4,%ymm4
  400855:	c4 e2 d5 b8 ed       	vfmadd231pd %ymm5,%ymm5,%ymm5
  40085a:	c4 e2 e5 b8 db       	vfmadd231pd %ymm3,%ymm3,%ymm3
  40085f:	c4 e2 f5 b8 c9       	vfmadd231pd %ymm1,%ymm1,%ymm1
  400864:	c4 e2 ed b8 d2       	vfmadd231pd %ymm2,%ymm2,%ymm2
  400869:	c4 e2 fd b8 c0       	vfmadd231pd %ymm0,%ymm0,%ymm0
  40086e:	c4 e2 c5 b8 ff       	vfmadd231pd %ymm7,%ymm7,%ymm7
  400873:	c4 e2 cd b8 f6       	vfmadd231pd %ymm6,%ymm6,%ymm6
  400878:	c4 e2 dd b8 e4       	vfmadd231pd %ymm4,%ymm4,%ymm4
  40087d:	c4 e2 d5 b8 ed       	vfmadd231pd %ymm5,%ymm5,%ymm5
  400882:	c4 e2 e5 b8 db       	vfmadd231pd %ymm3,%ymm3,%ymm3
  400887:	c4 e2 f5 b8 c9       	vfmadd231pd %ymm1,%ymm1,%ymm1
  40088c:	c4 e2 ed b8 d2       	vfmadd231pd %ymm2,%ymm2,%ymm2
  400891:	c4 e2 fd b8 c0       	vfmadd231pd %ymm0,%ymm0,%ymm0
  400896:	c4 e2 c5 b8 ff       	vfmadd231pd %ymm7,%ymm7,%ymm7
  40089b:	c4 e2 cd b8 f6       	vfmadd231pd %ymm6,%ymm6,%ymm6
  4008a0:	c4 e2 dd b8 e4       	vfmadd231pd %ymm4,%ymm4,%ymm4
  4008a5:	c4 e2 d5 b8 ed       	vfmadd231pd %ymm5,%ymm5,%ymm5
  4008aa:	c4 e2 e5 b8 db       	vfmadd231pd %ymm3,%ymm3,%ymm3
  4008af:	c4 e2 f5 b8 c9       	vfmadd231pd %ymm1,%ymm1,%ymm1
  4008b4:	c4 e2 ed b8 d2       	vfmadd231pd %ymm2,%ymm2,%ymm2
  4008b9:	c4 e2 fd b8 c0       	vfmadd231pd %ymm0,%ymm0,%ymm0
  4008be:	c4 e2 c5 b8 ff       	vfmadd231pd %ymm7,%ymm7,%ymm7
  4008c3:	c4 e2 cd b8 f6       	vfmadd231pd %ymm6,%ymm6,%ymm6
  4008c8:	c4 e2 dd b8 e4       	vfmadd231pd %ymm4,%ymm4,%ymm4
  4008cd:	c4 e2 d5 b8 ed       	vfmadd231pd %ymm5,%ymm5,%ymm5
  4008d2:	c4 e2 e5 b8 db       	vfmadd231pd %ymm3,%ymm3,%ymm3
  4008d7:	c4 e2 f5 b8 c9       	vfmadd231pd %ymm1,%ymm1,%ymm1
  4008dc:	c4 e2 ed b8 d2       	vfmadd231pd %ymm2,%ymm2,%ymm2
  4008e1:	c4 e2 fd b8 c0       	vfmadd231pd %ymm0,%ymm0,%ymm0
  4008e6:	c4 e2 c5 b8 ff       	vfmadd231pd %ymm7,%ymm7,%ymm7
  4008eb:	c4 e2 cd b8 f6       	vfmadd231pd %ymm6,%ymm6,%ymm6
  4008f0:	c4 e2 dd b8 e4       	vfmadd231pd %ymm4,%ymm4,%ymm4
  4008f5:	c4 e2 d5 b8 ed       	vfmadd231pd %ymm5,%ymm5,%ymm5
  4008fa:	c4 e2 e5 b8 db       	vfmadd231pd %ymm3,%ymm3,%ymm3
  4008ff:	c4 e2 f5 b8 c9       	vfmadd231pd %ymm1,%ymm1,%ymm1
  400904:	c4 e2 ed b8 d2       	vfmadd231pd %ymm2,%ymm2,%ymm2
  400909:	c4 e2 fd b8 c0       	vfmadd231pd %ymm0,%ymm0,%ymm0
  40090e:	c4 e2 c5 b8 ff       	vfmadd231pd %ymm7,%ymm7,%ymm7
  400913:	c4 e2 cd b8 f6       	vfmadd231pd %ymm6,%ymm6,%ymm6
  400918:	c4 e2 dd b8 e4       	vfmadd231pd %ymm4,%ymm4,%ymm4
  40091d:	c4 e2 d5 b8 ed       	vfmadd231pd %ymm5,%ymm5,%ymm5
  400922:	c4 e2 e5 b8 db       	vfmadd231pd %ymm3,%ymm3,%ymm3
  400927:	c4 e2 f5 b8 c9       	vfmadd231pd %ymm1,%ymm1,%ymm1
  40092c:	c4 e2 ed b8 d2       	vfmadd231pd %ymm2,%ymm2,%ymm2
  400931:	c4 e2 fd b8 c0       	vfmadd231pd %ymm0,%ymm0,%ymm0
  400936:	c4 e2 c5 b8 ff       	vfmadd231pd %ymm7,%ymm7,%ymm7
  40093b:	c4 e2 cd b8 f6       	vfmadd231pd %ymm6,%ymm6,%ymm6
  400940:	c4 e2 dd b8 e4       	vfmadd231pd %ymm4,%ymm4,%ymm4
  400945:	c4 e2 d5 b8 ed       	vfmadd231pd %ymm5,%ymm5,%ymm5
  40094a:	c4 e2 e5 b8 db       	vfmadd231pd %ymm3,%ymm3,%ymm3
  40094f:	c4 e2 f5 b8 c9       	vfmadd231pd %ymm1,%ymm1,%ymm1
  400954:	c4 e2 ed b8 d2       	vfmadd231pd %ymm2,%ymm2,%ymm2
  400959:	c4 e2 fd b8 c0       	vfmadd231pd %ymm0,%ymm0,%ymm0
  40095e:	c4 e2 c5 b8 ff       	vfmadd231pd %ymm7,%ymm7,%ymm7
  400963:	c4 e2 cd b8 f6       	vfmadd231pd %ymm6,%ymm6,%ymm6
  400968:	c4 e2 dd b8 e4       	vfmadd231pd %ymm4,%ymm4,%ymm4
  40096d:	c4 e2 d5 b8 ed       	vfmadd231pd %ymm5,%ymm5,%ymm5
  400972:	c4 e2 e5 b8 db       	vfmadd231pd %ymm3,%ymm3,%ymm3
  400977:	c4 e2 f5 b8 c9       	vfmadd231pd %ymm1,%ymm1,%ymm1
  40097c:	c4 e2 ed b8 d2       	vfmadd231pd %ymm2,%ymm2,%ymm2
  400981:	c4 e2 fd b8 c0       	vfmadd231pd %ymm0,%ymm0,%ymm0
  400986:	c4 e2 c5 b8 ff       	vfmadd231pd %ymm7,%ymm7,%ymm7
  40098b:	c4 e2 cd b8 f6       	vfmadd231pd %ymm6,%ymm6,%ymm6
  400990:	c4 e2 dd b8 e4       	vfmadd231pd %ymm4,%ymm4,%ymm4
  400995:	c4 e2 d5 b8 ed       	vfmadd231pd %ymm5,%ymm5,%ymm5
  40099a:	c4 e2 e5 b8 db       	vfmadd231pd %ymm3,%ymm3,%ymm3
  40099f:	c4 e2 f5 b8 c9       	vfmadd231pd %ymm1,%ymm1,%ymm1
  4009a4:	c4 e2 ed b8 d2       	vfmadd231pd %ymm2,%ymm2,%ymm2
  4009a9:	c4 e2 fd b8 c0       	vfmadd231pd %ymm0,%ymm0,%ymm0
  4009ae:	c4 e2 c5 b8 ff       	vfmadd231pd %ymm7,%ymm7,%ymm7
  4009b3:	c4 e2 cd b8 f6       	vfmadd231pd %ymm6,%ymm6,%ymm6
  4009b8:	c4 e2 dd b8 e4       	vfmadd231pd %ymm4,%ymm4,%ymm4
  4009bd:	c4 e2 d5 b8 ed       	vfmadd231pd %ymm5,%ymm5,%ymm5
  4009c2:	c4 e2 e5 b8 db       	vfmadd231pd %ymm3,%ymm3,%ymm3
  4009c7:	c4 e2 f5 b8 c9       	vfmadd231pd %ymm1,%ymm1,%ymm1
  4009cc:	c4 e2 ed b8 d2       	vfmadd231pd %ymm2,%ymm2,%ymm2
  4009d1:	c4 e2 fd b8 c0       	vfmadd231pd %ymm0,%ymm0,%ymm0
  4009d6:	c4 e2 c5 b8 ff       	vfmadd231pd %ymm7,%ymm7,%ymm7
  4009db:	c4 e2 cd b8 f6       	vfmadd231pd %ymm6,%ymm6,%ymm6
  4009e0:	c4 e2 dd b8 e4       	vfmadd231pd %ymm4,%ymm4,%ymm4
  4009e5:	c4 e2 d5 b8 ed       	vfmadd231pd %ymm5,%ymm5,%ymm5
  4009ea:	c4 e2 e5 b8 db       	vfmadd231pd %ymm3,%ymm3,%ymm3
  4009ef:	c4 e2 f5 b8 c9       	vfmadd231pd %ymm1,%ymm1,%ymm1
  4009f4:	c4 e2 ed b8 d2       	vfmadd231pd %ymm2,%ymm2,%ymm2
  4009f9:	c4 e2 fd b8 c0       	vfmadd231pd %ymm0,%ymm0,%ymm0
  4009fe:	c4 e2 c5 b8 ff       	vfmadd231pd %ymm7,%ymm7,%ymm7
  400a03:	c4 e2 cd b8 f6       	vfmadd231pd %ymm6,%ymm6,%ymm6
  400a08:	c4 e2 dd b8 e4       	vfmadd231pd %ymm4,%ymm4,%ymm4
  400a0d:	c4 e2 d5 b8 ed       	vfmadd231pd %ymm5,%ymm5,%ymm5
  400a12:	c4 e2 e5 b8 db       	vfmadd231pd %ymm3,%ymm3,%ymm3
  400a17:	c4 e2 f5 b8 c9       	vfmadd231pd %ymm1,%ymm1,%ymm1
  400a1c:	c4 e2 ed b8 d2       	vfmadd231pd %ymm2,%ymm2,%ymm2
  400a21:	c4 e2 fd b8 c0       	vfmadd231pd %ymm0,%ymm0,%ymm0
  400a26:	c4 e2 c5 b8 ff       	vfmadd231pd %ymm7,%ymm7,%ymm7
  400a2b:	c4 e2 cd b8 f6       	vfmadd231pd %ymm6,%ymm6,%ymm6
  400a30:	c4 e2 dd b8 e4       	vfmadd231pd %ymm4,%ymm4,%ymm4
  400a35:	c4 e2 d5 b8 ed       	vfmadd231pd %ymm5,%ymm5,%ymm5
  400a3a:	c4 e2 e5 b8 db       	vfmadd231pd %ymm3,%ymm3,%ymm3
  400a3f:	c4 e2 f5 b8 c9       	vfmadd231pd %ymm1,%ymm1,%ymm1
  400a44:	c4 e2 ed b8 d2       	vfmadd231pd %ymm2,%ymm2,%ymm2
  400a49:	c4 e2 fd b8 c0       	vfmadd231pd %ymm0,%ymm0,%ymm0
  400a4e:	c4 e2 c5 b8 ff       	vfmadd231pd %ymm7,%ymm7,%ymm7
  400a53:	c4 e2 cd b8 f6       	vfmadd231pd %ymm6,%ymm6,%ymm6
  400a58:	c4 e2 dd b8 e4       	vfmadd231pd %ymm4,%ymm4,%ymm4
  400a5d:	c4 e2 d5 b8 ed       	vfmadd231pd %ymm5,%ymm5,%ymm5
  400a62:	c4 e2 e5 b8 db       	vfmadd231pd %ymm3,%ymm3,%ymm3
  400a67:	c4 e2 f5 b8 c9       	vfmadd231pd %ymm1,%ymm1,%ymm1
  400a6c:	c4 e2 ed b8 d2       	vfmadd231pd %ymm2,%ymm2,%ymm2
  400a71:	c4 e2 fd b8 c0       	vfmadd231pd %ymm0,%ymm0,%ymm0
  400a76:	c4 e2 c5 b8 ff       	vfmadd231pd %ymm7,%ymm7,%ymm7
  400a7b:	c4 e2 cd b8 f6       	vfmadd231pd %ymm6,%ymm6,%ymm6
  400a80:	c4 e2 dd b8 e4       	vfmadd231pd %ymm4,%ymm4,%ymm4
  400a85:	c4 e2 d5 b8 ed       	vfmadd231pd %ymm5,%ymm5,%ymm5
  400a8a:	c4 e2 e5 b8 db       	vfmadd231pd %ymm3,%ymm3,%ymm3
  400a8f:	c4 e2 f5 b8 c9       	vfmadd231pd %ymm1,%ymm1,%ymm1
  400a94:	c4 e2 ed b8 d2       	vfmadd231pd %ymm2,%ymm2,%ymm2
  400a99:	c4 e2 fd b8 c0       	vfmadd231pd %ymm0,%ymm0,%ymm0
  400a9e:	c4 e2 c5 b8 ff       	vfmadd231pd %ymm7,%ymm7,%ymm7
  400aa3:	c4 e2 cd b8 f6       	vfmadd231pd %ymm6,%ymm6,%ymm6
  400aa8:	c4 e2 dd b8 e4       	vfmadd231pd %ymm4,%ymm4,%ymm4
  400aad:	c4 e2 d5 b8 ed       	vfmadd231pd %ymm5,%ymm5,%ymm5
  400ab2:	c4 e2 e5 b8 db       	vfmadd231pd %ymm3,%ymm3,%ymm3
  400ab7:	c4 e2 f5 b8 c9       	vfmadd231pd %ymm1,%ymm1,%ymm1
  400abc:	c4 e2 ed b8 d2       	vfmadd231pd %ymm2,%ymm2,%ymm2
  400ac1:	c4 e2 fd b8 c0       	vfmadd231pd %ymm0,%ymm0,%ymm0
  400ac6:	c4 e2 c5 b8 ff       	vfmadd231pd %ymm7,%ymm7,%ymm7
  400acb:	c4 e2 cd b8 f6       	vfmadd231pd %ymm6,%ymm6,%ymm6
  400ad0:	c4 e2 dd b8 e4       	vfmadd231pd %ymm4,%ymm4,%ymm4
  400ad5:	c4 e2 d5 b8 ed       	vfmadd231pd %ymm5,%ymm5,%ymm5
  400ada:	c4 e2 e5 b8 db       	vfmadd231pd %ymm3,%ymm3,%ymm3
  400adf:	c4 e2 f5 b8 c9       	vfmadd231pd %ymm1,%ymm1,%ymm1
  400ae4:	c4 e2 ed b8 d2       	vfmadd231pd %ymm2,%ymm2,%ymm2
  400ae9:	c4 e2 fd b8 c0       	vfmadd231pd %ymm0,%ymm0,%ymm0
  400aee:	c4 e2 c5 b8 ff       	vfmadd231pd %ymm7,%ymm7,%ymm7
  400af3:	c4 e2 cd b8 f6       	vfmadd231pd %ymm6,%ymm6,%ymm6
  400af8:	c4 e2 dd b8 e4       	vfmadd231pd %ymm4,%ymm4,%ymm4
  400afd:	c4 e2 d5 b8 ed       	vfmadd231pd %ymm5,%ymm5,%ymm5
  400b02:	c4 e2 e5 b8 db       	vfmadd231pd %ymm3,%ymm3,%ymm3
  400b07:	c4 e2 f5 b8 c9       	vfmadd231pd %ymm1,%ymm1,%ymm1
  400b0c:	c4 e2 ed b8 d2       	vfmadd231pd %ymm2,%ymm2,%ymm2
  400b11:	c4 e2 fd b8 c0       	vfmadd231pd %ymm0,%ymm0,%ymm0
  400b16:	c4 e2 c5 b8 ff       	vfmadd231pd %ymm7,%ymm7,%ymm7
  400b1b:	c4 e2 cd b8 f6       	vfmadd231pd %ymm6,%ymm6,%ymm6
  400b20:	c4 e2 dd b8 e4       	vfmadd231pd %ymm4,%ymm4,%ymm4
  400b25:	c4 e2 d5 b8 ed       	vfmadd231pd %ymm5,%ymm5,%ymm5
  400b2a:	c4 e2 e5 b8 db       	vfmadd231pd %ymm3,%ymm3,%ymm3
  400b2f:	c4 e2 f5 b8 c9       	vfmadd231pd %ymm1,%ymm1,%ymm1
  400b34:	c4 e2 ed b8 d2       	vfmadd231pd %ymm2,%ymm2,%ymm2
  400b39:	c4 e2 fd b8 c0       	vfmadd231pd %ymm0,%ymm0,%ymm0
  400b3e:	c4 e2 c5 b8 ff       	vfmadd231pd %ymm7,%ymm7,%ymm7
  400b43:	c4 e2 cd b8 f6       	vfmadd231pd %ymm6,%ymm6,%ymm6
  400b48:	c4 e2 dd b8 e4       	vfmadd231pd %ymm4,%ymm4,%ymm4
  400b4d:	c4 e2 d5 b8 ed       	vfmadd231pd %ymm5,%ymm5,%ymm5
  400b52:	c4 e2 e5 b8 db       	vfmadd231pd %ymm3,%ymm3,%ymm3
  400b57:	c4 e2 f5 b8 c9       	vfmadd231pd %ymm1,%ymm1,%ymm1
  400b5c:	c4 e2 ed b8 d2       	vfmadd231pd %ymm2,%ymm2,%ymm2
  400b61:	c4 e2 fd b8 c0       	vfmadd231pd %ymm0,%ymm0,%ymm0
  400b66:	c4 e2 c5 b8 ff       	vfmadd231pd %ymm7,%ymm7,%ymm7
  400b6b:	c4 e2 cd b8 f6       	vfmadd231pd %ymm6,%ymm6,%ymm6
  400b70:	c4 e2 dd b8 e4       	vfmadd231pd %ymm4,%ymm4,%ymm4
  400b75:	c4 e2 d5 b8 ed       	vfmadd231pd %ymm5,%ymm5,%ymm5
  400b7a:	c4 e2 e5 b8 db       	vfmadd231pd %ymm3,%ymm3,%ymm3
  400b7f:	c4 e2 f5 b8 c9       	vfmadd231pd %ymm1,%ymm1,%ymm1
  400b84:	c4 e2 ed b8 d2       	vfmadd231pd %ymm2,%ymm2,%ymm2
  400b89:	c4 e2 fd b8 c0       	vfmadd231pd %ymm0,%ymm0,%ymm0
  400b8e:	c4 e2 c5 b8 ff       	vfmadd231pd %ymm7,%ymm7,%ymm7
  400b93:	c4 e2 cd b8 f6       	vfmadd231pd %ymm6,%ymm6,%ymm6
  400b98:	c4 e2 dd b8 e4       	vfmadd231pd %ymm4,%ymm4,%ymm4
  400b9d:	c4 e2 d5 b8 ed       	vfmadd231pd %ymm5,%ymm5,%ymm5
  400ba2:	c4 e2 e5 b8 db       	vfmadd231pd %ymm3,%ymm3,%ymm3
  400ba7:	c4 e2 f5 b8 c9       	vfmadd231pd %ymm1,%ymm1,%ymm1
  400bac:	c4 e2 ed b8 d2       	vfmadd231pd %ymm2,%ymm2,%ymm2
  400bb1:	c4 e2 fd b8 c0       	vfmadd231pd %ymm0,%ymm0,%ymm0
  400bb6:	c4 e2 c5 b8 ff       	vfmadd231pd %ymm7,%ymm7,%ymm7
  400bbb:	c4 e2 cd b8 f6       	vfmadd231pd %ymm6,%ymm6,%ymm6
  400bc0:	c4 e2 dd b8 e4       	vfmadd231pd %ymm4,%ymm4,%ymm4
  400bc5:	c4 e2 d5 b8 ed       	vfmadd231pd %ymm5,%ymm5,%ymm5
  400bca:	c4 e2 e5 b8 db       	vfmadd231pd %ymm3,%ymm3,%ymm3
  400bcf:	c4 e2 f5 b8 c9       	vfmadd231pd %ymm1,%ymm1,%ymm1
  400bd4:	c4 e2 ed b8 d2       	vfmadd231pd %ymm2,%ymm2,%ymm2
  400bd9:	c4 e2 fd b8 c0       	vfmadd231pd %ymm0,%ymm0,%ymm0
  400bde:	c4 e2 c5 b8 ff       	vfmadd231pd %ymm7,%ymm7,%ymm7
  400be3:	c4 e2 cd b8 f6       	vfmadd231pd %ymm6,%ymm6,%ymm6
  400be8:	c4 e2 dd b8 e4       	vfmadd231pd %ymm4,%ymm4,%ymm4
  400bed:	c4 e2 d5 b8 ed       	vfmadd231pd %ymm5,%ymm5,%ymm5
  400bf2:	c4 e2 e5 b8 db       	vfmadd231pd %ymm3,%ymm3,%ymm3
  400bf7:	c4 e2 f5 b8 c9       	vfmadd231pd %ymm1,%ymm1,%ymm1
  400bfc:	c4 e2 ed b8 d2       	vfmadd231pd %ymm2,%ymm2,%ymm2
  400c01:	c4 e2 fd b8 c0       	vfmadd231pd %ymm0,%ymm0,%ymm0
  400c06:	c4 e2 c5 b8 ff       	vfmadd231pd %ymm7,%ymm7,%ymm7
  400c0b:	c4 e2 cd b8 f6       	vfmadd231pd %ymm6,%ymm6,%ymm6
  400c10:	c4 e2 dd b8 e4       	vfmadd231pd %ymm4,%ymm4,%ymm4
  400c15:	c4 e2 d5 b8 ed       	vfmadd231pd %ymm5,%ymm5,%ymm5
  400c1a:	c4 e2 e5 b8 db       	vfmadd231pd %ymm3,%ymm3,%ymm3
  400c1f:	c4 e2 f5 b8 c9       	vfmadd231pd %ymm1,%ymm1,%ymm1
  400c24:	c4 e2 ed b8 d2       	vfmadd231pd %ymm2,%ymm2,%ymm2
  400c29:	c4 e2 fd b8 c0       	vfmadd231pd %ymm0,%ymm0,%ymm0
  400c2e:	c4 e2 c5 b8 ff       	vfmadd231pd %ymm7,%ymm7,%ymm7
  400c33:	c4 e2 cd b8 f6       	vfmadd231pd %ymm6,%ymm6,%ymm6
  400c38:	c4 e2 dd b8 e4       	vfmadd231pd %ymm4,%ymm4,%ymm4
  400c3d:	c4 e2 d5 b8 ed       	vfmadd231pd %ymm5,%ymm5,%ymm5
  400c42:	c4 e2 e5 b8 db       	vfmadd231pd %ymm3,%ymm3,%ymm3
  400c47:	c4 e2 f5 b8 c9       	vfmadd231pd %ymm1,%ymm1,%ymm1
  400c4c:	c4 e2 ed b8 d2       	vfmadd231pd %ymm2,%ymm2,%ymm2
  400c51:	c4 e2 fd b8 c0       	vfmadd231pd %ymm0,%ymm0,%ymm0
  400c56:	c4 e2 c5 b8 ff       	vfmadd231pd %ymm7,%ymm7,%ymm7
  400c5b:	c4 e2 cd b8 f6       	vfmadd231pd %ymm6,%ymm6,%ymm6
  400c60:	c4 e2 dd b8 e4       	vfmadd231pd %ymm4,%ymm4,%ymm4
  400c65:	c4 e2 d5 b8 ed       	vfmadd231pd %ymm5,%ymm5,%ymm5
  400c6a:	c4 e2 e5 b8 db       	vfmadd231pd %ymm3,%ymm3,%ymm3
  400c6f:	c4 e2 f5 b8 c9       	vfmadd231pd %ymm1,%ymm1,%ymm1
  400c74:	c4 e2 ed b8 d2       	vfmadd231pd %ymm2,%ymm2,%ymm2
  400c79:	c4 e2 fd b8 c0       	vfmadd231pd %ymm0,%ymm0,%ymm0
  400c7e:	c4 e2 c5 b8 ff       	vfmadd231pd %ymm7,%ymm7,%ymm7
  400c83:	c4 e2 cd b8 f6       	vfmadd231pd %ymm6,%ymm6,%ymm6
  400c88:	c4 e2 dd b8 e4       	vfmadd231pd %ymm4,%ymm4,%ymm4
  400c8d:	c4 e2 d5 b8 ed       	vfmadd231pd %ymm5,%ymm5,%ymm5
  400c92:	c4 e2 e5 b8 db       	vfmadd231pd %ymm3,%ymm3,%ymm3
  400c97:	c4 e2 f5 b8 c9       	vfmadd231pd %ymm1,%ymm1,%ymm1
  400c9c:	c4 e2 ed b8 d2       	vfmadd231pd %ymm2,%ymm2,%ymm2
  400ca1:	c4 e2 fd b8 c0       	vfmadd231pd %ymm0,%ymm0,%ymm0
  400ca6:	c4 e2 c5 b8 ff       	vfmadd231pd %ymm7,%ymm7,%ymm7
  400cab:	c4 e2 cd b8 f6       	vfmadd231pd %ymm6,%ymm6,%ymm6
  400cb0:	c4 e2 dd b8 e4       	vfmadd231pd %ymm4,%ymm4,%ymm4
  400cb5:	c4 e2 d5 b8 ed       	vfmadd231pd %ymm5,%ymm5,%ymm5
  400cba:	c4 e2 e5 b8 db       	vfmadd231pd %ymm3,%ymm3,%ymm3
  400cbf:	c4 e2 f5 b8 c9       	vfmadd231pd %ymm1,%ymm1,%ymm1
  400cc4:	c4 e2 ed b8 d2       	vfmadd231pd %ymm2,%ymm2,%ymm2
  400cc9:	c4 e2 fd b8 c0       	vfmadd231pd %ymm0,%ymm0,%ymm0
  400cce:	c4 e2 c5 b8 ff       	vfmadd231pd %ymm7,%ymm7,%ymm7
  400cd3:	c4 e2 cd b8 f6       	vfmadd231pd %ymm6,%ymm6,%ymm6
  400cd8:	c4 e2 dd b8 e4       	vfmadd231pd %ymm4,%ymm4,%ymm4
  400cdd:	c4 e2 d5 b8 ed       	vfmadd231pd %ymm5,%ymm5,%ymm5
  400ce2:	c4 e2 e5 b8 db       	vfmadd231pd %ymm3,%ymm3,%ymm3
  400ce7:	c4 e2 f5 b8 c9       	vfmadd231pd %ymm1,%ymm1,%ymm1
  400cec:	c4 e2 ed b8 d2       	vfmadd231pd %ymm2,%ymm2,%ymm2
  400cf1:	c4 e2 fd b8 c0       	vfmadd231pd %ymm0,%ymm0,%ymm0
  400cf6:	c4 e2 c5 b8 ff       	vfmadd231pd %ymm7,%ymm7,%ymm7
  400cfb:	c4 e2 cd b8 f6       	vfmadd231pd %ymm6,%ymm6,%ymm6
  400d00:	c4 e2 dd b8 e4       	vfmadd231pd %ymm4,%ymm4,%ymm4
  400d05:	c4 e2 d5 b8 ed       	vfmadd231pd %ymm5,%ymm5,%ymm5
  400d0a:	c4 e2 e5 b8 db       	vfmadd231pd %ymm3,%ymm3,%ymm3
  400d0f:	c4 e2 f5 b8 c9       	vfmadd231pd %ymm1,%ymm1,%ymm1
  400d14:	c4 e2 ed b8 d2       	vfmadd231pd %ymm2,%ymm2,%ymm2
  400d19:	c4 e2 fd b8 c0       	vfmadd231pd %ymm0,%ymm0,%ymm0
  400d1e:	c4 e2 c5 b8 ff       	vfmadd231pd %ymm7,%ymm7,%ymm7
  400d23:	c4 e2 cd b8 f6       	vfmadd231pd %ymm6,%ymm6,%ymm6
  400d28:	c4 e2 dd b8 e4       	vfmadd231pd %ymm4,%ymm4,%ymm4
  400d2d:	c4 e2 d5 b8 ed       	vfmadd231pd %ymm5,%ymm5,%ymm5
  400d32:	c4 e2 e5 b8 db       	vfmadd231pd %ymm3,%ymm3,%ymm3
  400d37:	c4 e2 f5 b8 c9       	vfmadd231pd %ymm1,%ymm1,%ymm1
  400d3c:	c4 e2 ed b8 d2       	vfmadd231pd %ymm2,%ymm2,%ymm2
  400d41:	c4 e2 fd b8 c0       	vfmadd231pd %ymm0,%ymm0,%ymm0
  400d46:	c4 e2 c5 b8 ff       	vfmadd231pd %ymm7,%ymm7,%ymm7
  400d4b:	c4 e2 cd b8 f6       	vfmadd231pd %ymm6,%ymm6,%ymm6
  400d50:	c4 e2 dd b8 e4       	vfmadd231pd %ymm4,%ymm4,%ymm4
  400d55:	c4 e2 d5 b8 ed       	vfmadd231pd %ymm5,%ymm5,%ymm5
  400d5a:	c4 e2 e5 b8 db       	vfmadd231pd %ymm3,%ymm3,%ymm3
  400d5f:	c4 e2 f5 b8 c9       	vfmadd231pd %ymm1,%ymm1,%ymm1
  400d64:	c4 e2 ed b8 d2       	vfmadd231pd %ymm2,%ymm2,%ymm2
  400d69:	c4 e2 fd b8 c0       	vfmadd231pd %ymm0,%ymm0,%ymm0
  400d6e:	c4 e2 c5 b8 ff       	vfmadd231pd %ymm7,%ymm7,%ymm7
  400d73:	c4 e2 cd b8 f6       	vfmadd231pd %ymm6,%ymm6,%ymm6
  400d78:	c4 e2 dd b8 e4       	vfmadd231pd %ymm4,%ymm4,%ymm4
  400d7d:	c4 e2 d5 b8 ed       	vfmadd231pd %ymm5,%ymm5,%ymm5
  400d82:	c4 e2 e5 b8 db       	vfmadd231pd %ymm3,%ymm3,%ymm3
  400d87:	c4 e2 f5 b8 c9       	vfmadd231pd %ymm1,%ymm1,%ymm1
  400d8c:	c4 e2 ed b8 d2       	vfmadd231pd %ymm2,%ymm2,%ymm2
  400d91:	c4 e2 fd b8 c0       	vfmadd231pd %ymm0,%ymm0,%ymm0
  400d96:	c4 e2 c5 b8 ff       	vfmadd231pd %ymm7,%ymm7,%ymm7
  400d9b:	c4 e2 cd b8 f6       	vfmadd231pd %ymm6,%ymm6,%ymm6
  400da0:	c4 e2 dd b8 e4       	vfmadd231pd %ymm4,%ymm4,%ymm4
  400da5:	c4 e2 d5 b8 ed       	vfmadd231pd %ymm5,%ymm5,%ymm5
  400daa:	c4 e2 e5 b8 db       	vfmadd231pd %ymm3,%ymm3,%ymm3
  400daf:	c4 e2 f5 b8 c9       	vfmadd231pd %ymm1,%ymm1,%ymm1
  400db4:	c4 e2 ed b8 d2       	vfmadd231pd %ymm2,%ymm2,%ymm2
  400db9:	c4 e2 fd b8 c0       	vfmadd231pd %ymm0,%ymm0,%ymm0
  400dbe:	c4 e2 c5 b8 ff       	vfmadd231pd %ymm7,%ymm7,%ymm7
  400dc3:	c4 e2 cd b8 f6       	vfmadd231pd %ymm6,%ymm6,%ymm6
  400dc8:	c4 e2 dd b8 e4       	vfmadd231pd %ymm4,%ymm4,%ymm4
  400dcd:	c4 e2 d5 b8 ed       	vfmadd231pd %ymm5,%ymm5,%ymm5
  400dd2:	c4 e2 e5 b8 db       	vfmadd231pd %ymm3,%ymm3,%ymm3
  400dd7:	c4 e2 f5 b8 c9       	vfmadd231pd %ymm1,%ymm1,%ymm1
  400ddc:	c4 e2 ed b8 d2       	vfmadd231pd %ymm2,%ymm2,%ymm2
  400de1:	c4 e2 fd b8 c0       	vfmadd231pd %ymm0,%ymm0,%ymm0
  400de6:	c4 e2 c5 b8 ff       	vfmadd231pd %ymm7,%ymm7,%ymm7
  400deb:	c4 e2 cd b8 f6       	vfmadd231pd %ymm6,%ymm6,%ymm6
  400df0:	c4 e2 dd b8 e4       	vfmadd231pd %ymm4,%ymm4,%ymm4
  400df5:	c4 e2 d5 b8 ed       	vfmadd231pd %ymm5,%ymm5,%ymm5
  400dfa:	c4 e2 e5 b8 db       	vfmadd231pd %ymm3,%ymm3,%ymm3
  400dff:	c4 e2 f5 b8 c9       	vfmadd231pd %ymm1,%ymm1,%ymm1
  400e04:	c4 e2 ed b8 d2       	vfmadd231pd %ymm2,%ymm2,%ymm2
  400e09:	c4 e2 fd b8 c0       	vfmadd231pd %ymm0,%ymm0,%ymm0
  400e0e:	c4 e2 c5 b8 ff       	vfmadd231pd %ymm7,%ymm7,%ymm7
  400e13:	c4 e2 cd b8 f6       	vfmadd231pd %ymm6,%ymm6,%ymm6
  400e18:	c4 e2 dd b8 e4       	vfmadd231pd %ymm4,%ymm4,%ymm4
  400e1d:	c4 e2 d5 b8 ed       	vfmadd231pd %ymm5,%ymm5,%ymm5
  400e22:	c4 e2 e5 b8 db       	vfmadd231pd %ymm3,%ymm3,%ymm3
  400e27:	c4 e2 f5 b8 c9       	vfmadd231pd %ymm1,%ymm1,%ymm1
  400e2c:	c4 e2 ed b8 d2       	vfmadd231pd %ymm2,%ymm2,%ymm2
  400e31:	c4 e2 fd b8 c0       	vfmadd231pd %ymm0,%ymm0,%ymm0
  400e36:	c4 e2 c5 b8 ff       	vfmadd231pd %ymm7,%ymm7,%ymm7
  400e3b:	c4 e2 cd b8 f6       	vfmadd231pd %ymm6,%ymm6,%ymm6
  400e40:	c4 e2 dd b8 e4       	vfmadd231pd %ymm4,%ymm4,%ymm4
  400e45:	c4 e2 d5 b8 ed       	vfmadd231pd %ymm5,%ymm5,%ymm5
  400e4a:	c4 e2 e5 b8 db       	vfmadd231pd %ymm3,%ymm3,%ymm3
  400e4f:	c4 e2 f5 b8 c9       	vfmadd231pd %ymm1,%ymm1,%ymm1
  400e54:	c4 e2 ed b8 d2       	vfmadd231pd %ymm2,%ymm2,%ymm2
  400e59:	c4 e2 fd b8 c0       	vfmadd231pd %ymm0,%ymm0,%ymm0
  400e5e:	c4 e2 c5 b8 ff       	vfmadd231pd %ymm7,%ymm7,%ymm7
  400e63:	c4 e2 cd b8 f6       	vfmadd231pd %ymm6,%ymm6,%ymm6
  400e68:	c4 e2 dd b8 e4       	vfmadd231pd %ymm4,%ymm4,%ymm4
  400e6d:	c4 e2 d5 b8 ed       	vfmadd231pd %ymm5,%ymm5,%ymm5
  400e72:	c4 e2 e5 b8 db       	vfmadd231pd %ymm3,%ymm3,%ymm3
  400e77:	c4 e2 f5 b8 c9       	vfmadd231pd %ymm1,%ymm1,%ymm1
  400e7c:	c4 e2 ed b8 d2       	vfmadd231pd %ymm2,%ymm2,%ymm2
  400e81:	c4 e2 fd b8 c0       	vfmadd231pd %ymm0,%ymm0,%ymm0
  400e86:	c4 e2 c5 b8 ff       	vfmadd231pd %ymm7,%ymm7,%ymm7
  400e8b:	c4 e2 cd b8 f6       	vfmadd231pd %ymm6,%ymm6,%ymm6
  400e90:	c4 e2 dd b8 e4       	vfmadd231pd %ymm4,%ymm4,%ymm4
  400e95:	c4 e2 d5 b8 ed       	vfmadd231pd %ymm5,%ymm5,%ymm5
  400e9a:	c4 e2 e5 b8 db       	vfmadd231pd %ymm3,%ymm3,%ymm3
  400e9f:	c4 e2 f5 b8 c9       	vfmadd231pd %ymm1,%ymm1,%ymm1
  400ea4:	c4 e2 ed b8 d2       	vfmadd231pd %ymm2,%ymm2,%ymm2
  400ea9:	c4 e2 fd b8 c0       	vfmadd231pd %ymm0,%ymm0,%ymm0
  400eae:	c4 e2 c5 b8 ff       	vfmadd231pd %ymm7,%ymm7,%ymm7
  400eb3:	c4 e2 cd b8 f6       	vfmadd231pd %ymm6,%ymm6,%ymm6
  400eb8:	c4 e2 dd b8 e4       	vfmadd231pd %ymm4,%ymm4,%ymm4
  400ebd:	c4 e2 d5 b8 ed       	vfmadd231pd %ymm5,%ymm5,%ymm5
  400ec2:	c4 e2 e5 b8 db       	vfmadd231pd %ymm3,%ymm3,%ymm3
  400ec7:	c4 e2 f5 b8 c9       	vfmadd231pd %ymm1,%ymm1,%ymm1
  400ecc:	c4 e2 ed b8 d2       	vfmadd231pd %ymm2,%ymm2,%ymm2
  400ed1:	c4 e2 fd b8 c0       	vfmadd231pd %ymm0,%ymm0,%ymm0
  400ed6:	c4 e2 c5 b8 ff       	vfmadd231pd %ymm7,%ymm7,%ymm7
  400edb:	c4 e2 cd b8 f6       	vfmadd231pd %ymm6,%ymm6,%ymm6
  400ee0:	c4 e2 dd b8 e4       	vfmadd231pd %ymm4,%ymm4,%ymm4
  400ee5:	c4 e2 d5 b8 ed       	vfmadd231pd %ymm5,%ymm5,%ymm5
  400eea:	c4 e2 e5 b8 db       	vfmadd231pd %ymm3,%ymm3,%ymm3
  400eef:	c4 e2 f5 b8 c9       	vfmadd231pd %ymm1,%ymm1,%ymm1
  400ef4:	c4 e2 ed b8 d2       	vfmadd231pd %ymm2,%ymm2,%ymm2
  400ef9:	c4 e2 fd b8 c0       	vfmadd231pd %ymm0,%ymm0,%ymm0
  400efe:	c4 e2 c5 b8 ff       	vfmadd231pd %ymm7,%ymm7,%ymm7
  400f03:	c4 e2 cd b8 f6       	vfmadd231pd %ymm6,%ymm6,%ymm6
  400f08:	c4 e2 dd b8 e4       	vfmadd231pd %ymm4,%ymm4,%ymm4
  400f0d:	c4 e2 d5 b8 ed       	vfmadd231pd %ymm5,%ymm5,%ymm5
  400f12:	c4 e2 e5 b8 db       	vfmadd231pd %ymm3,%ymm3,%ymm3
  400f17:	c4 e2 f5 b8 c9       	vfmadd231pd %ymm1,%ymm1,%ymm1
  400f1c:	c4 e2 ed b8 d2       	vfmadd231pd %ymm2,%ymm2,%ymm2
  400f21:	c4 e2 fd b8 c0       	vfmadd231pd %ymm0,%ymm0,%ymm0
  400f26:	c4 e2 c5 b8 ff       	vfmadd231pd %ymm7,%ymm7,%ymm7
  400f2b:	c4 e2 cd b8 f6       	vfmadd231pd %ymm6,%ymm6,%ymm6
  400f30:	c4 e2 dd b8 e4       	vfmadd231pd %ymm4,%ymm4,%ymm4
  400f35:	c4 e2 d5 b8 ed       	vfmadd231pd %ymm5,%ymm5,%ymm5
  400f3a:	c4 e2 e5 b8 db       	vfmadd231pd %ymm3,%ymm3,%ymm3
  400f3f:	c4 e2 f5 b8 c9       	vfmadd231pd %ymm1,%ymm1,%ymm1
  400f44:	c4 e2 ed b8 d2       	vfmadd231pd %ymm2,%ymm2,%ymm2
  400f49:	c4 e2 fd b8 c0       	vfmadd231pd %ymm0,%ymm0,%ymm0
  400f4e:	c4 e2 c5 b8 ff       	vfmadd231pd %ymm7,%ymm7,%ymm7
  400f53:	c4 e2 cd b8 f6       	vfmadd231pd %ymm6,%ymm6,%ymm6
  400f58:	c4 e2 dd b8 e4       	vfmadd231pd %ymm4,%ymm4,%ymm4
  400f5d:	c4 e2 d5 b8 ed       	vfmadd231pd %ymm5,%ymm5,%ymm5
  400f62:	c4 e2 e5 b8 db       	vfmadd231pd %ymm3,%ymm3,%ymm3
  400f67:	c4 e2 f5 b8 c9       	vfmadd231pd %ymm1,%ymm1,%ymm1
  400f6c:	c4 e2 ed b8 d2       	vfmadd231pd %ymm2,%ymm2,%ymm2
  400f71:	c4 e2 fd b8 c0       	vfmadd231pd %ymm0,%ymm0,%ymm0
  400f76:	c4 e2 c5 b8 ff       	vfmadd231pd %ymm7,%ymm7,%ymm7
  400f7b:	c4 e2 cd b8 f6       	vfmadd231pd %ymm6,%ymm6,%ymm6
  400f80:	c4 e2 dd b8 e4       	vfmadd231pd %ymm4,%ymm4,%ymm4
  400f85:	c4 e2 d5 b8 ed       	vfmadd231pd %ymm5,%ymm5,%ymm5
  400f8a:	c4 e2 e5 b8 db       	vfmadd231pd %ymm3,%ymm3,%ymm3
  400f8f:	c4 e2 f5 b8 c9       	vfmadd231pd %ymm1,%ymm1,%ymm1
  400f94:	c4 e2 ed b8 d2       	vfmadd231pd %ymm2,%ymm2,%ymm2
  400f99:	c4 e2 fd b8 c0       	vfmadd231pd %ymm0,%ymm0,%ymm0
  400f9e:	c4 e2 c5 b8 ff       	vfmadd231pd %ymm7,%ymm7,%ymm7
  400fa3:	c4 e2 cd b8 f6       	vfmadd231pd %ymm6,%ymm6,%ymm6
  400fa8:	c4 e2 dd b8 e4       	vfmadd231pd %ymm4,%ymm4,%ymm4
  400fad:	c4 e2 d5 b8 ed       	vfmadd231pd %ymm5,%ymm5,%ymm5
  400fb2:	c4 e2 e5 b8 db       	vfmadd231pd %ymm3,%ymm3,%ymm3
  400fb7:	c4 e2 f5 b8 c9       	vfmadd231pd %ymm1,%ymm1,%ymm1
  400fbc:	c4 e2 ed b8 d2       	vfmadd231pd %ymm2,%ymm2,%ymm2
  400fc1:	c4 e2 fd b8 c0       	vfmadd231pd %ymm0,%ymm0,%ymm0
  400fc6:	c4 e2 c5 b8 ff       	vfmadd231pd %ymm7,%ymm7,%ymm7
  400fcb:	c4 e2 cd b8 f6       	vfmadd231pd %ymm6,%ymm6,%ymm6
  400fd0:	c4 e2 dd b8 e4       	vfmadd231pd %ymm4,%ymm4,%ymm4
  400fd5:	c4 e2 d5 b8 ed       	vfmadd231pd %ymm5,%ymm5,%ymm5
  400fda:	c4 e2 e5 b8 db       	vfmadd231pd %ymm3,%ymm3,%ymm3
  400fdf:	c4 e2 f5 b8 c9       	vfmadd231pd %ymm1,%ymm1,%ymm1
  400fe4:	c4 e2 ed b8 d2       	vfmadd231pd %ymm2,%ymm2,%ymm2
  400fe9:	c4 e2 fd b8 c0       	vfmadd231pd %ymm0,%ymm0,%ymm0
  400fee:	c4 e2 c5 b8 ff       	vfmadd231pd %ymm7,%ymm7,%ymm7
  400ff3:	c4 e2 cd b8 f6       	vfmadd231pd %ymm6,%ymm6,%ymm6
  400ff8:	c4 e2 dd b8 e4       	vfmadd231pd %ymm4,%ymm4,%ymm4
  400ffd:	c4 e2 d5 b8 ed       	vfmadd231pd %ymm5,%ymm5,%ymm5
  401002:	c4 e2 e5 b8 db       	vfmadd231pd %ymm3,%ymm3,%ymm3
  401007:	c4 e2 f5 b8 c9       	vfmadd231pd %ymm1,%ymm1,%ymm1
  40100c:	c4 e2 ed b8 d2       	vfmadd231pd %ymm2,%ymm2,%ymm2
  401011:	c4 e2 fd b8 c0       	vfmadd231pd %ymm0,%ymm0,%ymm0
  401016:	c4 e2 c5 b8 ff       	vfmadd231pd %ymm7,%ymm7,%ymm7
  40101b:	c4 e2 cd b8 f6       	vfmadd231pd %ymm6,%ymm6,%ymm6
  401020:	c4 e2 dd b8 e4       	vfmadd231pd %ymm4,%ymm4,%ymm4
  401025:	c4 e2 d5 b8 ed       	vfmadd231pd %ymm5,%ymm5,%ymm5
  40102a:	c4 e2 e5 b8 db       	vfmadd231pd %ymm3,%ymm3,%ymm3
  40102f:	c4 e2 f5 b8 c9       	vfmadd231pd %ymm1,%ymm1,%ymm1
  401034:	c4 e2 ed b8 d2       	vfmadd231pd %ymm2,%ymm2,%ymm2
  401039:	c4 e2 fd b8 c0       	vfmadd231pd %ymm0,%ymm0,%ymm0
  40103e:	c4 e2 c5 b8 ff       	vfmadd231pd %ymm7,%ymm7,%ymm7
  401043:	c4 e2 cd b8 f6       	vfmadd231pd %ymm6,%ymm6,%ymm6
  401048:	c4 e2 dd b8 e4       	vfmadd231pd %ymm4,%ymm4,%ymm4
  40104d:	c4 e2 d5 b8 ed       	vfmadd231pd %ymm5,%ymm5,%ymm5
  401052:	c4 e2 e5 b8 db       	vfmadd231pd %ymm3,%ymm3,%ymm3
  401057:	c4 e2 f5 b8 c9       	vfmadd231pd %ymm1,%ymm1,%ymm1
  40105c:	c4 e2 ed b8 d2       	vfmadd231pd %ymm2,%ymm2,%ymm2
  401061:	c4 e2 fd b8 c0       	vfmadd231pd %ymm0,%ymm0,%ymm0
  401066:	c4 e2 c5 b8 ff       	vfmadd231pd %ymm7,%ymm7,%ymm7
  40106b:	c4 e2 cd b8 f6       	vfmadd231pd %ymm6,%ymm6,%ymm6
  401070:	c4 e2 dd b8 e4       	vfmadd231pd %ymm4,%ymm4,%ymm4
  401075:	c4 e2 d5 b8 ed       	vfmadd231pd %ymm5,%ymm5,%ymm5
  40107a:	c4 e2 e5 b8 db       	vfmadd231pd %ymm3,%ymm3,%ymm3
  40107f:	c4 e2 f5 b8 c9       	vfmadd231pd %ymm1,%ymm1,%ymm1
  401084:	c4 e2 ed b8 d2       	vfmadd231pd %ymm2,%ymm2,%ymm2
  401089:	c4 e2 fd b8 c0       	vfmadd231pd %ymm0,%ymm0,%ymm0
  40108e:	c4 e2 c5 b8 ff       	vfmadd231pd %ymm7,%ymm7,%ymm7
  401093:	c4 e2 cd b8 f6       	vfmadd231pd %ymm6,%ymm6,%ymm6
  401098:	c4 e2 dd b8 e4       	vfmadd231pd %ymm4,%ymm4,%ymm4
  40109d:	c4 e2 d5 b8 ed       	vfmadd231pd %ymm5,%ymm5,%ymm5
  4010a2:	c4 e2 e5 b8 db       	vfmadd231pd %ymm3,%ymm3,%ymm3
  4010a7:	c4 e2 f5 b8 c9       	vfmadd231pd %ymm1,%ymm1,%ymm1
  4010ac:	c4 e2 ed b8 d2       	vfmadd231pd %ymm2,%ymm2,%ymm2
  4010b1:	c4 e2 fd b8 c0       	vfmadd231pd %ymm0,%ymm0,%ymm0
  4010b6:	c4 e2 c5 b8 ff       	vfmadd231pd %ymm7,%ymm7,%ymm7
  4010bb:	c4 e2 cd b8 f6       	vfmadd231pd %ymm6,%ymm6,%ymm6
  4010c0:	c4 e2 dd b8 e4       	vfmadd231pd %ymm4,%ymm4,%ymm4
  4010c5:	c4 e2 d5 b8 ed       	vfmadd231pd %ymm5,%ymm5,%ymm5
  4010ca:	c4 e2 e5 b8 db       	vfmadd231pd %ymm3,%ymm3,%ymm3
  4010cf:	c4 e2 f5 b8 c9       	vfmadd231pd %ymm1,%ymm1,%ymm1
  4010d4:	c4 e2 ed b8 d2       	vfmadd231pd %ymm2,%ymm2,%ymm2
  4010d9:	c4 e2 fd b8 c0       	vfmadd231pd %ymm0,%ymm0,%ymm0
  4010de:	c4 e2 c5 b8 ff       	vfmadd231pd %ymm7,%ymm7,%ymm7
  4010e3:	c4 e2 cd b8 f6       	vfmadd231pd %ymm6,%ymm6,%ymm6
  4010e8:	c4 e2 dd b8 e4       	vfmadd231pd %ymm4,%ymm4,%ymm4
  4010ed:	c4 e2 d5 b8 ed       	vfmadd231pd %ymm5,%ymm5,%ymm5
  4010f2:	c4 e2 e5 b8 db       	vfmadd231pd %ymm3,%ymm3,%ymm3
  4010f7:	c4 e2 f5 b8 c9       	vfmadd231pd %ymm1,%ymm1,%ymm1
  4010fc:	c4 e2 ed b8 d2       	vfmadd231pd %ymm2,%ymm2,%ymm2
  401101:	c4 e2 fd b8 c0       	vfmadd231pd %ymm0,%ymm0,%ymm0
  401106:	c4 e2 c5 b8 ff       	vfmadd231pd %ymm7,%ymm7,%ymm7
  40110b:	c4 e2 cd b8 f6       	vfmadd231pd %ymm6,%ymm6,%ymm6
  401110:	c4 e2 dd b8 e4       	vfmadd231pd %ymm4,%ymm4,%ymm4
  401115:	c4 e2 d5 b8 ed       	vfmadd231pd %ymm5,%ymm5,%ymm5
  40111a:	c4 e2 e5 b8 db       	vfmadd231pd %ymm3,%ymm3,%ymm3
  40111f:	c4 e2 f5 b8 c9       	vfmadd231pd %ymm1,%ymm1,%ymm1
  401124:	c4 e2 ed b8 d2       	vfmadd231pd %ymm2,%ymm2,%ymm2
  401129:	c4 e2 fd b8 c0       	vfmadd231pd %ymm0,%ymm0,%ymm0
  40112e:	c4 e2 c5 b8 ff       	vfmadd231pd %ymm7,%ymm7,%ymm7
  401133:	c4 e2 cd b8 f6       	vfmadd231pd %ymm6,%ymm6,%ymm6
  401138:	c4 e2 dd b8 e4       	vfmadd231pd %ymm4,%ymm4,%ymm4
  40113d:	c4 e2 d5 b8 ed       	vfmadd231pd %ymm5,%ymm5,%ymm5
  401142:	c4 e2 e5 b8 db       	vfmadd231pd %ymm3,%ymm3,%ymm3
  401147:	c4 e2 f5 b8 c9       	vfmadd231pd %ymm1,%ymm1,%ymm1
  40114c:	c4 e2 ed b8 d2       	vfmadd231pd %ymm2,%ymm2,%ymm2
  401151:	c4 e2 fd b8 c0       	vfmadd231pd %ymm0,%ymm0,%ymm0
  401156:	c4 e2 c5 b8 ff       	vfmadd231pd %ymm7,%ymm7,%ymm7
  40115b:	c4 e2 cd b8 f6       	vfmadd231pd %ymm6,%ymm6,%ymm6
  401160:	c4 e2 dd b8 e4       	vfmadd231pd %ymm4,%ymm4,%ymm4
  401165:	c4 e2 d5 b8 ed       	vfmadd231pd %ymm5,%ymm5,%ymm5
  40116a:	c4 e2 e5 b8 db       	vfmadd231pd %ymm3,%ymm3,%ymm3
  40116f:	c4 e2 f5 b8 c9       	vfmadd231pd %ymm1,%ymm1,%ymm1
  401174:	c4 e2 ed b8 d2       	vfmadd231pd %ymm2,%ymm2,%ymm2
  401179:	c4 e2 fd b8 c0       	vfmadd231pd %ymm0,%ymm0,%ymm0
  40117e:	c4 e2 c5 b8 ff       	vfmadd231pd %ymm7,%ymm7,%ymm7
  401183:	c4 e2 cd b8 f6       	vfmadd231pd %ymm6,%ymm6,%ymm6
  401188:	c4 e2 dd b8 e4       	vfmadd231pd %ymm4,%ymm4,%ymm4
  40118d:	c4 e2 d5 b8 ed       	vfmadd231pd %ymm5,%ymm5,%ymm5
  401192:	c4 e2 e5 b8 db       	vfmadd231pd %ymm3,%ymm3,%ymm3
  401197:	c4 e2 f5 b8 c9       	vfmadd231pd %ymm1,%ymm1,%ymm1
  40119c:	c4 e2 ed b8 d2       	vfmadd231pd %ymm2,%ymm2,%ymm2
  4011a1:	c4 e2 fd b8 c0       	vfmadd231pd %ymm0,%ymm0,%ymm0
  4011a6:	c4 e2 c5 b8 ff       	vfmadd231pd %ymm7,%ymm7,%ymm7
  4011ab:	c4 e2 cd b8 f6       	vfmadd231pd %ymm6,%ymm6,%ymm6
  4011b0:	c4 e2 dd b8 e4       	vfmadd231pd %ymm4,%ymm4,%ymm4
  4011b5:	c4 e2 d5 b8 ed       	vfmadd231pd %ymm5,%ymm5,%ymm5
  4011ba:	c4 e2 e5 b8 db       	vfmadd231pd %ymm3,%ymm3,%ymm3
  4011bf:	c4 e2 f5 b8 c9       	vfmadd231pd %ymm1,%ymm1,%ymm1
  4011c4:	c4 e2 ed b8 d2       	vfmadd231pd %ymm2,%ymm2,%ymm2
  4011c9:	c4 e2 fd b8 c0       	vfmadd231pd %ymm0,%ymm0,%ymm0
  4011ce:	c4 e2 c5 b8 ff       	vfmadd231pd %ymm7,%ymm7,%ymm7
  4011d3:	c4 e2 cd b8 f6       	vfmadd231pd %ymm6,%ymm6,%ymm6
  4011d8:	c4 e2 dd b8 e4       	vfmadd231pd %ymm4,%ymm4,%ymm4
  4011dd:	c4 e2 d5 b8 ed       	vfmadd231pd %ymm5,%ymm5,%ymm5
  4011e2:	c4 e2 e5 b8 db       	vfmadd231pd %ymm3,%ymm3,%ymm3
  4011e7:	c4 e2 f5 b8 c9       	vfmadd231pd %ymm1,%ymm1,%ymm1
  4011ec:	c4 e2 ed b8 d2       	vfmadd231pd %ymm2,%ymm2,%ymm2
  4011f1:	c4 e2 fd b8 c0       	vfmadd231pd %ymm0,%ymm0,%ymm0
  4011f6:	c4 e2 c5 b8 ff       	vfmadd231pd %ymm7,%ymm7,%ymm7
  4011fb:	c4 e2 cd b8 f6       	vfmadd231pd %ymm6,%ymm6,%ymm6
  401200:	c4 e2 dd b8 e4       	vfmadd231pd %ymm4,%ymm4,%ymm4
  401205:	c4 e2 d5 b8 ed       	vfmadd231pd %ymm5,%ymm5,%ymm5
  40120a:	c4 e2 e5 b8 db       	vfmadd231pd %ymm3,%ymm3,%ymm3
  40120f:	c4 e2 f5 b8 c9       	vfmadd231pd %ymm1,%ymm1,%ymm1
  401214:	c4 e2 ed b8 d2       	vfmadd231pd %ymm2,%ymm2,%ymm2
  401219:	c4 e2 fd b8 c0       	vfmadd231pd %ymm0,%ymm0,%ymm0
  40121e:	c4 e2 c5 b8 ff       	vfmadd231pd %ymm7,%ymm7,%ymm7
  401223:	c4 e2 cd b8 f6       	vfmadd231pd %ymm6,%ymm6,%ymm6
  401228:	c4 e2 dd b8 e4       	vfmadd231pd %ymm4,%ymm4,%ymm4
  40122d:	c4 e2 d5 b8 ed       	vfmadd231pd %ymm5,%ymm5,%ymm5
  401232:	c4 e2 e5 b8 db       	vfmadd231pd %ymm3,%ymm3,%ymm3
  401237:	c4 e2 f5 b8 c9       	vfmadd231pd %ymm1,%ymm1,%ymm1
  40123c:	c4 e2 ed b8 d2       	vfmadd231pd %ymm2,%ymm2,%ymm2
  401241:	c4 e2 fd b8 c0       	vfmadd231pd %ymm0,%ymm0,%ymm0
  401246:	c4 e2 c5 b8 ff       	vfmadd231pd %ymm7,%ymm7,%ymm7
  40124b:	c4 e2 cd b8 f6       	vfmadd231pd %ymm6,%ymm6,%ymm6
  401250:	c4 e2 dd b8 e4       	vfmadd231pd %ymm4,%ymm4,%ymm4
  401255:	c4 e2 d5 b8 ed       	vfmadd231pd %ymm5,%ymm5,%ymm5
  40125a:	c4 e2 e5 b8 db       	vfmadd231pd %ymm3,%ymm3,%ymm3
  40125f:	c4 e2 f5 b8 c9       	vfmadd231pd %ymm1,%ymm1,%ymm1
  401264:	c4 e2 ed b8 d2       	vfmadd231pd %ymm2,%ymm2,%ymm2
  401269:	c4 e2 fd b8 c0       	vfmadd231pd %ymm0,%ymm0,%ymm0
  40126e:	c4 e2 c5 b8 ff       	vfmadd231pd %ymm7,%ymm7,%ymm7
  401273:	c4 e2 cd b8 f6       	vfmadd231pd %ymm6,%ymm6,%ymm6
  401278:	c4 e2 dd b8 e4       	vfmadd231pd %ymm4,%ymm4,%ymm4
  40127d:	c4 e2 d5 b8 ed       	vfmadd231pd %ymm5,%ymm5,%ymm5
  401282:	c4 e2 e5 b8 db       	vfmadd231pd %ymm3,%ymm3,%ymm3
  401287:	c4 e2 f5 b8 c9       	vfmadd231pd %ymm1,%ymm1,%ymm1
  40128c:	c4 e2 ed b8 d2       	vfmadd231pd %ymm2,%ymm2,%ymm2
  401291:	c4 e2 fd b8 c0       	vfmadd231pd %ymm0,%ymm0,%ymm0
  401296:	c4 e2 c5 b8 ff       	vfmadd231pd %ymm7,%ymm7,%ymm7
  40129b:	c4 e2 cd b8 f6       	vfmadd231pd %ymm6,%ymm6,%ymm6
  4012a0:	c4 e2 dd b8 e4       	vfmadd231pd %ymm4,%ymm4,%ymm4
  4012a5:	c4 e2 d5 b8 ed       	vfmadd231pd %ymm5,%ymm5,%ymm5
  4012aa:	c4 e2 e5 b8 db       	vfmadd231pd %ymm3,%ymm3,%ymm3
  4012af:	c4 e2 f5 b8 c9       	vfmadd231pd %ymm1,%ymm1,%ymm1
  4012b4:	c4 e2 ed b8 d2       	vfmadd231pd %ymm2,%ymm2,%ymm2
  4012b9:	c4 e2 fd b8 c0       	vfmadd231pd %ymm0,%ymm0,%ymm0
  4012be:	c4 e2 c5 b8 ff       	vfmadd231pd %ymm7,%ymm7,%ymm7
  4012c3:	c4 e2 cd b8 f6       	vfmadd231pd %ymm6,%ymm6,%ymm6
  4012c8:	c4 e2 dd b8 e4       	vfmadd231pd %ymm4,%ymm4,%ymm4
  4012cd:	c4 e2 d5 b8 ed       	vfmadd231pd %ymm5,%ymm5,%ymm5
  4012d2:	c4 e2 e5 b8 db       	vfmadd231pd %ymm3,%ymm3,%ymm3
  4012d7:	c4 e2 f5 b8 c9       	vfmadd231pd %ymm1,%ymm1,%ymm1
  4012dc:	c4 e2 ed b8 d2       	vfmadd231pd %ymm2,%ymm2,%ymm2
  4012e1:	c4 e2 fd b8 c0       	vfmadd231pd %ymm0,%ymm0,%ymm0
  4012e6:	c4 e2 c5 b8 ff       	vfmadd231pd %ymm7,%ymm7,%ymm7
  4012eb:	c4 e2 cd b8 f6       	vfmadd231pd %ymm6,%ymm6,%ymm6
  4012f0:	c4 e2 dd b8 e4       	vfmadd231pd %ymm4,%ymm4,%ymm4
  4012f5:	c4 e2 d5 b8 ed       	vfmadd231pd %ymm5,%ymm5,%ymm5
  4012fa:	c4 e2 e5 b8 db       	vfmadd231pd %ymm3,%ymm3,%ymm3
  4012ff:	c4 e2 f5 b8 c9       	vfmadd231pd %ymm1,%ymm1,%ymm1
  401304:	c4 e2 ed b8 d2       	vfmadd231pd %ymm2,%ymm2,%ymm2
  401309:	c4 e2 fd b8 c0       	vfmadd231pd %ymm0,%ymm0,%ymm0
  40130e:	c4 e2 c5 b8 ff       	vfmadd231pd %ymm7,%ymm7,%ymm7
  401313:	c4 e2 cd b8 f6       	vfmadd231pd %ymm6,%ymm6,%ymm6
  401318:	c4 e2 dd b8 e4       	vfmadd231pd %ymm4,%ymm4,%ymm4
  40131d:	c4 e2 d5 b8 ed       	vfmadd231pd %ymm5,%ymm5,%ymm5
  401322:	c4 e2 e5 b8 db       	vfmadd231pd %ymm3,%ymm3,%ymm3
  401327:	c4 e2 f5 b8 c9       	vfmadd231pd %ymm1,%ymm1,%ymm1
  40132c:	c4 e2 ed b8 d2       	vfmadd231pd %ymm2,%ymm2,%ymm2
  401331:	c4 e2 fd b8 c0       	vfmadd231pd %ymm0,%ymm0,%ymm0
  401336:	c4 e2 c5 b8 ff       	vfmadd231pd %ymm7,%ymm7,%ymm7
  40133b:	c4 e2 cd b8 f6       	vfmadd231pd %ymm6,%ymm6,%ymm6
  401340:	c4 e2 dd b8 e4       	vfmadd231pd %ymm4,%ymm4,%ymm4
  401345:	c4 e2 d5 b8 ed       	vfmadd231pd %ymm5,%ymm5,%ymm5
  40134a:	c4 e2 e5 b8 db       	vfmadd231pd %ymm3,%ymm3,%ymm3
  40134f:	c4 e2 f5 b8 c9       	vfmadd231pd %ymm1,%ymm1,%ymm1
  401354:	c4 e2 ed b8 d2       	vfmadd231pd %ymm2,%ymm2,%ymm2
  401359:	c4 e2 fd b8 c0       	vfmadd231pd %ymm0,%ymm0,%ymm0
  40135e:	c4 e2 c5 b8 ff       	vfmadd231pd %ymm7,%ymm7,%ymm7
  401363:	c4 e2 cd b8 f6       	vfmadd231pd %ymm6,%ymm6,%ymm6
  401368:	c4 e2 dd b8 e4       	vfmadd231pd %ymm4,%ymm4,%ymm4
  40136d:	c4 e2 d5 b8 ed       	vfmadd231pd %ymm5,%ymm5,%ymm5
  401372:	c4 e2 e5 b8 db       	vfmadd231pd %ymm3,%ymm3,%ymm3
  401377:	c4 e2 f5 b8 c9       	vfmadd231pd %ymm1,%ymm1,%ymm1
  40137c:	c4 e2 ed b8 d2       	vfmadd231pd %ymm2,%ymm2,%ymm2
  401381:	c4 e2 fd b8 c0       	vfmadd231pd %ymm0,%ymm0,%ymm0
  401386:	c4 e2 c5 b8 ff       	vfmadd231pd %ymm7,%ymm7,%ymm7
  40138b:	c4 e2 cd b8 f6       	vfmadd231pd %ymm6,%ymm6,%ymm6
  401390:	c4 e2 dd b8 e4       	vfmadd231pd %ymm4,%ymm4,%ymm4
  401395:	c4 e2 d5 b8 ed       	vfmadd231pd %ymm5,%ymm5,%ymm5
  40139a:	c4 e2 e5 b8 db       	vfmadd231pd %ymm3,%ymm3,%ymm3
  40139f:	c4 e2 f5 b8 c9       	vfmadd231pd %ymm1,%ymm1,%ymm1
  4013a4:	c4 e2 ed b8 d2       	vfmadd231pd %ymm2,%ymm2,%ymm2
  4013a9:	c4 e2 fd b8 c0       	vfmadd231pd %ymm0,%ymm0,%ymm0
  4013ae:	c4 e2 c5 b8 ff       	vfmadd231pd %ymm7,%ymm7,%ymm7
  4013b3:	c4 e2 cd b8 f6       	vfmadd231pd %ymm6,%ymm6,%ymm6
  4013b8:	c4 e2 dd b8 e4       	vfmadd231pd %ymm4,%ymm4,%ymm4
  4013bd:	c4 e2 d5 b8 ed       	vfmadd231pd %ymm5,%ymm5,%ymm5
  4013c2:	c4 e2 e5 b8 db       	vfmadd231pd %ymm3,%ymm3,%ymm3
  4013c7:	c4 e2 f5 b8 c9       	vfmadd231pd %ymm1,%ymm1,%ymm1
  4013cc:	c4 e2 ed b8 d2       	vfmadd231pd %ymm2,%ymm2,%ymm2
  4013d1:	c4 e2 fd b8 c0       	vfmadd231pd %ymm0,%ymm0,%ymm0
  4013d6:	c4 e2 c5 b8 ff       	vfmadd231pd %ymm7,%ymm7,%ymm7
  4013db:	c4 e2 cd b8 f6       	vfmadd231pd %ymm6,%ymm6,%ymm6
  4013e0:	c4 e2 dd b8 e4       	vfmadd231pd %ymm4,%ymm4,%ymm4
  4013e5:	c4 e2 d5 b8 ed       	vfmadd231pd %ymm5,%ymm5,%ymm5
  4013ea:	c4 e2 e5 b8 db       	vfmadd231pd %ymm3,%ymm3,%ymm3
  4013ef:	c4 e2 f5 b8 c9       	vfmadd231pd %ymm1,%ymm1,%ymm1
  4013f4:	c4 e2 ed b8 d2       	vfmadd231pd %ymm2,%ymm2,%ymm2
  4013f9:	c4 e2 fd b8 c0       	vfmadd231pd %ymm0,%ymm0,%ymm0
  4013fe:	c4 e2 c5 b8 ff       	vfmadd231pd %ymm7,%ymm7,%ymm7
  401403:	c4 e2 cd b8 f6       	vfmadd231pd %ymm6,%ymm6,%ymm6
  401408:	c4 e2 dd b8 e4       	vfmadd231pd %ymm4,%ymm4,%ymm4
  40140d:	c4 e2 d5 b8 ed       	vfmadd231pd %ymm5,%ymm5,%ymm5
  401412:	c4 e2 e5 b8 db       	vfmadd231pd %ymm3,%ymm3,%ymm3
  401417:	c4 e2 f5 b8 c9       	vfmadd231pd %ymm1,%ymm1,%ymm1
  40141c:	c4 e2 ed b8 d2       	vfmadd231pd %ymm2,%ymm2,%ymm2
  401421:	c4 e2 fd b8 c0       	vfmadd231pd %ymm0,%ymm0,%ymm0
  401426:	c4 e2 c5 b8 ff       	vfmadd231pd %ymm7,%ymm7,%ymm7
  40142b:	c4 e2 cd b8 f6       	vfmadd231pd %ymm6,%ymm6,%ymm6
  401430:	c4 e2 dd b8 e4       	vfmadd231pd %ymm4,%ymm4,%ymm4
  401435:	c4 e2 d5 b8 ed       	vfmadd231pd %ymm5,%ymm5,%ymm5
  40143a:	c4 e2 e5 b8 db       	vfmadd231pd %ymm3,%ymm3,%ymm3
  40143f:	c4 e2 f5 b8 c9       	vfmadd231pd %ymm1,%ymm1,%ymm1
  401444:	c4 e2 ed b8 d2       	vfmadd231pd %ymm2,%ymm2,%ymm2
  401449:	c4 e2 fd b8 c0       	vfmadd231pd %ymm0,%ymm0,%ymm0
  40144e:	c4 e2 c5 b8 ff       	vfmadd231pd %ymm7,%ymm7,%ymm7
  401453:	c4 e2 cd b8 f6       	vfmadd231pd %ymm6,%ymm6,%ymm6
  401458:	c4 e2 dd b8 e4       	vfmadd231pd %ymm4,%ymm4,%ymm4
  40145d:	c4 e2 d5 b8 ed       	vfmadd231pd %ymm5,%ymm5,%ymm5
  401462:	c4 e2 e5 b8 db       	vfmadd231pd %ymm3,%ymm3,%ymm3
  401467:	c4 e2 f5 b8 c9       	vfmadd231pd %ymm1,%ymm1,%ymm1
  40146c:	c4 e2 ed b8 d2       	vfmadd231pd %ymm2,%ymm2,%ymm2
  401471:	c4 e2 fd b8 c0       	vfmadd231pd %ymm0,%ymm0,%ymm0
  401476:	c4 e2 c5 b8 ff       	vfmadd231pd %ymm7,%ymm7,%ymm7
  40147b:	c4 e2 cd b8 f6       	vfmadd231pd %ymm6,%ymm6,%ymm6
  401480:	c4 e2 dd b8 e4       	vfmadd231pd %ymm4,%ymm4,%ymm4
  401485:	c4 e2 d5 b8 ed       	vfmadd231pd %ymm5,%ymm5,%ymm5
  40148a:	c4 e2 e5 b8 db       	vfmadd231pd %ymm3,%ymm3,%ymm3
  40148f:	c4 e2 f5 b8 c9       	vfmadd231pd %ymm1,%ymm1,%ymm1
  401494:	c4 e2 ed b8 d2       	vfmadd231pd %ymm2,%ymm2,%ymm2
  401499:	c4 e2 fd b8 c0       	vfmadd231pd %ymm0,%ymm0,%ymm0
  40149e:	c4 e2 c5 b8 ff       	vfmadd231pd %ymm7,%ymm7,%ymm7
  4014a3:	c4 e2 cd b8 f6       	vfmadd231pd %ymm6,%ymm6,%ymm6
  4014a8:	c4 e2 dd b8 e4       	vfmadd231pd %ymm4,%ymm4,%ymm4
  4014ad:	c4 e2 d5 b8 ed       	vfmadd231pd %ymm5,%ymm5,%ymm5
  4014b2:	c4 e2 e5 b8 db       	vfmadd231pd %ymm3,%ymm3,%ymm3
  4014b7:	c4 e2 f5 b8 c9       	vfmadd231pd %ymm1,%ymm1,%ymm1
  4014bc:	c4 e2 ed b8 d2       	vfmadd231pd %ymm2,%ymm2,%ymm2
  4014c1:	c4 e2 fd b8 c0       	vfmadd231pd %ymm0,%ymm0,%ymm0
  4014c6:	c4 e2 c5 b8 ff       	vfmadd231pd %ymm7,%ymm7,%ymm7
  4014cb:	c4 e2 cd b8 f6       	vfmadd231pd %ymm6,%ymm6,%ymm6
  4014d0:	c4 e2 dd b8 e4       	vfmadd231pd %ymm4,%ymm4,%ymm4
  4014d5:	c4 e2 d5 b8 ed       	vfmadd231pd %ymm5,%ymm5,%ymm5
  4014da:	c4 e2 e5 b8 db       	vfmadd231pd %ymm3,%ymm3,%ymm3
  4014df:	c4 e2 f5 b8 c9       	vfmadd231pd %ymm1,%ymm1,%ymm1
  4014e4:	c4 e2 ed b8 d2       	vfmadd231pd %ymm2,%ymm2,%ymm2
  4014e9:	c4 e2 fd b8 c0       	vfmadd231pd %ymm0,%ymm0,%ymm0
  4014ee:	c4 e2 c5 b8 ff       	vfmadd231pd %ymm7,%ymm7,%ymm7
  4014f3:	c4 e2 cd b8 f6       	vfmadd231pd %ymm6,%ymm6,%ymm6
  4014f8:	c4 e2 dd b8 e4       	vfmadd231pd %ymm4,%ymm4,%ymm4
  4014fd:	c4 e2 d5 b8 ed       	vfmadd231pd %ymm5,%ymm5,%ymm5
  401502:	c4 e2 e5 b8 db       	vfmadd231pd %ymm3,%ymm3,%ymm3
  401507:	c4 e2 f5 b8 c9       	vfmadd231pd %ymm1,%ymm1,%ymm1
  40150c:	c4 e2 ed b8 d2       	vfmadd231pd %ymm2,%ymm2,%ymm2
  401511:	c4 e2 fd b8 c0       	vfmadd231pd %ymm0,%ymm0,%ymm0
  401516:	c4 e2 c5 b8 ff       	vfmadd231pd %ymm7,%ymm7,%ymm7
  40151b:	c4 e2 cd b8 f6       	vfmadd231pd %ymm6,%ymm6,%ymm6
  401520:	c4 e2 dd b8 e4       	vfmadd231pd %ymm4,%ymm4,%ymm4
  401525:	c4 e2 d5 b8 ed       	vfmadd231pd %ymm5,%ymm5,%ymm5
  40152a:	c4 e2 e5 b8 db       	vfmadd231pd %ymm3,%ymm3,%ymm3
  40152f:	c4 e2 f5 b8 c9       	vfmadd231pd %ymm1,%ymm1,%ymm1
  401534:	c4 e2 ed b8 d2       	vfmadd231pd %ymm2,%ymm2,%ymm2
  401539:	c4 e2 fd b8 c0       	vfmadd231pd %ymm0,%ymm0,%ymm0
  40153e:	c4 e2 c5 b8 ff       	vfmadd231pd %ymm7,%ymm7,%ymm7
  401543:	c4 e2 cd b8 f6       	vfmadd231pd %ymm6,%ymm6,%ymm6
  401548:	c4 e2 dd b8 e4       	vfmadd231pd %ymm4,%ymm4,%ymm4
  40154d:	c4 e2 d5 b8 ed       	vfmadd231pd %ymm5,%ymm5,%ymm5
  401552:	c4 e2 e5 b8 db       	vfmadd231pd %ymm3,%ymm3,%ymm3
  401557:	c4 e2 f5 b8 c9       	vfmadd231pd %ymm1,%ymm1,%ymm1
  40155c:	c4 e2 ed b8 d2       	vfmadd231pd %ymm2,%ymm2,%ymm2
  401561:	c4 e2 fd b8 c0       	vfmadd231pd %ymm0,%ymm0,%ymm0
  401566:	c4 e2 c5 b8 ff       	vfmadd231pd %ymm7,%ymm7,%ymm7
  40156b:	c4 e2 cd b8 f6       	vfmadd231pd %ymm6,%ymm6,%ymm6
  401570:	c4 e2 dd b8 e4       	vfmadd231pd %ymm4,%ymm4,%ymm4
  401575:	c4 e2 d5 b8 ed       	vfmadd231pd %ymm5,%ymm5,%ymm5
  40157a:	c4 e2 e5 b8 db       	vfmadd231pd %ymm3,%ymm3,%ymm3
  40157f:	c4 e2 f5 b8 c9       	vfmadd231pd %ymm1,%ymm1,%ymm1
  401584:	c4 e2 ed b8 d2       	vfmadd231pd %ymm2,%ymm2,%ymm2
  401589:	c4 e2 fd b8 c0       	vfmadd231pd %ymm0,%ymm0,%ymm0
  40158e:	c4 e2 c5 b8 ff       	vfmadd231pd %ymm7,%ymm7,%ymm7
  401593:	c4 e2 cd b8 f6       	vfmadd231pd %ymm6,%ymm6,%ymm6
  401598:	c4 e2 dd b8 e4       	vfmadd231pd %ymm4,%ymm4,%ymm4
  40159d:	c4 e2 d5 b8 ed       	vfmadd231pd %ymm5,%ymm5,%ymm5
  4015a2:	c4 e2 e5 b8 db       	vfmadd231pd %ymm3,%ymm3,%ymm3
  4015a7:	c4 e2 f5 b8 c9       	vfmadd231pd %ymm1,%ymm1,%ymm1
  4015ac:	c4 e2 ed b8 d2       	vfmadd231pd %ymm2,%ymm2,%ymm2
  4015b1:	c4 e2 fd b8 c0       	vfmadd231pd %ymm0,%ymm0,%ymm0
  4015b6:	c4 e2 c5 b8 ff       	vfmadd231pd %ymm7,%ymm7,%ymm7
  4015bb:	c4 e2 cd b8 f6       	vfmadd231pd %ymm6,%ymm6,%ymm6
  4015c0:	c4 e2 dd b8 e4       	vfmadd231pd %ymm4,%ymm4,%ymm4
  4015c5:	c4 e2 d5 b8 ed       	vfmadd231pd %ymm5,%ymm5,%ymm5
  4015ca:	c4 e2 e5 b8 db       	vfmadd231pd %ymm3,%ymm3,%ymm3
  4015cf:	c4 e2 f5 b8 c9       	vfmadd231pd %ymm1,%ymm1,%ymm1
  4015d4:	c4 e2 ed b8 d2       	vfmadd231pd %ymm2,%ymm2,%ymm2
  4015d9:	c4 e2 fd b8 c0       	vfmadd231pd %ymm0,%ymm0,%ymm0
  4015de:	c4 e2 c5 b8 ff       	vfmadd231pd %ymm7,%ymm7,%ymm7
  4015e3:	c4 e2 cd b8 f6       	vfmadd231pd %ymm6,%ymm6,%ymm6
  4015e8:	c4 e2 dd b8 e4       	vfmadd231pd %ymm4,%ymm4,%ymm4
  4015ed:	c4 e2 d5 b8 ed       	vfmadd231pd %ymm5,%ymm5,%ymm5
  4015f2:	c4 e2 e5 b8 db       	vfmadd231pd %ymm3,%ymm3,%ymm3
  4015f7:	c4 e2 f5 b8 c9       	vfmadd231pd %ymm1,%ymm1,%ymm1
  4015fc:	c4 e2 ed b8 d2       	vfmadd231pd %ymm2,%ymm2,%ymm2
  401601:	c4 e2 fd b8 c0       	vfmadd231pd %ymm0,%ymm0,%ymm0
  401606:	c4 e2 c5 b8 ff       	vfmadd231pd %ymm7,%ymm7,%ymm7
  40160b:	c4 e2 cd b8 f6       	vfmadd231pd %ymm6,%ymm6,%ymm6
  401610:	c4 e2 dd b8 e4       	vfmadd231pd %ymm4,%ymm4,%ymm4
  401615:	c4 e2 d5 b8 ed       	vfmadd231pd %ymm5,%ymm5,%ymm5
  40161a:	c4 e2 e5 b8 db       	vfmadd231pd %ymm3,%ymm3,%ymm3
  40161f:	c4 e2 f5 b8 c9       	vfmadd231pd %ymm1,%ymm1,%ymm1
  401624:	c4 e2 ed b8 d2       	vfmadd231pd %ymm2,%ymm2,%ymm2
  401629:	c4 e2 fd b8 c0       	vfmadd231pd %ymm0,%ymm0,%ymm0
  40162e:	c4 e2 c5 b8 ff       	vfmadd231pd %ymm7,%ymm7,%ymm7
  401633:	c4 e2 cd b8 f6       	vfmadd231pd %ymm6,%ymm6,%ymm6
  401638:	c4 e2 dd b8 e4       	vfmadd231pd %ymm4,%ymm4,%ymm4
  40163d:	c4 e2 d5 b8 ed       	vfmadd231pd %ymm5,%ymm5,%ymm5
  401642:	c4 e2 e5 b8 db       	vfmadd231pd %ymm3,%ymm3,%ymm3
  401647:	c4 e2 f5 b8 c9       	vfmadd231pd %ymm1,%ymm1,%ymm1
  40164c:	c4 e2 ed b8 d2       	vfmadd231pd %ymm2,%ymm2,%ymm2
  401651:	c4 e2 fd b8 c0       	vfmadd231pd %ymm0,%ymm0,%ymm0
  401656:	c4 e2 c5 b8 ff       	vfmadd231pd %ymm7,%ymm7,%ymm7
  40165b:	c4 e2 cd b8 f6       	vfmadd231pd %ymm6,%ymm6,%ymm6
  401660:	c4 e2 dd b8 e4       	vfmadd231pd %ymm4,%ymm4,%ymm4
  401665:	c4 e2 d5 b8 ed       	vfmadd231pd %ymm5,%ymm5,%ymm5
  40166a:	c4 e2 e5 b8 db       	vfmadd231pd %ymm3,%ymm3,%ymm3
  40166f:	c4 e2 f5 b8 c9       	vfmadd231pd %ymm1,%ymm1,%ymm1
  401674:	c4 e2 ed b8 d2       	vfmadd231pd %ymm2,%ymm2,%ymm2
  401679:	c4 e2 fd b8 c0       	vfmadd231pd %ymm0,%ymm0,%ymm0
  40167e:	c4 e2 c5 b8 ff       	vfmadd231pd %ymm7,%ymm7,%ymm7
  401683:	c4 e2 cd b8 f6       	vfmadd231pd %ymm6,%ymm6,%ymm6
  401688:	c4 e2 dd b8 e4       	vfmadd231pd %ymm4,%ymm4,%ymm4
  40168d:	c4 e2 d5 b8 ed       	vfmadd231pd %ymm5,%ymm5,%ymm5
  401692:	c4 e2 e5 b8 db       	vfmadd231pd %ymm3,%ymm3,%ymm3
  401697:	c4 e2 f5 b8 c9       	vfmadd231pd %ymm1,%ymm1,%ymm1
  40169c:	c4 e2 ed b8 d2       	vfmadd231pd %ymm2,%ymm2,%ymm2
  4016a1:	c4 e2 fd b8 c0       	vfmadd231pd %ymm0,%ymm0,%ymm0
  4016a6:	c4 e2 c5 b8 ff       	vfmadd231pd %ymm7,%ymm7,%ymm7
  4016ab:	c4 e2 cd b8 f6       	vfmadd231pd %ymm6,%ymm6,%ymm6
  4016b0:	c4 e2 dd b8 e4       	vfmadd231pd %ymm4,%ymm4,%ymm4
  4016b5:	c4 e2 d5 b8 ed       	vfmadd231pd %ymm5,%ymm5,%ymm5
  4016ba:	c4 e2 e5 b8 db       	vfmadd231pd %ymm3,%ymm3,%ymm3
  4016bf:	c4 e2 f5 b8 c9       	vfmadd231pd %ymm1,%ymm1,%ymm1
  4016c4:	c4 e2 ed b8 d2       	vfmadd231pd %ymm2,%ymm2,%ymm2
  4016c9:	c4 e2 fd b8 c0       	vfmadd231pd %ymm0,%ymm0,%ymm0
  4016ce:	c4 e2 c5 b8 ff       	vfmadd231pd %ymm7,%ymm7,%ymm7
  4016d3:	c4 e2 cd b8 f6       	vfmadd231pd %ymm6,%ymm6,%ymm6
  4016d8:	c4 e2 dd b8 e4       	vfmadd231pd %ymm4,%ymm4,%ymm4
  4016dd:	c4 e2 d5 b8 ed       	vfmadd231pd %ymm5,%ymm5,%ymm5
  4016e2:	c4 e2 e5 b8 db       	vfmadd231pd %ymm3,%ymm3,%ymm3
  4016e7:	c4 e2 f5 b8 c9       	vfmadd231pd %ymm1,%ymm1,%ymm1
  4016ec:	c4 e2 ed b8 d2       	vfmadd231pd %ymm2,%ymm2,%ymm2
  4016f1:	c4 e2 fd b8 c0       	vfmadd231pd %ymm0,%ymm0,%ymm0
  4016f6:	c4 e2 c5 b8 ff       	vfmadd231pd %ymm7,%ymm7,%ymm7
  4016fb:	c4 e2 cd b8 f6       	vfmadd231pd %ymm6,%ymm6,%ymm6
  401700:	c4 e2 dd b8 e4       	vfmadd231pd %ymm4,%ymm4,%ymm4
  401705:	c4 e2 d5 b8 ed       	vfmadd231pd %ymm5,%ymm5,%ymm5
  40170a:	c4 e2 e5 b8 db       	vfmadd231pd %ymm3,%ymm3,%ymm3
  40170f:	c4 e2 f5 b8 c9       	vfmadd231pd %ymm1,%ymm1,%ymm1
  401714:	c4 e2 ed b8 d2       	vfmadd231pd %ymm2,%ymm2,%ymm2
  401719:	c4 e2 fd b8 c0       	vfmadd231pd %ymm0,%ymm0,%ymm0
  40171e:	c4 e2 c5 b8 ff       	vfmadd231pd %ymm7,%ymm7,%ymm7
  401723:	c4 e2 cd b8 f6       	vfmadd231pd %ymm6,%ymm6,%ymm6
  401728:	c4 e2 dd b8 e4       	vfmadd231pd %ymm4,%ymm4,%ymm4
  40172d:	c4 e2 d5 b8 ed       	vfmadd231pd %ymm5,%ymm5,%ymm5
  401732:	c4 e2 e5 b8 db       	vfmadd231pd %ymm3,%ymm3,%ymm3
  401737:	c4 e2 f5 b8 c9       	vfmadd231pd %ymm1,%ymm1,%ymm1
  40173c:	c4 e2 ed b8 d2       	vfmadd231pd %ymm2,%ymm2,%ymm2
  401741:	c4 e2 fd b8 c0       	vfmadd231pd %ymm0,%ymm0,%ymm0
  401746:	c4 e2 c5 b8 ff       	vfmadd231pd %ymm7,%ymm7,%ymm7
  40174b:	c4 e2 cd b8 f6       	vfmadd231pd %ymm6,%ymm6,%ymm6
  401750:	c4 e2 dd b8 e4       	vfmadd231pd %ymm4,%ymm4,%ymm4
  401755:	c4 e2 d5 b8 ed       	vfmadd231pd %ymm5,%ymm5,%ymm5
  40175a:	c4 e2 e5 b8 db       	vfmadd231pd %ymm3,%ymm3,%ymm3
  40175f:	c4 e2 f5 b8 c9       	vfmadd231pd %ymm1,%ymm1,%ymm1
  401764:	c4 e2 ed b8 d2       	vfmadd231pd %ymm2,%ymm2,%ymm2
  401769:	c4 e2 fd b8 c0       	vfmadd231pd %ymm0,%ymm0,%ymm0
  40176e:	c4 e2 c5 b8 ff       	vfmadd231pd %ymm7,%ymm7,%ymm7
  401773:	c4 e2 cd b8 f6       	vfmadd231pd %ymm6,%ymm6,%ymm6
  401778:	c4 e2 dd b8 e4       	vfmadd231pd %ymm4,%ymm4,%ymm4
  40177d:	c4 e2 d5 b8 ed       	vfmadd231pd %ymm5,%ymm5,%ymm5
  401782:	c4 e2 e5 b8 db       	vfmadd231pd %ymm3,%ymm3,%ymm3
  401787:	c4 e2 f5 b8 c9       	vfmadd231pd %ymm1,%ymm1,%ymm1
  40178c:	c4 e2 ed b8 d2       	vfmadd231pd %ymm2,%ymm2,%ymm2
  401791:	c4 e2 fd b8 c0       	vfmadd231pd %ymm0,%ymm0,%ymm0
  401796:	c4 e2 c5 b8 ff       	vfmadd231pd %ymm7,%ymm7,%ymm7
  40179b:	c4 e2 cd b8 f6       	vfmadd231pd %ymm6,%ymm6,%ymm6
  4017a0:	c4 e2 dd b8 e4       	vfmadd231pd %ymm4,%ymm4,%ymm4
  4017a5:	c4 e2 d5 b8 ed       	vfmadd231pd %ymm5,%ymm5,%ymm5
  4017aa:	c4 e2 e5 b8 db       	vfmadd231pd %ymm3,%ymm3,%ymm3
  4017af:	c4 e2 f5 b8 c9       	vfmadd231pd %ymm1,%ymm1,%ymm1
  4017b4:	c4 e2 ed b8 d2       	vfmadd231pd %ymm2,%ymm2,%ymm2
  4017b9:	c4 e2 fd b8 c0       	vfmadd231pd %ymm0,%ymm0,%ymm0
  4017be:	c4 e2 c5 b8 ff       	vfmadd231pd %ymm7,%ymm7,%ymm7
  4017c3:	c4 e2 cd b8 f6       	vfmadd231pd %ymm6,%ymm6,%ymm6
  4017c8:	c4 e2 dd b8 e4       	vfmadd231pd %ymm4,%ymm4,%ymm4
  4017cd:	c4 e2 d5 b8 ed       	vfmadd231pd %ymm5,%ymm5,%ymm5
  4017d2:	c4 e2 e5 b8 db       	vfmadd231pd %ymm3,%ymm3,%ymm3
  4017d7:	c4 e2 f5 b8 c9       	vfmadd231pd %ymm1,%ymm1,%ymm1
  4017dc:	c4 e2 ed b8 d2       	vfmadd231pd %ymm2,%ymm2,%ymm2
  4017e1:	c4 e2 fd b8 c0       	vfmadd231pd %ymm0,%ymm0,%ymm0
  4017e6:	c4 e2 c5 b8 ff       	vfmadd231pd %ymm7,%ymm7,%ymm7
  4017eb:	c4 e2 cd b8 f6       	vfmadd231pd %ymm6,%ymm6,%ymm6
  4017f0:	c4 e2 dd b8 e4       	vfmadd231pd %ymm4,%ymm4,%ymm4
  4017f5:	c4 e2 d5 b8 ed       	vfmadd231pd %ymm5,%ymm5,%ymm5
  4017fa:	c4 e2 e5 b8 db       	vfmadd231pd %ymm3,%ymm3,%ymm3
  4017ff:	c4 e2 f5 b8 c9       	vfmadd231pd %ymm1,%ymm1,%ymm1
  401804:	c4 e2 ed b8 d2       	vfmadd231pd %ymm2,%ymm2,%ymm2
  401809:	c4 e2 fd b8 c0       	vfmadd231pd %ymm0,%ymm0,%ymm0
  40180e:	c4 e2 c5 b8 ff       	vfmadd231pd %ymm7,%ymm7,%ymm7
  401813:	c4 e2 cd b8 f6       	vfmadd231pd %ymm6,%ymm6,%ymm6
  401818:	c4 e2 dd b8 e4       	vfmadd231pd %ymm4,%ymm4,%ymm4
  40181d:	c4 e2 d5 b8 ed       	vfmadd231pd %ymm5,%ymm5,%ymm5
  401822:	c4 e2 e5 b8 db       	vfmadd231pd %ymm3,%ymm3,%ymm3
  401827:	c4 e2 f5 b8 c9       	vfmadd231pd %ymm1,%ymm1,%ymm1
  40182c:	c4 e2 ed b8 d2       	vfmadd231pd %ymm2,%ymm2,%ymm2
  401831:	c4 e2 fd b8 c0       	vfmadd231pd %ymm0,%ymm0,%ymm0
  401836:	c4 e2 c5 b8 ff       	vfmadd231pd %ymm7,%ymm7,%ymm7
  40183b:	c4 e2 cd b8 f6       	vfmadd231pd %ymm6,%ymm6,%ymm6
  401840:	c4 e2 dd b8 e4       	vfmadd231pd %ymm4,%ymm4,%ymm4
  401845:	c4 e2 d5 b8 ed       	vfmadd231pd %ymm5,%ymm5,%ymm5
  40184a:	c4 e2 e5 b8 db       	vfmadd231pd %ymm3,%ymm3,%ymm3
  40184f:	c4 e2 f5 b8 c9       	vfmadd231pd %ymm1,%ymm1,%ymm1
  401854:	c4 e2 ed b8 d2       	vfmadd231pd %ymm2,%ymm2,%ymm2
  401859:	c4 e2 fd b8 c0       	vfmadd231pd %ymm0,%ymm0,%ymm0
  40185e:	c4 e2 c5 b8 ff       	vfmadd231pd %ymm7,%ymm7,%ymm7
  401863:	c4 e2 cd b8 f6       	vfmadd231pd %ymm6,%ymm6,%ymm6
  401868:	c4 e2 dd b8 e4       	vfmadd231pd %ymm4,%ymm4,%ymm4
  40186d:	c4 e2 d5 b8 ed       	vfmadd231pd %ymm5,%ymm5,%ymm5
  401872:	c4 e2 e5 b8 db       	vfmadd231pd %ymm3,%ymm3,%ymm3
  401877:	c4 e2 f5 b8 c9       	vfmadd231pd %ymm1,%ymm1,%ymm1
  40187c:	c4 e2 ed b8 d2       	vfmadd231pd %ymm2,%ymm2,%ymm2
  401881:	c4 e2 fd b8 c0       	vfmadd231pd %ymm0,%ymm0,%ymm0
  401886:	c4 e2 c5 b8 ff       	vfmadd231pd %ymm7,%ymm7,%ymm7
  40188b:	c4 e2 cd b8 f6       	vfmadd231pd %ymm6,%ymm6,%ymm6
  401890:	c4 e2 dd b8 e4       	vfmadd231pd %ymm4,%ymm4,%ymm4
  401895:	c4 e2 d5 b8 ed       	vfmadd231pd %ymm5,%ymm5,%ymm5
  40189a:	c4 e2 e5 b8 db       	vfmadd231pd %ymm3,%ymm3,%ymm3
  40189f:	c4 e2 f5 b8 c9       	vfmadd231pd %ymm1,%ymm1,%ymm1
  4018a4:	c4 e2 ed b8 d2       	vfmadd231pd %ymm2,%ymm2,%ymm2
  4018a9:	c4 e2 fd b8 c0       	vfmadd231pd %ymm0,%ymm0,%ymm0
  4018ae:	c4 e2 c5 b8 ff       	vfmadd231pd %ymm7,%ymm7,%ymm7
  4018b3:	c4 e2 cd b8 f6       	vfmadd231pd %ymm6,%ymm6,%ymm6
  4018b8:	c4 e2 dd b8 e4       	vfmadd231pd %ymm4,%ymm4,%ymm4
  4018bd:	c4 e2 d5 b8 ed       	vfmadd231pd %ymm5,%ymm5,%ymm5
  4018c2:	c4 e2 e5 b8 db       	vfmadd231pd %ymm3,%ymm3,%ymm3
  4018c7:	c4 e2 f5 b8 c9       	vfmadd231pd %ymm1,%ymm1,%ymm1
  4018cc:	c4 e2 ed b8 d2       	vfmadd231pd %ymm2,%ymm2,%ymm2
  4018d1:	c4 e2 fd b8 c0       	vfmadd231pd %ymm0,%ymm0,%ymm0
  4018d6:	c4 e2 c5 b8 ff       	vfmadd231pd %ymm7,%ymm7,%ymm7
  4018db:	c4 e2 cd b8 f6       	vfmadd231pd %ymm6,%ymm6,%ymm6
  4018e0:	c4 e2 dd b8 e4       	vfmadd231pd %ymm4,%ymm4,%ymm4
  4018e5:	c4 e2 d5 b8 ed       	vfmadd231pd %ymm5,%ymm5,%ymm5
  4018ea:	c4 e2 e5 b8 db       	vfmadd231pd %ymm3,%ymm3,%ymm3
  4018ef:	c4 e2 f5 b8 c9       	vfmadd231pd %ymm1,%ymm1,%ymm1
  4018f4:	c4 e2 ed b8 d2       	vfmadd231pd %ymm2,%ymm2,%ymm2
  4018f9:	c4 e2 fd b8 c0       	vfmadd231pd %ymm0,%ymm0,%ymm0
  4018fe:	c4 e2 c5 b8 ff       	vfmadd231pd %ymm7,%ymm7,%ymm7
  401903:	c4 e2 cd b8 f6       	vfmadd231pd %ymm6,%ymm6,%ymm6
  401908:	c4 e2 dd b8 e4       	vfmadd231pd %ymm4,%ymm4,%ymm4
  40190d:	c4 e2 d5 b8 ed       	vfmadd231pd %ymm5,%ymm5,%ymm5
  401912:	c4 e2 e5 b8 db       	vfmadd231pd %ymm3,%ymm3,%ymm3
  401917:	c4 e2 f5 b8 c9       	vfmadd231pd %ymm1,%ymm1,%ymm1
  40191c:	c4 e2 ed b8 d2       	vfmadd231pd %ymm2,%ymm2,%ymm2
  401921:	c4 e2 fd b8 c0       	vfmadd231pd %ymm0,%ymm0,%ymm0
  401926:	c4 e2 c5 b8 ff       	vfmadd231pd %ymm7,%ymm7,%ymm7
  40192b:	c4 e2 cd b8 f6       	vfmadd231pd %ymm6,%ymm6,%ymm6
  401930:	c4 e2 dd b8 e4       	vfmadd231pd %ymm4,%ymm4,%ymm4
  401935:	c4 e2 d5 b8 ed       	vfmadd231pd %ymm5,%ymm5,%ymm5
  40193a:	c4 e2 e5 b8 db       	vfmadd231pd %ymm3,%ymm3,%ymm3
  40193f:	c4 e2 f5 b8 c9       	vfmadd231pd %ymm1,%ymm1,%ymm1
  401944:	c4 e2 ed b8 d2       	vfmadd231pd %ymm2,%ymm2,%ymm2
  401949:	c4 e2 fd b8 c0       	vfmadd231pd %ymm0,%ymm0,%ymm0
  40194e:	c4 e2 c5 b8 ff       	vfmadd231pd %ymm7,%ymm7,%ymm7
  401953:	c4 e2 cd b8 f6       	vfmadd231pd %ymm6,%ymm6,%ymm6
  401958:	c4 e2 dd b8 e4       	vfmadd231pd %ymm4,%ymm4,%ymm4
  40195d:	c4 e2 d5 b8 ed       	vfmadd231pd %ymm5,%ymm5,%ymm5
  401962:	c4 e2 e5 b8 db       	vfmadd231pd %ymm3,%ymm3,%ymm3
  401967:	c4 e2 f5 b8 c9       	vfmadd231pd %ymm1,%ymm1,%ymm1
  40196c:	c4 e2 ed b8 d2       	vfmadd231pd %ymm2,%ymm2,%ymm2
  401971:	c4 e2 fd b8 c0       	vfmadd231pd %ymm0,%ymm0,%ymm0
  401976:	c4 e2 c5 b8 ff       	vfmadd231pd %ymm7,%ymm7,%ymm7
  40197b:	c4 e2 cd b8 f6       	vfmadd231pd %ymm6,%ymm6,%ymm6
  401980:	c4 e2 dd b8 e4       	vfmadd231pd %ymm4,%ymm4,%ymm4
  401985:	c4 e2 d5 b8 ed       	vfmadd231pd %ymm5,%ymm5,%ymm5
  40198a:	c4 e2 e5 b8 db       	vfmadd231pd %ymm3,%ymm3,%ymm3
  40198f:	c4 e2 f5 b8 c9       	vfmadd231pd %ymm1,%ymm1,%ymm1
  401994:	c4 e2 ed b8 d2       	vfmadd231pd %ymm2,%ymm2,%ymm2
  401999:	c4 e2 fd b8 c0       	vfmadd231pd %ymm0,%ymm0,%ymm0
  40199e:	c4 e2 c5 b8 ff       	vfmadd231pd %ymm7,%ymm7,%ymm7
  4019a3:	c4 e2 cd b8 f6       	vfmadd231pd %ymm6,%ymm6,%ymm6
  4019a8:	c4 e2 dd b8 e4       	vfmadd231pd %ymm4,%ymm4,%ymm4
  4019ad:	c4 e2 d5 b8 ed       	vfmadd231pd %ymm5,%ymm5,%ymm5
  4019b2:	c4 e2 e5 b8 db       	vfmadd231pd %ymm3,%ymm3,%ymm3
  4019b7:	c4 e2 f5 b8 c9       	vfmadd231pd %ymm1,%ymm1,%ymm1
  4019bc:	c4 e2 ed b8 d2       	vfmadd231pd %ymm2,%ymm2,%ymm2
  4019c1:	c4 e2 fd b8 c0       	vfmadd231pd %ymm0,%ymm0,%ymm0
  4019c6:	c4 e2 c5 b8 ff       	vfmadd231pd %ymm7,%ymm7,%ymm7
  4019cb:	c4 e2 cd b8 f6       	vfmadd231pd %ymm6,%ymm6,%ymm6
  4019d0:	c4 e2 dd b8 e4       	vfmadd231pd %ymm4,%ymm4,%ymm4
  4019d5:	c4 e2 d5 b8 ed       	vfmadd231pd %ymm5,%ymm5,%ymm5
  4019da:	c4 e2 e5 b8 db       	vfmadd231pd %ymm3,%ymm3,%ymm3
  4019df:	c4 e2 f5 b8 c9       	vfmadd231pd %ymm1,%ymm1,%ymm1
  4019e4:	c4 e2 ed b8 d2       	vfmadd231pd %ymm2,%ymm2,%ymm2
  4019e9:	c4 e2 fd b8 c0       	vfmadd231pd %ymm0,%ymm0,%ymm0
  4019ee:	c4 e2 c5 b8 ff       	vfmadd231pd %ymm7,%ymm7,%ymm7
  4019f3:	c4 e2 cd b8 f6       	vfmadd231pd %ymm6,%ymm6,%ymm6
  4019f8:	c4 e2 dd b8 e4       	vfmadd231pd %ymm4,%ymm4,%ymm4
  4019fd:	c4 e2 d5 b8 ed       	vfmadd231pd %ymm5,%ymm5,%ymm5
  401a02:	c4 e2 e5 b8 db       	vfmadd231pd %ymm3,%ymm3,%ymm3
  401a07:	c4 e2 f5 b8 c9       	vfmadd231pd %ymm1,%ymm1,%ymm1
  401a0c:	c4 e2 ed b8 d2       	vfmadd231pd %ymm2,%ymm2,%ymm2
  401a11:	c4 e2 fd b8 c0       	vfmadd231pd %ymm0,%ymm0,%ymm0
  401a16:	c4 e2 c5 b8 ff       	vfmadd231pd %ymm7,%ymm7,%ymm7
  401a1b:	c4 e2 cd b8 f6       	vfmadd231pd %ymm6,%ymm6,%ymm6
  401a20:	c4 e2 dd b8 e4       	vfmadd231pd %ymm4,%ymm4,%ymm4
  401a25:	c4 e2 d5 b8 ed       	vfmadd231pd %ymm5,%ymm5,%ymm5
  401a2a:	c4 e2 e5 b8 db       	vfmadd231pd %ymm3,%ymm3,%ymm3
  401a2f:	c4 e2 f5 b8 c9       	vfmadd231pd %ymm1,%ymm1,%ymm1
  401a34:	c4 e2 ed b8 d2       	vfmadd231pd %ymm2,%ymm2,%ymm2
  401a39:	c4 e2 fd b8 c0       	vfmadd231pd %ymm0,%ymm0,%ymm0
  401a3e:	c4 e2 c5 b8 ff       	vfmadd231pd %ymm7,%ymm7,%ymm7
  401a43:	c4 e2 cd b8 f6       	vfmadd231pd %ymm6,%ymm6,%ymm6
  401a48:	c4 e2 dd b8 e4       	vfmadd231pd %ymm4,%ymm4,%ymm4
  401a4d:	c4 e2 d5 b8 ed       	vfmadd231pd %ymm5,%ymm5,%ymm5
  401a52:	c4 e2 e5 b8 db       	vfmadd231pd %ymm3,%ymm3,%ymm3
  401a57:	c4 e2 f5 b8 c9       	vfmadd231pd %ymm1,%ymm1,%ymm1
  401a5c:	c4 e2 ed b8 d2       	vfmadd231pd %ymm2,%ymm2,%ymm2
  401a61:	c4 e2 fd b8 c0       	vfmadd231pd %ymm0,%ymm0,%ymm0
  401a66:	c4 e2 c5 b8 ff       	vfmadd231pd %ymm7,%ymm7,%ymm7
  401a6b:	c4 e2 cd b8 f6       	vfmadd231pd %ymm6,%ymm6,%ymm6
  401a70:	c4 e2 dd b8 e4       	vfmadd231pd %ymm4,%ymm4,%ymm4
  401a75:	c4 e2 d5 b8 ed       	vfmadd231pd %ymm5,%ymm5,%ymm5
  401a7a:	c4 e2 e5 b8 db       	vfmadd231pd %ymm3,%ymm3,%ymm3
  401a7f:	c4 e2 f5 b8 c9       	vfmadd231pd %ymm1,%ymm1,%ymm1
  401a84:	c4 e2 ed b8 d2       	vfmadd231pd %ymm2,%ymm2,%ymm2
  401a89:	c4 e2 fd b8 c0       	vfmadd231pd %ymm0,%ymm0,%ymm0
  401a8e:	c4 e2 c5 b8 ff       	vfmadd231pd %ymm7,%ymm7,%ymm7
  401a93:	c4 e2 cd b8 f6       	vfmadd231pd %ymm6,%ymm6,%ymm6
  401a98:	c4 e2 dd b8 e4       	vfmadd231pd %ymm4,%ymm4,%ymm4
  401a9d:	c4 e2 d5 b8 ed       	vfmadd231pd %ymm5,%ymm5,%ymm5
  401aa2:	c4 e2 e5 b8 db       	vfmadd231pd %ymm3,%ymm3,%ymm3
  401aa7:	c4 e2 f5 b8 c9       	vfmadd231pd %ymm1,%ymm1,%ymm1
  401aac:	c4 e2 ed b8 d2       	vfmadd231pd %ymm2,%ymm2,%ymm2
  401ab1:	c4 e2 fd b8 c0       	vfmadd231pd %ymm0,%ymm0,%ymm0
  401ab6:	c4 e2 c5 b8 ff       	vfmadd231pd %ymm7,%ymm7,%ymm7
  401abb:	c4 e2 cd b8 f6       	vfmadd231pd %ymm6,%ymm6,%ymm6
  401ac0:	c4 e2 dd b8 e4       	vfmadd231pd %ymm4,%ymm4,%ymm4
  401ac5:	c4 e2 d5 b8 ed       	vfmadd231pd %ymm5,%ymm5,%ymm5
  401aca:	c4 e2 e5 b8 db       	vfmadd231pd %ymm3,%ymm3,%ymm3
  401acf:	c4 e2 f5 b8 c9       	vfmadd231pd %ymm1,%ymm1,%ymm1
  401ad4:	c4 e2 ed b8 d2       	vfmadd231pd %ymm2,%ymm2,%ymm2
  401ad9:	c4 e2 fd b8 c0       	vfmadd231pd %ymm0,%ymm0,%ymm0
  401ade:	c4 e2 c5 b8 ff       	vfmadd231pd %ymm7,%ymm7,%ymm7
  401ae3:	c4 e2 cd b8 f6       	vfmadd231pd %ymm6,%ymm6,%ymm6
  401ae8:	c4 e2 dd b8 e4       	vfmadd231pd %ymm4,%ymm4,%ymm4
  401aed:	c4 e2 d5 b8 ed       	vfmadd231pd %ymm5,%ymm5,%ymm5
  401af2:	c4 e2 e5 b8 db       	vfmadd231pd %ymm3,%ymm3,%ymm3
  401af7:	c4 e2 f5 b8 c9       	vfmadd231pd %ymm1,%ymm1,%ymm1
  401afc:	c4 e2 ed b8 d2       	vfmadd231pd %ymm2,%ymm2,%ymm2
  401b01:	c4 e2 fd b8 c0       	vfmadd231pd %ymm0,%ymm0,%ymm0
  401b06:	c4 e2 c5 b8 ff       	vfmadd231pd %ymm7,%ymm7,%ymm7
  401b0b:	c4 e2 cd b8 f6       	vfmadd231pd %ymm6,%ymm6,%ymm6
  401b10:	c4 e2 dd b8 e4       	vfmadd231pd %ymm4,%ymm4,%ymm4
  401b15:	c4 e2 d5 b8 ed       	vfmadd231pd %ymm5,%ymm5,%ymm5
  401b1a:	c4 e2 e5 b8 db       	vfmadd231pd %ymm3,%ymm3,%ymm3
  401b1f:	c4 e2 f5 b8 c9       	vfmadd231pd %ymm1,%ymm1,%ymm1
  401b24:	c4 e2 ed b8 d2       	vfmadd231pd %ymm2,%ymm2,%ymm2
  401b29:	c4 e2 fd b8 c0       	vfmadd231pd %ymm0,%ymm0,%ymm0
  401b2e:	c4 e2 c5 b8 ff       	vfmadd231pd %ymm7,%ymm7,%ymm7
  401b33:	c4 e2 cd b8 f6       	vfmadd231pd %ymm6,%ymm6,%ymm6
  401b38:	c4 e2 dd b8 e4       	vfmadd231pd %ymm4,%ymm4,%ymm4
  401b3d:	c4 e2 d5 b8 ed       	vfmadd231pd %ymm5,%ymm5,%ymm5
  401b42:	c4 e2 e5 b8 db       	vfmadd231pd %ymm3,%ymm3,%ymm3
  401b47:	c4 e2 f5 b8 c9       	vfmadd231pd %ymm1,%ymm1,%ymm1
  401b4c:	c4 e2 ed b8 d2       	vfmadd231pd %ymm2,%ymm2,%ymm2
  401b51:	c4 e2 fd b8 c0       	vfmadd231pd %ymm0,%ymm0,%ymm0
  401b56:	c4 e2 c5 b8 ff       	vfmadd231pd %ymm7,%ymm7,%ymm7
  401b5b:	c4 e2 cd b8 f6       	vfmadd231pd %ymm6,%ymm6,%ymm6
  401b60:	c4 e2 dd b8 e4       	vfmadd231pd %ymm4,%ymm4,%ymm4
  401b65:	c4 e2 d5 b8 ed       	vfmadd231pd %ymm5,%ymm5,%ymm5
  401b6a:	c4 e2 e5 b8 db       	vfmadd231pd %ymm3,%ymm3,%ymm3
  401b6f:	c4 e2 f5 b8 c9       	vfmadd231pd %ymm1,%ymm1,%ymm1
  401b74:	c4 e2 ed b8 d2       	vfmadd231pd %ymm2,%ymm2,%ymm2
  401b79:	c4 e2 fd b8 c0       	vfmadd231pd %ymm0,%ymm0,%ymm0
  401b7e:	c4 e2 c5 b8 ff       	vfmadd231pd %ymm7,%ymm7,%ymm7
  401b83:	c4 e2 cd b8 f6       	vfmadd231pd %ymm6,%ymm6,%ymm6
  401b88:	c4 e2 dd b8 e4       	vfmadd231pd %ymm4,%ymm4,%ymm4
  401b8d:	c4 e2 d5 b8 ed       	vfmadd231pd %ymm5,%ymm5,%ymm5
  401b92:	c4 e2 e5 b8 db       	vfmadd231pd %ymm3,%ymm3,%ymm3
  401b97:	c4 e2 f5 b8 c9       	vfmadd231pd %ymm1,%ymm1,%ymm1
  401b9c:	c4 e2 ed b8 d2       	vfmadd231pd %ymm2,%ymm2,%ymm2
  401ba1:	c4 e2 fd b8 c0       	vfmadd231pd %ymm0,%ymm0,%ymm0
  401ba6:	c4 e2 c5 b8 ff       	vfmadd231pd %ymm7,%ymm7,%ymm7
  401bab:	c4 e2 cd b8 f6       	vfmadd231pd %ymm6,%ymm6,%ymm6
  401bb0:	c4 e2 dd b8 e4       	vfmadd231pd %ymm4,%ymm4,%ymm4
  401bb5:	c4 e2 d5 b8 ed       	vfmadd231pd %ymm5,%ymm5,%ymm5
  401bba:	c4 e2 e5 b8 db       	vfmadd231pd %ymm3,%ymm3,%ymm3
  401bbf:	c4 e2 f5 b8 c9       	vfmadd231pd %ymm1,%ymm1,%ymm1
  401bc4:	c4 e2 ed b8 d2       	vfmadd231pd %ymm2,%ymm2,%ymm2
  401bc9:	c4 e2 fd b8 c0       	vfmadd231pd %ymm0,%ymm0,%ymm0
  401bce:	c4 e2 c5 b8 ff       	vfmadd231pd %ymm7,%ymm7,%ymm7
  401bd3:	c4 e2 cd b8 f6       	vfmadd231pd %ymm6,%ymm6,%ymm6
  401bd8:	c4 e2 dd b8 e4       	vfmadd231pd %ymm4,%ymm4,%ymm4
  401bdd:	c4 e2 d5 b8 ed       	vfmadd231pd %ymm5,%ymm5,%ymm5
  401be2:	c4 e2 e5 b8 db       	vfmadd231pd %ymm3,%ymm3,%ymm3
  401be7:	c4 e2 f5 b8 c9       	vfmadd231pd %ymm1,%ymm1,%ymm1
  401bec:	c4 e2 ed b8 d2       	vfmadd231pd %ymm2,%ymm2,%ymm2
  401bf1:	c4 e2 fd b8 c0       	vfmadd231pd %ymm0,%ymm0,%ymm0
  401bf6:	c4 e2 c5 b8 ff       	vfmadd231pd %ymm7,%ymm7,%ymm7
  401bfb:	c4 e2 cd b8 f6       	vfmadd231pd %ymm6,%ymm6,%ymm6
  401c00:	c4 e2 dd b8 e4       	vfmadd231pd %ymm4,%ymm4,%ymm4
  401c05:	c4 e2 d5 b8 ed       	vfmadd231pd %ymm5,%ymm5,%ymm5
  401c0a:	c4 e2 e5 b8 db       	vfmadd231pd %ymm3,%ymm3,%ymm3
  401c0f:	c4 e2 f5 b8 c9       	vfmadd231pd %ymm1,%ymm1,%ymm1
  401c14:	c4 e2 ed b8 d2       	vfmadd231pd %ymm2,%ymm2,%ymm2
  401c19:	c4 e2 fd b8 c0       	vfmadd231pd %ymm0,%ymm0,%ymm0
  401c1e:	c4 e2 c5 b8 ff       	vfmadd231pd %ymm7,%ymm7,%ymm7
  401c23:	c4 e2 cd b8 f6       	vfmadd231pd %ymm6,%ymm6,%ymm6
  401c28:	c4 e2 dd b8 e4       	vfmadd231pd %ymm4,%ymm4,%ymm4
  401c2d:	c4 e2 d5 b8 ed       	vfmadd231pd %ymm5,%ymm5,%ymm5
  401c32:	c4 e2 e5 b8 db       	vfmadd231pd %ymm3,%ymm3,%ymm3
  401c37:	c4 e2 f5 b8 c9       	vfmadd231pd %ymm1,%ymm1,%ymm1
  401c3c:	c4 e2 ed b8 d2       	vfmadd231pd %ymm2,%ymm2,%ymm2
  401c41:	c4 e2 fd b8 c0       	vfmadd231pd %ymm0,%ymm0,%ymm0
  401c46:	c4 e2 c5 b8 ff       	vfmadd231pd %ymm7,%ymm7,%ymm7
  401c4b:	c4 e2 cd b8 f6       	vfmadd231pd %ymm6,%ymm6,%ymm6
  401c50:	c4 e2 dd b8 e4       	vfmadd231pd %ymm4,%ymm4,%ymm4
  401c55:	c4 e2 d5 b8 ed       	vfmadd231pd %ymm5,%ymm5,%ymm5
  401c5a:	c4 e2 e5 b8 db       	vfmadd231pd %ymm3,%ymm3,%ymm3
  401c5f:	c4 e2 f5 b8 c9       	vfmadd231pd %ymm1,%ymm1,%ymm1
  401c64:	c4 e2 ed b8 d2       	vfmadd231pd %ymm2,%ymm2,%ymm2
  401c69:	c4 e2 fd b8 c0       	vfmadd231pd %ymm0,%ymm0,%ymm0
  401c6e:	c4 e2 c5 b8 ff       	vfmadd231pd %ymm7,%ymm7,%ymm7
  401c73:	c4 e2 cd b8 f6       	vfmadd231pd %ymm6,%ymm6,%ymm6
  401c78:	c4 e2 dd b8 e4       	vfmadd231pd %ymm4,%ymm4,%ymm4
  401c7d:	c4 e2 d5 b8 ed       	vfmadd231pd %ymm5,%ymm5,%ymm5
  401c82:	c4 e2 e5 b8 db       	vfmadd231pd %ymm3,%ymm3,%ymm3
  401c87:	c4 e2 f5 b8 c9       	vfmadd231pd %ymm1,%ymm1,%ymm1
  401c8c:	c4 e2 ed b8 d2       	vfmadd231pd %ymm2,%ymm2,%ymm2
  401c91:	c4 e2 fd b8 c0       	vfmadd231pd %ymm0,%ymm0,%ymm0
  401c96:	c4 e2 c5 b8 ff       	vfmadd231pd %ymm7,%ymm7,%ymm7
  401c9b:	c4 e2 cd b8 f6       	vfmadd231pd %ymm6,%ymm6,%ymm6
  401ca0:	c4 e2 dd b8 e4       	vfmadd231pd %ymm4,%ymm4,%ymm4
  401ca5:	c4 e2 d5 b8 ed       	vfmadd231pd %ymm5,%ymm5,%ymm5
  401caa:	c4 e2 e5 b8 db       	vfmadd231pd %ymm3,%ymm3,%ymm3
  401caf:	c4 e2 f5 b8 c9       	vfmadd231pd %ymm1,%ymm1,%ymm1
  401cb4:	c4 e2 ed b8 d2       	vfmadd231pd %ymm2,%ymm2,%ymm2
  401cb9:	c4 e2 fd b8 c0       	vfmadd231pd %ymm0,%ymm0,%ymm0
  401cbe:	c4 e2 c5 b8 ff       	vfmadd231pd %ymm7,%ymm7,%ymm7
  401cc3:	c4 e2 cd b8 f6       	vfmadd231pd %ymm6,%ymm6,%ymm6
  401cc8:	c4 e2 dd b8 e4       	vfmadd231pd %ymm4,%ymm4,%ymm4
  401ccd:	c4 e2 d5 b8 ed       	vfmadd231pd %ymm5,%ymm5,%ymm5
  401cd2:	c4 e2 e5 b8 db       	vfmadd231pd %ymm3,%ymm3,%ymm3
  401cd7:	c4 e2 f5 b8 c9       	vfmadd231pd %ymm1,%ymm1,%ymm1
  401cdc:	c4 e2 ed b8 d2       	vfmadd231pd %ymm2,%ymm2,%ymm2
  401ce1:	c4 e2 fd b8 c0       	vfmadd231pd %ymm0,%ymm0,%ymm0
  401ce6:	c4 e2 c5 b8 ff       	vfmadd231pd %ymm7,%ymm7,%ymm7
  401ceb:	c4 e2 cd b8 f6       	vfmadd231pd %ymm6,%ymm6,%ymm6
  401cf0:	c4 e2 dd b8 e4       	vfmadd231pd %ymm4,%ymm4,%ymm4
  401cf5:	c4 e2 d5 b8 ed       	vfmadd231pd %ymm5,%ymm5,%ymm5
  401cfa:	c4 e2 e5 b8 db       	vfmadd231pd %ymm3,%ymm3,%ymm3
  401cff:	c4 e2 f5 b8 c9       	vfmadd231pd %ymm1,%ymm1,%ymm1
  401d04:	c4 e2 ed b8 d2       	vfmadd231pd %ymm2,%ymm2,%ymm2
  401d09:	c4 e2 fd b8 c0       	vfmadd231pd %ymm0,%ymm0,%ymm0
  401d0e:	c4 e2 c5 b8 ff       	vfmadd231pd %ymm7,%ymm7,%ymm7
  401d13:	c4 e2 cd b8 f6       	vfmadd231pd %ymm6,%ymm6,%ymm6
  401d18:	c4 e2 dd b8 e4       	vfmadd231pd %ymm4,%ymm4,%ymm4
  401d1d:	c4 e2 d5 b8 ed       	vfmadd231pd %ymm5,%ymm5,%ymm5
  401d22:	c4 e2 e5 b8 db       	vfmadd231pd %ymm3,%ymm3,%ymm3
  401d27:	c4 e2 f5 b8 c9       	vfmadd231pd %ymm1,%ymm1,%ymm1
  401d2c:	c4 e2 ed b8 d2       	vfmadd231pd %ymm2,%ymm2,%ymm2
  401d31:	c4 e2 fd b8 c0       	vfmadd231pd %ymm0,%ymm0,%ymm0
  401d36:	c4 e2 c5 b8 ff       	vfmadd231pd %ymm7,%ymm7,%ymm7
  401d3b:	c4 e2 cd b8 f6       	vfmadd231pd %ymm6,%ymm6,%ymm6
  401d40:	c4 e2 dd b8 e4       	vfmadd231pd %ymm4,%ymm4,%ymm4
  401d45:	c4 e2 d5 b8 ed       	vfmadd231pd %ymm5,%ymm5,%ymm5
  401d4a:	c4 e2 e5 b8 db       	vfmadd231pd %ymm3,%ymm3,%ymm3
  401d4f:	c4 e2 f5 b8 c9       	vfmadd231pd %ymm1,%ymm1,%ymm1
  401d54:	c4 e2 ed b8 d2       	vfmadd231pd %ymm2,%ymm2,%ymm2
  401d59:	c4 e2 fd b8 c0       	vfmadd231pd %ymm0,%ymm0,%ymm0
  401d5e:	c4 e2 c5 b8 ff       	vfmadd231pd %ymm7,%ymm7,%ymm7
  401d63:	c4 e2 cd b8 f6       	vfmadd231pd %ymm6,%ymm6,%ymm6
  401d68:	c4 e2 dd b8 e4       	vfmadd231pd %ymm4,%ymm4,%ymm4
  401d6d:	c4 e2 d5 b8 ed       	vfmadd231pd %ymm5,%ymm5,%ymm5
  401d72:	c4 e2 e5 b8 db       	vfmadd231pd %ymm3,%ymm3,%ymm3
  401d77:	c4 e2 f5 b8 c9       	vfmadd231pd %ymm1,%ymm1,%ymm1
  401d7c:	c4 e2 ed b8 d2       	vfmadd231pd %ymm2,%ymm2,%ymm2
  401d81:	c4 e2 fd b8 c0       	vfmadd231pd %ymm0,%ymm0,%ymm0
  401d86:	c4 e2 c5 b8 ff       	vfmadd231pd %ymm7,%ymm7,%ymm7
  401d8b:	c4 e2 cd b8 f6       	vfmadd231pd %ymm6,%ymm6,%ymm6
  401d90:	c4 e2 dd b8 e4       	vfmadd231pd %ymm4,%ymm4,%ymm4
  401d95:	c4 e2 d5 b8 ed       	vfmadd231pd %ymm5,%ymm5,%ymm5
  401d9a:	c4 e2 e5 b8 db       	vfmadd231pd %ymm3,%ymm3,%ymm3
  401d9f:	c4 e2 f5 b8 c9       	vfmadd231pd %ymm1,%ymm1,%ymm1
  401da4:	c4 e2 ed b8 d2       	vfmadd231pd %ymm2,%ymm2,%ymm2
  401da9:	c4 e2 fd b8 c0       	vfmadd231pd %ymm0,%ymm0,%ymm0
  401dae:	c4 e2 c5 b8 ff       	vfmadd231pd %ymm7,%ymm7,%ymm7
  401db3:	c4 e2 cd b8 f6       	vfmadd231pd %ymm6,%ymm6,%ymm6
  401db8:	c4 e2 dd b8 e4       	vfmadd231pd %ymm4,%ymm4,%ymm4
  401dbd:	c4 e2 d5 b8 ed       	vfmadd231pd %ymm5,%ymm5,%ymm5
  401dc2:	c4 e2 e5 b8 db       	vfmadd231pd %ymm3,%ymm3,%ymm3
  401dc7:	c4 e2 f5 b8 c9       	vfmadd231pd %ymm1,%ymm1,%ymm1
  401dcc:	c4 e2 ed b8 d2       	vfmadd231pd %ymm2,%ymm2,%ymm2
  401dd1:	c4 e2 fd b8 c0       	vfmadd231pd %ymm0,%ymm0,%ymm0
  401dd6:	c4 e2 c5 b8 ff       	vfmadd231pd %ymm7,%ymm7,%ymm7
  401ddb:	c4 e2 cd b8 f6       	vfmadd231pd %ymm6,%ymm6,%ymm6
  401de0:	c4 e2 dd b8 e4       	vfmadd231pd %ymm4,%ymm4,%ymm4
  401de5:	c4 e2 d5 b8 ed       	vfmadd231pd %ymm5,%ymm5,%ymm5
  401dea:	c4 e2 e5 b8 db       	vfmadd231pd %ymm3,%ymm3,%ymm3
  401def:	c4 e2 f5 b8 c9       	vfmadd231pd %ymm1,%ymm1,%ymm1
  401df4:	c4 e2 ed b8 d2       	vfmadd231pd %ymm2,%ymm2,%ymm2
  401df9:	c4 e2 fd b8 c0       	vfmadd231pd %ymm0,%ymm0,%ymm0
  401dfe:	c4 e2 c5 b8 ff       	vfmadd231pd %ymm7,%ymm7,%ymm7
  401e03:	c4 e2 cd b8 f6       	vfmadd231pd %ymm6,%ymm6,%ymm6
  401e08:	c4 e2 dd b8 e4       	vfmadd231pd %ymm4,%ymm4,%ymm4
  401e0d:	c4 e2 d5 b8 ed       	vfmadd231pd %ymm5,%ymm5,%ymm5
  401e12:	c4 e2 e5 b8 db       	vfmadd231pd %ymm3,%ymm3,%ymm3
  401e17:	c4 e2 f5 b8 c9       	vfmadd231pd %ymm1,%ymm1,%ymm1
  401e1c:	c4 e2 ed b8 d2       	vfmadd231pd %ymm2,%ymm2,%ymm2
  401e21:	c4 e2 fd b8 c0       	vfmadd231pd %ymm0,%ymm0,%ymm0
  401e26:	c4 e2 c5 b8 ff       	vfmadd231pd %ymm7,%ymm7,%ymm7
  401e2b:	c4 e2 cd b8 f6       	vfmadd231pd %ymm6,%ymm6,%ymm6
  401e30:	c4 e2 dd b8 e4       	vfmadd231pd %ymm4,%ymm4,%ymm4
  401e35:	c4 e2 d5 b8 ed       	vfmadd231pd %ymm5,%ymm5,%ymm5
  401e3a:	c4 e2 e5 b8 db       	vfmadd231pd %ymm3,%ymm3,%ymm3
  401e3f:	c4 e2 f5 b8 c9       	vfmadd231pd %ymm1,%ymm1,%ymm1
  401e44:	c4 e2 ed b8 d2       	vfmadd231pd %ymm2,%ymm2,%ymm2
  401e49:	c4 e2 fd b8 c0       	vfmadd231pd %ymm0,%ymm0,%ymm0
  401e4e:	c4 e2 c5 b8 ff       	vfmadd231pd %ymm7,%ymm7,%ymm7
  401e53:	c4 e2 cd b8 f6       	vfmadd231pd %ymm6,%ymm6,%ymm6
  401e58:	c4 e2 dd b8 e4       	vfmadd231pd %ymm4,%ymm4,%ymm4
  401e5d:	c4 e2 d5 b8 ed       	vfmadd231pd %ymm5,%ymm5,%ymm5
  401e62:	c4 e2 e5 b8 db       	vfmadd231pd %ymm3,%ymm3,%ymm3
  401e67:	c4 e2 f5 b8 c9       	vfmadd231pd %ymm1,%ymm1,%ymm1
  401e6c:	c4 e2 ed b8 d2       	vfmadd231pd %ymm2,%ymm2,%ymm2
  401e71:	c4 e2 fd b8 c0       	vfmadd231pd %ymm0,%ymm0,%ymm0
  401e76:	c4 e2 c5 b8 ff       	vfmadd231pd %ymm7,%ymm7,%ymm7
  401e7b:	c4 e2 cd b8 f6       	vfmadd231pd %ymm6,%ymm6,%ymm6
  401e80:	c4 e2 dd b8 e4       	vfmadd231pd %ymm4,%ymm4,%ymm4
  401e85:	c4 e2 d5 b8 ed       	vfmadd231pd %ymm5,%ymm5,%ymm5
  401e8a:	c4 e2 e5 b8 db       	vfmadd231pd %ymm3,%ymm3,%ymm3
  401e8f:	c4 e2 f5 b8 c9       	vfmadd231pd %ymm1,%ymm1,%ymm1
  401e94:	c4 e2 ed b8 d2       	vfmadd231pd %ymm2,%ymm2,%ymm2
  401e99:	c4 e2 fd b8 c0       	vfmadd231pd %ymm0,%ymm0,%ymm0
  401e9e:	c4 e2 c5 b8 ff       	vfmadd231pd %ymm7,%ymm7,%ymm7
  401ea3:	c4 e2 cd b8 f6       	vfmadd231pd %ymm6,%ymm6,%ymm6
  401ea8:	c4 e2 dd b8 e4       	vfmadd231pd %ymm4,%ymm4,%ymm4
  401ead:	c4 e2 d5 b8 ed       	vfmadd231pd %ymm5,%ymm5,%ymm5
  401eb2:	c4 e2 e5 b8 db       	vfmadd231pd %ymm3,%ymm3,%ymm3
  401eb7:	c4 e2 f5 b8 c9       	vfmadd231pd %ymm1,%ymm1,%ymm1
  401ebc:	c4 e2 ed b8 d2       	vfmadd231pd %ymm2,%ymm2,%ymm2
  401ec1:	c4 e2 fd b8 c0       	vfmadd231pd %ymm0,%ymm0,%ymm0
  401ec6:	c4 e2 c5 b8 ff       	vfmadd231pd %ymm7,%ymm7,%ymm7
  401ecb:	c4 e2 cd b8 f6       	vfmadd231pd %ymm6,%ymm6,%ymm6
  401ed0:	c4 e2 dd b8 e4       	vfmadd231pd %ymm4,%ymm4,%ymm4
  401ed5:	c4 e2 d5 b8 ed       	vfmadd231pd %ymm5,%ymm5,%ymm5
  401eda:	c4 e2 e5 b8 db       	vfmadd231pd %ymm3,%ymm3,%ymm3
  401edf:	c4 e2 f5 b8 c9       	vfmadd231pd %ymm1,%ymm1,%ymm1
  401ee4:	c4 e2 ed b8 d2       	vfmadd231pd %ymm2,%ymm2,%ymm2
  401ee9:	c4 e2 fd b8 c0       	vfmadd231pd %ymm0,%ymm0,%ymm0
  401eee:	c4 e2 c5 b8 ff       	vfmadd231pd %ymm7,%ymm7,%ymm7
  401ef3:	c4 e2 cd b8 f6       	vfmadd231pd %ymm6,%ymm6,%ymm6
  401ef8:	c4 e2 dd b8 e4       	vfmadd231pd %ymm4,%ymm4,%ymm4
  401efd:	c4 e2 d5 b8 ed       	vfmadd231pd %ymm5,%ymm5,%ymm5
  401f02:	c4 e2 e5 b8 db       	vfmadd231pd %ymm3,%ymm3,%ymm3
  401f07:	c4 e2 f5 b8 c9       	vfmadd231pd %ymm1,%ymm1,%ymm1
  401f0c:	c4 e2 ed b8 d2       	vfmadd231pd %ymm2,%ymm2,%ymm2
  401f11:	c4 e2 fd b8 c0       	vfmadd231pd %ymm0,%ymm0,%ymm0
  401f16:	c4 e2 c5 b8 ff       	vfmadd231pd %ymm7,%ymm7,%ymm7
  401f1b:	c4 e2 cd b8 f6       	vfmadd231pd %ymm6,%ymm6,%ymm6
  401f20:	c4 e2 dd b8 e4       	vfmadd231pd %ymm4,%ymm4,%ymm4
  401f25:	c4 e2 d5 b8 ed       	vfmadd231pd %ymm5,%ymm5,%ymm5
  401f2a:	c4 e2 e5 b8 db       	vfmadd231pd %ymm3,%ymm3,%ymm3
  401f2f:	c4 e2 f5 b8 c9       	vfmadd231pd %ymm1,%ymm1,%ymm1
  401f34:	c4 e2 ed b8 d2       	vfmadd231pd %ymm2,%ymm2,%ymm2
  401f39:	c4 e2 fd b8 c0       	vfmadd231pd %ymm0,%ymm0,%ymm0
  401f3e:	c4 e2 c5 b8 ff       	vfmadd231pd %ymm7,%ymm7,%ymm7
  401f43:	c4 e2 cd b8 f6       	vfmadd231pd %ymm6,%ymm6,%ymm6
  401f48:	c4 e2 dd b8 e4       	vfmadd231pd %ymm4,%ymm4,%ymm4
  401f4d:	c4 e2 d5 b8 ed       	vfmadd231pd %ymm5,%ymm5,%ymm5
  401f52:	c4 e2 e5 b8 db       	vfmadd231pd %ymm3,%ymm3,%ymm3
  401f57:	c4 e2 f5 b8 c9       	vfmadd231pd %ymm1,%ymm1,%ymm1
  401f5c:	c4 e2 ed b8 d2       	vfmadd231pd %ymm2,%ymm2,%ymm2
  401f61:	c4 e2 fd b8 c0       	vfmadd231pd %ymm0,%ymm0,%ymm0
  401f66:	c4 e2 c5 b8 ff       	vfmadd231pd %ymm7,%ymm7,%ymm7
  401f6b:	c4 e2 cd b8 f6       	vfmadd231pd %ymm6,%ymm6,%ymm6
  401f70:	c4 e2 dd b8 e4       	vfmadd231pd %ymm4,%ymm4,%ymm4
  401f75:	c4 e2 d5 b8 ed       	vfmadd231pd %ymm5,%ymm5,%ymm5
  401f7a:	c4 e2 e5 b8 db       	vfmadd231pd %ymm3,%ymm3,%ymm3
  401f7f:	c4 e2 f5 b8 c9       	vfmadd231pd %ymm1,%ymm1,%ymm1
  401f84:	c4 e2 ed b8 d2       	vfmadd231pd %ymm2,%ymm2,%ymm2
  401f89:	c4 e2 fd b8 c0       	vfmadd231pd %ymm0,%ymm0,%ymm0
  401f8e:	c4 e2 c5 b8 ff       	vfmadd231pd %ymm7,%ymm7,%ymm7
  401f93:	c4 e2 cd b8 f6       	vfmadd231pd %ymm6,%ymm6,%ymm6
  401f98:	c4 e2 dd b8 e4       	vfmadd231pd %ymm4,%ymm4,%ymm4
  401f9d:	c4 e2 d5 b8 ed       	vfmadd231pd %ymm5,%ymm5,%ymm5
  401fa2:	c4 e2 e5 b8 db       	vfmadd231pd %ymm3,%ymm3,%ymm3
  401fa7:	c4 e2 f5 b8 c9       	vfmadd231pd %ymm1,%ymm1,%ymm1
  401fac:	c4 e2 ed b8 d2       	vfmadd231pd %ymm2,%ymm2,%ymm2
  401fb1:	c4 e2 fd b8 c0       	vfmadd231pd %ymm0,%ymm0,%ymm0
  401fb6:	c4 e2 c5 b8 ff       	vfmadd231pd %ymm7,%ymm7,%ymm7
  401fbb:	c4 e2 cd b8 f6       	vfmadd231pd %ymm6,%ymm6,%ymm6
  401fc0:	c4 e2 dd b8 e4       	vfmadd231pd %ymm4,%ymm4,%ymm4
  401fc5:	c4 e2 d5 b8 ed       	vfmadd231pd %ymm5,%ymm5,%ymm5
  401fca:	c4 e2 e5 b8 db       	vfmadd231pd %ymm3,%ymm3,%ymm3
  401fcf:	c4 e2 f5 b8 c9       	vfmadd231pd %ymm1,%ymm1,%ymm1
  401fd4:	c4 e2 ed b8 d2       	vfmadd231pd %ymm2,%ymm2,%ymm2
  401fd9:	c4 e2 fd b8 c0       	vfmadd231pd %ymm0,%ymm0,%ymm0
  401fde:	c4 e2 c5 b8 ff       	vfmadd231pd %ymm7,%ymm7,%ymm7
  401fe3:	c4 e2 cd b8 f6       	vfmadd231pd %ymm6,%ymm6,%ymm6
  401fe8:	c4 e2 dd b8 e4       	vfmadd231pd %ymm4,%ymm4,%ymm4
  401fed:	c4 e2 d5 b8 ed       	vfmadd231pd %ymm5,%ymm5,%ymm5
  401ff2:	c4 e2 e5 b8 db       	vfmadd231pd %ymm3,%ymm3,%ymm3
  401ff7:	c4 e2 f5 b8 c9       	vfmadd231pd %ymm1,%ymm1,%ymm1
  401ffc:	c4 e2 ed b8 d2       	vfmadd231pd %ymm2,%ymm2,%ymm2
  402001:	c4 e2 fd b8 c0       	vfmadd231pd %ymm0,%ymm0,%ymm0
  402006:	c4 e2 c5 b8 ff       	vfmadd231pd %ymm7,%ymm7,%ymm7
  40200b:	c4 e2 cd b8 f6       	vfmadd231pd %ymm6,%ymm6,%ymm6
  402010:	c4 e2 dd b8 e4       	vfmadd231pd %ymm4,%ymm4,%ymm4
  402015:	c4 e2 d5 b8 ed       	vfmadd231pd %ymm5,%ymm5,%ymm5
  40201a:	c4 e2 e5 b8 db       	vfmadd231pd %ymm3,%ymm3,%ymm3
  40201f:	c4 e2 f5 b8 c9       	vfmadd231pd %ymm1,%ymm1,%ymm1
  402024:	c4 e2 ed b8 d2       	vfmadd231pd %ymm2,%ymm2,%ymm2
  402029:	c4 e2 fd b8 c0       	vfmadd231pd %ymm0,%ymm0,%ymm0
  40202e:	c4 e2 c5 b8 ff       	vfmadd231pd %ymm7,%ymm7,%ymm7
  402033:	c4 e2 cd b8 f6       	vfmadd231pd %ymm6,%ymm6,%ymm6
  402038:	c4 e2 dd b8 e4       	vfmadd231pd %ymm4,%ymm4,%ymm4
  40203d:	c4 e2 d5 b8 ed       	vfmadd231pd %ymm5,%ymm5,%ymm5
  402042:	c4 e2 e5 b8 db       	vfmadd231pd %ymm3,%ymm3,%ymm3
  402047:	c4 e2 f5 b8 c9       	vfmadd231pd %ymm1,%ymm1,%ymm1
  40204c:	c4 e2 ed b8 d2       	vfmadd231pd %ymm2,%ymm2,%ymm2
  402051:	c4 e2 fd b8 c0       	vfmadd231pd %ymm0,%ymm0,%ymm0
  402056:	c4 e2 c5 b8 ff       	vfmadd231pd %ymm7,%ymm7,%ymm7
  40205b:	c4 e2 cd b8 f6       	vfmadd231pd %ymm6,%ymm6,%ymm6
  402060:	c4 e2 dd b8 e4       	vfmadd231pd %ymm4,%ymm4,%ymm4
  402065:	c4 e2 d5 b8 ed       	vfmadd231pd %ymm5,%ymm5,%ymm5
  40206a:	c4 e2 e5 b8 db       	vfmadd231pd %ymm3,%ymm3,%ymm3
  40206f:	c4 e2 f5 b8 c9       	vfmadd231pd %ymm1,%ymm1,%ymm1
  402074:	c4 e2 ed b8 d2       	vfmadd231pd %ymm2,%ymm2,%ymm2
  402079:	c4 e2 fd b8 c0       	vfmadd231pd %ymm0,%ymm0,%ymm0
  40207e:	c4 e2 c5 b8 ff       	vfmadd231pd %ymm7,%ymm7,%ymm7
  402083:	c4 e2 cd b8 f6       	vfmadd231pd %ymm6,%ymm6,%ymm6
  402088:	c4 e2 dd b8 e4       	vfmadd231pd %ymm4,%ymm4,%ymm4
  40208d:	c4 e2 d5 b8 ed       	vfmadd231pd %ymm5,%ymm5,%ymm5
  402092:	c4 e2 e5 b8 db       	vfmadd231pd %ymm3,%ymm3,%ymm3
  402097:	c4 e2 f5 b8 c9       	vfmadd231pd %ymm1,%ymm1,%ymm1
  40209c:	c4 e2 ed b8 d2       	vfmadd231pd %ymm2,%ymm2,%ymm2
  4020a1:	c4 e2 fd b8 c0       	vfmadd231pd %ymm0,%ymm0,%ymm0
  4020a6:	c4 e2 c5 b8 ff       	vfmadd231pd %ymm7,%ymm7,%ymm7
  4020ab:	c4 e2 cd b8 f6       	vfmadd231pd %ymm6,%ymm6,%ymm6
  4020b0:	c4 e2 dd b8 e4       	vfmadd231pd %ymm4,%ymm4,%ymm4
  4020b5:	c4 e2 d5 b8 ed       	vfmadd231pd %ymm5,%ymm5,%ymm5
  4020ba:	c4 e2 e5 b8 db       	vfmadd231pd %ymm3,%ymm3,%ymm3
  4020bf:	c4 e2 f5 b8 c9       	vfmadd231pd %ymm1,%ymm1,%ymm1
  4020c4:	c4 e2 ed b8 d2       	vfmadd231pd %ymm2,%ymm2,%ymm2
  4020c9:	c4 e2 fd b8 c0       	vfmadd231pd %ymm0,%ymm0,%ymm0
  4020ce:	c4 e2 c5 b8 ff       	vfmadd231pd %ymm7,%ymm7,%ymm7
  4020d3:	c4 e2 cd b8 f6       	vfmadd231pd %ymm6,%ymm6,%ymm6
  4020d8:	c4 e2 dd b8 e4       	vfmadd231pd %ymm4,%ymm4,%ymm4
  4020dd:	c4 e2 d5 b8 ed       	vfmadd231pd %ymm5,%ymm5,%ymm5
  4020e2:	c4 e2 e5 b8 db       	vfmadd231pd %ymm3,%ymm3,%ymm3
  4020e7:	c4 e2 f5 b8 c9       	vfmadd231pd %ymm1,%ymm1,%ymm1
  4020ec:	c4 e2 ed b8 d2       	vfmadd231pd %ymm2,%ymm2,%ymm2
  4020f1:	c4 e2 fd b8 c0       	vfmadd231pd %ymm0,%ymm0,%ymm0
  4020f6:	c4 e2 c5 b8 ff       	vfmadd231pd %ymm7,%ymm7,%ymm7
  4020fb:	c4 e2 cd b8 f6       	vfmadd231pd %ymm6,%ymm6,%ymm6
  402100:	c4 e2 dd b8 e4       	vfmadd231pd %ymm4,%ymm4,%ymm4
  402105:	c4 e2 d5 b8 ed       	vfmadd231pd %ymm5,%ymm5,%ymm5
  40210a:	c4 e2 e5 b8 db       	vfmadd231pd %ymm3,%ymm3,%ymm3
  40210f:	c4 e2 f5 b8 c9       	vfmadd231pd %ymm1,%ymm1,%ymm1
  402114:	c4 e2 ed b8 d2       	vfmadd231pd %ymm2,%ymm2,%ymm2
  402119:	c4 e2 fd b8 c0       	vfmadd231pd %ymm0,%ymm0,%ymm0
  40211e:	c4 e2 c5 b8 ff       	vfmadd231pd %ymm7,%ymm7,%ymm7
  402123:	c4 e2 cd b8 f6       	vfmadd231pd %ymm6,%ymm6,%ymm6
  402128:	c4 e2 dd b8 e4       	vfmadd231pd %ymm4,%ymm4,%ymm4
  40212d:	c4 e2 d5 b8 ed       	vfmadd231pd %ymm5,%ymm5,%ymm5
  402132:	c4 e2 e5 b8 db       	vfmadd231pd %ymm3,%ymm3,%ymm3
  402137:	c4 e2 f5 b8 c9       	vfmadd231pd %ymm1,%ymm1,%ymm1
  40213c:	c4 e2 ed b8 d2       	vfmadd231pd %ymm2,%ymm2,%ymm2
  402141:	c4 e2 fd b8 c0       	vfmadd231pd %ymm0,%ymm0,%ymm0
  402146:	c4 e2 c5 b8 ff       	vfmadd231pd %ymm7,%ymm7,%ymm7
  40214b:	c4 e2 cd b8 f6       	vfmadd231pd %ymm6,%ymm6,%ymm6
  402150:	c4 e2 dd b8 e4       	vfmadd231pd %ymm4,%ymm4,%ymm4
  402155:	c4 e2 d5 b8 ed       	vfmadd231pd %ymm5,%ymm5,%ymm5
  40215a:	c4 e2 e5 b8 db       	vfmadd231pd %ymm3,%ymm3,%ymm3
  40215f:	c4 e2 f5 b8 c9       	vfmadd231pd %ymm1,%ymm1,%ymm1
  402164:	c4 e2 ed b8 d2       	vfmadd231pd %ymm2,%ymm2,%ymm2
  402169:	c4 e2 fd b8 c0       	vfmadd231pd %ymm0,%ymm0,%ymm0
  40216e:	c4 e2 c5 b8 ff       	vfmadd231pd %ymm7,%ymm7,%ymm7
  402173:	c4 e2 cd b8 f6       	vfmadd231pd %ymm6,%ymm6,%ymm6
  402178:	c4 e2 dd b8 e4       	vfmadd231pd %ymm4,%ymm4,%ymm4
  40217d:	c4 e2 d5 b8 ed       	vfmadd231pd %ymm5,%ymm5,%ymm5
  402182:	c4 e2 e5 b8 db       	vfmadd231pd %ymm3,%ymm3,%ymm3
  402187:	c4 e2 f5 b8 c9       	vfmadd231pd %ymm1,%ymm1,%ymm1
  40218c:	c4 e2 ed b8 d2       	vfmadd231pd %ymm2,%ymm2,%ymm2
  402191:	c4 e2 fd b8 c0       	vfmadd231pd %ymm0,%ymm0,%ymm0
  402196:	c4 e2 c5 b8 ff       	vfmadd231pd %ymm7,%ymm7,%ymm7
  40219b:	c4 e2 cd b8 f6       	vfmadd231pd %ymm6,%ymm6,%ymm6
  4021a0:	c4 e2 dd b8 e4       	vfmadd231pd %ymm4,%ymm4,%ymm4
  4021a5:	c4 e2 d5 b8 ed       	vfmadd231pd %ymm5,%ymm5,%ymm5
  4021aa:	c4 e2 e5 b8 db       	vfmadd231pd %ymm3,%ymm3,%ymm3
  4021af:	c4 e2 f5 b8 c9       	vfmadd231pd %ymm1,%ymm1,%ymm1
  4021b4:	c4 e2 ed b8 d2       	vfmadd231pd %ymm2,%ymm2,%ymm2
  4021b9:	c4 e2 fd b8 c0       	vfmadd231pd %ymm0,%ymm0,%ymm0
  4021be:	c4 e2 c5 b8 ff       	vfmadd231pd %ymm7,%ymm7,%ymm7
  4021c3:	c4 e2 cd b8 f6       	vfmadd231pd %ymm6,%ymm6,%ymm6
  4021c8:	c4 e2 dd b8 e4       	vfmadd231pd %ymm4,%ymm4,%ymm4
  4021cd:	c4 e2 d5 b8 ed       	vfmadd231pd %ymm5,%ymm5,%ymm5
  4021d2:	c4 e2 e5 b8 db       	vfmadd231pd %ymm3,%ymm3,%ymm3
  4021d7:	c4 e2 f5 b8 c9       	vfmadd231pd %ymm1,%ymm1,%ymm1
  4021dc:	c4 e2 ed b8 d2       	vfmadd231pd %ymm2,%ymm2,%ymm2
  4021e1:	c4 e2 fd b8 c0       	vfmadd231pd %ymm0,%ymm0,%ymm0
  4021e6:	c4 e2 c5 b8 ff       	vfmadd231pd %ymm7,%ymm7,%ymm7
  4021eb:	c4 e2 cd b8 f6       	vfmadd231pd %ymm6,%ymm6,%ymm6
  4021f0:	c4 e2 dd b8 e4       	vfmadd231pd %ymm4,%ymm4,%ymm4
  4021f5:	c4 e2 d5 b8 ed       	vfmadd231pd %ymm5,%ymm5,%ymm5
  4021fa:	c4 e2 e5 b8 db       	vfmadd231pd %ymm3,%ymm3,%ymm3
  4021ff:	c4 e2 f5 b8 c9       	vfmadd231pd %ymm1,%ymm1,%ymm1
  402204:	c4 e2 ed b8 d2       	vfmadd231pd %ymm2,%ymm2,%ymm2
  402209:	c4 e2 fd b8 c0       	vfmadd231pd %ymm0,%ymm0,%ymm0
  40220e:	c4 e2 c5 b8 ff       	vfmadd231pd %ymm7,%ymm7,%ymm7
  402213:	c4 e2 cd b8 f6       	vfmadd231pd %ymm6,%ymm6,%ymm6
  402218:	c4 e2 dd b8 e4       	vfmadd231pd %ymm4,%ymm4,%ymm4
  40221d:	c4 e2 d5 b8 ed       	vfmadd231pd %ymm5,%ymm5,%ymm5
  402222:	c4 e2 e5 b8 db       	vfmadd231pd %ymm3,%ymm3,%ymm3
  402227:	c4 e2 f5 b8 c9       	vfmadd231pd %ymm1,%ymm1,%ymm1
  40222c:	c4 e2 ed b8 d2       	vfmadd231pd %ymm2,%ymm2,%ymm2
  402231:	c4 e2 fd b8 c0       	vfmadd231pd %ymm0,%ymm0,%ymm0
  402236:	c4 e2 c5 b8 ff       	vfmadd231pd %ymm7,%ymm7,%ymm7
  40223b:	c4 e2 cd b8 f6       	vfmadd231pd %ymm6,%ymm6,%ymm6
  402240:	c4 e2 dd b8 e4       	vfmadd231pd %ymm4,%ymm4,%ymm4
  402245:	c4 e2 d5 b8 ed       	vfmadd231pd %ymm5,%ymm5,%ymm5
  40224a:	c4 e2 e5 b8 db       	vfmadd231pd %ymm3,%ymm3,%ymm3
  40224f:	c4 e2 f5 b8 c9       	vfmadd231pd %ymm1,%ymm1,%ymm1
  402254:	c4 e2 ed b8 d2       	vfmadd231pd %ymm2,%ymm2,%ymm2
  402259:	c4 e2 fd b8 c0       	vfmadd231pd %ymm0,%ymm0,%ymm0
  40225e:	c4 e2 c5 b8 ff       	vfmadd231pd %ymm7,%ymm7,%ymm7
  402263:	c4 e2 cd b8 f6       	vfmadd231pd %ymm6,%ymm6,%ymm6
  402268:	c4 e2 dd b8 e4       	vfmadd231pd %ymm4,%ymm4,%ymm4
  40226d:	c4 e2 d5 b8 ed       	vfmadd231pd %ymm5,%ymm5,%ymm5
  402272:	c4 e2 e5 b8 db       	vfmadd231pd %ymm3,%ymm3,%ymm3
  402277:	c4 e2 f5 b8 c9       	vfmadd231pd %ymm1,%ymm1,%ymm1
  40227c:	c4 e2 ed b8 d2       	vfmadd231pd %ymm2,%ymm2,%ymm2
  402281:	c4 e2 fd b8 c0       	vfmadd231pd %ymm0,%ymm0,%ymm0
  402286:	c4 e2 c5 b8 ff       	vfmadd231pd %ymm7,%ymm7,%ymm7
  40228b:	c4 e2 cd b8 f6       	vfmadd231pd %ymm6,%ymm6,%ymm6
  402290:	c4 e2 dd b8 e4       	vfmadd231pd %ymm4,%ymm4,%ymm4
  402295:	c4 e2 d5 b8 ed       	vfmadd231pd %ymm5,%ymm5,%ymm5
  40229a:	c4 e2 e5 b8 db       	vfmadd231pd %ymm3,%ymm3,%ymm3
  40229f:	c4 e2 f5 b8 c9       	vfmadd231pd %ymm1,%ymm1,%ymm1
  4022a4:	c4 e2 ed b8 d2       	vfmadd231pd %ymm2,%ymm2,%ymm2
  4022a9:	c4 e2 fd b8 c0       	vfmadd231pd %ymm0,%ymm0,%ymm0
  4022ae:	c4 e2 c5 b8 ff       	vfmadd231pd %ymm7,%ymm7,%ymm7
  4022b3:	c4 e2 cd b8 f6       	vfmadd231pd %ymm6,%ymm6,%ymm6
  4022b8:	c4 e2 dd b8 e4       	vfmadd231pd %ymm4,%ymm4,%ymm4
  4022bd:	c4 e2 d5 b8 ed       	vfmadd231pd %ymm5,%ymm5,%ymm5
  4022c2:	c4 e2 e5 b8 db       	vfmadd231pd %ymm3,%ymm3,%ymm3
  4022c7:	c4 e2 f5 b8 c9       	vfmadd231pd %ymm1,%ymm1,%ymm1
  4022cc:	c4 e2 ed b8 d2       	vfmadd231pd %ymm2,%ymm2,%ymm2
  4022d1:	c4 e2 fd b8 c0       	vfmadd231pd %ymm0,%ymm0,%ymm0
  4022d6:	c4 e2 c5 b8 ff       	vfmadd231pd %ymm7,%ymm7,%ymm7
  4022db:	c4 e2 cd b8 f6       	vfmadd231pd %ymm6,%ymm6,%ymm6
  4022e0:	c4 e2 dd b8 e4       	vfmadd231pd %ymm4,%ymm4,%ymm4
  4022e5:	c4 e2 d5 b8 ed       	vfmadd231pd %ymm5,%ymm5,%ymm5
  4022ea:	c4 e2 e5 b8 db       	vfmadd231pd %ymm3,%ymm3,%ymm3
  4022ef:	c4 e2 f5 b8 c9       	vfmadd231pd %ymm1,%ymm1,%ymm1
  4022f4:	c4 e2 ed b8 d2       	vfmadd231pd %ymm2,%ymm2,%ymm2
  4022f9:	c4 e2 fd b8 c0       	vfmadd231pd %ymm0,%ymm0,%ymm0
  4022fe:	c4 e2 c5 b8 ff       	vfmadd231pd %ymm7,%ymm7,%ymm7
  402303:	c4 e2 cd b8 f6       	vfmadd231pd %ymm6,%ymm6,%ymm6
  402308:	c4 e2 dd b8 e4       	vfmadd231pd %ymm4,%ymm4,%ymm4
  40230d:	c4 e2 d5 b8 ed       	vfmadd231pd %ymm5,%ymm5,%ymm5
  402312:	c4 e2 e5 b8 db       	vfmadd231pd %ymm3,%ymm3,%ymm3
  402317:	c4 e2 f5 b8 c9       	vfmadd231pd %ymm1,%ymm1,%ymm1
  40231c:	c4 e2 ed b8 d2       	vfmadd231pd %ymm2,%ymm2,%ymm2
  402321:	c4 e2 fd b8 c0       	vfmadd231pd %ymm0,%ymm0,%ymm0
  402326:	c4 e2 c5 b8 ff       	vfmadd231pd %ymm7,%ymm7,%ymm7
  40232b:	c4 e2 cd b8 f6       	vfmadd231pd %ymm6,%ymm6,%ymm6
  402330:	c4 e2 dd b8 e4       	vfmadd231pd %ymm4,%ymm4,%ymm4
  402335:	c4 e2 d5 b8 ed       	vfmadd231pd %ymm5,%ymm5,%ymm5
  40233a:	c4 e2 e5 b8 db       	vfmadd231pd %ymm3,%ymm3,%ymm3
  40233f:	c4 e2 f5 b8 c9       	vfmadd231pd %ymm1,%ymm1,%ymm1
  402344:	c4 e2 ed b8 d2       	vfmadd231pd %ymm2,%ymm2,%ymm2
  402349:	c4 e2 fd b8 c0       	vfmadd231pd %ymm0,%ymm0,%ymm0
  40234e:	c4 e2 c5 b8 ff       	vfmadd231pd %ymm7,%ymm7,%ymm7
  402353:	c4 e2 cd b8 f6       	vfmadd231pd %ymm6,%ymm6,%ymm6
  402358:	c4 e2 dd b8 e4       	vfmadd231pd %ymm4,%ymm4,%ymm4
  40235d:	c4 e2 d5 b8 ed       	vfmadd231pd %ymm5,%ymm5,%ymm5
  402362:	c4 e2 e5 b8 db       	vfmadd231pd %ymm3,%ymm3,%ymm3
  402367:	c4 e2 f5 b8 c9       	vfmadd231pd %ymm1,%ymm1,%ymm1
  40236c:	c4 e2 ed b8 d2       	vfmadd231pd %ymm2,%ymm2,%ymm2
  402371:	c4 e2 fd b8 c0       	vfmadd231pd %ymm0,%ymm0,%ymm0
  402376:	c4 e2 c5 b8 ff       	vfmadd231pd %ymm7,%ymm7,%ymm7
  40237b:	c4 e2 cd b8 f6       	vfmadd231pd %ymm6,%ymm6,%ymm6
  402380:	c4 e2 dd b8 e4       	vfmadd231pd %ymm4,%ymm4,%ymm4
  402385:	c4 e2 d5 b8 ed       	vfmadd231pd %ymm5,%ymm5,%ymm5
  40238a:	c4 e2 e5 b8 db       	vfmadd231pd %ymm3,%ymm3,%ymm3
  40238f:	c4 e2 f5 b8 c9       	vfmadd231pd %ymm1,%ymm1,%ymm1
  402394:	c4 e2 ed b8 d2       	vfmadd231pd %ymm2,%ymm2,%ymm2
  402399:	c4 e2 fd b8 c0       	vfmadd231pd %ymm0,%ymm0,%ymm0
  40239e:	c4 e2 c5 b8 ff       	vfmadd231pd %ymm7,%ymm7,%ymm7
  4023a3:	c4 e2 cd b8 f6       	vfmadd231pd %ymm6,%ymm6,%ymm6
  4023a8:	c4 e2 dd b8 e4       	vfmadd231pd %ymm4,%ymm4,%ymm4
  4023ad:	c4 e2 d5 b8 ed       	vfmadd231pd %ymm5,%ymm5,%ymm5
  4023b2:	c4 e2 e5 b8 db       	vfmadd231pd %ymm3,%ymm3,%ymm3
  4023b7:	c4 e2 f5 b8 c9       	vfmadd231pd %ymm1,%ymm1,%ymm1
  4023bc:	c4 e2 ed b8 d2       	vfmadd231pd %ymm2,%ymm2,%ymm2
  4023c1:	c4 e2 fd b8 c0       	vfmadd231pd %ymm0,%ymm0,%ymm0
  4023c6:	c4 e2 c5 b8 ff       	vfmadd231pd %ymm7,%ymm7,%ymm7
  4023cb:	c4 e2 cd b8 f6       	vfmadd231pd %ymm6,%ymm6,%ymm6
  4023d0:	c4 e2 dd b8 e4       	vfmadd231pd %ymm4,%ymm4,%ymm4
  4023d5:	c4 e2 d5 b8 ed       	vfmadd231pd %ymm5,%ymm5,%ymm5
  4023da:	c4 e2 e5 b8 db       	vfmadd231pd %ymm3,%ymm3,%ymm3
  4023df:	c4 e2 f5 b8 c9       	vfmadd231pd %ymm1,%ymm1,%ymm1
  4023e4:	c4 e2 ed b8 d2       	vfmadd231pd %ymm2,%ymm2,%ymm2
  4023e9:	c4 e2 fd b8 c0       	vfmadd231pd %ymm0,%ymm0,%ymm0
  4023ee:	c4 e2 c5 b8 ff       	vfmadd231pd %ymm7,%ymm7,%ymm7
  4023f3:	c4 e2 cd b8 f6       	vfmadd231pd %ymm6,%ymm6,%ymm6
  4023f8:	c4 e2 dd b8 e4       	vfmadd231pd %ymm4,%ymm4,%ymm4
  4023fd:	c4 e2 d5 b8 ed       	vfmadd231pd %ymm5,%ymm5,%ymm5
  402402:	c4 e2 e5 b8 db       	vfmadd231pd %ymm3,%ymm3,%ymm3
  402407:	c4 e2 f5 b8 c9       	vfmadd231pd %ymm1,%ymm1,%ymm1
  40240c:	c4 e2 ed b8 d2       	vfmadd231pd %ymm2,%ymm2,%ymm2
  402411:	c4 e2 fd b8 c0       	vfmadd231pd %ymm0,%ymm0,%ymm0
  402416:	c4 e2 c5 b8 ff       	vfmadd231pd %ymm7,%ymm7,%ymm7
  40241b:	c4 e2 cd b8 f6       	vfmadd231pd %ymm6,%ymm6,%ymm6
  402420:	c4 e2 dd b8 e4       	vfmadd231pd %ymm4,%ymm4,%ymm4
  402425:	c4 e2 d5 b8 ed       	vfmadd231pd %ymm5,%ymm5,%ymm5
  40242a:	c4 e2 e5 b8 db       	vfmadd231pd %ymm3,%ymm3,%ymm3
  40242f:	c4 e2 f5 b8 c9       	vfmadd231pd %ymm1,%ymm1,%ymm1
  402434:	c4 e2 ed b8 d2       	vfmadd231pd %ymm2,%ymm2,%ymm2
  402439:	c4 e2 fd b8 c0       	vfmadd231pd %ymm0,%ymm0,%ymm0
  40243e:	c4 e2 c5 b8 ff       	vfmadd231pd %ymm7,%ymm7,%ymm7
  402443:	c4 e2 cd b8 f6       	vfmadd231pd %ymm6,%ymm6,%ymm6
  402448:	c4 e2 dd b8 e4       	vfmadd231pd %ymm4,%ymm4,%ymm4
  40244d:	c4 e2 d5 b8 ed       	vfmadd231pd %ymm5,%ymm5,%ymm5
  402452:	c4 e2 e5 b8 db       	vfmadd231pd %ymm3,%ymm3,%ymm3
  402457:	c4 e2 f5 b8 c9       	vfmadd231pd %ymm1,%ymm1,%ymm1
  40245c:	c4 e2 ed b8 d2       	vfmadd231pd %ymm2,%ymm2,%ymm2
  402461:	c4 e2 fd b8 c0       	vfmadd231pd %ymm0,%ymm0,%ymm0
  402466:	c4 e2 c5 b8 ff       	vfmadd231pd %ymm7,%ymm7,%ymm7
  40246b:	c4 e2 cd b8 f6       	vfmadd231pd %ymm6,%ymm6,%ymm6
  402470:	c4 e2 dd b8 e4       	vfmadd231pd %ymm4,%ymm4,%ymm4
  402475:	c4 e2 d5 b8 ed       	vfmadd231pd %ymm5,%ymm5,%ymm5
  40247a:	c4 e2 e5 b8 db       	vfmadd231pd %ymm3,%ymm3,%ymm3
  40247f:	c4 e2 f5 b8 c9       	vfmadd231pd %ymm1,%ymm1,%ymm1
  402484:	c4 e2 ed b8 d2       	vfmadd231pd %ymm2,%ymm2,%ymm2
  402489:	c4 e2 fd b8 c0       	vfmadd231pd %ymm0,%ymm0,%ymm0
  40248e:	c4 e2 c5 b8 ff       	vfmadd231pd %ymm7,%ymm7,%ymm7
  402493:	c4 e2 cd b8 f6       	vfmadd231pd %ymm6,%ymm6,%ymm6
  402498:	c4 e2 dd b8 e4       	vfmadd231pd %ymm4,%ymm4,%ymm4
  40249d:	c4 e2 d5 b8 ed       	vfmadd231pd %ymm5,%ymm5,%ymm5
  4024a2:	c4 e2 e5 b8 db       	vfmadd231pd %ymm3,%ymm3,%ymm3
  4024a7:	c4 e2 f5 b8 c9       	vfmadd231pd %ymm1,%ymm1,%ymm1
  4024ac:	c4 e2 ed b8 d2       	vfmadd231pd %ymm2,%ymm2,%ymm2
  4024b1:	c4 e2 fd b8 c0       	vfmadd231pd %ymm0,%ymm0,%ymm0
  4024b6:	c4 e2 c5 b8 ff       	vfmadd231pd %ymm7,%ymm7,%ymm7
  4024bb:	c4 e2 cd b8 f6       	vfmadd231pd %ymm6,%ymm6,%ymm6
  4024c0:	c4 e2 dd b8 e4       	vfmadd231pd %ymm4,%ymm4,%ymm4
  4024c5:	c4 e2 d5 b8 ed       	vfmadd231pd %ymm5,%ymm5,%ymm5
  4024ca:	c4 e2 e5 b8 db       	vfmadd231pd %ymm3,%ymm3,%ymm3
  4024cf:	c4 e2 f5 b8 c9       	vfmadd231pd %ymm1,%ymm1,%ymm1
  4024d4:	c4 e2 ed b8 d2       	vfmadd231pd %ymm2,%ymm2,%ymm2
  4024d9:	c4 e2 fd b8 c0       	vfmadd231pd %ymm0,%ymm0,%ymm0
  4024de:	c4 e2 c5 b8 ff       	vfmadd231pd %ymm7,%ymm7,%ymm7
  4024e3:	c4 e2 cd b8 f6       	vfmadd231pd %ymm6,%ymm6,%ymm6
  4024e8:	c4 e2 dd b8 e4       	vfmadd231pd %ymm4,%ymm4,%ymm4
  4024ed:	c4 e2 d5 b8 ed       	vfmadd231pd %ymm5,%ymm5,%ymm5
  4024f2:	c4 e2 e5 b8 db       	vfmadd231pd %ymm3,%ymm3,%ymm3
  4024f7:	c4 e2 f5 b8 c9       	vfmadd231pd %ymm1,%ymm1,%ymm1
  4024fc:	c4 e2 ed b8 d2       	vfmadd231pd %ymm2,%ymm2,%ymm2
  402501:	c4 e2 fd b8 c0       	vfmadd231pd %ymm0,%ymm0,%ymm0
  402506:	c4 e2 c5 b8 ff       	vfmadd231pd %ymm7,%ymm7,%ymm7
  40250b:	c4 e2 cd b8 f6       	vfmadd231pd %ymm6,%ymm6,%ymm6
  402510:	c4 e2 dd b8 e4       	vfmadd231pd %ymm4,%ymm4,%ymm4
  402515:	c4 e2 d5 b8 ed       	vfmadd231pd %ymm5,%ymm5,%ymm5
  40251a:	c4 e2 e5 b8 db       	vfmadd231pd %ymm3,%ymm3,%ymm3
  40251f:	c4 e2 f5 b8 c9       	vfmadd231pd %ymm1,%ymm1,%ymm1
  402524:	c4 e2 ed b8 d2       	vfmadd231pd %ymm2,%ymm2,%ymm2
  402529:	c4 e2 fd b8 c0       	vfmadd231pd %ymm0,%ymm0,%ymm0
  40252e:	c4 e2 c5 b8 ff       	vfmadd231pd %ymm7,%ymm7,%ymm7
  402533:	c4 e2 cd b8 f6       	vfmadd231pd %ymm6,%ymm6,%ymm6
  402538:	c4 e2 dd b8 e4       	vfmadd231pd %ymm4,%ymm4,%ymm4
  40253d:	c4 e2 d5 b8 ed       	vfmadd231pd %ymm5,%ymm5,%ymm5
  402542:	c4 e2 e5 b8 db       	vfmadd231pd %ymm3,%ymm3,%ymm3
  402547:	c4 e2 f5 b8 c9       	vfmadd231pd %ymm1,%ymm1,%ymm1
  40254c:	c4 e2 ed b8 d2       	vfmadd231pd %ymm2,%ymm2,%ymm2
  402551:	c4 e2 fd b8 c0       	vfmadd231pd %ymm0,%ymm0,%ymm0
  402556:	c4 e2 c5 b8 ff       	vfmadd231pd %ymm7,%ymm7,%ymm7
  40255b:	c4 e2 cd b8 f6       	vfmadd231pd %ymm6,%ymm6,%ymm6
  402560:	c4 e2 dd b8 e4       	vfmadd231pd %ymm4,%ymm4,%ymm4
  402565:	c4 e2 d5 b8 ed       	vfmadd231pd %ymm5,%ymm5,%ymm5
  40256a:	c4 e2 e5 b8 db       	vfmadd231pd %ymm3,%ymm3,%ymm3
  40256f:	c4 e2 f5 b8 c9       	vfmadd231pd %ymm1,%ymm1,%ymm1
  402574:	c4 e2 ed b8 d2       	vfmadd231pd %ymm2,%ymm2,%ymm2
  402579:	c4 e2 fd b8 c0       	vfmadd231pd %ymm0,%ymm0,%ymm0
  40257e:	c4 e2 c5 b8 ff       	vfmadd231pd %ymm7,%ymm7,%ymm7
  402583:	c4 e2 cd b8 f6       	vfmadd231pd %ymm6,%ymm6,%ymm6
  402588:	c4 e2 dd b8 e4       	vfmadd231pd %ymm4,%ymm4,%ymm4
  40258d:	c4 e2 d5 b8 ed       	vfmadd231pd %ymm5,%ymm5,%ymm5
  402592:	c4 e2 e5 b8 db       	vfmadd231pd %ymm3,%ymm3,%ymm3
  402597:	c4 e2 f5 b8 c9       	vfmadd231pd %ymm1,%ymm1,%ymm1
  40259c:	c4 e2 ed b8 d2       	vfmadd231pd %ymm2,%ymm2,%ymm2
  4025a1:	c4 e2 fd b8 c0       	vfmadd231pd %ymm0,%ymm0,%ymm0
  4025a6:	c4 e2 c5 b8 ff       	vfmadd231pd %ymm7,%ymm7,%ymm7
  4025ab:	c4 e2 cd b8 f6       	vfmadd231pd %ymm6,%ymm6,%ymm6
  4025b0:	c4 e2 dd b8 e4       	vfmadd231pd %ymm4,%ymm4,%ymm4
  4025b5:	c4 e2 d5 b8 ed       	vfmadd231pd %ymm5,%ymm5,%ymm5
  4025ba:	c4 e2 e5 b8 db       	vfmadd231pd %ymm3,%ymm3,%ymm3
  4025bf:	c4 e2 f5 b8 c9       	vfmadd231pd %ymm1,%ymm1,%ymm1
  4025c4:	c4 e2 ed b8 d2       	vfmadd231pd %ymm2,%ymm2,%ymm2
  4025c9:	c4 e2 fd b8 c0       	vfmadd231pd %ymm0,%ymm0,%ymm0
  4025ce:	c4 e2 c5 b8 ff       	vfmadd231pd %ymm7,%ymm7,%ymm7
  4025d3:	c4 e2 cd b8 f6       	vfmadd231pd %ymm6,%ymm6,%ymm6
  4025d8:	c4 e2 dd b8 e4       	vfmadd231pd %ymm4,%ymm4,%ymm4
  4025dd:	c4 e2 d5 b8 ed       	vfmadd231pd %ymm5,%ymm5,%ymm5
  4025e2:	c4 e2 e5 b8 db       	vfmadd231pd %ymm3,%ymm3,%ymm3
  4025e7:	c4 e2 f5 b8 c9       	vfmadd231pd %ymm1,%ymm1,%ymm1
  4025ec:	c4 e2 ed b8 d2       	vfmadd231pd %ymm2,%ymm2,%ymm2
  4025f1:	c4 e2 fd b8 c0       	vfmadd231pd %ymm0,%ymm0,%ymm0
  4025f6:	c4 e2 c5 b8 ff       	vfmadd231pd %ymm7,%ymm7,%ymm7
  4025fb:	c4 e2 cd b8 f6       	vfmadd231pd %ymm6,%ymm6,%ymm6
  402600:	c4 e2 dd b8 e4       	vfmadd231pd %ymm4,%ymm4,%ymm4
  402605:	c4 e2 d5 b8 ed       	vfmadd231pd %ymm5,%ymm5,%ymm5
  40260a:	c4 e2 e5 b8 db       	vfmadd231pd %ymm3,%ymm3,%ymm3
  40260f:	c4 e2 f5 b8 c9       	vfmadd231pd %ymm1,%ymm1,%ymm1
  402614:	c4 e2 ed b8 d2       	vfmadd231pd %ymm2,%ymm2,%ymm2
  402619:	c4 e2 fd b8 c0       	vfmadd231pd %ymm0,%ymm0,%ymm0
  40261e:	c4 e2 c5 b8 ff       	vfmadd231pd %ymm7,%ymm7,%ymm7
  402623:	c4 e2 cd b8 f6       	vfmadd231pd %ymm6,%ymm6,%ymm6
  402628:	c4 e2 dd b8 e4       	vfmadd231pd %ymm4,%ymm4,%ymm4
  40262d:	c4 e2 d5 b8 ed       	vfmadd231pd %ymm5,%ymm5,%ymm5
  402632:	c4 e2 e5 b8 db       	vfmadd231pd %ymm3,%ymm3,%ymm3
  402637:	c4 e2 f5 b8 c9       	vfmadd231pd %ymm1,%ymm1,%ymm1
  40263c:	c4 e2 ed b8 d2       	vfmadd231pd %ymm2,%ymm2,%ymm2
  402641:	c4 e2 fd b8 c0       	vfmadd231pd %ymm0,%ymm0,%ymm0
  402646:	c4 e2 c5 b8 ff       	vfmadd231pd %ymm7,%ymm7,%ymm7
  40264b:	c4 e2 cd b8 f6       	vfmadd231pd %ymm6,%ymm6,%ymm6
  402650:	c4 e2 dd b8 e4       	vfmadd231pd %ymm4,%ymm4,%ymm4
  402655:	c4 e2 d5 b8 ed       	vfmadd231pd %ymm5,%ymm5,%ymm5
  40265a:	c4 e2 e5 b8 db       	vfmadd231pd %ymm3,%ymm3,%ymm3
  40265f:	c4 e2 f5 b8 c9       	vfmadd231pd %ymm1,%ymm1,%ymm1
  402664:	c4 e2 ed b8 d2       	vfmadd231pd %ymm2,%ymm2,%ymm2
  402669:	c4 e2 fd b8 c0       	vfmadd231pd %ymm0,%ymm0,%ymm0
  40266e:	c4 e2 c5 b8 ff       	vfmadd231pd %ymm7,%ymm7,%ymm7
  402673:	c4 e2 cd b8 f6       	vfmadd231pd %ymm6,%ymm6,%ymm6
  402678:	c4 e2 dd b8 e4       	vfmadd231pd %ymm4,%ymm4,%ymm4
  40267d:	c4 e2 d5 b8 ed       	vfmadd231pd %ymm5,%ymm5,%ymm5
  402682:	c4 e2 e5 b8 db       	vfmadd231pd %ymm3,%ymm3,%ymm3
  402687:	c4 e2 f5 b8 c9       	vfmadd231pd %ymm1,%ymm1,%ymm1
  40268c:	c4 e2 ed b8 d2       	vfmadd231pd %ymm2,%ymm2,%ymm2
  402691:	c4 e2 fd b8 c0       	vfmadd231pd %ymm0,%ymm0,%ymm0
  402696:	c4 e2 c5 b8 ff       	vfmadd231pd %ymm7,%ymm7,%ymm7
  40269b:	c4 e2 cd b8 f6       	vfmadd231pd %ymm6,%ymm6,%ymm6
  4026a0:	c4 e2 dd b8 e4       	vfmadd231pd %ymm4,%ymm4,%ymm4
  4026a5:	c4 e2 d5 b8 ed       	vfmadd231pd %ymm5,%ymm5,%ymm5
  4026aa:	c4 e2 e5 b8 db       	vfmadd231pd %ymm3,%ymm3,%ymm3
  4026af:	c4 e2 f5 b8 c9       	vfmadd231pd %ymm1,%ymm1,%ymm1
  4026b4:	c4 e2 ed b8 d2       	vfmadd231pd %ymm2,%ymm2,%ymm2
  4026b9:	c4 e2 fd b8 c0       	vfmadd231pd %ymm0,%ymm0,%ymm0
  4026be:	c4 e2 c5 b8 ff       	vfmadd231pd %ymm7,%ymm7,%ymm7
  4026c3:	c4 e2 cd b8 f6       	vfmadd231pd %ymm6,%ymm6,%ymm6
  4026c8:	c4 e2 dd b8 e4       	vfmadd231pd %ymm4,%ymm4,%ymm4
  4026cd:	c4 e2 d5 b8 ed       	vfmadd231pd %ymm5,%ymm5,%ymm5
  4026d2:	c4 e2 e5 b8 db       	vfmadd231pd %ymm3,%ymm3,%ymm3
  4026d7:	c4 e2 f5 b8 c9       	vfmadd231pd %ymm1,%ymm1,%ymm1
  4026dc:	c4 e2 ed b8 d2       	vfmadd231pd %ymm2,%ymm2,%ymm2
  4026e1:	c4 e2 fd b8 c0       	vfmadd231pd %ymm0,%ymm0,%ymm0
  4026e6:	c4 e2 c5 b8 ff       	vfmadd231pd %ymm7,%ymm7,%ymm7
  4026eb:	c4 e2 cd b8 f6       	vfmadd231pd %ymm6,%ymm6,%ymm6
  4026f0:	c4 e2 dd b8 e4       	vfmadd231pd %ymm4,%ymm4,%ymm4
  4026f5:	c4 e2 d5 b8 ed       	vfmadd231pd %ymm5,%ymm5,%ymm5
  4026fa:	c4 e2 e5 b8 db       	vfmadd231pd %ymm3,%ymm3,%ymm3
  4026ff:	c4 e2 f5 b8 c9       	vfmadd231pd %ymm1,%ymm1,%ymm1
  402704:	c4 e2 ed b8 d2       	vfmadd231pd %ymm2,%ymm2,%ymm2
  402709:	c4 e2 fd b8 c0       	vfmadd231pd %ymm0,%ymm0,%ymm0
  40270e:	c4 e2 c5 b8 ff       	vfmadd231pd %ymm7,%ymm7,%ymm7
  402713:	c4 e2 cd b8 f6       	vfmadd231pd %ymm6,%ymm6,%ymm6
  402718:	c4 e2 dd b8 e4       	vfmadd231pd %ymm4,%ymm4,%ymm4
  40271d:	c4 e2 d5 b8 ed       	vfmadd231pd %ymm5,%ymm5,%ymm5
  402722:	c4 e2 e5 b8 db       	vfmadd231pd %ymm3,%ymm3,%ymm3
  402727:	c4 e2 f5 b8 c9       	vfmadd231pd %ymm1,%ymm1,%ymm1
  40272c:	c4 e2 ed b8 d2       	vfmadd231pd %ymm2,%ymm2,%ymm2
  402731:	c4 e2 fd b8 c0       	vfmadd231pd %ymm0,%ymm0,%ymm0
  402736:	c4 e2 c5 b8 ff       	vfmadd231pd %ymm7,%ymm7,%ymm7
  40273b:	c4 e2 cd b8 f6       	vfmadd231pd %ymm6,%ymm6,%ymm6
  402740:	c4 e2 dd b8 e4       	vfmadd231pd %ymm4,%ymm4,%ymm4
  402745:	c4 e2 d5 b8 ed       	vfmadd231pd %ymm5,%ymm5,%ymm5
  40274a:	c4 e2 e5 b8 db       	vfmadd231pd %ymm3,%ymm3,%ymm3
  40274f:	c4 e2 f5 b8 c9       	vfmadd231pd %ymm1,%ymm1,%ymm1
  402754:	c4 e2 ed b8 d2       	vfmadd231pd %ymm2,%ymm2,%ymm2
  402759:	c4 e2 fd b8 c0       	vfmadd231pd %ymm0,%ymm0,%ymm0
  40275e:	c4 e2 c5 b8 ff       	vfmadd231pd %ymm7,%ymm7,%ymm7
  402763:	c4 e2 cd b8 f6       	vfmadd231pd %ymm6,%ymm6,%ymm6
  402768:	c4 e2 dd b8 e4       	vfmadd231pd %ymm4,%ymm4,%ymm4
  40276d:	c4 e2 d5 b8 ed       	vfmadd231pd %ymm5,%ymm5,%ymm5
  402772:	c4 e2 e5 b8 db       	vfmadd231pd %ymm3,%ymm3,%ymm3
  402777:	c4 e2 f5 b8 c9       	vfmadd231pd %ymm1,%ymm1,%ymm1
  40277c:	c4 e2 ed b8 d2       	vfmadd231pd %ymm2,%ymm2,%ymm2
  402781:	c4 e2 fd b8 c0       	vfmadd231pd %ymm0,%ymm0,%ymm0
  402786:	c4 e2 c5 b8 ff       	vfmadd231pd %ymm7,%ymm7,%ymm7
  40278b:	c4 e2 cd b8 f6       	vfmadd231pd %ymm6,%ymm6,%ymm6
  402790:	c4 e2 dd b8 e4       	vfmadd231pd %ymm4,%ymm4,%ymm4
  402795:	c4 e2 d5 b8 ed       	vfmadd231pd %ymm5,%ymm5,%ymm5
  40279a:	c4 e2 e5 b8 db       	vfmadd231pd %ymm3,%ymm3,%ymm3
  40279f:	c4 e2 f5 b8 c9       	vfmadd231pd %ymm1,%ymm1,%ymm1
  4027a4:	c4 e2 ed b8 d2       	vfmadd231pd %ymm2,%ymm2,%ymm2
  4027a9:	c4 e2 fd b8 c0       	vfmadd231pd %ymm0,%ymm0,%ymm0
  4027ae:	c4 e2 c5 b8 ff       	vfmadd231pd %ymm7,%ymm7,%ymm7
  4027b3:	c4 e2 cd b8 f6       	vfmadd231pd %ymm6,%ymm6,%ymm6
  4027b8:	c4 e2 dd b8 e4       	vfmadd231pd %ymm4,%ymm4,%ymm4
  4027bd:	c4 e2 d5 b8 ed       	vfmadd231pd %ymm5,%ymm5,%ymm5
  4027c2:	c4 e2 e5 b8 db       	vfmadd231pd %ymm3,%ymm3,%ymm3
  4027c7:	c4 e2 f5 b8 c9       	vfmadd231pd %ymm1,%ymm1,%ymm1
  4027cc:	c4 e2 ed b8 d2       	vfmadd231pd %ymm2,%ymm2,%ymm2
  4027d1:	c4 e2 fd b8 c0       	vfmadd231pd %ymm0,%ymm0,%ymm0
  4027d6:	c4 e2 c5 b8 ff       	vfmadd231pd %ymm7,%ymm7,%ymm7
  4027db:	c4 e2 cd b8 f6       	vfmadd231pd %ymm6,%ymm6,%ymm6
  4027e0:	c4 e2 dd b8 e4       	vfmadd231pd %ymm4,%ymm4,%ymm4
  4027e5:	c4 e2 d5 b8 ed       	vfmadd231pd %ymm5,%ymm5,%ymm5
  4027ea:	c4 e2 e5 b8 db       	vfmadd231pd %ymm3,%ymm3,%ymm3
  4027ef:	c4 e2 f5 b8 c9       	vfmadd231pd %ymm1,%ymm1,%ymm1
  4027f4:	c4 e2 ed b8 d2       	vfmadd231pd %ymm2,%ymm2,%ymm2
  4027f9:	c4 e2 fd b8 c0       	vfmadd231pd %ymm0,%ymm0,%ymm0
  4027fe:	c4 e2 c5 b8 ff       	vfmadd231pd %ymm7,%ymm7,%ymm7
  402803:	c4 e2 cd b8 f6       	vfmadd231pd %ymm6,%ymm6,%ymm6
  402808:	c4 e2 dd b8 e4       	vfmadd231pd %ymm4,%ymm4,%ymm4
  40280d:	c4 e2 d5 b8 ed       	vfmadd231pd %ymm5,%ymm5,%ymm5
  402812:	c4 e2 e5 b8 db       	vfmadd231pd %ymm3,%ymm3,%ymm3
  402817:	c4 e2 f5 b8 c9       	vfmadd231pd %ymm1,%ymm1,%ymm1
  40281c:	c4 e2 ed b8 d2       	vfmadd231pd %ymm2,%ymm2,%ymm2
  402821:	c4 e2 fd b8 c0       	vfmadd231pd %ymm0,%ymm0,%ymm0
  402826:	c4 e2 c5 b8 ff       	vfmadd231pd %ymm7,%ymm7,%ymm7
  40282b:	c4 e2 cd b8 f6       	vfmadd231pd %ymm6,%ymm6,%ymm6
  402830:	c4 e2 dd b8 e4       	vfmadd231pd %ymm4,%ymm4,%ymm4
  402835:	c4 e2 d5 b8 ed       	vfmadd231pd %ymm5,%ymm5,%ymm5
  40283a:	c4 e2 e5 b8 db       	vfmadd231pd %ymm3,%ymm3,%ymm3
  40283f:	c4 e2 f5 b8 c9       	vfmadd231pd %ymm1,%ymm1,%ymm1
  402844:	c4 e2 ed b8 d2       	vfmadd231pd %ymm2,%ymm2,%ymm2
  402849:	c4 e2 fd b8 c0       	vfmadd231pd %ymm0,%ymm0,%ymm0
  40284e:	c4 e2 c5 b8 ff       	vfmadd231pd %ymm7,%ymm7,%ymm7
  402853:	c4 e2 cd b8 f6       	vfmadd231pd %ymm6,%ymm6,%ymm6
  402858:	c4 e2 dd b8 e4       	vfmadd231pd %ymm4,%ymm4,%ymm4
  40285d:	c4 e2 d5 b8 ed       	vfmadd231pd %ymm5,%ymm5,%ymm5
  402862:	c4 e2 e5 b8 db       	vfmadd231pd %ymm3,%ymm3,%ymm3
  402867:	c4 e2 f5 b8 c9       	vfmadd231pd %ymm1,%ymm1,%ymm1
  40286c:	c4 e2 ed b8 d2       	vfmadd231pd %ymm2,%ymm2,%ymm2
  402871:	c4 e2 fd b8 c0       	vfmadd231pd %ymm0,%ymm0,%ymm0
  402876:	c4 e2 c5 b8 ff       	vfmadd231pd %ymm7,%ymm7,%ymm7
  40287b:	c4 e2 cd b8 f6       	vfmadd231pd %ymm6,%ymm6,%ymm6
  402880:	c4 e2 dd b8 e4       	vfmadd231pd %ymm4,%ymm4,%ymm4
  402885:	c4 e2 d5 b8 ed       	vfmadd231pd %ymm5,%ymm5,%ymm5
  40288a:	c4 e2 e5 b8 db       	vfmadd231pd %ymm3,%ymm3,%ymm3
  40288f:	c4 e2 f5 b8 c9       	vfmadd231pd %ymm1,%ymm1,%ymm1
  402894:	c4 e2 ed b8 d2       	vfmadd231pd %ymm2,%ymm2,%ymm2
  402899:	c4 e2 fd b8 c0       	vfmadd231pd %ymm0,%ymm0,%ymm0
  40289e:	c4 e2 c5 b8 ff       	vfmadd231pd %ymm7,%ymm7,%ymm7
  4028a3:	c4 e2 cd b8 f6       	vfmadd231pd %ymm6,%ymm6,%ymm6
  4028a8:	c4 e2 dd b8 e4       	vfmadd231pd %ymm4,%ymm4,%ymm4
  4028ad:	c4 e2 d5 b8 ed       	vfmadd231pd %ymm5,%ymm5,%ymm5
  4028b2:	c4 e2 e5 b8 db       	vfmadd231pd %ymm3,%ymm3,%ymm3
  4028b7:	c4 e2 f5 b8 c9       	vfmadd231pd %ymm1,%ymm1,%ymm1
  4028bc:	c4 e2 ed b8 d2       	vfmadd231pd %ymm2,%ymm2,%ymm2
  4028c1:	c4 e2 fd b8 c0       	vfmadd231pd %ymm0,%ymm0,%ymm0
  4028c6:	c4 e2 c5 b8 ff       	vfmadd231pd %ymm7,%ymm7,%ymm7
  4028cb:	c4 e2 cd b8 f6       	vfmadd231pd %ymm6,%ymm6,%ymm6
  4028d0:	c4 e2 dd b8 e4       	vfmadd231pd %ymm4,%ymm4,%ymm4
  4028d5:	c4 e2 d5 b8 ed       	vfmadd231pd %ymm5,%ymm5,%ymm5
  4028da:	c4 e2 e5 b8 db       	vfmadd231pd %ymm3,%ymm3,%ymm3
  4028df:	c4 e2 f5 b8 c9       	vfmadd231pd %ymm1,%ymm1,%ymm1
  4028e4:	c4 e2 ed b8 d2       	vfmadd231pd %ymm2,%ymm2,%ymm2
  4028e9:	c4 e2 fd b8 c0       	vfmadd231pd %ymm0,%ymm0,%ymm0
  4028ee:	c4 e2 c5 b8 ff       	vfmadd231pd %ymm7,%ymm7,%ymm7
  4028f3:	c4 e2 cd b8 f6       	vfmadd231pd %ymm6,%ymm6,%ymm6
  4028f8:	c4 e2 dd b8 e4       	vfmadd231pd %ymm4,%ymm4,%ymm4
  4028fd:	c4 e2 d5 b8 ed       	vfmadd231pd %ymm5,%ymm5,%ymm5
  402902:	c4 e2 e5 b8 db       	vfmadd231pd %ymm3,%ymm3,%ymm3
  402907:	c4 e2 f5 b8 c9       	vfmadd231pd %ymm1,%ymm1,%ymm1
  40290c:	c4 e2 ed b8 d2       	vfmadd231pd %ymm2,%ymm2,%ymm2
  402911:	c4 e2 fd b8 c0       	vfmadd231pd %ymm0,%ymm0,%ymm0
  402916:	c4 e2 c5 b8 ff       	vfmadd231pd %ymm7,%ymm7,%ymm7
  40291b:	c4 e2 cd b8 f6       	vfmadd231pd %ymm6,%ymm6,%ymm6
  402920:	c4 e2 dd b8 e4       	vfmadd231pd %ymm4,%ymm4,%ymm4
  402925:	c4 e2 d5 b8 ed       	vfmadd231pd %ymm5,%ymm5,%ymm5
  40292a:	c4 e2 e5 b8 db       	vfmadd231pd %ymm3,%ymm3,%ymm3
  40292f:	c4 e2 f5 b8 c9       	vfmadd231pd %ymm1,%ymm1,%ymm1
  402934:	c4 e2 ed b8 d2       	vfmadd231pd %ymm2,%ymm2,%ymm2
  402939:	c4 e2 fd b8 c0       	vfmadd231pd %ymm0,%ymm0,%ymm0
  40293e:	c4 e2 c5 b8 ff       	vfmadd231pd %ymm7,%ymm7,%ymm7
  402943:	c4 e2 cd b8 f6       	vfmadd231pd %ymm6,%ymm6,%ymm6
  402948:	c4 e2 dd b8 e4       	vfmadd231pd %ymm4,%ymm4,%ymm4
  40294d:	c4 e2 d5 b8 ed       	vfmadd231pd %ymm5,%ymm5,%ymm5
  402952:	c4 e2 e5 b8 db       	vfmadd231pd %ymm3,%ymm3,%ymm3
  402957:	c4 e2 f5 b8 c9       	vfmadd231pd %ymm1,%ymm1,%ymm1
  40295c:	c4 e2 ed b8 d2       	vfmadd231pd %ymm2,%ymm2,%ymm2
  402961:	c4 e2 fd b8 c0       	vfmadd231pd %ymm0,%ymm0,%ymm0
  402966:	c4 e2 c5 b8 ff       	vfmadd231pd %ymm7,%ymm7,%ymm7
  40296b:	c4 e2 cd b8 f6       	vfmadd231pd %ymm6,%ymm6,%ymm6
  402970:	c4 e2 dd b8 e4       	vfmadd231pd %ymm4,%ymm4,%ymm4
  402975:	c4 e2 d5 b8 ed       	vfmadd231pd %ymm5,%ymm5,%ymm5
  40297a:	c4 e2 e5 b8 db       	vfmadd231pd %ymm3,%ymm3,%ymm3
  40297f:	c4 e2 f5 b8 c9       	vfmadd231pd %ymm1,%ymm1,%ymm1
  402984:	c4 e2 ed b8 d2       	vfmadd231pd %ymm2,%ymm2,%ymm2
  402989:	c4 e2 fd b8 c0       	vfmadd231pd %ymm0,%ymm0,%ymm0
  40298e:	c4 e2 c5 b8 ff       	vfmadd231pd %ymm7,%ymm7,%ymm7
  402993:	c4 e2 cd b8 f6       	vfmadd231pd %ymm6,%ymm6,%ymm6
  402998:	c4 e2 dd b8 e4       	vfmadd231pd %ymm4,%ymm4,%ymm4
  40299d:	c4 e2 d5 b8 ed       	vfmadd231pd %ymm5,%ymm5,%ymm5
  4029a2:	c4 e2 e5 b8 db       	vfmadd231pd %ymm3,%ymm3,%ymm3
  4029a7:	c4 e2 f5 b8 c9       	vfmadd231pd %ymm1,%ymm1,%ymm1
  4029ac:	c4 e2 ed b8 d2       	vfmadd231pd %ymm2,%ymm2,%ymm2
  4029b1:	c4 e2 fd b8 c0       	vfmadd231pd %ymm0,%ymm0,%ymm0
  4029b6:	c4 e2 c5 b8 ff       	vfmadd231pd %ymm7,%ymm7,%ymm7
  4029bb:	c4 e2 cd b8 f6       	vfmadd231pd %ymm6,%ymm6,%ymm6
  4029c0:	c4 e2 dd b8 e4       	vfmadd231pd %ymm4,%ymm4,%ymm4
  4029c5:	c4 e2 d5 b8 ed       	vfmadd231pd %ymm5,%ymm5,%ymm5
  4029ca:	c4 e2 e5 b8 db       	vfmadd231pd %ymm3,%ymm3,%ymm3
  4029cf:	c4 e2 f5 b8 c9       	vfmadd231pd %ymm1,%ymm1,%ymm1
  4029d4:	c4 e2 ed b8 d2       	vfmadd231pd %ymm2,%ymm2,%ymm2
  4029d9:	c4 e2 fd b8 c0       	vfmadd231pd %ymm0,%ymm0,%ymm0
  4029de:	c4 e2 c5 b8 ff       	vfmadd231pd %ymm7,%ymm7,%ymm7
  4029e3:	c4 e2 cd b8 f6       	vfmadd231pd %ymm6,%ymm6,%ymm6
  4029e8:	c4 e2 dd b8 e4       	vfmadd231pd %ymm4,%ymm4,%ymm4
  4029ed:	c4 e2 d5 b8 ed       	vfmadd231pd %ymm5,%ymm5,%ymm5
  4029f2:	c4 e2 e5 b8 db       	vfmadd231pd %ymm3,%ymm3,%ymm3
  4029f7:	c4 e2 f5 b8 c9       	vfmadd231pd %ymm1,%ymm1,%ymm1
  4029fc:	c4 e2 ed b8 d2       	vfmadd231pd %ymm2,%ymm2,%ymm2
  402a01:	c4 e2 fd b8 c0       	vfmadd231pd %ymm0,%ymm0,%ymm0
  402a06:	c4 e2 c5 b8 ff       	vfmadd231pd %ymm7,%ymm7,%ymm7
  402a0b:	c4 e2 cd b8 f6       	vfmadd231pd %ymm6,%ymm6,%ymm6
  402a10:	c4 e2 dd b8 e4       	vfmadd231pd %ymm4,%ymm4,%ymm4
  402a15:	c4 e2 d5 b8 ed       	vfmadd231pd %ymm5,%ymm5,%ymm5
  402a1a:	c4 e2 e5 b8 db       	vfmadd231pd %ymm3,%ymm3,%ymm3
  402a1f:	c4 e2 f5 b8 c9       	vfmadd231pd %ymm1,%ymm1,%ymm1
  402a24:	c4 e2 ed b8 d2       	vfmadd231pd %ymm2,%ymm2,%ymm2
  402a29:	c4 e2 fd b8 c0       	vfmadd231pd %ymm0,%ymm0,%ymm0
  402a2e:	c4 e2 c5 b8 ff       	vfmadd231pd %ymm7,%ymm7,%ymm7
  402a33:	c4 e2 cd b8 f6       	vfmadd231pd %ymm6,%ymm6,%ymm6
  402a38:	c4 e2 dd b8 e4       	vfmadd231pd %ymm4,%ymm4,%ymm4
  402a3d:	c4 e2 d5 b8 ed       	vfmadd231pd %ymm5,%ymm5,%ymm5
  402a42:	c4 e2 e5 b8 db       	vfmadd231pd %ymm3,%ymm3,%ymm3
  402a47:	c4 e2 f5 b8 c9       	vfmadd231pd %ymm1,%ymm1,%ymm1
  402a4c:	c4 e2 ed b8 d2       	vfmadd231pd %ymm2,%ymm2,%ymm2
  402a51:	c4 e2 fd b8 c0       	vfmadd231pd %ymm0,%ymm0,%ymm0
  402a56:	c4 e2 c5 b8 ff       	vfmadd231pd %ymm7,%ymm7,%ymm7
  402a5b:	c4 e2 cd b8 f6       	vfmadd231pd %ymm6,%ymm6,%ymm6
  402a60:	c4 e2 dd b8 e4       	vfmadd231pd %ymm4,%ymm4,%ymm4
  402a65:	c4 e2 d5 b8 ed       	vfmadd231pd %ymm5,%ymm5,%ymm5
  402a6a:	c4 e2 e5 b8 db       	vfmadd231pd %ymm3,%ymm3,%ymm3
  402a6f:	c4 e2 f5 b8 c9       	vfmadd231pd %ymm1,%ymm1,%ymm1
  402a74:	c4 e2 ed b8 d2       	vfmadd231pd %ymm2,%ymm2,%ymm2
  402a79:	c4 e2 fd b8 c0       	vfmadd231pd %ymm0,%ymm0,%ymm0
  402a7e:	c4 e2 c5 b8 ff       	vfmadd231pd %ymm7,%ymm7,%ymm7
  402a83:	c4 e2 cd b8 f6       	vfmadd231pd %ymm6,%ymm6,%ymm6
  402a88:	c4 e2 dd b8 e4       	vfmadd231pd %ymm4,%ymm4,%ymm4
  402a8d:	c4 e2 d5 b8 ed       	vfmadd231pd %ymm5,%ymm5,%ymm5
  402a92:	c4 e2 e5 b8 db       	vfmadd231pd %ymm3,%ymm3,%ymm3
  402a97:	c4 e2 f5 b8 c9       	vfmadd231pd %ymm1,%ymm1,%ymm1
  402a9c:	c4 e2 ed b8 d2       	vfmadd231pd %ymm2,%ymm2,%ymm2
  402aa1:	c4 e2 fd b8 c0       	vfmadd231pd %ymm0,%ymm0,%ymm0
  402aa6:	c4 e2 c5 b8 ff       	vfmadd231pd %ymm7,%ymm7,%ymm7
  402aab:	c4 e2 cd b8 f6       	vfmadd231pd %ymm6,%ymm6,%ymm6
  402ab0:	c4 e2 dd b8 e4       	vfmadd231pd %ymm4,%ymm4,%ymm4
  402ab5:	c4 e2 d5 b8 ed       	vfmadd231pd %ymm5,%ymm5,%ymm5
  402aba:	c4 e2 e5 b8 db       	vfmadd231pd %ymm3,%ymm3,%ymm3
  402abf:	c4 e2 f5 b8 c9       	vfmadd231pd %ymm1,%ymm1,%ymm1
  402ac4:	c4 e2 ed b8 d2       	vfmadd231pd %ymm2,%ymm2,%ymm2
  402ac9:	c4 e2 fd b8 c0       	vfmadd231pd %ymm0,%ymm0,%ymm0
  402ace:	c4 e2 c5 b8 ff       	vfmadd231pd %ymm7,%ymm7,%ymm7
  402ad3:	c4 e2 cd b8 f6       	vfmadd231pd %ymm6,%ymm6,%ymm6
  402ad8:	c4 e2 dd b8 e4       	vfmadd231pd %ymm4,%ymm4,%ymm4
  402add:	c4 e2 d5 b8 ed       	vfmadd231pd %ymm5,%ymm5,%ymm5
  402ae2:	c4 e2 e5 b8 db       	vfmadd231pd %ymm3,%ymm3,%ymm3
  402ae7:	c4 e2 f5 b8 c9       	vfmadd231pd %ymm1,%ymm1,%ymm1
  402aec:	c4 e2 ed b8 d2       	vfmadd231pd %ymm2,%ymm2,%ymm2
  402af1:	c4 e2 fd b8 c0       	vfmadd231pd %ymm0,%ymm0,%ymm0
  402af6:	c4 e2 c5 b8 ff       	vfmadd231pd %ymm7,%ymm7,%ymm7
  402afb:	c4 e2 cd b8 f6       	vfmadd231pd %ymm6,%ymm6,%ymm6
  402b00:	c4 e2 dd b8 e4       	vfmadd231pd %ymm4,%ymm4,%ymm4
  402b05:	c4 e2 d5 b8 ed       	vfmadd231pd %ymm5,%ymm5,%ymm5
  402b0a:	c4 e2 e5 b8 db       	vfmadd231pd %ymm3,%ymm3,%ymm3
  402b0f:	c4 e2 f5 b8 c9       	vfmadd231pd %ymm1,%ymm1,%ymm1
  402b14:	c4 e2 ed b8 d2       	vfmadd231pd %ymm2,%ymm2,%ymm2
  402b19:	c4 e2 fd b8 c0       	vfmadd231pd %ymm0,%ymm0,%ymm0
  402b1e:	c4 e2 c5 b8 ff       	vfmadd231pd %ymm7,%ymm7,%ymm7
  402b23:	c4 e2 cd b8 f6       	vfmadd231pd %ymm6,%ymm6,%ymm6
  402b28:	c4 e2 dd b8 e4       	vfmadd231pd %ymm4,%ymm4,%ymm4
  402b2d:	c4 e2 d5 b8 ed       	vfmadd231pd %ymm5,%ymm5,%ymm5
  402b32:	c4 e2 e5 b8 db       	vfmadd231pd %ymm3,%ymm3,%ymm3
  402b37:	c4 e2 f5 b8 c9       	vfmadd231pd %ymm1,%ymm1,%ymm1
  402b3c:	c4 e2 ed b8 d2       	vfmadd231pd %ymm2,%ymm2,%ymm2
  402b41:	c4 e2 fd b8 c0       	vfmadd231pd %ymm0,%ymm0,%ymm0
  402b46:	c4 e2 c5 b8 ff       	vfmadd231pd %ymm7,%ymm7,%ymm7
  402b4b:	c4 e2 cd b8 f6       	vfmadd231pd %ymm6,%ymm6,%ymm6
  402b50:	c4 e2 dd b8 e4       	vfmadd231pd %ymm4,%ymm4,%ymm4
  402b55:	c4 e2 d5 b8 ed       	vfmadd231pd %ymm5,%ymm5,%ymm5
  402b5a:	c4 e2 e5 b8 db       	vfmadd231pd %ymm3,%ymm3,%ymm3
  402b5f:	c4 e2 f5 b8 c9       	vfmadd231pd %ymm1,%ymm1,%ymm1
  402b64:	c4 e2 ed b8 d2       	vfmadd231pd %ymm2,%ymm2,%ymm2
  402b69:	c4 e2 fd b8 c0       	vfmadd231pd %ymm0,%ymm0,%ymm0
  402b6e:	c4 e2 c5 b8 ff       	vfmadd231pd %ymm7,%ymm7,%ymm7
  402b73:	c4 e2 cd b8 f6       	vfmadd231pd %ymm6,%ymm6,%ymm6
  402b78:	c4 e2 dd b8 e4       	vfmadd231pd %ymm4,%ymm4,%ymm4
  402b7d:	c4 e2 d5 b8 ed       	vfmadd231pd %ymm5,%ymm5,%ymm5
  402b82:	c4 e2 e5 b8 db       	vfmadd231pd %ymm3,%ymm3,%ymm3
  402b87:	c4 e2 f5 b8 c9       	vfmadd231pd %ymm1,%ymm1,%ymm1
  402b8c:	c4 e2 ed b8 d2       	vfmadd231pd %ymm2,%ymm2,%ymm2
  402b91:	c4 e2 fd b8 c0       	vfmadd231pd %ymm0,%ymm0,%ymm0
  402b96:	c4 e2 c5 b8 ff       	vfmadd231pd %ymm7,%ymm7,%ymm7
  402b9b:	c4 e2 cd b8 f6       	vfmadd231pd %ymm6,%ymm6,%ymm6
  402ba0:	c4 e2 dd b8 e4       	vfmadd231pd %ymm4,%ymm4,%ymm4
  402ba5:	c4 e2 d5 b8 ed       	vfmadd231pd %ymm5,%ymm5,%ymm5
  402baa:	c4 e2 e5 b8 db       	vfmadd231pd %ymm3,%ymm3,%ymm3
  402baf:	c4 e2 f5 b8 c9       	vfmadd231pd %ymm1,%ymm1,%ymm1
  402bb4:	c4 e2 ed b8 d2       	vfmadd231pd %ymm2,%ymm2,%ymm2
  402bb9:	c4 e2 fd b8 c0       	vfmadd231pd %ymm0,%ymm0,%ymm0
  402bbe:	c4 e2 c5 b8 ff       	vfmadd231pd %ymm7,%ymm7,%ymm7
  402bc3:	c4 e2 cd b8 f6       	vfmadd231pd %ymm6,%ymm6,%ymm6
  402bc8:	c4 e2 dd b8 e4       	vfmadd231pd %ymm4,%ymm4,%ymm4
  402bcd:	c4 e2 d5 b8 ed       	vfmadd231pd %ymm5,%ymm5,%ymm5
  402bd2:	c4 e2 e5 b8 db       	vfmadd231pd %ymm3,%ymm3,%ymm3
  402bd7:	c4 e2 f5 b8 c9       	vfmadd231pd %ymm1,%ymm1,%ymm1
  402bdc:	c4 e2 ed b8 d2       	vfmadd231pd %ymm2,%ymm2,%ymm2
  402be1:	c4 e2 fd b8 c0       	vfmadd231pd %ymm0,%ymm0,%ymm0
  402be6:	c4 e2 c5 b8 ff       	vfmadd231pd %ymm7,%ymm7,%ymm7
  402beb:	c4 e2 cd b8 f6       	vfmadd231pd %ymm6,%ymm6,%ymm6
  402bf0:	c4 e2 dd b8 e4       	vfmadd231pd %ymm4,%ymm4,%ymm4
  402bf5:	c4 e2 d5 b8 ed       	vfmadd231pd %ymm5,%ymm5,%ymm5
  402bfa:	c4 e2 e5 b8 db       	vfmadd231pd %ymm3,%ymm3,%ymm3
  402bff:	c4 e2 f5 b8 c9       	vfmadd231pd %ymm1,%ymm1,%ymm1
  402c04:	c4 e2 ed b8 d2       	vfmadd231pd %ymm2,%ymm2,%ymm2
  402c09:	c4 e2 fd b8 c0       	vfmadd231pd %ymm0,%ymm0,%ymm0
  402c0e:	c4 e2 c5 b8 ff       	vfmadd231pd %ymm7,%ymm7,%ymm7
  402c13:	c4 e2 cd b8 f6       	vfmadd231pd %ymm6,%ymm6,%ymm6
  402c18:	c4 e2 dd b8 e4       	vfmadd231pd %ymm4,%ymm4,%ymm4
  402c1d:	c4 e2 d5 b8 ed       	vfmadd231pd %ymm5,%ymm5,%ymm5
  402c22:	c4 e2 e5 b8 db       	vfmadd231pd %ymm3,%ymm3,%ymm3
  402c27:	c4 e2 f5 b8 c9       	vfmadd231pd %ymm1,%ymm1,%ymm1
  402c2c:	c4 e2 ed b8 d2       	vfmadd231pd %ymm2,%ymm2,%ymm2
  402c31:	c4 e2 fd b8 c0       	vfmadd231pd %ymm0,%ymm0,%ymm0
  402c36:	c4 e2 c5 b8 ff       	vfmadd231pd %ymm7,%ymm7,%ymm7
  402c3b:	c4 e2 cd b8 f6       	vfmadd231pd %ymm6,%ymm6,%ymm6
  402c40:	c4 e2 dd b8 e4       	vfmadd231pd %ymm4,%ymm4,%ymm4
  402c45:	c4 e2 d5 b8 ed       	vfmadd231pd %ymm5,%ymm5,%ymm5
  402c4a:	c4 e2 e5 b8 db       	vfmadd231pd %ymm3,%ymm3,%ymm3
  402c4f:	c4 e2 f5 b8 c9       	vfmadd231pd %ymm1,%ymm1,%ymm1
  402c54:	c4 e2 ed b8 d2       	vfmadd231pd %ymm2,%ymm2,%ymm2
  402c59:	c4 e2 fd b8 c0       	vfmadd231pd %ymm0,%ymm0,%ymm0
  402c5e:	c4 e2 c5 b8 ff       	vfmadd231pd %ymm7,%ymm7,%ymm7
  402c63:	c4 e2 cd b8 f6       	vfmadd231pd %ymm6,%ymm6,%ymm6
  402c68:	c4 e2 dd b8 e4       	vfmadd231pd %ymm4,%ymm4,%ymm4
  402c6d:	c4 e2 d5 b8 ed       	vfmadd231pd %ymm5,%ymm5,%ymm5
  402c72:	c4 e2 e5 b8 db       	vfmadd231pd %ymm3,%ymm3,%ymm3
  402c77:	c4 e2 f5 b8 c9       	vfmadd231pd %ymm1,%ymm1,%ymm1
  402c7c:	c4 e2 ed b8 d2       	vfmadd231pd %ymm2,%ymm2,%ymm2
  402c81:	c4 e2 fd b8 c0       	vfmadd231pd %ymm0,%ymm0,%ymm0
  402c86:	c4 e2 c5 b8 ff       	vfmadd231pd %ymm7,%ymm7,%ymm7
  402c8b:	c4 e2 cd b8 f6       	vfmadd231pd %ymm6,%ymm6,%ymm6
  402c90:	c4 e2 dd b8 e4       	vfmadd231pd %ymm4,%ymm4,%ymm4
  402c95:	c4 e2 d5 b8 ed       	vfmadd231pd %ymm5,%ymm5,%ymm5
  402c9a:	c4 e2 e5 b8 db       	vfmadd231pd %ymm3,%ymm3,%ymm3
  402c9f:	c4 e2 f5 b8 c9       	vfmadd231pd %ymm1,%ymm1,%ymm1
  402ca4:	c4 e2 ed b8 d2       	vfmadd231pd %ymm2,%ymm2,%ymm2
  402ca9:	c4 e2 fd b8 c0       	vfmadd231pd %ymm0,%ymm0,%ymm0
  402cae:	c4 e2 c5 b8 ff       	vfmadd231pd %ymm7,%ymm7,%ymm7
  402cb3:	c4 e2 cd b8 f6       	vfmadd231pd %ymm6,%ymm6,%ymm6
  402cb8:	c4 e2 dd b8 e4       	vfmadd231pd %ymm4,%ymm4,%ymm4
  402cbd:	c4 e2 d5 b8 ed       	vfmadd231pd %ymm5,%ymm5,%ymm5
  402cc2:	c4 e2 e5 b8 db       	vfmadd231pd %ymm3,%ymm3,%ymm3
  402cc7:	c4 e2 f5 b8 c9       	vfmadd231pd %ymm1,%ymm1,%ymm1
  402ccc:	c4 e2 ed b8 d2       	vfmadd231pd %ymm2,%ymm2,%ymm2
  402cd1:	c4 e2 fd b8 c0       	vfmadd231pd %ymm0,%ymm0,%ymm0
  402cd6:	c4 e2 c5 b8 ff       	vfmadd231pd %ymm7,%ymm7,%ymm7
  402cdb:	c4 e2 cd b8 f6       	vfmadd231pd %ymm6,%ymm6,%ymm6
  402ce0:	c4 e2 dd b8 e4       	vfmadd231pd %ymm4,%ymm4,%ymm4
  402ce5:	c4 e2 d5 b8 ed       	vfmadd231pd %ymm5,%ymm5,%ymm5
  402cea:	c4 e2 e5 b8 db       	vfmadd231pd %ymm3,%ymm3,%ymm3
  402cef:	c4 e2 f5 b8 c9       	vfmadd231pd %ymm1,%ymm1,%ymm1
  402cf4:	c4 e2 ed b8 d2       	vfmadd231pd %ymm2,%ymm2,%ymm2
  402cf9:	c4 e2 fd b8 c0       	vfmadd231pd %ymm0,%ymm0,%ymm0
  402cfe:	c4 e2 c5 b8 ff       	vfmadd231pd %ymm7,%ymm7,%ymm7
  402d03:	c4 e2 cd b8 f6       	vfmadd231pd %ymm6,%ymm6,%ymm6
  402d08:	c4 e2 dd b8 e4       	vfmadd231pd %ymm4,%ymm4,%ymm4
  402d0d:	c4 e2 d5 b8 ed       	vfmadd231pd %ymm5,%ymm5,%ymm5
  402d12:	c4 e2 e5 b8 db       	vfmadd231pd %ymm3,%ymm3,%ymm3
  402d17:	c4 e2 f5 b8 c9       	vfmadd231pd %ymm1,%ymm1,%ymm1
  402d1c:	c4 e2 ed b8 d2       	vfmadd231pd %ymm2,%ymm2,%ymm2
  402d21:	c4 e2 fd b8 c0       	vfmadd231pd %ymm0,%ymm0,%ymm0
  402d26:	c4 e2 c5 b8 ff       	vfmadd231pd %ymm7,%ymm7,%ymm7
  402d2b:	c4 e2 cd b8 f6       	vfmadd231pd %ymm6,%ymm6,%ymm6
  402d30:	c4 e2 dd b8 e4       	vfmadd231pd %ymm4,%ymm4,%ymm4
  402d35:	c4 e2 d5 b8 ed       	vfmadd231pd %ymm5,%ymm5,%ymm5
  402d3a:	c4 e2 e5 b8 db       	vfmadd231pd %ymm3,%ymm3,%ymm3
  402d3f:	c4 e2 f5 b8 c9       	vfmadd231pd %ymm1,%ymm1,%ymm1
  402d44:	c4 e2 ed b8 d2       	vfmadd231pd %ymm2,%ymm2,%ymm2
  402d49:	c4 e2 fd b8 c0       	vfmadd231pd %ymm0,%ymm0,%ymm0
  402d4e:	c4 e2 c5 b8 ff       	vfmadd231pd %ymm7,%ymm7,%ymm7
  402d53:	c4 e2 cd b8 f6       	vfmadd231pd %ymm6,%ymm6,%ymm6
  402d58:	c4 e2 dd b8 e4       	vfmadd231pd %ymm4,%ymm4,%ymm4
  402d5d:	c4 e2 d5 b8 ed       	vfmadd231pd %ymm5,%ymm5,%ymm5
  402d62:	c4 e2 e5 b8 db       	vfmadd231pd %ymm3,%ymm3,%ymm3
  402d67:	c4 e2 f5 b8 c9       	vfmadd231pd %ymm1,%ymm1,%ymm1
  402d6c:	c4 e2 ed b8 d2       	vfmadd231pd %ymm2,%ymm2,%ymm2
  402d71:	c4 e2 fd b8 c0       	vfmadd231pd %ymm0,%ymm0,%ymm0
  402d76:	c4 e2 c5 b8 ff       	vfmadd231pd %ymm7,%ymm7,%ymm7
  402d7b:	c4 e2 cd b8 f6       	vfmadd231pd %ymm6,%ymm6,%ymm6
  402d80:	c4 e2 dd b8 e4       	vfmadd231pd %ymm4,%ymm4,%ymm4
  402d85:	c4 e2 d5 b8 ed       	vfmadd231pd %ymm5,%ymm5,%ymm5
  402d8a:	c4 e2 e5 b8 db       	vfmadd231pd %ymm3,%ymm3,%ymm3
  402d8f:	c4 e2 f5 b8 c9       	vfmadd231pd %ymm1,%ymm1,%ymm1
  402d94:	c4 e2 ed b8 d2       	vfmadd231pd %ymm2,%ymm2,%ymm2
  402d99:	c4 e2 fd b8 c0       	vfmadd231pd %ymm0,%ymm0,%ymm0
  402d9e:	c4 e2 c5 b8 ff       	vfmadd231pd %ymm7,%ymm7,%ymm7
  402da3:	c4 e2 cd b8 f6       	vfmadd231pd %ymm6,%ymm6,%ymm6
  402da8:	c4 e2 dd b8 e4       	vfmadd231pd %ymm4,%ymm4,%ymm4
  402dad:	c4 e2 d5 b8 ed       	vfmadd231pd %ymm5,%ymm5,%ymm5
  402db2:	c4 e2 e5 b8 db       	vfmadd231pd %ymm3,%ymm3,%ymm3
  402db7:	c4 e2 f5 b8 c9       	vfmadd231pd %ymm1,%ymm1,%ymm1
  402dbc:	c4 e2 ed b8 d2       	vfmadd231pd %ymm2,%ymm2,%ymm2
  402dc1:	c4 e2 fd b8 c0       	vfmadd231pd %ymm0,%ymm0,%ymm0
  402dc6:	c4 e2 c5 b8 ff       	vfmadd231pd %ymm7,%ymm7,%ymm7
  402dcb:	c4 e2 cd b8 f6       	vfmadd231pd %ymm6,%ymm6,%ymm6
  402dd0:	c4 e2 dd b8 e4       	vfmadd231pd %ymm4,%ymm4,%ymm4
  402dd5:	c4 e2 d5 b8 ed       	vfmadd231pd %ymm5,%ymm5,%ymm5
  402dda:	c4 e2 e5 b8 db       	vfmadd231pd %ymm3,%ymm3,%ymm3
  402ddf:	c4 e2 f5 b8 c9       	vfmadd231pd %ymm1,%ymm1,%ymm1
  402de4:	c4 e2 ed b8 d2       	vfmadd231pd %ymm2,%ymm2,%ymm2
  402de9:	c4 e2 fd b8 c0       	vfmadd231pd %ymm0,%ymm0,%ymm0
  402dee:	c4 e2 c5 b8 ff       	vfmadd231pd %ymm7,%ymm7,%ymm7
  402df3:	c4 e2 cd b8 f6       	vfmadd231pd %ymm6,%ymm6,%ymm6
  402df8:	c4 e2 dd b8 e4       	vfmadd231pd %ymm4,%ymm4,%ymm4
  402dfd:	c4 e2 d5 b8 ed       	vfmadd231pd %ymm5,%ymm5,%ymm5
  402e02:	c4 e2 e5 b8 db       	vfmadd231pd %ymm3,%ymm3,%ymm3
  402e07:	c4 e2 f5 b8 c9       	vfmadd231pd %ymm1,%ymm1,%ymm1
  402e0c:	c4 e2 ed b8 d2       	vfmadd231pd %ymm2,%ymm2,%ymm2
  402e11:	c4 e2 fd b8 c0       	vfmadd231pd %ymm0,%ymm0,%ymm0
  402e16:	c4 e2 c5 b8 ff       	vfmadd231pd %ymm7,%ymm7,%ymm7
  402e1b:	c4 e2 cd b8 f6       	vfmadd231pd %ymm6,%ymm6,%ymm6
  402e20:	c4 e2 dd b8 e4       	vfmadd231pd %ymm4,%ymm4,%ymm4
  402e25:	c4 e2 d5 b8 ed       	vfmadd231pd %ymm5,%ymm5,%ymm5
  402e2a:	c4 e2 e5 b8 db       	vfmadd231pd %ymm3,%ymm3,%ymm3
  402e2f:	c4 e2 f5 b8 c9       	vfmadd231pd %ymm1,%ymm1,%ymm1
  402e34:	c4 e2 ed b8 d2       	vfmadd231pd %ymm2,%ymm2,%ymm2
  402e39:	c4 e2 fd b8 c0       	vfmadd231pd %ymm0,%ymm0,%ymm0
  402e3e:	c4 e2 c5 b8 ff       	vfmadd231pd %ymm7,%ymm7,%ymm7
  402e43:	c4 e2 cd b8 f6       	vfmadd231pd %ymm6,%ymm6,%ymm6
  402e48:	c4 e2 dd b8 e4       	vfmadd231pd %ymm4,%ymm4,%ymm4
  402e4d:	c4 e2 d5 b8 ed       	vfmadd231pd %ymm5,%ymm5,%ymm5
  402e52:	c4 e2 e5 b8 db       	vfmadd231pd %ymm3,%ymm3,%ymm3
  402e57:	c4 e2 f5 b8 c9       	vfmadd231pd %ymm1,%ymm1,%ymm1
  402e5c:	c4 e2 ed b8 d2       	vfmadd231pd %ymm2,%ymm2,%ymm2
  402e61:	c4 e2 fd b8 c0       	vfmadd231pd %ymm0,%ymm0,%ymm0
  402e66:	c4 e2 c5 b8 ff       	vfmadd231pd %ymm7,%ymm7,%ymm7
  402e6b:	c4 e2 cd b8 f6       	vfmadd231pd %ymm6,%ymm6,%ymm6
  402e70:	c4 e2 dd b8 e4       	vfmadd231pd %ymm4,%ymm4,%ymm4
  402e75:	c4 e2 d5 b8 ed       	vfmadd231pd %ymm5,%ymm5,%ymm5
  402e7a:	c4 e2 e5 b8 db       	vfmadd231pd %ymm3,%ymm3,%ymm3
  402e7f:	c4 e2 f5 b8 c9       	vfmadd231pd %ymm1,%ymm1,%ymm1
  402e84:	c4 e2 ed b8 d2       	vfmadd231pd %ymm2,%ymm2,%ymm2
  402e89:	c4 e2 fd b8 c0       	vfmadd231pd %ymm0,%ymm0,%ymm0
  402e8e:	c4 e2 c5 b8 ff       	vfmadd231pd %ymm7,%ymm7,%ymm7
  402e93:	c4 e2 cd b8 f6       	vfmadd231pd %ymm6,%ymm6,%ymm6
  402e98:	c4 e2 dd b8 e4       	vfmadd231pd %ymm4,%ymm4,%ymm4
  402e9d:	c4 e2 d5 b8 ed       	vfmadd231pd %ymm5,%ymm5,%ymm5
  402ea2:	c4 e2 e5 b8 db       	vfmadd231pd %ymm3,%ymm3,%ymm3
  402ea7:	c4 e2 f5 b8 c9       	vfmadd231pd %ymm1,%ymm1,%ymm1
  402eac:	c4 e2 ed b8 d2       	vfmadd231pd %ymm2,%ymm2,%ymm2
  402eb1:	c4 e2 fd b8 c0       	vfmadd231pd %ymm0,%ymm0,%ymm0
  402eb6:	c4 e2 c5 b8 ff       	vfmadd231pd %ymm7,%ymm7,%ymm7
  402ebb:	c4 e2 cd b8 f6       	vfmadd231pd %ymm6,%ymm6,%ymm6
  402ec0:	c4 e2 dd b8 e4       	vfmadd231pd %ymm4,%ymm4,%ymm4
  402ec5:	c4 e2 d5 b8 ed       	vfmadd231pd %ymm5,%ymm5,%ymm5
  402eca:	c4 e2 e5 b8 db       	vfmadd231pd %ymm3,%ymm3,%ymm3
  402ecf:	c4 e2 f5 b8 c9       	vfmadd231pd %ymm1,%ymm1,%ymm1
  402ed4:	c4 e2 ed b8 d2       	vfmadd231pd %ymm2,%ymm2,%ymm2
  402ed9:	c4 e2 fd b8 c0       	vfmadd231pd %ymm0,%ymm0,%ymm0
  402ede:	c4 e2 c5 b8 ff       	vfmadd231pd %ymm7,%ymm7,%ymm7
  402ee3:	c4 e2 cd b8 f6       	vfmadd231pd %ymm6,%ymm6,%ymm6
  402ee8:	c4 e2 dd b8 e4       	vfmadd231pd %ymm4,%ymm4,%ymm4
  402eed:	c4 e2 d5 b8 ed       	vfmadd231pd %ymm5,%ymm5,%ymm5
  402ef2:	c4 e2 e5 b8 db       	vfmadd231pd %ymm3,%ymm3,%ymm3
  402ef7:	c4 e2 f5 b8 c9       	vfmadd231pd %ymm1,%ymm1,%ymm1
  402efc:	c4 e2 ed b8 d2       	vfmadd231pd %ymm2,%ymm2,%ymm2
  402f01:	c4 e2 fd b8 c0       	vfmadd231pd %ymm0,%ymm0,%ymm0
  402f06:	c4 e2 c5 b8 ff       	vfmadd231pd %ymm7,%ymm7,%ymm7
  402f0b:	c4 e2 cd b8 f6       	vfmadd231pd %ymm6,%ymm6,%ymm6
  402f10:	c4 e2 dd b8 e4       	vfmadd231pd %ymm4,%ymm4,%ymm4
  402f15:	c4 e2 d5 b8 ed       	vfmadd231pd %ymm5,%ymm5,%ymm5
  402f1a:	c4 e2 e5 b8 db       	vfmadd231pd %ymm3,%ymm3,%ymm3
  402f1f:	c4 e2 f5 b8 c9       	vfmadd231pd %ymm1,%ymm1,%ymm1
  402f24:	c4 e2 ed b8 d2       	vfmadd231pd %ymm2,%ymm2,%ymm2
  402f29:	c4 e2 fd b8 c0       	vfmadd231pd %ymm0,%ymm0,%ymm0
  402f2e:	c4 e2 c5 b8 ff       	vfmadd231pd %ymm7,%ymm7,%ymm7
  402f33:	c4 e2 cd b8 f6       	vfmadd231pd %ymm6,%ymm6,%ymm6
  402f38:	c4 e2 dd b8 e4       	vfmadd231pd %ymm4,%ymm4,%ymm4
  402f3d:	c4 e2 d5 b8 ed       	vfmadd231pd %ymm5,%ymm5,%ymm5
  402f42:	c4 e2 e5 b8 db       	vfmadd231pd %ymm3,%ymm3,%ymm3
  402f47:	c4 e2 f5 b8 c9       	vfmadd231pd %ymm1,%ymm1,%ymm1
  402f4c:	c4 e2 ed b8 d2       	vfmadd231pd %ymm2,%ymm2,%ymm2
  402f51:	c4 e2 fd b8 c0       	vfmadd231pd %ymm0,%ymm0,%ymm0
  402f56:	c4 e2 c5 b8 ff       	vfmadd231pd %ymm7,%ymm7,%ymm7
  402f5b:	c4 e2 cd b8 f6       	vfmadd231pd %ymm6,%ymm6,%ymm6
  402f60:	c4 e2 dd b8 e4       	vfmadd231pd %ymm4,%ymm4,%ymm4
  402f65:	c4 e2 d5 b8 ed       	vfmadd231pd %ymm5,%ymm5,%ymm5
  402f6a:	c4 e2 e5 b8 db       	vfmadd231pd %ymm3,%ymm3,%ymm3
  402f6f:	c4 e2 f5 b8 c9       	vfmadd231pd %ymm1,%ymm1,%ymm1
  402f74:	c4 e2 ed b8 d2       	vfmadd231pd %ymm2,%ymm2,%ymm2
  402f79:	c4 e2 fd b8 c0       	vfmadd231pd %ymm0,%ymm0,%ymm0
  402f7e:	c4 e2 c5 b8 ff       	vfmadd231pd %ymm7,%ymm7,%ymm7
  402f83:	c4 e2 cd b8 f6       	vfmadd231pd %ymm6,%ymm6,%ymm6
  402f88:	c4 e2 dd b8 e4       	vfmadd231pd %ymm4,%ymm4,%ymm4
  402f8d:	c4 e2 d5 b8 ed       	vfmadd231pd %ymm5,%ymm5,%ymm5
  402f92:	c4 e2 e5 b8 db       	vfmadd231pd %ymm3,%ymm3,%ymm3
  402f97:	c4 e2 f5 b8 c9       	vfmadd231pd %ymm1,%ymm1,%ymm1
  402f9c:	c4 e2 ed b8 d2       	vfmadd231pd %ymm2,%ymm2,%ymm2
  402fa1:	c4 e2 fd b8 c0       	vfmadd231pd %ymm0,%ymm0,%ymm0
  402fa6:	c4 e2 c5 b8 ff       	vfmadd231pd %ymm7,%ymm7,%ymm7
  402fab:	c4 e2 cd b8 f6       	vfmadd231pd %ymm6,%ymm6,%ymm6
  402fb0:	c4 e2 dd b8 e4       	vfmadd231pd %ymm4,%ymm4,%ymm4
  402fb5:	c4 e2 d5 b8 ed       	vfmadd231pd %ymm5,%ymm5,%ymm5
  402fba:	c4 e2 e5 b8 db       	vfmadd231pd %ymm3,%ymm3,%ymm3
  402fbf:	c4 e2 f5 b8 c9       	vfmadd231pd %ymm1,%ymm1,%ymm1
  402fc4:	c4 e2 ed b8 d2       	vfmadd231pd %ymm2,%ymm2,%ymm2
  402fc9:	c4 e2 fd b8 c0       	vfmadd231pd %ymm0,%ymm0,%ymm0
  402fce:	c4 e2 c5 b8 ff       	vfmadd231pd %ymm7,%ymm7,%ymm7
  402fd3:	c4 e2 cd b8 f6       	vfmadd231pd %ymm6,%ymm6,%ymm6
  402fd8:	c4 e2 dd b8 e4       	vfmadd231pd %ymm4,%ymm4,%ymm4
  402fdd:	c4 e2 d5 b8 ed       	vfmadd231pd %ymm5,%ymm5,%ymm5
  402fe2:	c4 e2 e5 b8 db       	vfmadd231pd %ymm3,%ymm3,%ymm3
  402fe7:	c4 e2 f5 b8 c9       	vfmadd231pd %ymm1,%ymm1,%ymm1
  402fec:	c4 e2 ed b8 d2       	vfmadd231pd %ymm2,%ymm2,%ymm2
  402ff1:	c4 e2 fd b8 c0       	vfmadd231pd %ymm0,%ymm0,%ymm0
  402ff6:	c4 e2 c5 b8 ff       	vfmadd231pd %ymm7,%ymm7,%ymm7
  402ffb:	c4 e2 cd b8 f6       	vfmadd231pd %ymm6,%ymm6,%ymm6
  403000:	c4 e2 dd b8 e4       	vfmadd231pd %ymm4,%ymm4,%ymm4
  403005:	c4 e2 d5 b8 ed       	vfmadd231pd %ymm5,%ymm5,%ymm5
  40300a:	c4 e2 e5 b8 db       	vfmadd231pd %ymm3,%ymm3,%ymm3
  40300f:	c4 e2 f5 b8 c9       	vfmadd231pd %ymm1,%ymm1,%ymm1
  403014:	c4 e2 ed b8 d2       	vfmadd231pd %ymm2,%ymm2,%ymm2
  403019:	c4 e2 fd b8 c0       	vfmadd231pd %ymm0,%ymm0,%ymm0
  40301e:	c4 e2 c5 b8 ff       	vfmadd231pd %ymm7,%ymm7,%ymm7
  403023:	c4 e2 cd b8 f6       	vfmadd231pd %ymm6,%ymm6,%ymm6
  403028:	c4 e2 dd b8 e4       	vfmadd231pd %ymm4,%ymm4,%ymm4
  40302d:	c4 e2 d5 b8 ed       	vfmadd231pd %ymm5,%ymm5,%ymm5
  403032:	c4 e2 e5 b8 db       	vfmadd231pd %ymm3,%ymm3,%ymm3
  403037:	c4 e2 f5 b8 c9       	vfmadd231pd %ymm1,%ymm1,%ymm1
  40303c:	c4 e2 ed b8 d2       	vfmadd231pd %ymm2,%ymm2,%ymm2
  403041:	c4 e2 fd b8 c0       	vfmadd231pd %ymm0,%ymm0,%ymm0
  403046:	c4 e2 c5 b8 ff       	vfmadd231pd %ymm7,%ymm7,%ymm7
  40304b:	c4 e2 cd b8 f6       	vfmadd231pd %ymm6,%ymm6,%ymm6
  403050:	c4 e2 dd b8 e4       	vfmadd231pd %ymm4,%ymm4,%ymm4
  403055:	c4 e2 d5 b8 ed       	vfmadd231pd %ymm5,%ymm5,%ymm5
  40305a:	c4 e2 e5 b8 db       	vfmadd231pd %ymm3,%ymm3,%ymm3
  40305f:	c4 e2 f5 b8 c9       	vfmadd231pd %ymm1,%ymm1,%ymm1
  403064:	c4 e2 ed b8 d2       	vfmadd231pd %ymm2,%ymm2,%ymm2
  403069:	c4 e2 fd b8 c0       	vfmadd231pd %ymm0,%ymm0,%ymm0
  40306e:	c4 e2 c5 b8 ff       	vfmadd231pd %ymm7,%ymm7,%ymm7
  403073:	c4 e2 cd b8 f6       	vfmadd231pd %ymm6,%ymm6,%ymm6
  403078:	c4 e2 dd b8 e4       	vfmadd231pd %ymm4,%ymm4,%ymm4
  40307d:	c4 e2 d5 b8 ed       	vfmadd231pd %ymm5,%ymm5,%ymm5
  403082:	c4 e2 e5 b8 db       	vfmadd231pd %ymm3,%ymm3,%ymm3
  403087:	c4 e2 f5 b8 c9       	vfmadd231pd %ymm1,%ymm1,%ymm1
  40308c:	c4 e2 ed b8 d2       	vfmadd231pd %ymm2,%ymm2,%ymm2
  403091:	c4 e2 fd b8 c0       	vfmadd231pd %ymm0,%ymm0,%ymm0
  403096:	c4 e2 c5 b8 ff       	vfmadd231pd %ymm7,%ymm7,%ymm7
  40309b:	c4 e2 cd b8 f6       	vfmadd231pd %ymm6,%ymm6,%ymm6
  4030a0:	c4 e2 dd b8 e4       	vfmadd231pd %ymm4,%ymm4,%ymm4
  4030a5:	c4 e2 d5 b8 ed       	vfmadd231pd %ymm5,%ymm5,%ymm5
  4030aa:	c4 e2 e5 b8 db       	vfmadd231pd %ymm3,%ymm3,%ymm3
  4030af:	c4 e2 f5 b8 c9       	vfmadd231pd %ymm1,%ymm1,%ymm1
  4030b4:	c4 e2 ed b8 d2       	vfmadd231pd %ymm2,%ymm2,%ymm2
  4030b9:	c4 e2 fd b8 c0       	vfmadd231pd %ymm0,%ymm0,%ymm0
  4030be:	c4 e2 c5 b8 ff       	vfmadd231pd %ymm7,%ymm7,%ymm7
  4030c3:	c4 e2 cd b8 f6       	vfmadd231pd %ymm6,%ymm6,%ymm6
  4030c8:	c4 e2 dd b8 e4       	vfmadd231pd %ymm4,%ymm4,%ymm4
  4030cd:	c4 e2 d5 b8 ed       	vfmadd231pd %ymm5,%ymm5,%ymm5
  4030d2:	c4 e2 e5 b8 db       	vfmadd231pd %ymm3,%ymm3,%ymm3
  4030d7:	c4 e2 f5 b8 c9       	vfmadd231pd %ymm1,%ymm1,%ymm1
  4030dc:	c4 e2 ed b8 d2       	vfmadd231pd %ymm2,%ymm2,%ymm2
  4030e1:	c4 e2 fd b8 c0       	vfmadd231pd %ymm0,%ymm0,%ymm0
  4030e6:	c4 e2 c5 b8 ff       	vfmadd231pd %ymm7,%ymm7,%ymm7
  4030eb:	c4 e2 cd b8 f6       	vfmadd231pd %ymm6,%ymm6,%ymm6
  4030f0:	c4 e2 dd b8 e4       	vfmadd231pd %ymm4,%ymm4,%ymm4
  4030f5:	c4 e2 d5 b8 ed       	vfmadd231pd %ymm5,%ymm5,%ymm5
  4030fa:	c4 e2 e5 b8 db       	vfmadd231pd %ymm3,%ymm3,%ymm3
  4030ff:	c4 e2 f5 b8 c9       	vfmadd231pd %ymm1,%ymm1,%ymm1
  403104:	c4 e2 ed b8 d2       	vfmadd231pd %ymm2,%ymm2,%ymm2
  403109:	c4 e2 fd b8 c0       	vfmadd231pd %ymm0,%ymm0,%ymm0
  40310e:	c4 e2 c5 b8 ff       	vfmadd231pd %ymm7,%ymm7,%ymm7
  403113:	c4 e2 cd b8 f6       	vfmadd231pd %ymm6,%ymm6,%ymm6
  403118:	c4 e2 dd b8 e4       	vfmadd231pd %ymm4,%ymm4,%ymm4
  40311d:	c4 e2 d5 b8 ed       	vfmadd231pd %ymm5,%ymm5,%ymm5
  403122:	c4 e2 e5 b8 db       	vfmadd231pd %ymm3,%ymm3,%ymm3
  403127:	c4 e2 f5 b8 c9       	vfmadd231pd %ymm1,%ymm1,%ymm1
  40312c:	c4 e2 ed b8 d2       	vfmadd231pd %ymm2,%ymm2,%ymm2
  403131:	c4 e2 fd b8 c0       	vfmadd231pd %ymm0,%ymm0,%ymm0
  403136:	c4 e2 c5 b8 ff       	vfmadd231pd %ymm7,%ymm7,%ymm7
  40313b:	c4 e2 cd b8 f6       	vfmadd231pd %ymm6,%ymm6,%ymm6
  403140:	c4 e2 dd b8 e4       	vfmadd231pd %ymm4,%ymm4,%ymm4
  403145:	c4 e2 d5 b8 ed       	vfmadd231pd %ymm5,%ymm5,%ymm5
  40314a:	c4 e2 e5 b8 db       	vfmadd231pd %ymm3,%ymm3,%ymm3
  40314f:	c4 e2 f5 b8 c9       	vfmadd231pd %ymm1,%ymm1,%ymm1
  403154:	c4 e2 ed b8 d2       	vfmadd231pd %ymm2,%ymm2,%ymm2
  403159:	c4 e2 fd b8 c0       	vfmadd231pd %ymm0,%ymm0,%ymm0
  40315e:	c4 e2 c5 b8 ff       	vfmadd231pd %ymm7,%ymm7,%ymm7
  403163:	c4 e2 cd b8 f6       	vfmadd231pd %ymm6,%ymm6,%ymm6
  403168:	c4 e2 dd b8 e4       	vfmadd231pd %ymm4,%ymm4,%ymm4
  40316d:	c4 e2 d5 b8 ed       	vfmadd231pd %ymm5,%ymm5,%ymm5
  403172:	c4 e2 e5 b8 db       	vfmadd231pd %ymm3,%ymm3,%ymm3
  403177:	c4 e2 f5 b8 c9       	vfmadd231pd %ymm1,%ymm1,%ymm1
  40317c:	c4 e2 ed b8 d2       	vfmadd231pd %ymm2,%ymm2,%ymm2
  403181:	c4 e2 fd b8 c0       	vfmadd231pd %ymm0,%ymm0,%ymm0
  403186:	c4 e2 c5 b8 ff       	vfmadd231pd %ymm7,%ymm7,%ymm7
  40318b:	c4 e2 cd b8 f6       	vfmadd231pd %ymm6,%ymm6,%ymm6
  403190:	c4 e2 dd b8 e4       	vfmadd231pd %ymm4,%ymm4,%ymm4
  403195:	c4 e2 d5 b8 ed       	vfmadd231pd %ymm5,%ymm5,%ymm5
  40319a:	c4 e2 e5 b8 db       	vfmadd231pd %ymm3,%ymm3,%ymm3
  40319f:	c4 e2 f5 b8 c9       	vfmadd231pd %ymm1,%ymm1,%ymm1
  4031a4:	c4 e2 ed b8 d2       	vfmadd231pd %ymm2,%ymm2,%ymm2
  4031a9:	c4 e2 fd b8 c0       	vfmadd231pd %ymm0,%ymm0,%ymm0
  4031ae:	c4 e2 c5 b8 ff       	vfmadd231pd %ymm7,%ymm7,%ymm7
  4031b3:	c4 e2 cd b8 f6       	vfmadd231pd %ymm6,%ymm6,%ymm6
  4031b8:	c4 e2 dd b8 e4       	vfmadd231pd %ymm4,%ymm4,%ymm4
  4031bd:	c4 e2 d5 b8 ed       	vfmadd231pd %ymm5,%ymm5,%ymm5
  4031c2:	c4 e2 e5 b8 db       	vfmadd231pd %ymm3,%ymm3,%ymm3
  4031c7:	c4 e2 f5 b8 c9       	vfmadd231pd %ymm1,%ymm1,%ymm1
  4031cc:	c4 e2 ed b8 d2       	vfmadd231pd %ymm2,%ymm2,%ymm2
  4031d1:	c4 e2 fd b8 c0       	vfmadd231pd %ymm0,%ymm0,%ymm0
  4031d6:	c4 e2 c5 b8 ff       	vfmadd231pd %ymm7,%ymm7,%ymm7
  4031db:	c4 e2 cd b8 f6       	vfmadd231pd %ymm6,%ymm6,%ymm6
  4031e0:	c4 e2 dd b8 e4       	vfmadd231pd %ymm4,%ymm4,%ymm4
  4031e5:	c4 e2 d5 b8 ed       	vfmadd231pd %ymm5,%ymm5,%ymm5
  4031ea:	c4 e2 e5 b8 db       	vfmadd231pd %ymm3,%ymm3,%ymm3
  4031ef:	c4 e2 f5 b8 c9       	vfmadd231pd %ymm1,%ymm1,%ymm1
  4031f4:	c4 e2 ed b8 d2       	vfmadd231pd %ymm2,%ymm2,%ymm2
  4031f9:	c4 e2 fd b8 c0       	vfmadd231pd %ymm0,%ymm0,%ymm0
  4031fe:	c4 e2 c5 b8 ff       	vfmadd231pd %ymm7,%ymm7,%ymm7
  403203:	c4 e2 cd b8 f6       	vfmadd231pd %ymm6,%ymm6,%ymm6
  403208:	c4 e2 dd b8 e4       	vfmadd231pd %ymm4,%ymm4,%ymm4
  40320d:	c4 e2 d5 b8 ed       	vfmadd231pd %ymm5,%ymm5,%ymm5
  403212:	c4 e2 e5 b8 db       	vfmadd231pd %ymm3,%ymm3,%ymm3
  403217:	c4 e2 f5 b8 c9       	vfmadd231pd %ymm1,%ymm1,%ymm1
  40321c:	c4 e2 ed b8 d2       	vfmadd231pd %ymm2,%ymm2,%ymm2
  403221:	c4 e2 fd b8 c0       	vfmadd231pd %ymm0,%ymm0,%ymm0
  403226:	c4 e2 c5 b8 ff       	vfmadd231pd %ymm7,%ymm7,%ymm7
  40322b:	c4 e2 cd b8 f6       	vfmadd231pd %ymm6,%ymm6,%ymm6
  403230:	c4 e2 dd b8 e4       	vfmadd231pd %ymm4,%ymm4,%ymm4
  403235:	c4 e2 d5 b8 ed       	vfmadd231pd %ymm5,%ymm5,%ymm5
  40323a:	c4 e2 e5 b8 db       	vfmadd231pd %ymm3,%ymm3,%ymm3
  40323f:	c4 e2 f5 b8 c9       	vfmadd231pd %ymm1,%ymm1,%ymm1
  403244:	c4 e2 ed b8 d2       	vfmadd231pd %ymm2,%ymm2,%ymm2
  403249:	c4 e2 fd b8 c0       	vfmadd231pd %ymm0,%ymm0,%ymm0
  40324e:	c4 e2 c5 b8 ff       	vfmadd231pd %ymm7,%ymm7,%ymm7
  403253:	c4 e2 cd b8 f6       	vfmadd231pd %ymm6,%ymm6,%ymm6
  403258:	c4 e2 dd b8 e4       	vfmadd231pd %ymm4,%ymm4,%ymm4
  40325d:	c4 e2 d5 b8 ed       	vfmadd231pd %ymm5,%ymm5,%ymm5
  403262:	c4 e2 e5 b8 db       	vfmadd231pd %ymm3,%ymm3,%ymm3
  403267:	c4 e2 f5 b8 c9       	vfmadd231pd %ymm1,%ymm1,%ymm1
  40326c:	c4 e2 ed b8 d2       	vfmadd231pd %ymm2,%ymm2,%ymm2
  403271:	c4 e2 fd b8 c0       	vfmadd231pd %ymm0,%ymm0,%ymm0
  403276:	c4 e2 c5 b8 ff       	vfmadd231pd %ymm7,%ymm7,%ymm7
  40327b:	c4 e2 cd b8 f6       	vfmadd231pd %ymm6,%ymm6,%ymm6
  403280:	c4 e2 dd b8 e4       	vfmadd231pd %ymm4,%ymm4,%ymm4
  403285:	c4 e2 d5 b8 ed       	vfmadd231pd %ymm5,%ymm5,%ymm5
  40328a:	c4 e2 e5 b8 db       	vfmadd231pd %ymm3,%ymm3,%ymm3
  40328f:	c4 e2 f5 b8 c9       	vfmadd231pd %ymm1,%ymm1,%ymm1
  403294:	c4 e2 ed b8 d2       	vfmadd231pd %ymm2,%ymm2,%ymm2
  403299:	c4 e2 fd b8 c0       	vfmadd231pd %ymm0,%ymm0,%ymm0
  40329e:	c4 e2 c5 b8 ff       	vfmadd231pd %ymm7,%ymm7,%ymm7
  4032a3:	c4 e2 cd b8 f6       	vfmadd231pd %ymm6,%ymm6,%ymm6
  4032a8:	c4 e2 dd b8 e4       	vfmadd231pd %ymm4,%ymm4,%ymm4
  4032ad:	c4 e2 d5 b8 ed       	vfmadd231pd %ymm5,%ymm5,%ymm5
  4032b2:	c4 e2 e5 b8 db       	vfmadd231pd %ymm3,%ymm3,%ymm3
  4032b7:	c4 e2 f5 b8 c9       	vfmadd231pd %ymm1,%ymm1,%ymm1
  4032bc:	c4 e2 ed b8 d2       	vfmadd231pd %ymm2,%ymm2,%ymm2
  4032c1:	c4 e2 fd b8 c0       	vfmadd231pd %ymm0,%ymm0,%ymm0
  4032c6:	c4 e2 c5 b8 ff       	vfmadd231pd %ymm7,%ymm7,%ymm7
  4032cb:	c4 e2 cd b8 f6       	vfmadd231pd %ymm6,%ymm6,%ymm6
  4032d0:	c4 e2 dd b8 e4       	vfmadd231pd %ymm4,%ymm4,%ymm4
  4032d5:	c4 e2 d5 b8 ed       	vfmadd231pd %ymm5,%ymm5,%ymm5
  4032da:	c4 e2 e5 b8 db       	vfmadd231pd %ymm3,%ymm3,%ymm3
  4032df:	c4 e2 f5 b8 c9       	vfmadd231pd %ymm1,%ymm1,%ymm1
  4032e4:	c4 e2 ed b8 d2       	vfmadd231pd %ymm2,%ymm2,%ymm2
  4032e9:	c4 e2 fd b8 c0       	vfmadd231pd %ymm0,%ymm0,%ymm0
  4032ee:	c4 e2 c5 b8 ff       	vfmadd231pd %ymm7,%ymm7,%ymm7
  4032f3:	c4 e2 cd b8 f6       	vfmadd231pd %ymm6,%ymm6,%ymm6
  4032f8:	c4 e2 dd b8 e4       	vfmadd231pd %ymm4,%ymm4,%ymm4
  4032fd:	c4 e2 d5 b8 ed       	vfmadd231pd %ymm5,%ymm5,%ymm5
  403302:	c4 e2 e5 b8 db       	vfmadd231pd %ymm3,%ymm3,%ymm3
  403307:	c4 e2 f5 b8 c9       	vfmadd231pd %ymm1,%ymm1,%ymm1
  40330c:	c4 e2 ed b8 d2       	vfmadd231pd %ymm2,%ymm2,%ymm2
  403311:	c4 e2 fd b8 c0       	vfmadd231pd %ymm0,%ymm0,%ymm0
  403316:	c4 e2 c5 b8 ff       	vfmadd231pd %ymm7,%ymm7,%ymm7
  40331b:	c4 e2 cd b8 f6       	vfmadd231pd %ymm6,%ymm6,%ymm6
  403320:	c4 e2 dd b8 e4       	vfmadd231pd %ymm4,%ymm4,%ymm4
  403325:	c4 e2 d5 b8 ed       	vfmadd231pd %ymm5,%ymm5,%ymm5
  40332a:	c4 e2 e5 b8 db       	vfmadd231pd %ymm3,%ymm3,%ymm3
  40332f:	c4 e2 f5 b8 c9       	vfmadd231pd %ymm1,%ymm1,%ymm1
  403334:	c4 e2 ed b8 d2       	vfmadd231pd %ymm2,%ymm2,%ymm2
  403339:	c4 e2 fd b8 c0       	vfmadd231pd %ymm0,%ymm0,%ymm0
  40333e:	c4 e2 c5 b8 ff       	vfmadd231pd %ymm7,%ymm7,%ymm7
  403343:	c4 e2 cd b8 f6       	vfmadd231pd %ymm6,%ymm6,%ymm6
  403348:	c4 e2 dd b8 e4       	vfmadd231pd %ymm4,%ymm4,%ymm4
  40334d:	c4 e2 d5 b8 ed       	vfmadd231pd %ymm5,%ymm5,%ymm5
  403352:	c4 e2 e5 b8 db       	vfmadd231pd %ymm3,%ymm3,%ymm3
  403357:	c4 e2 f5 b8 c9       	vfmadd231pd %ymm1,%ymm1,%ymm1
  40335c:	c4 e2 ed b8 d2       	vfmadd231pd %ymm2,%ymm2,%ymm2
  403361:	c4 e2 fd b8 c0       	vfmadd231pd %ymm0,%ymm0,%ymm0
  403366:	c4 e2 c5 b8 ff       	vfmadd231pd %ymm7,%ymm7,%ymm7
  40336b:	c4 e2 cd b8 f6       	vfmadd231pd %ymm6,%ymm6,%ymm6
  403370:	c4 e2 dd b8 e4       	vfmadd231pd %ymm4,%ymm4,%ymm4
  403375:	c4 e2 d5 b8 ed       	vfmadd231pd %ymm5,%ymm5,%ymm5
  40337a:	c4 e2 e5 b8 db       	vfmadd231pd %ymm3,%ymm3,%ymm3
  40337f:	c4 e2 f5 b8 c9       	vfmadd231pd %ymm1,%ymm1,%ymm1
  403384:	c4 e2 ed b8 d2       	vfmadd231pd %ymm2,%ymm2,%ymm2
  403389:	c4 e2 fd b8 c0       	vfmadd231pd %ymm0,%ymm0,%ymm0
  40338e:	c4 e2 c5 b8 ff       	vfmadd231pd %ymm7,%ymm7,%ymm7
  403393:	c4 e2 cd b8 f6       	vfmadd231pd %ymm6,%ymm6,%ymm6
  403398:	c4 e2 dd b8 e4       	vfmadd231pd %ymm4,%ymm4,%ymm4
  40339d:	c4 e2 d5 b8 ed       	vfmadd231pd %ymm5,%ymm5,%ymm5
  4033a2:	c4 e2 e5 b8 db       	vfmadd231pd %ymm3,%ymm3,%ymm3
  4033a7:	c4 e2 f5 b8 c9       	vfmadd231pd %ymm1,%ymm1,%ymm1
  4033ac:	c4 e2 ed b8 d2       	vfmadd231pd %ymm2,%ymm2,%ymm2
  4033b1:	c4 e2 fd b8 c0       	vfmadd231pd %ymm0,%ymm0,%ymm0
  4033b6:	c4 e2 c5 b8 ff       	vfmadd231pd %ymm7,%ymm7,%ymm7
  4033bb:	c4 e2 cd b8 f6       	vfmadd231pd %ymm6,%ymm6,%ymm6
  4033c0:	c4 e2 dd b8 e4       	vfmadd231pd %ymm4,%ymm4,%ymm4
  4033c5:	c4 e2 d5 b8 ed       	vfmadd231pd %ymm5,%ymm5,%ymm5
  4033ca:	c4 e2 e5 b8 db       	vfmadd231pd %ymm3,%ymm3,%ymm3
  4033cf:	c4 e2 f5 b8 c9       	vfmadd231pd %ymm1,%ymm1,%ymm1
  4033d4:	c4 e2 ed b8 d2       	vfmadd231pd %ymm2,%ymm2,%ymm2
  4033d9:	c4 e2 fd b8 c0       	vfmadd231pd %ymm0,%ymm0,%ymm0
  4033de:	c4 e2 c5 b8 ff       	vfmadd231pd %ymm7,%ymm7,%ymm7
  4033e3:	c4 e2 cd b8 f6       	vfmadd231pd %ymm6,%ymm6,%ymm6
  4033e8:	c4 e2 dd b8 e4       	vfmadd231pd %ymm4,%ymm4,%ymm4
  4033ed:	c4 e2 d5 b8 ed       	vfmadd231pd %ymm5,%ymm5,%ymm5
  4033f2:	c4 e2 e5 b8 db       	vfmadd231pd %ymm3,%ymm3,%ymm3
  4033f7:	c4 e2 f5 b8 c9       	vfmadd231pd %ymm1,%ymm1,%ymm1
  4033fc:	c4 e2 ed b8 d2       	vfmadd231pd %ymm2,%ymm2,%ymm2
  403401:	c4 e2 fd b8 c0       	vfmadd231pd %ymm0,%ymm0,%ymm0
  403406:	c4 e2 c5 b8 ff       	vfmadd231pd %ymm7,%ymm7,%ymm7
  40340b:	c4 e2 cd b8 f6       	vfmadd231pd %ymm6,%ymm6,%ymm6
  403410:	c4 e2 dd b8 e4       	vfmadd231pd %ymm4,%ymm4,%ymm4
  403415:	c4 e2 d5 b8 ed       	vfmadd231pd %ymm5,%ymm5,%ymm5
  40341a:	c4 e2 e5 b8 db       	vfmadd231pd %ymm3,%ymm3,%ymm3
  40341f:	c4 e2 f5 b8 c9       	vfmadd231pd %ymm1,%ymm1,%ymm1
  403424:	c4 e2 ed b8 d2       	vfmadd231pd %ymm2,%ymm2,%ymm2
  403429:	c4 e2 fd b8 c0       	vfmadd231pd %ymm0,%ymm0,%ymm0
  40342e:	c4 e2 c5 b8 ff       	vfmadd231pd %ymm7,%ymm7,%ymm7
  403433:	c4 e2 cd b8 f6       	vfmadd231pd %ymm6,%ymm6,%ymm6
  403438:	c4 e2 dd b8 e4       	vfmadd231pd %ymm4,%ymm4,%ymm4
  40343d:	c4 e2 d5 b8 ed       	vfmadd231pd %ymm5,%ymm5,%ymm5
  403442:	c4 e2 e5 b8 db       	vfmadd231pd %ymm3,%ymm3,%ymm3
  403447:	c4 e2 f5 b8 c9       	vfmadd231pd %ymm1,%ymm1,%ymm1
  40344c:	c4 e2 ed b8 d2       	vfmadd231pd %ymm2,%ymm2,%ymm2
  403451:	c4 e2 fd b8 c0       	vfmadd231pd %ymm0,%ymm0,%ymm0
  403456:	c4 e2 c5 b8 ff       	vfmadd231pd %ymm7,%ymm7,%ymm7
  40345b:	c4 e2 cd b8 f6       	vfmadd231pd %ymm6,%ymm6,%ymm6
  403460:	c4 e2 dd b8 e4       	vfmadd231pd %ymm4,%ymm4,%ymm4
  403465:	c4 e2 d5 b8 ed       	vfmadd231pd %ymm5,%ymm5,%ymm5
  40346a:	c4 e2 e5 b8 db       	vfmadd231pd %ymm3,%ymm3,%ymm3
  40346f:	c4 e2 f5 b8 c9       	vfmadd231pd %ymm1,%ymm1,%ymm1
  403474:	c4 e2 ed b8 d2       	vfmadd231pd %ymm2,%ymm2,%ymm2
  403479:	c4 e2 fd b8 c0       	vfmadd231pd %ymm0,%ymm0,%ymm0
  40347e:	c4 e2 c5 b8 ff       	vfmadd231pd %ymm7,%ymm7,%ymm7
  403483:	c4 e2 cd b8 f6       	vfmadd231pd %ymm6,%ymm6,%ymm6
  403488:	c4 e2 dd b8 e4       	vfmadd231pd %ymm4,%ymm4,%ymm4
  40348d:	c4 e2 d5 b8 ed       	vfmadd231pd %ymm5,%ymm5,%ymm5
  403492:	c4 e2 e5 b8 db       	vfmadd231pd %ymm3,%ymm3,%ymm3
  403497:	c4 e2 f5 b8 c9       	vfmadd231pd %ymm1,%ymm1,%ymm1
  40349c:	c4 e2 ed b8 d2       	vfmadd231pd %ymm2,%ymm2,%ymm2
  4034a1:	c4 e2 fd b8 c0       	vfmadd231pd %ymm0,%ymm0,%ymm0
  4034a6:	c4 e2 c5 b8 ff       	vfmadd231pd %ymm7,%ymm7,%ymm7
  4034ab:	c4 e2 cd b8 f6       	vfmadd231pd %ymm6,%ymm6,%ymm6
  4034b0:	c4 e2 dd b8 e4       	vfmadd231pd %ymm4,%ymm4,%ymm4
  4034b5:	c4 e2 d5 b8 ed       	vfmadd231pd %ymm5,%ymm5,%ymm5
  4034ba:	c4 e2 e5 b8 db       	vfmadd231pd %ymm3,%ymm3,%ymm3
  4034bf:	c4 e2 f5 b8 c9       	vfmadd231pd %ymm1,%ymm1,%ymm1
  4034c4:	c4 e2 ed b8 d2       	vfmadd231pd %ymm2,%ymm2,%ymm2
  4034c9:	c4 e2 fd b8 c0       	vfmadd231pd %ymm0,%ymm0,%ymm0
  4034ce:	c4 e2 c5 b8 ff       	vfmadd231pd %ymm7,%ymm7,%ymm7
  4034d3:	c4 e2 cd b8 f6       	vfmadd231pd %ymm6,%ymm6,%ymm6
  4034d8:	c4 e2 dd b8 e4       	vfmadd231pd %ymm4,%ymm4,%ymm4
  4034dd:	c4 e2 d5 b8 ed       	vfmadd231pd %ymm5,%ymm5,%ymm5
  4034e2:	c4 e2 e5 b8 db       	vfmadd231pd %ymm3,%ymm3,%ymm3
  4034e7:	c4 e2 f5 b8 c9       	vfmadd231pd %ymm1,%ymm1,%ymm1
  4034ec:	c4 e2 ed b8 d2       	vfmadd231pd %ymm2,%ymm2,%ymm2
  4034f1:	c4 e2 fd b8 c0       	vfmadd231pd %ymm0,%ymm0,%ymm0
  4034f6:	c4 e2 c5 b8 ff       	vfmadd231pd %ymm7,%ymm7,%ymm7
  4034fb:	c4 e2 cd b8 f6       	vfmadd231pd %ymm6,%ymm6,%ymm6
  403500:	c4 e2 dd b8 e4       	vfmadd231pd %ymm4,%ymm4,%ymm4
  403505:	c4 e2 d5 b8 ed       	vfmadd231pd %ymm5,%ymm5,%ymm5
  40350a:	c4 e2 e5 b8 db       	vfmadd231pd %ymm3,%ymm3,%ymm3
  40350f:	c4 e2 f5 b8 c9       	vfmadd231pd %ymm1,%ymm1,%ymm1
  403514:	c4 e2 ed b8 d2       	vfmadd231pd %ymm2,%ymm2,%ymm2
  403519:	c4 e2 fd b8 c0       	vfmadd231pd %ymm0,%ymm0,%ymm0
  40351e:	c4 e2 c5 b8 ff       	vfmadd231pd %ymm7,%ymm7,%ymm7
  403523:	c4 e2 cd b8 f6       	vfmadd231pd %ymm6,%ymm6,%ymm6
  403528:	c4 e2 dd b8 e4       	vfmadd231pd %ymm4,%ymm4,%ymm4
  40352d:	c4 e2 d5 b8 ed       	vfmadd231pd %ymm5,%ymm5,%ymm5
  403532:	c4 e2 e5 b8 db       	vfmadd231pd %ymm3,%ymm3,%ymm3
  403537:	c4 e2 f5 b8 c9       	vfmadd231pd %ymm1,%ymm1,%ymm1
  40353c:	c4 e2 ed b8 d2       	vfmadd231pd %ymm2,%ymm2,%ymm2
  403541:	c4 e2 fd b8 c0       	vfmadd231pd %ymm0,%ymm0,%ymm0
  403546:	c4 e2 c5 b8 ff       	vfmadd231pd %ymm7,%ymm7,%ymm7
  40354b:	c4 e2 cd b8 f6       	vfmadd231pd %ymm6,%ymm6,%ymm6
  403550:	c4 e2 dd b8 e4       	vfmadd231pd %ymm4,%ymm4,%ymm4
  403555:	c4 e2 d5 b8 ed       	vfmadd231pd %ymm5,%ymm5,%ymm5
  40355a:	c4 e2 e5 b8 db       	vfmadd231pd %ymm3,%ymm3,%ymm3
  40355f:	c4 e2 f5 b8 c9       	vfmadd231pd %ymm1,%ymm1,%ymm1
  403564:	c4 e2 ed b8 d2       	vfmadd231pd %ymm2,%ymm2,%ymm2
  403569:	c4 e2 fd b8 c0       	vfmadd231pd %ymm0,%ymm0,%ymm0
  40356e:	c4 e2 c5 b8 ff       	vfmadd231pd %ymm7,%ymm7,%ymm7
  403573:	c4 e2 cd b8 f6       	vfmadd231pd %ymm6,%ymm6,%ymm6
  403578:	c4 e2 dd b8 e4       	vfmadd231pd %ymm4,%ymm4,%ymm4
  40357d:	c4 e2 d5 b8 ed       	vfmadd231pd %ymm5,%ymm5,%ymm5
  403582:	c4 e2 e5 b8 db       	vfmadd231pd %ymm3,%ymm3,%ymm3
  403587:	c4 e2 f5 b8 c9       	vfmadd231pd %ymm1,%ymm1,%ymm1
  40358c:	c4 e2 ed b8 d2       	vfmadd231pd %ymm2,%ymm2,%ymm2
  403591:	c4 e2 fd b8 c0       	vfmadd231pd %ymm0,%ymm0,%ymm0
  403596:	c4 e2 c5 b8 ff       	vfmadd231pd %ymm7,%ymm7,%ymm7
  40359b:	c4 e2 cd b8 f6       	vfmadd231pd %ymm6,%ymm6,%ymm6
  4035a0:	c4 e2 dd b8 e4       	vfmadd231pd %ymm4,%ymm4,%ymm4
  4035a5:	c4 e2 d5 b8 ed       	vfmadd231pd %ymm5,%ymm5,%ymm5
  4035aa:	c4 e2 e5 b8 db       	vfmadd231pd %ymm3,%ymm3,%ymm3
  4035af:	c4 e2 f5 b8 c9       	vfmadd231pd %ymm1,%ymm1,%ymm1
  4035b4:	c4 e2 ed b8 d2       	vfmadd231pd %ymm2,%ymm2,%ymm2
  4035b9:	c4 e2 fd b8 c0       	vfmadd231pd %ymm0,%ymm0,%ymm0
  4035be:	c4 e2 c5 b8 ff       	vfmadd231pd %ymm7,%ymm7,%ymm7
  4035c3:	c4 e2 cd b8 f6       	vfmadd231pd %ymm6,%ymm6,%ymm6
  4035c8:	c4 e2 dd b8 e4       	vfmadd231pd %ymm4,%ymm4,%ymm4
  4035cd:	c4 e2 d5 b8 ed       	vfmadd231pd %ymm5,%ymm5,%ymm5
  4035d2:	c4 e2 e5 b8 db       	vfmadd231pd %ymm3,%ymm3,%ymm3
  4035d7:	c4 e2 f5 b8 c9       	vfmadd231pd %ymm1,%ymm1,%ymm1
  4035dc:	c4 e2 ed b8 d2       	vfmadd231pd %ymm2,%ymm2,%ymm2
  4035e1:	c4 e2 fd b8 c0       	vfmadd231pd %ymm0,%ymm0,%ymm0
  4035e6:	c4 e2 c5 b8 ff       	vfmadd231pd %ymm7,%ymm7,%ymm7
  4035eb:	c4 e2 cd b8 f6       	vfmadd231pd %ymm6,%ymm6,%ymm6
  4035f0:	c4 e2 dd b8 e4       	vfmadd231pd %ymm4,%ymm4,%ymm4
  4035f5:	c4 e2 d5 b8 ed       	vfmadd231pd %ymm5,%ymm5,%ymm5
  4035fa:	c4 e2 e5 b8 db       	vfmadd231pd %ymm3,%ymm3,%ymm3
  4035ff:	c4 e2 f5 b8 c9       	vfmadd231pd %ymm1,%ymm1,%ymm1
  403604:	c4 e2 ed b8 d2       	vfmadd231pd %ymm2,%ymm2,%ymm2
  403609:	c4 e2 fd b8 c0       	vfmadd231pd %ymm0,%ymm0,%ymm0
  40360e:	c4 e2 c5 b8 ff       	vfmadd231pd %ymm7,%ymm7,%ymm7
  403613:	c4 e2 cd b8 f6       	vfmadd231pd %ymm6,%ymm6,%ymm6
  403618:	c4 e2 dd b8 e4       	vfmadd231pd %ymm4,%ymm4,%ymm4
  40361d:	c4 e2 d5 b8 ed       	vfmadd231pd %ymm5,%ymm5,%ymm5
  403622:	c4 e2 e5 b8 db       	vfmadd231pd %ymm3,%ymm3,%ymm3
  403627:	c4 e2 f5 b8 c9       	vfmadd231pd %ymm1,%ymm1,%ymm1
  40362c:	c4 e2 ed b8 d2       	vfmadd231pd %ymm2,%ymm2,%ymm2
  403631:	c4 e2 fd b8 c0       	vfmadd231pd %ymm0,%ymm0,%ymm0
  403636:	c4 e2 c5 b8 ff       	vfmadd231pd %ymm7,%ymm7,%ymm7
  40363b:	c4 e2 cd b8 f6       	vfmadd231pd %ymm6,%ymm6,%ymm6
  403640:	c4 e2 dd b8 e4       	vfmadd231pd %ymm4,%ymm4,%ymm4
  403645:	c4 e2 d5 b8 ed       	vfmadd231pd %ymm5,%ymm5,%ymm5
  40364a:	c4 e2 e5 b8 db       	vfmadd231pd %ymm3,%ymm3,%ymm3
  40364f:	c4 e2 f5 b8 c9       	vfmadd231pd %ymm1,%ymm1,%ymm1
  403654:	c4 e2 ed b8 d2       	vfmadd231pd %ymm2,%ymm2,%ymm2
  403659:	c4 e2 fd b8 c0       	vfmadd231pd %ymm0,%ymm0,%ymm0
  40365e:	c4 e2 c5 b8 ff       	vfmadd231pd %ymm7,%ymm7,%ymm7
  403663:	c4 e2 cd b8 f6       	vfmadd231pd %ymm6,%ymm6,%ymm6
  403668:	c4 e2 dd b8 e4       	vfmadd231pd %ymm4,%ymm4,%ymm4
  40366d:	c4 e2 d5 b8 ed       	vfmadd231pd %ymm5,%ymm5,%ymm5
  403672:	c4 e2 e5 b8 db       	vfmadd231pd %ymm3,%ymm3,%ymm3
  403677:	c4 e2 f5 b8 c9       	vfmadd231pd %ymm1,%ymm1,%ymm1
  40367c:	c4 e2 ed b8 d2       	vfmadd231pd %ymm2,%ymm2,%ymm2
  403681:	c4 e2 fd b8 c0       	vfmadd231pd %ymm0,%ymm0,%ymm0
  403686:	c4 e2 c5 b8 ff       	vfmadd231pd %ymm7,%ymm7,%ymm7
  40368b:	c4 e2 cd b8 f6       	vfmadd231pd %ymm6,%ymm6,%ymm6
  403690:	c4 e2 dd b8 e4       	vfmadd231pd %ymm4,%ymm4,%ymm4
  403695:	c4 e2 d5 b8 ed       	vfmadd231pd %ymm5,%ymm5,%ymm5
  40369a:	c4 e2 e5 b8 db       	vfmadd231pd %ymm3,%ymm3,%ymm3
  40369f:	c4 e2 f5 b8 c9       	vfmadd231pd %ymm1,%ymm1,%ymm1
  4036a4:	c4 e2 ed b8 d2       	vfmadd231pd %ymm2,%ymm2,%ymm2
  4036a9:	c4 e2 fd b8 c0       	vfmadd231pd %ymm0,%ymm0,%ymm0
  4036ae:	c4 e2 c5 b8 ff       	vfmadd231pd %ymm7,%ymm7,%ymm7
  4036b3:	c4 e2 cd b8 f6       	vfmadd231pd %ymm6,%ymm6,%ymm6
  4036b8:	c4 e2 dd b8 e4       	vfmadd231pd %ymm4,%ymm4,%ymm4
  4036bd:	c4 e2 d5 b8 ed       	vfmadd231pd %ymm5,%ymm5,%ymm5
  4036c2:	c4 e2 e5 b8 db       	vfmadd231pd %ymm3,%ymm3,%ymm3
  4036c7:	c4 e2 f5 b8 c9       	vfmadd231pd %ymm1,%ymm1,%ymm1
  4036cc:	c4 e2 ed b8 d2       	vfmadd231pd %ymm2,%ymm2,%ymm2
  4036d1:	c4 e2 fd b8 c0       	vfmadd231pd %ymm0,%ymm0,%ymm0
  4036d6:	c4 e2 c5 b8 ff       	vfmadd231pd %ymm7,%ymm7,%ymm7
  4036db:	c4 e2 cd b8 f6       	vfmadd231pd %ymm6,%ymm6,%ymm6
  4036e0:	c4 e2 dd b8 e4       	vfmadd231pd %ymm4,%ymm4,%ymm4
  4036e5:	c4 e2 d5 b8 ed       	vfmadd231pd %ymm5,%ymm5,%ymm5
  4036ea:	c4 e2 e5 b8 db       	vfmadd231pd %ymm3,%ymm3,%ymm3
  4036ef:	c4 e2 f5 b8 c9       	vfmadd231pd %ymm1,%ymm1,%ymm1
  4036f4:	c4 e2 ed b8 d2       	vfmadd231pd %ymm2,%ymm2,%ymm2
  4036f9:	c4 e2 fd b8 c0       	vfmadd231pd %ymm0,%ymm0,%ymm0
  4036fe:	c4 e2 c5 b8 ff       	vfmadd231pd %ymm7,%ymm7,%ymm7
  403703:	c4 e2 cd b8 f6       	vfmadd231pd %ymm6,%ymm6,%ymm6
  403708:	c4 e2 dd b8 e4       	vfmadd231pd %ymm4,%ymm4,%ymm4
  40370d:	c4 e2 d5 b8 ed       	vfmadd231pd %ymm5,%ymm5,%ymm5
  403712:	c4 e2 e5 b8 db       	vfmadd231pd %ymm3,%ymm3,%ymm3
  403717:	c4 e2 f5 b8 c9       	vfmadd231pd %ymm1,%ymm1,%ymm1
  40371c:	c4 e2 ed b8 d2       	vfmadd231pd %ymm2,%ymm2,%ymm2
  403721:	c4 e2 fd b8 c0       	vfmadd231pd %ymm0,%ymm0,%ymm0
  403726:	c4 e2 c5 b8 ff       	vfmadd231pd %ymm7,%ymm7,%ymm7
  40372b:	c4 e2 cd b8 f6       	vfmadd231pd %ymm6,%ymm6,%ymm6
  403730:	c4 e2 dd b8 e4       	vfmadd231pd %ymm4,%ymm4,%ymm4
  403735:	c4 e2 d5 b8 ed       	vfmadd231pd %ymm5,%ymm5,%ymm5
  40373a:	c4 e2 e5 b8 db       	vfmadd231pd %ymm3,%ymm3,%ymm3
  40373f:	c4 e2 f5 b8 c9       	vfmadd231pd %ymm1,%ymm1,%ymm1
  403744:	c4 e2 ed b8 d2       	vfmadd231pd %ymm2,%ymm2,%ymm2
  403749:	c4 e2 fd b8 c0       	vfmadd231pd %ymm0,%ymm0,%ymm0
  40374e:	c4 e2 c5 b8 ff       	vfmadd231pd %ymm7,%ymm7,%ymm7
  403753:	c4 e2 cd b8 f6       	vfmadd231pd %ymm6,%ymm6,%ymm6
  403758:	c4 e2 dd b8 e4       	vfmadd231pd %ymm4,%ymm4,%ymm4
  40375d:	c4 e2 d5 b8 ed       	vfmadd231pd %ymm5,%ymm5,%ymm5
  403762:	c4 e2 e5 b8 db       	vfmadd231pd %ymm3,%ymm3,%ymm3
  403767:	c4 e2 f5 b8 c9       	vfmadd231pd %ymm1,%ymm1,%ymm1
  40376c:	c4 e2 ed b8 d2       	vfmadd231pd %ymm2,%ymm2,%ymm2
  403771:	c4 e2 fd b8 c0       	vfmadd231pd %ymm0,%ymm0,%ymm0
  403776:	c4 e2 c5 b8 ff       	vfmadd231pd %ymm7,%ymm7,%ymm7
  40377b:	c4 e2 cd b8 f6       	vfmadd231pd %ymm6,%ymm6,%ymm6
  403780:	c4 e2 dd b8 e4       	vfmadd231pd %ymm4,%ymm4,%ymm4
  403785:	c4 e2 d5 b8 ed       	vfmadd231pd %ymm5,%ymm5,%ymm5
  40378a:	c4 e2 e5 b8 db       	vfmadd231pd %ymm3,%ymm3,%ymm3
  40378f:	c4 e2 f5 b8 c9       	vfmadd231pd %ymm1,%ymm1,%ymm1
  403794:	c4 e2 ed b8 d2       	vfmadd231pd %ymm2,%ymm2,%ymm2
  403799:	c4 e2 fd b8 c0       	vfmadd231pd %ymm0,%ymm0,%ymm0
  40379e:	c4 e2 c5 b8 ff       	vfmadd231pd %ymm7,%ymm7,%ymm7
  4037a3:	c4 e2 cd b8 f6       	vfmadd231pd %ymm6,%ymm6,%ymm6
  4037a8:	c4 e2 dd b8 e4       	vfmadd231pd %ymm4,%ymm4,%ymm4
  4037ad:	c4 e2 d5 b8 ed       	vfmadd231pd %ymm5,%ymm5,%ymm5
  4037b2:	c4 e2 e5 b8 db       	vfmadd231pd %ymm3,%ymm3,%ymm3
  4037b7:	c4 e2 f5 b8 c9       	vfmadd231pd %ymm1,%ymm1,%ymm1
  4037bc:	c4 e2 ed b8 d2       	vfmadd231pd %ymm2,%ymm2,%ymm2
  4037c1:	c4 e2 fd b8 c0       	vfmadd231pd %ymm0,%ymm0,%ymm0
  4037c6:	c4 e2 c5 b8 ff       	vfmadd231pd %ymm7,%ymm7,%ymm7
  4037cb:	c4 e2 cd b8 f6       	vfmadd231pd %ymm6,%ymm6,%ymm6
  4037d0:	c4 e2 dd b8 e4       	vfmadd231pd %ymm4,%ymm4,%ymm4
  4037d5:	c4 e2 d5 b8 ed       	vfmadd231pd %ymm5,%ymm5,%ymm5
  4037da:	c4 e2 e5 b8 db       	vfmadd231pd %ymm3,%ymm3,%ymm3
  4037df:	c4 e2 f5 b8 c9       	vfmadd231pd %ymm1,%ymm1,%ymm1
  4037e4:	c4 e2 ed b8 d2       	vfmadd231pd %ymm2,%ymm2,%ymm2
  4037e9:	c4 e2 fd b8 c0       	vfmadd231pd %ymm0,%ymm0,%ymm0
  4037ee:	c4 e2 c5 b8 ff       	vfmadd231pd %ymm7,%ymm7,%ymm7
  4037f3:	c4 e2 cd b8 f6       	vfmadd231pd %ymm6,%ymm6,%ymm6
  4037f8:	c4 e2 dd b8 e4       	vfmadd231pd %ymm4,%ymm4,%ymm4
  4037fd:	c4 e2 d5 b8 ed       	vfmadd231pd %ymm5,%ymm5,%ymm5
  403802:	c4 e2 e5 b8 db       	vfmadd231pd %ymm3,%ymm3,%ymm3
  403807:	c4 e2 f5 b8 c9       	vfmadd231pd %ymm1,%ymm1,%ymm1
  40380c:	c4 e2 ed b8 d2       	vfmadd231pd %ymm2,%ymm2,%ymm2
  403811:	c4 e2 fd b8 c0       	vfmadd231pd %ymm0,%ymm0,%ymm0
  403816:	c4 e2 c5 b8 ff       	vfmadd231pd %ymm7,%ymm7,%ymm7
  40381b:	c4 e2 cd b8 f6       	vfmadd231pd %ymm6,%ymm6,%ymm6
  403820:	c4 e2 dd b8 e4       	vfmadd231pd %ymm4,%ymm4,%ymm4
  403825:	c4 e2 d5 b8 ed       	vfmadd231pd %ymm5,%ymm5,%ymm5
  40382a:	c4 e2 e5 b8 db       	vfmadd231pd %ymm3,%ymm3,%ymm3
  40382f:	c4 e2 f5 b8 c9       	vfmadd231pd %ymm1,%ymm1,%ymm1
  403834:	c4 e2 ed b8 d2       	vfmadd231pd %ymm2,%ymm2,%ymm2
  403839:	c4 e2 fd b8 c0       	vfmadd231pd %ymm0,%ymm0,%ymm0
  40383e:	c4 e2 c5 b8 ff       	vfmadd231pd %ymm7,%ymm7,%ymm7
  403843:	c4 e2 cd b8 f6       	vfmadd231pd %ymm6,%ymm6,%ymm6
  403848:	c4 e2 dd b8 e4       	vfmadd231pd %ymm4,%ymm4,%ymm4
  40384d:	c4 e2 d5 b8 ed       	vfmadd231pd %ymm5,%ymm5,%ymm5
  403852:	c4 e2 e5 b8 db       	vfmadd231pd %ymm3,%ymm3,%ymm3
  403857:	c4 e2 f5 b8 c9       	vfmadd231pd %ymm1,%ymm1,%ymm1
  40385c:	c4 e2 ed b8 d2       	vfmadd231pd %ymm2,%ymm2,%ymm2
  403861:	c4 e2 fd b8 c0       	vfmadd231pd %ymm0,%ymm0,%ymm0
  403866:	c4 e2 c5 b8 ff       	vfmadd231pd %ymm7,%ymm7,%ymm7
  40386b:	c4 e2 cd b8 f6       	vfmadd231pd %ymm6,%ymm6,%ymm6
  403870:	c4 e2 dd b8 e4       	vfmadd231pd %ymm4,%ymm4,%ymm4
  403875:	c4 e2 d5 b8 ed       	vfmadd231pd %ymm5,%ymm5,%ymm5
  40387a:	c4 e2 e5 b8 db       	vfmadd231pd %ymm3,%ymm3,%ymm3
  40387f:	c4 e2 f5 b8 c9       	vfmadd231pd %ymm1,%ymm1,%ymm1
  403884:	c4 e2 ed b8 d2       	vfmadd231pd %ymm2,%ymm2,%ymm2
  403889:	c4 e2 fd b8 c0       	vfmadd231pd %ymm0,%ymm0,%ymm0
  40388e:	c4 e2 c5 b8 ff       	vfmadd231pd %ymm7,%ymm7,%ymm7
  403893:	c4 e2 cd b8 f6       	vfmadd231pd %ymm6,%ymm6,%ymm6
  403898:	c4 e2 dd b8 e4       	vfmadd231pd %ymm4,%ymm4,%ymm4
  40389d:	c4 e2 d5 b8 ed       	vfmadd231pd %ymm5,%ymm5,%ymm5
  4038a2:	c4 e2 e5 b8 db       	vfmadd231pd %ymm3,%ymm3,%ymm3
  4038a7:	c4 e2 f5 b8 c9       	vfmadd231pd %ymm1,%ymm1,%ymm1
  4038ac:	c4 e2 ed b8 d2       	vfmadd231pd %ymm2,%ymm2,%ymm2
  4038b1:	c4 e2 fd b8 c0       	vfmadd231pd %ymm0,%ymm0,%ymm0
  4038b6:	c4 e2 c5 b8 ff       	vfmadd231pd %ymm7,%ymm7,%ymm7
  4038bb:	c4 e2 cd b8 f6       	vfmadd231pd %ymm6,%ymm6,%ymm6
  4038c0:	c4 e2 dd b8 e4       	vfmadd231pd %ymm4,%ymm4,%ymm4
  4038c5:	c4 e2 d5 b8 ed       	vfmadd231pd %ymm5,%ymm5,%ymm5
  4038ca:	c4 e2 e5 b8 db       	vfmadd231pd %ymm3,%ymm3,%ymm3
  4038cf:	c4 e2 f5 b8 c9       	vfmadd231pd %ymm1,%ymm1,%ymm1
  4038d4:	c4 e2 ed b8 d2       	vfmadd231pd %ymm2,%ymm2,%ymm2
  4038d9:	c4 e2 fd b8 c0       	vfmadd231pd %ymm0,%ymm0,%ymm0
  4038de:	c4 e2 c5 b8 ff       	vfmadd231pd %ymm7,%ymm7,%ymm7
  4038e3:	c4 e2 cd b8 f6       	vfmadd231pd %ymm6,%ymm6,%ymm6
  4038e8:	c4 e2 dd b8 e4       	vfmadd231pd %ymm4,%ymm4,%ymm4
  4038ed:	c4 e2 d5 b8 ed       	vfmadd231pd %ymm5,%ymm5,%ymm5
  4038f2:	c4 e2 e5 b8 db       	vfmadd231pd %ymm3,%ymm3,%ymm3
  4038f7:	c4 e2 f5 b8 c9       	vfmadd231pd %ymm1,%ymm1,%ymm1
  4038fc:	c4 e2 ed b8 d2       	vfmadd231pd %ymm2,%ymm2,%ymm2
  403901:	c4 e2 fd b8 c0       	vfmadd231pd %ymm0,%ymm0,%ymm0
  403906:	c4 e2 c5 b8 ff       	vfmadd231pd %ymm7,%ymm7,%ymm7
  40390b:	c4 e2 cd b8 f6       	vfmadd231pd %ymm6,%ymm6,%ymm6
  403910:	c4 e2 dd b8 e4       	vfmadd231pd %ymm4,%ymm4,%ymm4
  403915:	c4 e2 d5 b8 ed       	vfmadd231pd %ymm5,%ymm5,%ymm5
  40391a:	c4 e2 e5 b8 db       	vfmadd231pd %ymm3,%ymm3,%ymm3
  40391f:	c4 e2 f5 b8 c9       	vfmadd231pd %ymm1,%ymm1,%ymm1
  403924:	c4 e2 ed b8 d2       	vfmadd231pd %ymm2,%ymm2,%ymm2
  403929:	c4 e2 fd b8 c0       	vfmadd231pd %ymm0,%ymm0,%ymm0
  40392e:	c4 e2 c5 b8 ff       	vfmadd231pd %ymm7,%ymm7,%ymm7
  403933:	c4 e2 cd b8 f6       	vfmadd231pd %ymm6,%ymm6,%ymm6
  403938:	c4 e2 dd b8 e4       	vfmadd231pd %ymm4,%ymm4,%ymm4
  40393d:	c4 e2 d5 b8 ed       	vfmadd231pd %ymm5,%ymm5,%ymm5
  403942:	c4 e2 e5 b8 db       	vfmadd231pd %ymm3,%ymm3,%ymm3
  403947:	c4 e2 f5 b8 c9       	vfmadd231pd %ymm1,%ymm1,%ymm1
  40394c:	c4 e2 ed b8 d2       	vfmadd231pd %ymm2,%ymm2,%ymm2
  403951:	c4 e2 fd b8 c0       	vfmadd231pd %ymm0,%ymm0,%ymm0
  403956:	c4 e2 c5 b8 ff       	vfmadd231pd %ymm7,%ymm7,%ymm7
  40395b:	c4 e2 cd b8 f6       	vfmadd231pd %ymm6,%ymm6,%ymm6
  403960:	c4 e2 dd b8 e4       	vfmadd231pd %ymm4,%ymm4,%ymm4
  403965:	c4 e2 d5 b8 ed       	vfmadd231pd %ymm5,%ymm5,%ymm5
  40396a:	c4 e2 e5 b8 db       	vfmadd231pd %ymm3,%ymm3,%ymm3
  40396f:	c4 e2 f5 b8 c9       	vfmadd231pd %ymm1,%ymm1,%ymm1
  403974:	c4 e2 ed b8 d2       	vfmadd231pd %ymm2,%ymm2,%ymm2
  403979:	c4 e2 fd b8 c0       	vfmadd231pd %ymm0,%ymm0,%ymm0
  40397e:	c4 e2 c5 b8 ff       	vfmadd231pd %ymm7,%ymm7,%ymm7
  403983:	c4 e2 cd b8 f6       	vfmadd231pd %ymm6,%ymm6,%ymm6
  403988:	c4 e2 dd b8 e4       	vfmadd231pd %ymm4,%ymm4,%ymm4
  40398d:	c4 e2 d5 b8 ed       	vfmadd231pd %ymm5,%ymm5,%ymm5
  403992:	c4 e2 e5 b8 db       	vfmadd231pd %ymm3,%ymm3,%ymm3
  403997:	c4 e2 f5 b8 c9       	vfmadd231pd %ymm1,%ymm1,%ymm1
  40399c:	c4 e2 ed b8 d2       	vfmadd231pd %ymm2,%ymm2,%ymm2
  4039a1:	c4 e2 fd b8 c0       	vfmadd231pd %ymm0,%ymm0,%ymm0
  4039a6:	c4 e2 c5 b8 ff       	vfmadd231pd %ymm7,%ymm7,%ymm7
  4039ab:	c4 e2 cd b8 f6       	vfmadd231pd %ymm6,%ymm6,%ymm6
  4039b0:	c4 e2 dd b8 e4       	vfmadd231pd %ymm4,%ymm4,%ymm4
  4039b5:	c4 e2 d5 b8 ed       	vfmadd231pd %ymm5,%ymm5,%ymm5
  4039ba:	c4 e2 e5 b8 db       	vfmadd231pd %ymm3,%ymm3,%ymm3
  4039bf:	c4 e2 f5 b8 c9       	vfmadd231pd %ymm1,%ymm1,%ymm1
  4039c4:	c4 e2 ed b8 d2       	vfmadd231pd %ymm2,%ymm2,%ymm2
  4039c9:	c4 e2 fd b8 c0       	vfmadd231pd %ymm0,%ymm0,%ymm0
  4039ce:	c4 e2 c5 b8 ff       	vfmadd231pd %ymm7,%ymm7,%ymm7
  4039d3:	c4 e2 cd b8 f6       	vfmadd231pd %ymm6,%ymm6,%ymm6
  4039d8:	c4 e2 dd b8 e4       	vfmadd231pd %ymm4,%ymm4,%ymm4
  4039dd:	c4 e2 d5 b8 ed       	vfmadd231pd %ymm5,%ymm5,%ymm5
  4039e2:	c4 e2 e5 b8 db       	vfmadd231pd %ymm3,%ymm3,%ymm3
  4039e7:	c4 e2 f5 b8 c9       	vfmadd231pd %ymm1,%ymm1,%ymm1
  4039ec:	c4 e2 ed b8 d2       	vfmadd231pd %ymm2,%ymm2,%ymm2
  4039f1:	c4 e2 fd b8 c0       	vfmadd231pd %ymm0,%ymm0,%ymm0
  4039f6:	c4 e2 c5 b8 ff       	vfmadd231pd %ymm7,%ymm7,%ymm7
  4039fb:	c4 e2 cd b8 f6       	vfmadd231pd %ymm6,%ymm6,%ymm6
  403a00:	c4 e2 dd b8 e4       	vfmadd231pd %ymm4,%ymm4,%ymm4
  403a05:	c4 e2 d5 b8 ed       	vfmadd231pd %ymm5,%ymm5,%ymm5
  403a0a:	c4 e2 e5 b8 db       	vfmadd231pd %ymm3,%ymm3,%ymm3
  403a0f:	c4 e2 f5 b8 c9       	vfmadd231pd %ymm1,%ymm1,%ymm1
  403a14:	c4 e2 ed b8 d2       	vfmadd231pd %ymm2,%ymm2,%ymm2
  403a19:	c4 e2 fd b8 c0       	vfmadd231pd %ymm0,%ymm0,%ymm0
  403a1e:	c4 e2 c5 b8 ff       	vfmadd231pd %ymm7,%ymm7,%ymm7
  403a23:	c4 e2 cd b8 f6       	vfmadd231pd %ymm6,%ymm6,%ymm6
  403a28:	c4 e2 dd b8 e4       	vfmadd231pd %ymm4,%ymm4,%ymm4
  403a2d:	c4 e2 d5 b8 ed       	vfmadd231pd %ymm5,%ymm5,%ymm5
  403a32:	c4 e2 e5 b8 db       	vfmadd231pd %ymm3,%ymm3,%ymm3
  403a37:	c4 e2 f5 b8 c9       	vfmadd231pd %ymm1,%ymm1,%ymm1
  403a3c:	c4 e2 ed b8 d2       	vfmadd231pd %ymm2,%ymm2,%ymm2
  403a41:	c4 e2 fd b8 c0       	vfmadd231pd %ymm0,%ymm0,%ymm0
  403a46:	c4 e2 c5 b8 ff       	vfmadd231pd %ymm7,%ymm7,%ymm7
  403a4b:	c4 e2 cd b8 f6       	vfmadd231pd %ymm6,%ymm6,%ymm6
  403a50:	c4 e2 dd b8 e4       	vfmadd231pd %ymm4,%ymm4,%ymm4
  403a55:	c4 e2 d5 b8 ed       	vfmadd231pd %ymm5,%ymm5,%ymm5
  403a5a:	c4 e2 e5 b8 db       	vfmadd231pd %ymm3,%ymm3,%ymm3
  403a5f:	c4 e2 f5 b8 c9       	vfmadd231pd %ymm1,%ymm1,%ymm1
  403a64:	c4 e2 ed b8 d2       	vfmadd231pd %ymm2,%ymm2,%ymm2
  403a69:	c4 e2 fd b8 c0       	vfmadd231pd %ymm0,%ymm0,%ymm0
  403a6e:	c4 e2 c5 b8 ff       	vfmadd231pd %ymm7,%ymm7,%ymm7
  403a73:	c4 e2 cd b8 f6       	vfmadd231pd %ymm6,%ymm6,%ymm6
  403a78:	c4 e2 dd b8 e4       	vfmadd231pd %ymm4,%ymm4,%ymm4
  403a7d:	c4 e2 d5 b8 ed       	vfmadd231pd %ymm5,%ymm5,%ymm5
  403a82:	c4 e2 e5 b8 db       	vfmadd231pd %ymm3,%ymm3,%ymm3
  403a87:	c4 e2 f5 b8 c9       	vfmadd231pd %ymm1,%ymm1,%ymm1
  403a8c:	c4 e2 ed b8 d2       	vfmadd231pd %ymm2,%ymm2,%ymm2
  403a91:	c4 e2 fd b8 c0       	vfmadd231pd %ymm0,%ymm0,%ymm0
  403a96:	c4 e2 c5 b8 ff       	vfmadd231pd %ymm7,%ymm7,%ymm7
  403a9b:	c4 e2 cd b8 f6       	vfmadd231pd %ymm6,%ymm6,%ymm6
  403aa0:	c4 e2 dd b8 e4       	vfmadd231pd %ymm4,%ymm4,%ymm4
  403aa5:	c4 e2 d5 b8 ed       	vfmadd231pd %ymm5,%ymm5,%ymm5
  403aaa:	c4 e2 e5 b8 db       	vfmadd231pd %ymm3,%ymm3,%ymm3
  403aaf:	c4 e2 f5 b8 c9       	vfmadd231pd %ymm1,%ymm1,%ymm1
  403ab4:	c4 e2 ed b8 d2       	vfmadd231pd %ymm2,%ymm2,%ymm2
  403ab9:	c4 e2 fd b8 c0       	vfmadd231pd %ymm0,%ymm0,%ymm0
  403abe:	c4 e2 c5 b8 ff       	vfmadd231pd %ymm7,%ymm7,%ymm7
  403ac3:	c4 e2 cd b8 f6       	vfmadd231pd %ymm6,%ymm6,%ymm6
  403ac8:	c4 e2 dd b8 e4       	vfmadd231pd %ymm4,%ymm4,%ymm4
  403acd:	c4 e2 d5 b8 ed       	vfmadd231pd %ymm5,%ymm5,%ymm5
  403ad2:	c4 e2 e5 b8 db       	vfmadd231pd %ymm3,%ymm3,%ymm3
  403ad7:	c4 e2 f5 b8 c9       	vfmadd231pd %ymm1,%ymm1,%ymm1
  403adc:	c4 e2 ed b8 d2       	vfmadd231pd %ymm2,%ymm2,%ymm2
  403ae1:	c4 e2 fd b8 c0       	vfmadd231pd %ymm0,%ymm0,%ymm0
  403ae6:	c4 e2 c5 b8 ff       	vfmadd231pd %ymm7,%ymm7,%ymm7
  403aeb:	c4 e2 cd b8 f6       	vfmadd231pd %ymm6,%ymm6,%ymm6
  403af0:	c4 e2 dd b8 e4       	vfmadd231pd %ymm4,%ymm4,%ymm4
  403af5:	c4 e2 d5 b8 ed       	vfmadd231pd %ymm5,%ymm5,%ymm5
  403afa:	c4 e2 e5 b8 db       	vfmadd231pd %ymm3,%ymm3,%ymm3
  403aff:	c4 e2 f5 b8 c9       	vfmadd231pd %ymm1,%ymm1,%ymm1
  403b04:	c4 e2 ed b8 d2       	vfmadd231pd %ymm2,%ymm2,%ymm2
  403b09:	c4 e2 fd b8 c0       	vfmadd231pd %ymm0,%ymm0,%ymm0
  403b0e:	c4 e2 c5 b8 ff       	vfmadd231pd %ymm7,%ymm7,%ymm7
  403b13:	c4 e2 cd b8 f6       	vfmadd231pd %ymm6,%ymm6,%ymm6
  403b18:	c4 e2 dd b8 e4       	vfmadd231pd %ymm4,%ymm4,%ymm4
  403b1d:	c4 e2 d5 b8 ed       	vfmadd231pd %ymm5,%ymm5,%ymm5
  403b22:	c4 e2 e5 b8 db       	vfmadd231pd %ymm3,%ymm3,%ymm3
  403b27:	c4 e2 f5 b8 c9       	vfmadd231pd %ymm1,%ymm1,%ymm1
  403b2c:	c4 e2 ed b8 d2       	vfmadd231pd %ymm2,%ymm2,%ymm2
  403b31:	c4 e2 fd b8 c0       	vfmadd231pd %ymm0,%ymm0,%ymm0
  403b36:	c4 e2 c5 b8 ff       	vfmadd231pd %ymm7,%ymm7,%ymm7
  403b3b:	c4 e2 cd b8 f6       	vfmadd231pd %ymm6,%ymm6,%ymm6
  403b40:	c4 e2 dd b8 e4       	vfmadd231pd %ymm4,%ymm4,%ymm4
  403b45:	c4 e2 d5 b8 ed       	vfmadd231pd %ymm5,%ymm5,%ymm5
  403b4a:	c4 e2 e5 b8 db       	vfmadd231pd %ymm3,%ymm3,%ymm3
  403b4f:	c4 e2 f5 b8 c9       	vfmadd231pd %ymm1,%ymm1,%ymm1
  403b54:	c4 e2 ed b8 d2       	vfmadd231pd %ymm2,%ymm2,%ymm2
  403b59:	c4 e2 fd b8 c0       	vfmadd231pd %ymm0,%ymm0,%ymm0
  403b5e:	c4 e2 c5 b8 ff       	vfmadd231pd %ymm7,%ymm7,%ymm7
  403b63:	c4 e2 cd b8 f6       	vfmadd231pd %ymm6,%ymm6,%ymm6
  403b68:	c4 e2 dd b8 e4       	vfmadd231pd %ymm4,%ymm4,%ymm4
  403b6d:	c4 e2 d5 b8 ed       	vfmadd231pd %ymm5,%ymm5,%ymm5
  403b72:	c4 e2 e5 b8 db       	vfmadd231pd %ymm3,%ymm3,%ymm3
  403b77:	c4 e2 f5 b8 c9       	vfmadd231pd %ymm1,%ymm1,%ymm1
  403b7c:	c4 e2 ed b8 d2       	vfmadd231pd %ymm2,%ymm2,%ymm2
  403b81:	c4 e2 fd b8 c0       	vfmadd231pd %ymm0,%ymm0,%ymm0
  403b86:	c4 e2 c5 b8 ff       	vfmadd231pd %ymm7,%ymm7,%ymm7
  403b8b:	c4 e2 cd b8 f6       	vfmadd231pd %ymm6,%ymm6,%ymm6
  403b90:	c4 e2 dd b8 e4       	vfmadd231pd %ymm4,%ymm4,%ymm4
  403b95:	c4 e2 d5 b8 ed       	vfmadd231pd %ymm5,%ymm5,%ymm5
  403b9a:	c4 e2 e5 b8 db       	vfmadd231pd %ymm3,%ymm3,%ymm3
  403b9f:	c4 e2 f5 b8 c9       	vfmadd231pd %ymm1,%ymm1,%ymm1
  403ba4:	c4 e2 ed b8 d2       	vfmadd231pd %ymm2,%ymm2,%ymm2
  403ba9:	c4 e2 fd b8 c0       	vfmadd231pd %ymm0,%ymm0,%ymm0
  403bae:	c4 e2 c5 b8 ff       	vfmadd231pd %ymm7,%ymm7,%ymm7
  403bb3:	c4 e2 cd b8 f6       	vfmadd231pd %ymm6,%ymm6,%ymm6
  403bb8:	c4 e2 dd b8 e4       	vfmadd231pd %ymm4,%ymm4,%ymm4
  403bbd:	c4 e2 d5 b8 ed       	vfmadd231pd %ymm5,%ymm5,%ymm5
  403bc2:	c4 e2 e5 b8 db       	vfmadd231pd %ymm3,%ymm3,%ymm3
  403bc7:	c4 e2 f5 b8 c9       	vfmadd231pd %ymm1,%ymm1,%ymm1
  403bcc:	c4 e2 ed b8 d2       	vfmadd231pd %ymm2,%ymm2,%ymm2
  403bd1:	c4 e2 fd b8 c0       	vfmadd231pd %ymm0,%ymm0,%ymm0
  403bd6:	c4 e2 c5 b8 ff       	vfmadd231pd %ymm7,%ymm7,%ymm7
  403bdb:	c4 e2 cd b8 f6       	vfmadd231pd %ymm6,%ymm6,%ymm6
  403be0:	c4 e2 dd b8 e4       	vfmadd231pd %ymm4,%ymm4,%ymm4
  403be5:	c4 e2 d5 b8 ed       	vfmadd231pd %ymm5,%ymm5,%ymm5
  403bea:	c4 e2 e5 b8 db       	vfmadd231pd %ymm3,%ymm3,%ymm3
  403bef:	c4 e2 f5 b8 c9       	vfmadd231pd %ymm1,%ymm1,%ymm1
  403bf4:	c4 e2 ed b8 d2       	vfmadd231pd %ymm2,%ymm2,%ymm2
  403bf9:	c4 e2 fd b8 c0       	vfmadd231pd %ymm0,%ymm0,%ymm0
  403bfe:	c4 e2 c5 b8 ff       	vfmadd231pd %ymm7,%ymm7,%ymm7
  403c03:	c4 e2 cd b8 f6       	vfmadd231pd %ymm6,%ymm6,%ymm6
  403c08:	c4 e2 dd b8 e4       	vfmadd231pd %ymm4,%ymm4,%ymm4
  403c0d:	c4 e2 d5 b8 ed       	vfmadd231pd %ymm5,%ymm5,%ymm5
  403c12:	c4 e2 e5 b8 db       	vfmadd231pd %ymm3,%ymm3,%ymm3
  403c17:	c4 e2 f5 b8 c9       	vfmadd231pd %ymm1,%ymm1,%ymm1
  403c1c:	c4 e2 ed b8 d2       	vfmadd231pd %ymm2,%ymm2,%ymm2
  403c21:	c4 e2 fd b8 c0       	vfmadd231pd %ymm0,%ymm0,%ymm0
  403c26:	c4 e2 c5 b8 ff       	vfmadd231pd %ymm7,%ymm7,%ymm7
  403c2b:	c4 e2 cd b8 f6       	vfmadd231pd %ymm6,%ymm6,%ymm6
  403c30:	c4 e2 dd b8 e4       	vfmadd231pd %ymm4,%ymm4,%ymm4
  403c35:	c4 e2 d5 b8 ed       	vfmadd231pd %ymm5,%ymm5,%ymm5
  403c3a:	c4 e2 e5 b8 db       	vfmadd231pd %ymm3,%ymm3,%ymm3
  403c3f:	c4 e2 f5 b8 c9       	vfmadd231pd %ymm1,%ymm1,%ymm1
  403c44:	c4 e2 ed b8 d2       	vfmadd231pd %ymm2,%ymm2,%ymm2
  403c49:	c4 e2 fd b8 c0       	vfmadd231pd %ymm0,%ymm0,%ymm0
  403c4e:	c4 e2 c5 b8 ff       	vfmadd231pd %ymm7,%ymm7,%ymm7
  403c53:	c4 e2 cd b8 f6       	vfmadd231pd %ymm6,%ymm6,%ymm6
  403c58:	c4 e2 dd b8 e4       	vfmadd231pd %ymm4,%ymm4,%ymm4
  403c5d:	c4 e2 d5 b8 ed       	vfmadd231pd %ymm5,%ymm5,%ymm5
  403c62:	c4 e2 e5 b8 db       	vfmadd231pd %ymm3,%ymm3,%ymm3
  403c67:	c4 e2 f5 b8 c9       	vfmadd231pd %ymm1,%ymm1,%ymm1
  403c6c:	c4 e2 ed b8 d2       	vfmadd231pd %ymm2,%ymm2,%ymm2
  403c71:	c4 e2 fd b8 c0       	vfmadd231pd %ymm0,%ymm0,%ymm0
  403c76:	c4 e2 c5 b8 ff       	vfmadd231pd %ymm7,%ymm7,%ymm7
  403c7b:	c4 e2 cd b8 f6       	vfmadd231pd %ymm6,%ymm6,%ymm6
  403c80:	c4 e2 dd b8 e4       	vfmadd231pd %ymm4,%ymm4,%ymm4
  403c85:	c4 e2 d5 b8 ed       	vfmadd231pd %ymm5,%ymm5,%ymm5
  403c8a:	c4 e2 e5 b8 db       	vfmadd231pd %ymm3,%ymm3,%ymm3
  403c8f:	c4 e2 f5 b8 c9       	vfmadd231pd %ymm1,%ymm1,%ymm1
  403c94:	c4 e2 ed b8 d2       	vfmadd231pd %ymm2,%ymm2,%ymm2
  403c99:	c4 e2 fd b8 c0       	vfmadd231pd %ymm0,%ymm0,%ymm0
  403c9e:	c4 e2 c5 b8 ff       	vfmadd231pd %ymm7,%ymm7,%ymm7
  403ca3:	c4 e2 cd b8 f6       	vfmadd231pd %ymm6,%ymm6,%ymm6
  403ca8:	c4 e2 dd b8 e4       	vfmadd231pd %ymm4,%ymm4,%ymm4
  403cad:	c4 e2 d5 b8 ed       	vfmadd231pd %ymm5,%ymm5,%ymm5
  403cb2:	c4 e2 e5 b8 db       	vfmadd231pd %ymm3,%ymm3,%ymm3
  403cb7:	c4 e2 f5 b8 c9       	vfmadd231pd %ymm1,%ymm1,%ymm1
  403cbc:	c4 e2 ed b8 d2       	vfmadd231pd %ymm2,%ymm2,%ymm2
  403cc1:	c4 e2 fd b8 c0       	vfmadd231pd %ymm0,%ymm0,%ymm0
  403cc6:	c4 e2 c5 b8 ff       	vfmadd231pd %ymm7,%ymm7,%ymm7
  403ccb:	c4 e2 cd b8 f6       	vfmadd231pd %ymm6,%ymm6,%ymm6
  403cd0:	c4 e2 dd b8 e4       	vfmadd231pd %ymm4,%ymm4,%ymm4
  403cd5:	c4 e2 d5 b8 ed       	vfmadd231pd %ymm5,%ymm5,%ymm5
  403cda:	c4 e2 e5 b8 db       	vfmadd231pd %ymm3,%ymm3,%ymm3
  403cdf:	c4 e2 f5 b8 c9       	vfmadd231pd %ymm1,%ymm1,%ymm1
  403ce4:	c4 e2 ed b8 d2       	vfmadd231pd %ymm2,%ymm2,%ymm2
  403ce9:	c4 e2 fd b8 c0       	vfmadd231pd %ymm0,%ymm0,%ymm0
  403cee:	c4 e2 c5 b8 ff       	vfmadd231pd %ymm7,%ymm7,%ymm7
  403cf3:	c4 e2 cd b8 f6       	vfmadd231pd %ymm6,%ymm6,%ymm6
  403cf8:	c4 e2 dd b8 e4       	vfmadd231pd %ymm4,%ymm4,%ymm4
  403cfd:	c4 e2 d5 b8 ed       	vfmadd231pd %ymm5,%ymm5,%ymm5
  403d02:	c4 e2 e5 b8 db       	vfmadd231pd %ymm3,%ymm3,%ymm3
  403d07:	c4 e2 f5 b8 c9       	vfmadd231pd %ymm1,%ymm1,%ymm1
  403d0c:	c4 e2 ed b8 d2       	vfmadd231pd %ymm2,%ymm2,%ymm2
  403d11:	c4 e2 fd b8 c0       	vfmadd231pd %ymm0,%ymm0,%ymm0
  403d16:	c4 e2 c5 b8 ff       	vfmadd231pd %ymm7,%ymm7,%ymm7
  403d1b:	c4 e2 cd b8 f6       	vfmadd231pd %ymm6,%ymm6,%ymm6
  403d20:	c4 e2 dd b8 e4       	vfmadd231pd %ymm4,%ymm4,%ymm4
  403d25:	c4 e2 d5 b8 ed       	vfmadd231pd %ymm5,%ymm5,%ymm5
  403d2a:	c4 e2 e5 b8 db       	vfmadd231pd %ymm3,%ymm3,%ymm3
  403d2f:	c4 e2 f5 b8 c9       	vfmadd231pd %ymm1,%ymm1,%ymm1
  403d34:	c4 e2 ed b8 d2       	vfmadd231pd %ymm2,%ymm2,%ymm2
  403d39:	c4 e2 fd b8 c0       	vfmadd231pd %ymm0,%ymm0,%ymm0
  403d3e:	c4 e2 c5 b8 ff       	vfmadd231pd %ymm7,%ymm7,%ymm7
  403d43:	c4 e2 cd b8 f6       	vfmadd231pd %ymm6,%ymm6,%ymm6
  403d48:	c4 e2 dd b8 e4       	vfmadd231pd %ymm4,%ymm4,%ymm4
  403d4d:	c4 e2 d5 b8 ed       	vfmadd231pd %ymm5,%ymm5,%ymm5
  403d52:	c4 e2 e5 b8 db       	vfmadd231pd %ymm3,%ymm3,%ymm3
  403d57:	c4 e2 f5 b8 c9       	vfmadd231pd %ymm1,%ymm1,%ymm1
  403d5c:	c4 e2 ed b8 d2       	vfmadd231pd %ymm2,%ymm2,%ymm2
  403d61:	c4 e2 fd b8 c0       	vfmadd231pd %ymm0,%ymm0,%ymm0
  403d66:	c4 e2 c5 b8 ff       	vfmadd231pd %ymm7,%ymm7,%ymm7
  403d6b:	c4 e2 cd b8 f6       	vfmadd231pd %ymm6,%ymm6,%ymm6
  403d70:	c4 e2 dd b8 e4       	vfmadd231pd %ymm4,%ymm4,%ymm4
  403d75:	c4 e2 d5 b8 ed       	vfmadd231pd %ymm5,%ymm5,%ymm5
  403d7a:	c4 e2 e5 b8 db       	vfmadd231pd %ymm3,%ymm3,%ymm3
  403d7f:	c4 e2 f5 b8 c9       	vfmadd231pd %ymm1,%ymm1,%ymm1
  403d84:	c4 e2 ed b8 d2       	vfmadd231pd %ymm2,%ymm2,%ymm2
  403d89:	c4 e2 fd b8 c0       	vfmadd231pd %ymm0,%ymm0,%ymm0
  403d8e:	c4 e2 c5 b8 ff       	vfmadd231pd %ymm7,%ymm7,%ymm7
  403d93:	c4 e2 cd b8 f6       	vfmadd231pd %ymm6,%ymm6,%ymm6
  403d98:	c4 e2 dd b8 e4       	vfmadd231pd %ymm4,%ymm4,%ymm4
  403d9d:	c4 e2 d5 b8 ed       	vfmadd231pd %ymm5,%ymm5,%ymm5
  403da2:	c4 e2 e5 b8 db       	vfmadd231pd %ymm3,%ymm3,%ymm3
  403da7:	c4 e2 f5 b8 c9       	vfmadd231pd %ymm1,%ymm1,%ymm1
  403dac:	c4 e2 ed b8 d2       	vfmadd231pd %ymm2,%ymm2,%ymm2
  403db1:	c4 e2 fd b8 c0       	vfmadd231pd %ymm0,%ymm0,%ymm0
  403db6:	c4 e2 c5 b8 ff       	vfmadd231pd %ymm7,%ymm7,%ymm7
  403dbb:	c4 e2 cd b8 f6       	vfmadd231pd %ymm6,%ymm6,%ymm6
  403dc0:	c4 e2 dd b8 e4       	vfmadd231pd %ymm4,%ymm4,%ymm4
  403dc5:	c4 e2 d5 b8 ed       	vfmadd231pd %ymm5,%ymm5,%ymm5
  403dca:	c4 e2 e5 b8 db       	vfmadd231pd %ymm3,%ymm3,%ymm3
  403dcf:	c4 e2 f5 b8 c9       	vfmadd231pd %ymm1,%ymm1,%ymm1
  403dd4:	c4 e2 ed b8 d2       	vfmadd231pd %ymm2,%ymm2,%ymm2
  403dd9:	c4 e2 fd b8 c0       	vfmadd231pd %ymm0,%ymm0,%ymm0
  403dde:	c4 e2 c5 b8 ff       	vfmadd231pd %ymm7,%ymm7,%ymm7
  403de3:	c4 e2 cd b8 f6       	vfmadd231pd %ymm6,%ymm6,%ymm6
  403de8:	c4 e2 dd b8 e4       	vfmadd231pd %ymm4,%ymm4,%ymm4
  403ded:	c4 e2 d5 b8 ed       	vfmadd231pd %ymm5,%ymm5,%ymm5
  403df2:	c4 e2 e5 b8 db       	vfmadd231pd %ymm3,%ymm3,%ymm3
  403df7:	c4 e2 f5 b8 c9       	vfmadd231pd %ymm1,%ymm1,%ymm1
  403dfc:	c4 e2 ed b8 d2       	vfmadd231pd %ymm2,%ymm2,%ymm2
  403e01:	c4 e2 fd b8 c0       	vfmadd231pd %ymm0,%ymm0,%ymm0
  403e06:	c4 e2 c5 b8 ff       	vfmadd231pd %ymm7,%ymm7,%ymm7
  403e0b:	c4 e2 cd b8 f6       	vfmadd231pd %ymm6,%ymm6,%ymm6
  403e10:	c4 e2 dd b8 e4       	vfmadd231pd %ymm4,%ymm4,%ymm4
  403e15:	c4 e2 d5 b8 ed       	vfmadd231pd %ymm5,%ymm5,%ymm5
  403e1a:	c4 e2 e5 b8 db       	vfmadd231pd %ymm3,%ymm3,%ymm3
  403e1f:	c4 e2 f5 b8 c9       	vfmadd231pd %ymm1,%ymm1,%ymm1
  403e24:	c4 e2 ed b8 d2       	vfmadd231pd %ymm2,%ymm2,%ymm2
  403e29:	c4 e2 fd b8 c0       	vfmadd231pd %ymm0,%ymm0,%ymm0
  403e2e:	c4 e2 c5 b8 ff       	vfmadd231pd %ymm7,%ymm7,%ymm7
  403e33:	c4 e2 cd b8 f6       	vfmadd231pd %ymm6,%ymm6,%ymm6
  403e38:	c4 e2 dd b8 e4       	vfmadd231pd %ymm4,%ymm4,%ymm4
  403e3d:	c4 e2 d5 b8 ed       	vfmadd231pd %ymm5,%ymm5,%ymm5
  403e42:	c4 e2 e5 b8 db       	vfmadd231pd %ymm3,%ymm3,%ymm3
  403e47:	c4 e2 f5 b8 c9       	vfmadd231pd %ymm1,%ymm1,%ymm1
  403e4c:	c4 e2 ed b8 d2       	vfmadd231pd %ymm2,%ymm2,%ymm2
  403e51:	c4 e2 fd b8 c0       	vfmadd231pd %ymm0,%ymm0,%ymm0
  403e56:	c4 e2 c5 b8 ff       	vfmadd231pd %ymm7,%ymm7,%ymm7
  403e5b:	c4 e2 cd b8 f6       	vfmadd231pd %ymm6,%ymm6,%ymm6
  403e60:	c4 e2 dd b8 e4       	vfmadd231pd %ymm4,%ymm4,%ymm4
  403e65:	c4 e2 d5 b8 ed       	vfmadd231pd %ymm5,%ymm5,%ymm5
  403e6a:	c4 e2 e5 b8 db       	vfmadd231pd %ymm3,%ymm3,%ymm3
  403e6f:	c4 e2 f5 b8 c9       	vfmadd231pd %ymm1,%ymm1,%ymm1
  403e74:	c4 e2 ed b8 d2       	vfmadd231pd %ymm2,%ymm2,%ymm2
  403e79:	c4 e2 fd b8 c0       	vfmadd231pd %ymm0,%ymm0,%ymm0
  403e7e:	c4 e2 c5 b8 ff       	vfmadd231pd %ymm7,%ymm7,%ymm7
  403e83:	c4 e2 cd b8 f6       	vfmadd231pd %ymm6,%ymm6,%ymm6
  403e88:	c4 e2 dd b8 e4       	vfmadd231pd %ymm4,%ymm4,%ymm4
  403e8d:	c4 e2 d5 b8 ed       	vfmadd231pd %ymm5,%ymm5,%ymm5
  403e92:	c4 e2 e5 b8 db       	vfmadd231pd %ymm3,%ymm3,%ymm3
  403e97:	c4 e2 f5 b8 c9       	vfmadd231pd %ymm1,%ymm1,%ymm1
  403e9c:	c4 e2 ed b8 d2       	vfmadd231pd %ymm2,%ymm2,%ymm2
  403ea1:	c4 e2 fd b8 c0       	vfmadd231pd %ymm0,%ymm0,%ymm0
  403ea6:	c4 e2 c5 b8 ff       	vfmadd231pd %ymm7,%ymm7,%ymm7
  403eab:	c4 e2 cd b8 f6       	vfmadd231pd %ymm6,%ymm6,%ymm6
  403eb0:	c4 e2 dd b8 e4       	vfmadd231pd %ymm4,%ymm4,%ymm4
  403eb5:	c4 e2 d5 b8 ed       	vfmadd231pd %ymm5,%ymm5,%ymm5
  403eba:	c4 e2 e5 b8 db       	vfmadd231pd %ymm3,%ymm3,%ymm3
  403ebf:	c4 e2 f5 b8 c9       	vfmadd231pd %ymm1,%ymm1,%ymm1
  403ec4:	c4 e2 ed b8 d2       	vfmadd231pd %ymm2,%ymm2,%ymm2
  403ec9:	c4 e2 fd b8 c0       	vfmadd231pd %ymm0,%ymm0,%ymm0
  403ece:	c4 e2 c5 b8 ff       	vfmadd231pd %ymm7,%ymm7,%ymm7
  403ed3:	c4 e2 cd b8 f6       	vfmadd231pd %ymm6,%ymm6,%ymm6
  403ed8:	c4 e2 dd b8 e4       	vfmadd231pd %ymm4,%ymm4,%ymm4
  403edd:	c4 e2 d5 b8 ed       	vfmadd231pd %ymm5,%ymm5,%ymm5
  403ee2:	c4 e2 e5 b8 db       	vfmadd231pd %ymm3,%ymm3,%ymm3
  403ee7:	c4 e2 f5 b8 c9       	vfmadd231pd %ymm1,%ymm1,%ymm1
  403eec:	c4 e2 ed b8 d2       	vfmadd231pd %ymm2,%ymm2,%ymm2
  403ef1:	c4 e2 fd b8 c0       	vfmadd231pd %ymm0,%ymm0,%ymm0
  403ef6:	c4 e2 c5 b8 ff       	vfmadd231pd %ymm7,%ymm7,%ymm7
  403efb:	c4 e2 cd b8 f6       	vfmadd231pd %ymm6,%ymm6,%ymm6
  403f00:	c4 e2 dd b8 e4       	vfmadd231pd %ymm4,%ymm4,%ymm4
  403f05:	c4 e2 d5 b8 ed       	vfmadd231pd %ymm5,%ymm5,%ymm5
  403f0a:	c4 e2 e5 b8 db       	vfmadd231pd %ymm3,%ymm3,%ymm3
  403f0f:	c4 e2 f5 b8 c9       	vfmadd231pd %ymm1,%ymm1,%ymm1
  403f14:	c4 e2 ed b8 d2       	vfmadd231pd %ymm2,%ymm2,%ymm2
  403f19:	c4 e2 fd b8 c0       	vfmadd231pd %ymm0,%ymm0,%ymm0
  403f1e:	c4 e2 c5 b8 ff       	vfmadd231pd %ymm7,%ymm7,%ymm7
  403f23:	c4 e2 cd b8 f6       	vfmadd231pd %ymm6,%ymm6,%ymm6
  403f28:	c4 e2 dd b8 e4       	vfmadd231pd %ymm4,%ymm4,%ymm4
  403f2d:	c4 e2 d5 b8 ed       	vfmadd231pd %ymm5,%ymm5,%ymm5
  403f32:	c4 e2 e5 b8 db       	vfmadd231pd %ymm3,%ymm3,%ymm3
  403f37:	c4 e2 f5 b8 c9       	vfmadd231pd %ymm1,%ymm1,%ymm1
  403f3c:	c4 e2 ed b8 d2       	vfmadd231pd %ymm2,%ymm2,%ymm2
  403f41:	c4 e2 fd b8 c0       	vfmadd231pd %ymm0,%ymm0,%ymm0
  403f46:	c4 e2 c5 b8 ff       	vfmadd231pd %ymm7,%ymm7,%ymm7
  403f4b:	c4 e2 cd b8 f6       	vfmadd231pd %ymm6,%ymm6,%ymm6
  403f50:	c4 e2 dd b8 e4       	vfmadd231pd %ymm4,%ymm4,%ymm4
  403f55:	c4 e2 d5 b8 ed       	vfmadd231pd %ymm5,%ymm5,%ymm5
  403f5a:	c4 e2 e5 b8 db       	vfmadd231pd %ymm3,%ymm3,%ymm3
  403f5f:	c4 e2 f5 b8 c9       	vfmadd231pd %ymm1,%ymm1,%ymm1
  403f64:	c4 e2 ed b8 d2       	vfmadd231pd %ymm2,%ymm2,%ymm2
  403f69:	c4 e2 fd b8 c0       	vfmadd231pd %ymm0,%ymm0,%ymm0
  403f6e:	c4 e2 c5 b8 ff       	vfmadd231pd %ymm7,%ymm7,%ymm7
  403f73:	c4 e2 cd b8 f6       	vfmadd231pd %ymm6,%ymm6,%ymm6
  403f78:	c4 e2 dd b8 e4       	vfmadd231pd %ymm4,%ymm4,%ymm4
  403f7d:	c4 e2 d5 b8 ed       	vfmadd231pd %ymm5,%ymm5,%ymm5
  403f82:	c4 e2 e5 b8 db       	vfmadd231pd %ymm3,%ymm3,%ymm3
  403f87:	c4 e2 f5 b8 c9       	vfmadd231pd %ymm1,%ymm1,%ymm1
  403f8c:	c4 e2 ed b8 d2       	vfmadd231pd %ymm2,%ymm2,%ymm2
  403f91:	c4 e2 fd b8 c0       	vfmadd231pd %ymm0,%ymm0,%ymm0
  403f96:	c4 e2 c5 b8 ff       	vfmadd231pd %ymm7,%ymm7,%ymm7
  403f9b:	c4 e2 cd b8 f6       	vfmadd231pd %ymm6,%ymm6,%ymm6
  403fa0:	c4 e2 dd b8 e4       	vfmadd231pd %ymm4,%ymm4,%ymm4
  403fa5:	c4 e2 d5 b8 ed       	vfmadd231pd %ymm5,%ymm5,%ymm5
  403faa:	c4 e2 e5 b8 db       	vfmadd231pd %ymm3,%ymm3,%ymm3
  403faf:	c4 e2 f5 b8 c9       	vfmadd231pd %ymm1,%ymm1,%ymm1
  403fb4:	c4 e2 ed b8 d2       	vfmadd231pd %ymm2,%ymm2,%ymm2
  403fb9:	c4 e2 fd b8 c0       	vfmadd231pd %ymm0,%ymm0,%ymm0
  403fbe:	c4 e2 c5 b8 ff       	vfmadd231pd %ymm7,%ymm7,%ymm7
  403fc3:	c4 e2 cd b8 f6       	vfmadd231pd %ymm6,%ymm6,%ymm6
  403fc8:	c4 e2 dd b8 e4       	vfmadd231pd %ymm4,%ymm4,%ymm4
  403fcd:	c4 e2 d5 b8 ed       	vfmadd231pd %ymm5,%ymm5,%ymm5
  403fd2:	c4 e2 e5 b8 db       	vfmadd231pd %ymm3,%ymm3,%ymm3
  403fd7:	c4 e2 f5 b8 c9       	vfmadd231pd %ymm1,%ymm1,%ymm1
  403fdc:	c4 e2 ed b8 d2       	vfmadd231pd %ymm2,%ymm2,%ymm2
  403fe1:	c4 e2 fd b8 c0       	vfmadd231pd %ymm0,%ymm0,%ymm0
  403fe6:	c4 e2 c5 b8 ff       	vfmadd231pd %ymm7,%ymm7,%ymm7
  403feb:	c4 e2 cd b8 f6       	vfmadd231pd %ymm6,%ymm6,%ymm6
  403ff0:	c4 e2 dd b8 e4       	vfmadd231pd %ymm4,%ymm4,%ymm4
  403ff5:	c4 e2 d5 b8 ed       	vfmadd231pd %ymm5,%ymm5,%ymm5
  403ffa:	c4 e2 e5 b8 db       	vfmadd231pd %ymm3,%ymm3,%ymm3
  403fff:	c4 e2 f5 b8 c9       	vfmadd231pd %ymm1,%ymm1,%ymm1
  404004:	c4 e2 ed b8 d2       	vfmadd231pd %ymm2,%ymm2,%ymm2
  404009:	c4 e2 fd b8 c0       	vfmadd231pd %ymm0,%ymm0,%ymm0
  40400e:	c4 e2 c5 b8 ff       	vfmadd231pd %ymm7,%ymm7,%ymm7
  404013:	c4 e2 cd b8 f6       	vfmadd231pd %ymm6,%ymm6,%ymm6
  404018:	c4 e2 dd b8 e4       	vfmadd231pd %ymm4,%ymm4,%ymm4
  40401d:	c4 e2 d5 b8 ed       	vfmadd231pd %ymm5,%ymm5,%ymm5
  404022:	c4 e2 e5 b8 db       	vfmadd231pd %ymm3,%ymm3,%ymm3
  404027:	c4 e2 f5 b8 c9       	vfmadd231pd %ymm1,%ymm1,%ymm1
  40402c:	c4 e2 ed b8 d2       	vfmadd231pd %ymm2,%ymm2,%ymm2
  404031:	c4 e2 fd b8 c0       	vfmadd231pd %ymm0,%ymm0,%ymm0
  404036:	c4 e2 c5 b8 ff       	vfmadd231pd %ymm7,%ymm7,%ymm7
  40403b:	c4 e2 cd b8 f6       	vfmadd231pd %ymm6,%ymm6,%ymm6
  404040:	c4 e2 dd b8 e4       	vfmadd231pd %ymm4,%ymm4,%ymm4
  404045:	c4 e2 d5 b8 ed       	vfmadd231pd %ymm5,%ymm5,%ymm5
  40404a:	c4 e2 e5 b8 db       	vfmadd231pd %ymm3,%ymm3,%ymm3
  40404f:	c4 e2 f5 b8 c9       	vfmadd231pd %ymm1,%ymm1,%ymm1
  404054:	c4 e2 ed b8 d2       	vfmadd231pd %ymm2,%ymm2,%ymm2
  404059:	c4 e2 fd b8 c0       	vfmadd231pd %ymm0,%ymm0,%ymm0
  40405e:	c4 e2 c5 b8 ff       	vfmadd231pd %ymm7,%ymm7,%ymm7
  404063:	c4 e2 cd b8 f6       	vfmadd231pd %ymm6,%ymm6,%ymm6
  404068:	c4 e2 dd b8 e4       	vfmadd231pd %ymm4,%ymm4,%ymm4
  40406d:	c4 e2 d5 b8 ed       	vfmadd231pd %ymm5,%ymm5,%ymm5
  404072:	c4 e2 e5 b8 db       	vfmadd231pd %ymm3,%ymm3,%ymm3
  404077:	c4 e2 f5 b8 c9       	vfmadd231pd %ymm1,%ymm1,%ymm1
  40407c:	c4 e2 ed b8 d2       	vfmadd231pd %ymm2,%ymm2,%ymm2
  404081:	c4 e2 fd b8 c0       	vfmadd231pd %ymm0,%ymm0,%ymm0
  404086:	c4 e2 c5 b8 ff       	vfmadd231pd %ymm7,%ymm7,%ymm7
  40408b:	c4 e2 cd b8 f6       	vfmadd231pd %ymm6,%ymm6,%ymm6
  404090:	c4 e2 dd b8 e4       	vfmadd231pd %ymm4,%ymm4,%ymm4
  404095:	c4 e2 d5 b8 ed       	vfmadd231pd %ymm5,%ymm5,%ymm5
  40409a:	c4 e2 e5 b8 db       	vfmadd231pd %ymm3,%ymm3,%ymm3
  40409f:	c4 e2 f5 b8 c9       	vfmadd231pd %ymm1,%ymm1,%ymm1
  4040a4:	c4 e2 ed b8 d2       	vfmadd231pd %ymm2,%ymm2,%ymm2
  4040a9:	c4 e2 fd b8 c0       	vfmadd231pd %ymm0,%ymm0,%ymm0
  4040ae:	c4 e2 c5 b8 ff       	vfmadd231pd %ymm7,%ymm7,%ymm7
  4040b3:	c4 e2 cd b8 f6       	vfmadd231pd %ymm6,%ymm6,%ymm6
  4040b8:	c4 e2 dd b8 e4       	vfmadd231pd %ymm4,%ymm4,%ymm4
  4040bd:	c4 e2 d5 b8 ed       	vfmadd231pd %ymm5,%ymm5,%ymm5
  4040c2:	c4 e2 e5 b8 db       	vfmadd231pd %ymm3,%ymm3,%ymm3
  4040c7:	c4 e2 f5 b8 c9       	vfmadd231pd %ymm1,%ymm1,%ymm1
  4040cc:	c4 e2 ed b8 d2       	vfmadd231pd %ymm2,%ymm2,%ymm2
  4040d1:	c4 e2 fd b8 c0       	vfmadd231pd %ymm0,%ymm0,%ymm0
  4040d6:	c4 e2 c5 b8 ff       	vfmadd231pd %ymm7,%ymm7,%ymm7
  4040db:	c4 e2 cd b8 f6       	vfmadd231pd %ymm6,%ymm6,%ymm6
  4040e0:	c4 e2 dd b8 e4       	vfmadd231pd %ymm4,%ymm4,%ymm4
  4040e5:	c4 e2 d5 b8 ed       	vfmadd231pd %ymm5,%ymm5,%ymm5
  4040ea:	c4 e2 e5 b8 db       	vfmadd231pd %ymm3,%ymm3,%ymm3
  4040ef:	c4 e2 f5 b8 c9       	vfmadd231pd %ymm1,%ymm1,%ymm1
  4040f4:	c4 e2 ed b8 d2       	vfmadd231pd %ymm2,%ymm2,%ymm2
  4040f9:	c4 e2 fd b8 c0       	vfmadd231pd %ymm0,%ymm0,%ymm0
  4040fe:	c4 e2 c5 b8 ff       	vfmadd231pd %ymm7,%ymm7,%ymm7
  404103:	c4 e2 cd b8 f6       	vfmadd231pd %ymm6,%ymm6,%ymm6
  404108:	c4 e2 dd b8 e4       	vfmadd231pd %ymm4,%ymm4,%ymm4
  40410d:	c4 e2 d5 b8 ed       	vfmadd231pd %ymm5,%ymm5,%ymm5
  404112:	c4 e2 e5 b8 db       	vfmadd231pd %ymm3,%ymm3,%ymm3
  404117:	c4 e2 f5 b8 c9       	vfmadd231pd %ymm1,%ymm1,%ymm1
  40411c:	c4 e2 ed b8 d2       	vfmadd231pd %ymm2,%ymm2,%ymm2
  404121:	c4 e2 fd b8 c0       	vfmadd231pd %ymm0,%ymm0,%ymm0
  404126:	c4 e2 c5 b8 ff       	vfmadd231pd %ymm7,%ymm7,%ymm7
  40412b:	c4 e2 cd b8 f6       	vfmadd231pd %ymm6,%ymm6,%ymm6
  404130:	c4 e2 dd b8 e4       	vfmadd231pd %ymm4,%ymm4,%ymm4
  404135:	c4 e2 d5 b8 ed       	vfmadd231pd %ymm5,%ymm5,%ymm5
  40413a:	c4 e2 e5 b8 db       	vfmadd231pd %ymm3,%ymm3,%ymm3
  40413f:	c4 e2 f5 b8 c9       	vfmadd231pd %ymm1,%ymm1,%ymm1
  404144:	c4 e2 ed b8 d2       	vfmadd231pd %ymm2,%ymm2,%ymm2
  404149:	c4 e2 fd b8 c0       	vfmadd231pd %ymm0,%ymm0,%ymm0
  40414e:	c4 e2 c5 b8 ff       	vfmadd231pd %ymm7,%ymm7,%ymm7
  404153:	c4 e2 cd b8 f6       	vfmadd231pd %ymm6,%ymm6,%ymm6
  404158:	c4 e2 dd b8 e4       	vfmadd231pd %ymm4,%ymm4,%ymm4
  40415d:	c4 e2 d5 b8 ed       	vfmadd231pd %ymm5,%ymm5,%ymm5
  404162:	c4 e2 e5 b8 db       	vfmadd231pd %ymm3,%ymm3,%ymm3
  404167:	c4 e2 f5 b8 c9       	vfmadd231pd %ymm1,%ymm1,%ymm1
  40416c:	c4 e2 ed b8 d2       	vfmadd231pd %ymm2,%ymm2,%ymm2
  404171:	c4 e2 fd b8 c0       	vfmadd231pd %ymm0,%ymm0,%ymm0
  404176:	c4 e2 c5 b8 ff       	vfmadd231pd %ymm7,%ymm7,%ymm7
  40417b:	c4 e2 cd b8 f6       	vfmadd231pd %ymm6,%ymm6,%ymm6
  404180:	c4 e2 dd b8 e4       	vfmadd231pd %ymm4,%ymm4,%ymm4
  404185:	c4 e2 d5 b8 ed       	vfmadd231pd %ymm5,%ymm5,%ymm5
  40418a:	c4 e2 e5 b8 db       	vfmadd231pd %ymm3,%ymm3,%ymm3
  40418f:	c4 e2 f5 b8 c9       	vfmadd231pd %ymm1,%ymm1,%ymm1
  404194:	c4 e2 ed b8 d2       	vfmadd231pd %ymm2,%ymm2,%ymm2
  404199:	c4 e2 fd b8 c0       	vfmadd231pd %ymm0,%ymm0,%ymm0
  40419e:	c4 e2 c5 b8 ff       	vfmadd231pd %ymm7,%ymm7,%ymm7
  4041a3:	c4 e2 cd b8 f6       	vfmadd231pd %ymm6,%ymm6,%ymm6
  4041a8:	c4 e2 dd b8 e4       	vfmadd231pd %ymm4,%ymm4,%ymm4
  4041ad:	c4 e2 d5 b8 ed       	vfmadd231pd %ymm5,%ymm5,%ymm5
  4041b2:	c4 e2 e5 b8 db       	vfmadd231pd %ymm3,%ymm3,%ymm3
  4041b7:	c4 e2 f5 b8 c9       	vfmadd231pd %ymm1,%ymm1,%ymm1
  4041bc:	c4 e2 ed b8 d2       	vfmadd231pd %ymm2,%ymm2,%ymm2
  4041c1:	c4 e2 fd b8 c0       	vfmadd231pd %ymm0,%ymm0,%ymm0
  4041c6:	c4 e2 c5 b8 ff       	vfmadd231pd %ymm7,%ymm7,%ymm7
  4041cb:	c4 e2 cd b8 f6       	vfmadd231pd %ymm6,%ymm6,%ymm6
  4041d0:	c4 e2 dd b8 e4       	vfmadd231pd %ymm4,%ymm4,%ymm4
  4041d5:	c4 e2 d5 b8 ed       	vfmadd231pd %ymm5,%ymm5,%ymm5
  4041da:	c4 e2 e5 b8 db       	vfmadd231pd %ymm3,%ymm3,%ymm3
  4041df:	c4 e2 f5 b8 c9       	vfmadd231pd %ymm1,%ymm1,%ymm1
  4041e4:	c4 e2 ed b8 d2       	vfmadd231pd %ymm2,%ymm2,%ymm2
  4041e9:	c4 e2 fd b8 c0       	vfmadd231pd %ymm0,%ymm0,%ymm0
  4041ee:	c4 e2 c5 b8 ff       	vfmadd231pd %ymm7,%ymm7,%ymm7
  4041f3:	c4 e2 cd b8 f6       	vfmadd231pd %ymm6,%ymm6,%ymm6
  4041f8:	c4 e2 dd b8 e4       	vfmadd231pd %ymm4,%ymm4,%ymm4
  4041fd:	c4 e2 d5 b8 ed       	vfmadd231pd %ymm5,%ymm5,%ymm5
  404202:	c4 e2 e5 b8 db       	vfmadd231pd %ymm3,%ymm3,%ymm3
  404207:	c4 e2 f5 b8 c9       	vfmadd231pd %ymm1,%ymm1,%ymm1
  40420c:	c4 e2 ed b8 d2       	vfmadd231pd %ymm2,%ymm2,%ymm2
  404211:	c4 e2 fd b8 c0       	vfmadd231pd %ymm0,%ymm0,%ymm0
  404216:	c4 e2 c5 b8 ff       	vfmadd231pd %ymm7,%ymm7,%ymm7
  40421b:	c4 e2 cd b8 f6       	vfmadd231pd %ymm6,%ymm6,%ymm6
  404220:	c4 e2 dd b8 e4       	vfmadd231pd %ymm4,%ymm4,%ymm4
  404225:	c4 e2 d5 b8 ed       	vfmadd231pd %ymm5,%ymm5,%ymm5
  40422a:	c4 e2 e5 b8 db       	vfmadd231pd %ymm3,%ymm3,%ymm3
  40422f:	c4 e2 f5 b8 c9       	vfmadd231pd %ymm1,%ymm1,%ymm1
  404234:	c4 e2 ed b8 d2       	vfmadd231pd %ymm2,%ymm2,%ymm2
  404239:	c4 e2 fd b8 c0       	vfmadd231pd %ymm0,%ymm0,%ymm0
  40423e:	c4 e2 c5 b8 ff       	vfmadd231pd %ymm7,%ymm7,%ymm7
  404243:	c4 e2 cd b8 f6       	vfmadd231pd %ymm6,%ymm6,%ymm6
  404248:	c4 e2 dd b8 e4       	vfmadd231pd %ymm4,%ymm4,%ymm4
  40424d:	c4 e2 d5 b8 ed       	vfmadd231pd %ymm5,%ymm5,%ymm5
  404252:	c4 e2 e5 b8 db       	vfmadd231pd %ymm3,%ymm3,%ymm3
  404257:	c4 e2 f5 b8 c9       	vfmadd231pd %ymm1,%ymm1,%ymm1
  40425c:	c4 e2 ed b8 d2       	vfmadd231pd %ymm2,%ymm2,%ymm2
  404261:	c4 e2 fd b8 c0       	vfmadd231pd %ymm0,%ymm0,%ymm0
  404266:	c4 e2 c5 b8 ff       	vfmadd231pd %ymm7,%ymm7,%ymm7
  40426b:	c4 e2 cd b8 f6       	vfmadd231pd %ymm6,%ymm6,%ymm6
  404270:	c4 e2 dd b8 e4       	vfmadd231pd %ymm4,%ymm4,%ymm4
  404275:	c4 e2 d5 b8 ed       	vfmadd231pd %ymm5,%ymm5,%ymm5
  40427a:	c4 e2 e5 b8 db       	vfmadd231pd %ymm3,%ymm3,%ymm3
  40427f:	c4 e2 f5 b8 c9       	vfmadd231pd %ymm1,%ymm1,%ymm1
  404284:	c4 e2 ed b8 d2       	vfmadd231pd %ymm2,%ymm2,%ymm2
  404289:	c4 e2 fd b8 c0       	vfmadd231pd %ymm0,%ymm0,%ymm0
  40428e:	c4 e2 c5 b8 ff       	vfmadd231pd %ymm7,%ymm7,%ymm7
  404293:	c4 e2 cd b8 f6       	vfmadd231pd %ymm6,%ymm6,%ymm6
  404298:	c4 e2 dd b8 e4       	vfmadd231pd %ymm4,%ymm4,%ymm4
  40429d:	c4 e2 d5 b8 ed       	vfmadd231pd %ymm5,%ymm5,%ymm5
  4042a2:	c4 e2 e5 b8 db       	vfmadd231pd %ymm3,%ymm3,%ymm3
  4042a7:	c4 e2 f5 b8 c9       	vfmadd231pd %ymm1,%ymm1,%ymm1
  4042ac:	c4 e2 ed b8 d2       	vfmadd231pd %ymm2,%ymm2,%ymm2
  4042b1:	c4 e2 fd b8 c0       	vfmadd231pd %ymm0,%ymm0,%ymm0
  4042b6:	c4 e2 c5 b8 ff       	vfmadd231pd %ymm7,%ymm7,%ymm7
  4042bb:	c4 e2 cd b8 f6       	vfmadd231pd %ymm6,%ymm6,%ymm6
  4042c0:	c4 e2 dd b8 e4       	vfmadd231pd %ymm4,%ymm4,%ymm4
  4042c5:	c4 e2 d5 b8 ed       	vfmadd231pd %ymm5,%ymm5,%ymm5
  4042ca:	c4 e2 e5 b8 db       	vfmadd231pd %ymm3,%ymm3,%ymm3
  4042cf:	c4 e2 f5 b8 c9       	vfmadd231pd %ymm1,%ymm1,%ymm1
  4042d4:	c4 e2 ed b8 d2       	vfmadd231pd %ymm2,%ymm2,%ymm2
  4042d9:	c4 e2 fd b8 c0       	vfmadd231pd %ymm0,%ymm0,%ymm0
  4042de:	c4 e2 c5 b8 ff       	vfmadd231pd %ymm7,%ymm7,%ymm7
  4042e3:	c4 e2 cd b8 f6       	vfmadd231pd %ymm6,%ymm6,%ymm6
  4042e8:	c4 e2 dd b8 e4       	vfmadd231pd %ymm4,%ymm4,%ymm4
  4042ed:	c4 e2 d5 b8 ed       	vfmadd231pd %ymm5,%ymm5,%ymm5
  4042f2:	c4 e2 e5 b8 db       	vfmadd231pd %ymm3,%ymm3,%ymm3
  4042f7:	c4 e2 f5 b8 c9       	vfmadd231pd %ymm1,%ymm1,%ymm1
  4042fc:	c4 e2 ed b8 d2       	vfmadd231pd %ymm2,%ymm2,%ymm2
  404301:	c4 e2 fd b8 c0       	vfmadd231pd %ymm0,%ymm0,%ymm0
  404306:	c4 e2 c5 b8 ff       	vfmadd231pd %ymm7,%ymm7,%ymm7
  40430b:	c4 e2 cd b8 f6       	vfmadd231pd %ymm6,%ymm6,%ymm6
  404310:	c4 e2 dd b8 e4       	vfmadd231pd %ymm4,%ymm4,%ymm4
  404315:	c4 e2 d5 b8 ed       	vfmadd231pd %ymm5,%ymm5,%ymm5
  40431a:	c4 e2 e5 b8 db       	vfmadd231pd %ymm3,%ymm3,%ymm3
  40431f:	c4 e2 f5 b8 c9       	vfmadd231pd %ymm1,%ymm1,%ymm1
  404324:	c4 e2 ed b8 d2       	vfmadd231pd %ymm2,%ymm2,%ymm2
  404329:	c4 e2 fd b8 c0       	vfmadd231pd %ymm0,%ymm0,%ymm0
  40432e:	c4 e2 c5 b8 ff       	vfmadd231pd %ymm7,%ymm7,%ymm7
  404333:	c4 e2 cd b8 f6       	vfmadd231pd %ymm6,%ymm6,%ymm6
  404338:	c4 e2 dd b8 e4       	vfmadd231pd %ymm4,%ymm4,%ymm4
  40433d:	c4 e2 d5 b8 ed       	vfmadd231pd %ymm5,%ymm5,%ymm5
  404342:	c4 e2 e5 b8 db       	vfmadd231pd %ymm3,%ymm3,%ymm3
  404347:	c4 e2 f5 b8 c9       	vfmadd231pd %ymm1,%ymm1,%ymm1
  40434c:	c4 e2 ed b8 d2       	vfmadd231pd %ymm2,%ymm2,%ymm2
  404351:	c4 e2 fd b8 c0       	vfmadd231pd %ymm0,%ymm0,%ymm0
  404356:	c4 e2 c5 b8 ff       	vfmadd231pd %ymm7,%ymm7,%ymm7
  40435b:	c4 e2 cd b8 f6       	vfmadd231pd %ymm6,%ymm6,%ymm6
  404360:	c4 e2 dd b8 e4       	vfmadd231pd %ymm4,%ymm4,%ymm4
  404365:	c4 e2 d5 b8 ed       	vfmadd231pd %ymm5,%ymm5,%ymm5
  40436a:	c4 e2 e5 b8 db       	vfmadd231pd %ymm3,%ymm3,%ymm3
  40436f:	c4 e2 f5 b8 c9       	vfmadd231pd %ymm1,%ymm1,%ymm1
  404374:	c4 e2 ed b8 d2       	vfmadd231pd %ymm2,%ymm2,%ymm2
  404379:	c4 e2 fd b8 c0       	vfmadd231pd %ymm0,%ymm0,%ymm0
  40437e:	c4 e2 c5 b8 ff       	vfmadd231pd %ymm7,%ymm7,%ymm7
  404383:	c4 e2 cd b8 f6       	vfmadd231pd %ymm6,%ymm6,%ymm6
  404388:	c4 e2 dd b8 e4       	vfmadd231pd %ymm4,%ymm4,%ymm4
  40438d:	c4 e2 d5 b8 ed       	vfmadd231pd %ymm5,%ymm5,%ymm5
  404392:	c4 e2 e5 b8 db       	vfmadd231pd %ymm3,%ymm3,%ymm3
  404397:	c4 e2 f5 b8 c9       	vfmadd231pd %ymm1,%ymm1,%ymm1
  40439c:	c4 e2 ed b8 d2       	vfmadd231pd %ymm2,%ymm2,%ymm2
  4043a1:	c4 e2 fd b8 c0       	vfmadd231pd %ymm0,%ymm0,%ymm0
  4043a6:	c4 e2 c5 b8 ff       	vfmadd231pd %ymm7,%ymm7,%ymm7
  4043ab:	c4 e2 cd b8 f6       	vfmadd231pd %ymm6,%ymm6,%ymm6
  4043b0:	c4 e2 dd b8 e4       	vfmadd231pd %ymm4,%ymm4,%ymm4
  4043b5:	c4 e2 d5 b8 ed       	vfmadd231pd %ymm5,%ymm5,%ymm5
  4043ba:	c4 e2 e5 b8 db       	vfmadd231pd %ymm3,%ymm3,%ymm3
  4043bf:	c4 e2 f5 b8 c9       	vfmadd231pd %ymm1,%ymm1,%ymm1
  4043c4:	c4 e2 ed b8 d2       	vfmadd231pd %ymm2,%ymm2,%ymm2
  4043c9:	c4 e2 fd b8 c0       	vfmadd231pd %ymm0,%ymm0,%ymm0
  4043ce:	c4 e2 c5 b8 ff       	vfmadd231pd %ymm7,%ymm7,%ymm7
  4043d3:	c4 e2 cd b8 f6       	vfmadd231pd %ymm6,%ymm6,%ymm6
  4043d8:	c4 e2 dd b8 e4       	vfmadd231pd %ymm4,%ymm4,%ymm4
  4043dd:	c4 e2 d5 b8 ed       	vfmadd231pd %ymm5,%ymm5,%ymm5
  4043e2:	c4 e2 e5 b8 db       	vfmadd231pd %ymm3,%ymm3,%ymm3
  4043e7:	c4 e2 f5 b8 c9       	vfmadd231pd %ymm1,%ymm1,%ymm1
  4043ec:	c4 e2 ed b8 d2       	vfmadd231pd %ymm2,%ymm2,%ymm2
  4043f1:	c4 e2 fd b8 c0       	vfmadd231pd %ymm0,%ymm0,%ymm0
  4043f6:	c4 e2 c5 b8 ff       	vfmadd231pd %ymm7,%ymm7,%ymm7
  4043fb:	c4 e2 cd b8 f6       	vfmadd231pd %ymm6,%ymm6,%ymm6
  404400:	c4 e2 dd b8 e4       	vfmadd231pd %ymm4,%ymm4,%ymm4
  404405:	c4 e2 d5 b8 ed       	vfmadd231pd %ymm5,%ymm5,%ymm5
  40440a:	c4 e2 e5 b8 db       	vfmadd231pd %ymm3,%ymm3,%ymm3
  40440f:	c4 e2 f5 b8 c9       	vfmadd231pd %ymm1,%ymm1,%ymm1
  404414:	c4 e2 ed b8 d2       	vfmadd231pd %ymm2,%ymm2,%ymm2
  404419:	c4 e2 fd b8 c0       	vfmadd231pd %ymm0,%ymm0,%ymm0
  40441e:	c4 e2 c5 b8 ff       	vfmadd231pd %ymm7,%ymm7,%ymm7
  404423:	c4 e2 cd b8 f6       	vfmadd231pd %ymm6,%ymm6,%ymm6
  404428:	c4 e2 dd b8 e4       	vfmadd231pd %ymm4,%ymm4,%ymm4
  40442d:	c4 e2 d5 b8 ed       	vfmadd231pd %ymm5,%ymm5,%ymm5
  404432:	c4 e2 e5 b8 db       	vfmadd231pd %ymm3,%ymm3,%ymm3
  404437:	c4 e2 f5 b8 c9       	vfmadd231pd %ymm1,%ymm1,%ymm1
  40443c:	c4 e2 ed b8 d2       	vfmadd231pd %ymm2,%ymm2,%ymm2
  404441:	c4 e2 fd b8 c0       	vfmadd231pd %ymm0,%ymm0,%ymm0
  404446:	c4 e2 c5 b8 ff       	vfmadd231pd %ymm7,%ymm7,%ymm7
  40444b:	c4 e2 cd b8 f6       	vfmadd231pd %ymm6,%ymm6,%ymm6
  404450:	c4 e2 dd b8 e4       	vfmadd231pd %ymm4,%ymm4,%ymm4
  404455:	c4 e2 d5 b8 ed       	vfmadd231pd %ymm5,%ymm5,%ymm5
  40445a:	c4 e2 e5 b8 db       	vfmadd231pd %ymm3,%ymm3,%ymm3
  40445f:	c4 e2 f5 b8 c9       	vfmadd231pd %ymm1,%ymm1,%ymm1
  404464:	c4 e2 ed b8 d2       	vfmadd231pd %ymm2,%ymm2,%ymm2
  404469:	c4 e2 fd b8 c0       	vfmadd231pd %ymm0,%ymm0,%ymm0
  40446e:	c4 e2 c5 b8 ff       	vfmadd231pd %ymm7,%ymm7,%ymm7
  404473:	c4 e2 cd b8 f6       	vfmadd231pd %ymm6,%ymm6,%ymm6
  404478:	c4 e2 dd b8 e4       	vfmadd231pd %ymm4,%ymm4,%ymm4
  40447d:	c4 e2 d5 b8 ed       	vfmadd231pd %ymm5,%ymm5,%ymm5
  404482:	c4 e2 e5 b8 db       	vfmadd231pd %ymm3,%ymm3,%ymm3
  404487:	c4 e2 f5 b8 c9       	vfmadd231pd %ymm1,%ymm1,%ymm1
  40448c:	c4 e2 ed b8 d2       	vfmadd231pd %ymm2,%ymm2,%ymm2
  404491:	c4 e2 fd b8 c0       	vfmadd231pd %ymm0,%ymm0,%ymm0
  404496:	c4 e2 c5 b8 ff       	vfmadd231pd %ymm7,%ymm7,%ymm7
  40449b:	c4 e2 cd b8 f6       	vfmadd231pd %ymm6,%ymm6,%ymm6
  4044a0:	c4 e2 dd b8 e4       	vfmadd231pd %ymm4,%ymm4,%ymm4
  4044a5:	c4 e2 d5 b8 ed       	vfmadd231pd %ymm5,%ymm5,%ymm5
  4044aa:	c4 e2 e5 b8 db       	vfmadd231pd %ymm3,%ymm3,%ymm3
  4044af:	c4 e2 f5 b8 c9       	vfmadd231pd %ymm1,%ymm1,%ymm1
  4044b4:	c4 e2 ed b8 d2       	vfmadd231pd %ymm2,%ymm2,%ymm2
  4044b9:	c4 e2 fd b8 c0       	vfmadd231pd %ymm0,%ymm0,%ymm0
  4044be:	c4 e2 c5 b8 ff       	vfmadd231pd %ymm7,%ymm7,%ymm7
  4044c3:	c4 e2 cd b8 f6       	vfmadd231pd %ymm6,%ymm6,%ymm6
  4044c8:	c4 e2 dd b8 e4       	vfmadd231pd %ymm4,%ymm4,%ymm4
  4044cd:	c4 e2 d5 b8 ed       	vfmadd231pd %ymm5,%ymm5,%ymm5
  4044d2:	c4 e2 e5 b8 db       	vfmadd231pd %ymm3,%ymm3,%ymm3
  4044d7:	c4 e2 f5 b8 c9       	vfmadd231pd %ymm1,%ymm1,%ymm1
  4044dc:	c4 e2 ed b8 d2       	vfmadd231pd %ymm2,%ymm2,%ymm2
  4044e1:	c4 e2 fd b8 c0       	vfmadd231pd %ymm0,%ymm0,%ymm0
  4044e6:	c4 e2 c5 b8 ff       	vfmadd231pd %ymm7,%ymm7,%ymm7
  4044eb:	c4 e2 cd b8 f6       	vfmadd231pd %ymm6,%ymm6,%ymm6
  4044f0:	c4 e2 dd b8 e4       	vfmadd231pd %ymm4,%ymm4,%ymm4
  4044f5:	c4 e2 d5 b8 ed       	vfmadd231pd %ymm5,%ymm5,%ymm5
  4044fa:	c4 e2 e5 b8 db       	vfmadd231pd %ymm3,%ymm3,%ymm3
  4044ff:	c4 e2 f5 b8 c9       	vfmadd231pd %ymm1,%ymm1,%ymm1
  404504:	c4 e2 ed b8 d2       	vfmadd231pd %ymm2,%ymm2,%ymm2
  404509:	c4 e2 fd b8 c0       	vfmadd231pd %ymm0,%ymm0,%ymm0
  40450e:	c4 e2 c5 b8 ff       	vfmadd231pd %ymm7,%ymm7,%ymm7
  404513:	c4 e2 cd b8 f6       	vfmadd231pd %ymm6,%ymm6,%ymm6
  404518:	c4 e2 dd b8 e4       	vfmadd231pd %ymm4,%ymm4,%ymm4
  40451d:	c4 e2 d5 b8 ed       	vfmadd231pd %ymm5,%ymm5,%ymm5
  404522:	c4 e2 e5 b8 db       	vfmadd231pd %ymm3,%ymm3,%ymm3
  404527:	c4 e2 f5 b8 c9       	vfmadd231pd %ymm1,%ymm1,%ymm1
  40452c:	c4 e2 ed b8 d2       	vfmadd231pd %ymm2,%ymm2,%ymm2
  404531:	c4 e2 fd b8 c0       	vfmadd231pd %ymm0,%ymm0,%ymm0
  404536:	c4 e2 c5 b8 ff       	vfmadd231pd %ymm7,%ymm7,%ymm7
  40453b:	c4 e2 cd b8 f6       	vfmadd231pd %ymm6,%ymm6,%ymm6
  404540:	c4 e2 dd b8 e4       	vfmadd231pd %ymm4,%ymm4,%ymm4
  404545:	c4 e2 d5 b8 ed       	vfmadd231pd %ymm5,%ymm5,%ymm5
  40454a:	c4 e2 e5 b8 db       	vfmadd231pd %ymm3,%ymm3,%ymm3
  40454f:	c4 e2 f5 b8 c9       	vfmadd231pd %ymm1,%ymm1,%ymm1
  404554:	c4 e2 ed b8 d2       	vfmadd231pd %ymm2,%ymm2,%ymm2
  404559:	c4 e2 fd b8 c0       	vfmadd231pd %ymm0,%ymm0,%ymm0
  40455e:	c4 e2 c5 b8 ff       	vfmadd231pd %ymm7,%ymm7,%ymm7
  404563:	c4 e2 cd b8 f6       	vfmadd231pd %ymm6,%ymm6,%ymm6
  404568:	c4 e2 dd b8 e4       	vfmadd231pd %ymm4,%ymm4,%ymm4
  40456d:	c4 e2 d5 b8 ed       	vfmadd231pd %ymm5,%ymm5,%ymm5
  404572:	c4 e2 e5 b8 db       	vfmadd231pd %ymm3,%ymm3,%ymm3
  404577:	c4 e2 f5 b8 c9       	vfmadd231pd %ymm1,%ymm1,%ymm1
  40457c:	c4 e2 ed b8 d2       	vfmadd231pd %ymm2,%ymm2,%ymm2
  404581:	c4 e2 fd b8 c0       	vfmadd231pd %ymm0,%ymm0,%ymm0
  404586:	c4 e2 c5 b8 ff       	vfmadd231pd %ymm7,%ymm7,%ymm7
  40458b:	c4 e2 cd b8 f6       	vfmadd231pd %ymm6,%ymm6,%ymm6
  404590:	c4 e2 dd b8 e4       	vfmadd231pd %ymm4,%ymm4,%ymm4
  404595:	c4 e2 d5 b8 ed       	vfmadd231pd %ymm5,%ymm5,%ymm5
  40459a:	c4 e2 e5 b8 db       	vfmadd231pd %ymm3,%ymm3,%ymm3
  40459f:	c4 e2 f5 b8 c9       	vfmadd231pd %ymm1,%ymm1,%ymm1
  4045a4:	c4 e2 ed b8 d2       	vfmadd231pd %ymm2,%ymm2,%ymm2
  4045a9:	c4 e2 fd b8 c0       	vfmadd231pd %ymm0,%ymm0,%ymm0
  4045ae:	c4 e2 c5 b8 ff       	vfmadd231pd %ymm7,%ymm7,%ymm7
  4045b3:	c4 e2 cd b8 f6       	vfmadd231pd %ymm6,%ymm6,%ymm6
  4045b8:	c4 e2 dd b8 e4       	vfmadd231pd %ymm4,%ymm4,%ymm4
  4045bd:	c4 e2 d5 b8 ed       	vfmadd231pd %ymm5,%ymm5,%ymm5
  4045c2:	c4 e2 e5 b8 db       	vfmadd231pd %ymm3,%ymm3,%ymm3
  4045c7:	c4 e2 f5 b8 c9       	vfmadd231pd %ymm1,%ymm1,%ymm1
  4045cc:	c4 e2 ed b8 d2       	vfmadd231pd %ymm2,%ymm2,%ymm2
  4045d1:	c4 e2 fd b8 c0       	vfmadd231pd %ymm0,%ymm0,%ymm0
  4045d6:	c4 e2 c5 b8 ff       	vfmadd231pd %ymm7,%ymm7,%ymm7
  4045db:	c4 e2 cd b8 f6       	vfmadd231pd %ymm6,%ymm6,%ymm6
  4045e0:	c4 e2 dd b8 e4       	vfmadd231pd %ymm4,%ymm4,%ymm4
  4045e5:	c4 e2 d5 b8 ed       	vfmadd231pd %ymm5,%ymm5,%ymm5
  4045ea:	c4 e2 e5 b8 db       	vfmadd231pd %ymm3,%ymm3,%ymm3
  4045ef:	c4 e2 f5 b8 c9       	vfmadd231pd %ymm1,%ymm1,%ymm1
  4045f4:	c4 e2 ed b8 d2       	vfmadd231pd %ymm2,%ymm2,%ymm2
  4045f9:	c4 e2 fd b8 c0       	vfmadd231pd %ymm0,%ymm0,%ymm0
  4045fe:	c4 e2 c5 b8 ff       	vfmadd231pd %ymm7,%ymm7,%ymm7
  404603:	c4 e2 cd b8 f6       	vfmadd231pd %ymm6,%ymm6,%ymm6
  404608:	c4 e2 dd b8 e4       	vfmadd231pd %ymm4,%ymm4,%ymm4
  40460d:	c4 e2 d5 b8 ed       	vfmadd231pd %ymm5,%ymm5,%ymm5
  404612:	c4 e2 e5 b8 db       	vfmadd231pd %ymm3,%ymm3,%ymm3
  404617:	c4 e2 f5 b8 c9       	vfmadd231pd %ymm1,%ymm1,%ymm1
  40461c:	c4 e2 ed b8 d2       	vfmadd231pd %ymm2,%ymm2,%ymm2
  404621:	c4 e2 fd b8 c0       	vfmadd231pd %ymm0,%ymm0,%ymm0
  404626:	c4 e2 c5 b8 ff       	vfmadd231pd %ymm7,%ymm7,%ymm7
  40462b:	c4 e2 cd b8 f6       	vfmadd231pd %ymm6,%ymm6,%ymm6
  404630:	c4 e2 dd b8 e4       	vfmadd231pd %ymm4,%ymm4,%ymm4
  404635:	c4 e2 d5 b8 ed       	vfmadd231pd %ymm5,%ymm5,%ymm5
  40463a:	c4 e2 e5 b8 db       	vfmadd231pd %ymm3,%ymm3,%ymm3
  40463f:	c4 e2 f5 b8 c9       	vfmadd231pd %ymm1,%ymm1,%ymm1
  404644:	c4 e2 ed b8 d2       	vfmadd231pd %ymm2,%ymm2,%ymm2
  404649:	c4 e2 fd b8 c0       	vfmadd231pd %ymm0,%ymm0,%ymm0
  40464e:	c4 e2 c5 b8 ff       	vfmadd231pd %ymm7,%ymm7,%ymm7
  404653:	c4 e2 cd b8 f6       	vfmadd231pd %ymm6,%ymm6,%ymm6
  404658:	c4 e2 dd b8 e4       	vfmadd231pd %ymm4,%ymm4,%ymm4
  40465d:	c4 e2 d5 b8 ed       	vfmadd231pd %ymm5,%ymm5,%ymm5
  404662:	c4 e2 e5 b8 db       	vfmadd231pd %ymm3,%ymm3,%ymm3
  404667:	c4 e2 f5 b8 c9       	vfmadd231pd %ymm1,%ymm1,%ymm1
  40466c:	c4 e2 ed b8 d2       	vfmadd231pd %ymm2,%ymm2,%ymm2
  404671:	c4 e2 fd b8 c0       	vfmadd231pd %ymm0,%ymm0,%ymm0
  404676:	c4 e2 c5 b8 ff       	vfmadd231pd %ymm7,%ymm7,%ymm7
  40467b:	c4 e2 cd b8 f6       	vfmadd231pd %ymm6,%ymm6,%ymm6
  404680:	c4 e2 dd b8 e4       	vfmadd231pd %ymm4,%ymm4,%ymm4
  404685:	c4 e2 d5 b8 ed       	vfmadd231pd %ymm5,%ymm5,%ymm5
  40468a:	c4 e2 e5 b8 db       	vfmadd231pd %ymm3,%ymm3,%ymm3
  40468f:	c4 e2 f5 b8 c9       	vfmadd231pd %ymm1,%ymm1,%ymm1
  404694:	c4 e2 ed b8 d2       	vfmadd231pd %ymm2,%ymm2,%ymm2
  404699:	c4 e2 fd b8 c0       	vfmadd231pd %ymm0,%ymm0,%ymm0
  40469e:	c4 e2 c5 b8 ff       	vfmadd231pd %ymm7,%ymm7,%ymm7
  4046a3:	c4 e2 cd b8 f6       	vfmadd231pd %ymm6,%ymm6,%ymm6
  4046a8:	c4 e2 dd b8 e4       	vfmadd231pd %ymm4,%ymm4,%ymm4
  4046ad:	c4 e2 d5 b8 ed       	vfmadd231pd %ymm5,%ymm5,%ymm5
  4046b2:	c4 e2 e5 b8 db       	vfmadd231pd %ymm3,%ymm3,%ymm3
  4046b7:	c4 e2 f5 b8 c9       	vfmadd231pd %ymm1,%ymm1,%ymm1
  4046bc:	c4 e2 ed b8 d2       	vfmadd231pd %ymm2,%ymm2,%ymm2
  4046c1:	c4 e2 fd b8 c0       	vfmadd231pd %ymm0,%ymm0,%ymm0
  4046c6:	c4 e2 c5 b8 ff       	vfmadd231pd %ymm7,%ymm7,%ymm7
  4046cb:	c4 e2 cd b8 f6       	vfmadd231pd %ymm6,%ymm6,%ymm6
  4046d0:	c4 e2 dd b8 e4       	vfmadd231pd %ymm4,%ymm4,%ymm4
  4046d5:	c4 e2 d5 b8 ed       	vfmadd231pd %ymm5,%ymm5,%ymm5
  4046da:	c4 e2 e5 b8 db       	vfmadd231pd %ymm3,%ymm3,%ymm3
  4046df:	c4 e2 f5 b8 c9       	vfmadd231pd %ymm1,%ymm1,%ymm1
  4046e4:	c4 e2 ed b8 d2       	vfmadd231pd %ymm2,%ymm2,%ymm2
  4046e9:	c4 e2 fd b8 c0       	vfmadd231pd %ymm0,%ymm0,%ymm0
  4046ee:	c4 e2 c5 b8 ff       	vfmadd231pd %ymm7,%ymm7,%ymm7
  4046f3:	c4 e2 cd b8 f6       	vfmadd231pd %ymm6,%ymm6,%ymm6
  4046f8:	c4 e2 dd b8 e4       	vfmadd231pd %ymm4,%ymm4,%ymm4
  4046fd:	c4 e2 d5 b8 ed       	vfmadd231pd %ymm5,%ymm5,%ymm5
  404702:	c4 e2 e5 b8 db       	vfmadd231pd %ymm3,%ymm3,%ymm3
  404707:	c4 e2 f5 b8 c9       	vfmadd231pd %ymm1,%ymm1,%ymm1
  40470c:	c4 e2 ed b8 d2       	vfmadd231pd %ymm2,%ymm2,%ymm2
  404711:	c4 e2 fd b8 c0       	vfmadd231pd %ymm0,%ymm0,%ymm0
  404716:	c4 e2 c5 b8 ff       	vfmadd231pd %ymm7,%ymm7,%ymm7
  40471b:	c4 e2 cd b8 f6       	vfmadd231pd %ymm6,%ymm6,%ymm6
  404720:	c4 e2 dd b8 e4       	vfmadd231pd %ymm4,%ymm4,%ymm4
  404725:	c4 e2 d5 b8 ed       	vfmadd231pd %ymm5,%ymm5,%ymm5
  40472a:	c4 e2 e5 b8 db       	vfmadd231pd %ymm3,%ymm3,%ymm3
  40472f:	c4 e2 f5 b8 c9       	vfmadd231pd %ymm1,%ymm1,%ymm1
  404734:	c4 e2 ed b8 d2       	vfmadd231pd %ymm2,%ymm2,%ymm2
  404739:	c4 e2 fd b8 c0       	vfmadd231pd %ymm0,%ymm0,%ymm0
  40473e:	c4 e2 c5 b8 ff       	vfmadd231pd %ymm7,%ymm7,%ymm7
  404743:	c4 e2 cd b8 f6       	vfmadd231pd %ymm6,%ymm6,%ymm6
  404748:	c4 e2 dd b8 e4       	vfmadd231pd %ymm4,%ymm4,%ymm4
  40474d:	c4 e2 d5 b8 ed       	vfmadd231pd %ymm5,%ymm5,%ymm5
  404752:	c4 e2 e5 b8 db       	vfmadd231pd %ymm3,%ymm3,%ymm3
  404757:	c4 e2 f5 b8 c9       	vfmadd231pd %ymm1,%ymm1,%ymm1
  40475c:	c4 e2 ed b8 d2       	vfmadd231pd %ymm2,%ymm2,%ymm2
  404761:	c4 e2 fd b8 c0       	vfmadd231pd %ymm0,%ymm0,%ymm0
  404766:	c4 e2 c5 b8 ff       	vfmadd231pd %ymm7,%ymm7,%ymm7
  40476b:	c4 e2 cd b8 f6       	vfmadd231pd %ymm6,%ymm6,%ymm6
  404770:	c4 e2 dd b8 e4       	vfmadd231pd %ymm4,%ymm4,%ymm4
  404775:	c4 e2 d5 b8 ed       	vfmadd231pd %ymm5,%ymm5,%ymm5
  40477a:	c4 e2 e5 b8 db       	vfmadd231pd %ymm3,%ymm3,%ymm3
  40477f:	c4 e2 f5 b8 c9       	vfmadd231pd %ymm1,%ymm1,%ymm1
  404784:	c4 e2 ed b8 d2       	vfmadd231pd %ymm2,%ymm2,%ymm2
  404789:	c4 e2 fd b8 c0       	vfmadd231pd %ymm0,%ymm0,%ymm0
  40478e:	c4 e2 c5 b8 ff       	vfmadd231pd %ymm7,%ymm7,%ymm7
  404793:	c4 e2 cd b8 f6       	vfmadd231pd %ymm6,%ymm6,%ymm6
  404798:	c4 e2 dd b8 e4       	vfmadd231pd %ymm4,%ymm4,%ymm4
  40479d:	c4 e2 d5 b8 ed       	vfmadd231pd %ymm5,%ymm5,%ymm5
  4047a2:	c4 e2 e5 b8 db       	vfmadd231pd %ymm3,%ymm3,%ymm3
  4047a7:	c4 e2 f5 b8 c9       	vfmadd231pd %ymm1,%ymm1,%ymm1
  4047ac:	c4 e2 ed b8 d2       	vfmadd231pd %ymm2,%ymm2,%ymm2
  4047b1:	c4 e2 fd b8 c0       	vfmadd231pd %ymm0,%ymm0,%ymm0
  4047b6:	c4 e2 c5 b8 ff       	vfmadd231pd %ymm7,%ymm7,%ymm7
  4047bb:	c4 e2 cd b8 f6       	vfmadd231pd %ymm6,%ymm6,%ymm6
  4047c0:	c4 e2 dd b8 e4       	vfmadd231pd %ymm4,%ymm4,%ymm4
  4047c5:	c4 e2 d5 b8 ed       	vfmadd231pd %ymm5,%ymm5,%ymm5
  4047ca:	c4 e2 e5 b8 db       	vfmadd231pd %ymm3,%ymm3,%ymm3
  4047cf:	c4 e2 f5 b8 c9       	vfmadd231pd %ymm1,%ymm1,%ymm1
  4047d4:	c4 e2 ed b8 d2       	vfmadd231pd %ymm2,%ymm2,%ymm2
  4047d9:	c4 e2 fd b8 c0       	vfmadd231pd %ymm0,%ymm0,%ymm0
  4047de:	c4 e2 c5 b8 ff       	vfmadd231pd %ymm7,%ymm7,%ymm7
  4047e3:	c4 e2 cd b8 f6       	vfmadd231pd %ymm6,%ymm6,%ymm6
  4047e8:	c4 e2 dd b8 e4       	vfmadd231pd %ymm4,%ymm4,%ymm4
  4047ed:	c4 e2 d5 b8 ed       	vfmadd231pd %ymm5,%ymm5,%ymm5
  4047f2:	c4 e2 e5 b8 db       	vfmadd231pd %ymm3,%ymm3,%ymm3
  4047f7:	c4 e2 f5 b8 c9       	vfmadd231pd %ymm1,%ymm1,%ymm1
  4047fc:	c4 e2 ed b8 d2       	vfmadd231pd %ymm2,%ymm2,%ymm2
  404801:	c4 e2 fd b8 c0       	vfmadd231pd %ymm0,%ymm0,%ymm0
  404806:	c4 e2 c5 b8 ff       	vfmadd231pd %ymm7,%ymm7,%ymm7
  40480b:	c4 e2 cd b8 f6       	vfmadd231pd %ymm6,%ymm6,%ymm6
  404810:	c4 e2 dd b8 e4       	vfmadd231pd %ymm4,%ymm4,%ymm4
  404815:	c4 e2 d5 b8 ed       	vfmadd231pd %ymm5,%ymm5,%ymm5
  40481a:	c4 e2 e5 b8 db       	vfmadd231pd %ymm3,%ymm3,%ymm3
  40481f:	c4 e2 f5 b8 c9       	vfmadd231pd %ymm1,%ymm1,%ymm1
  404824:	c4 e2 ed b8 d2       	vfmadd231pd %ymm2,%ymm2,%ymm2
  404829:	c4 e2 fd b8 c0       	vfmadd231pd %ymm0,%ymm0,%ymm0
  40482e:	c4 e2 c5 b8 ff       	vfmadd231pd %ymm7,%ymm7,%ymm7
  404833:	c4 e2 cd b8 f6       	vfmadd231pd %ymm6,%ymm6,%ymm6
  404838:	c4 e2 dd b8 e4       	vfmadd231pd %ymm4,%ymm4,%ymm4
  40483d:	c4 e2 d5 b8 ed       	vfmadd231pd %ymm5,%ymm5,%ymm5
  404842:	c4 e2 e5 b8 db       	vfmadd231pd %ymm3,%ymm3,%ymm3
  404847:	c4 e2 f5 b8 c9       	vfmadd231pd %ymm1,%ymm1,%ymm1
  40484c:	c4 e2 ed b8 d2       	vfmadd231pd %ymm2,%ymm2,%ymm2
  404851:	c4 e2 fd b8 c0       	vfmadd231pd %ymm0,%ymm0,%ymm0
  404856:	c4 e2 c5 b8 ff       	vfmadd231pd %ymm7,%ymm7,%ymm7
  40485b:	c4 e2 cd b8 f6       	vfmadd231pd %ymm6,%ymm6,%ymm6
  404860:	c4 e2 dd b8 e4       	vfmadd231pd %ymm4,%ymm4,%ymm4
  404865:	c4 e2 d5 b8 ed       	vfmadd231pd %ymm5,%ymm5,%ymm5
  40486a:	c4 e2 e5 b8 db       	vfmadd231pd %ymm3,%ymm3,%ymm3
  40486f:	c4 e2 f5 b8 c9       	vfmadd231pd %ymm1,%ymm1,%ymm1
  404874:	c4 e2 ed b8 d2       	vfmadd231pd %ymm2,%ymm2,%ymm2
  404879:	c4 e2 fd b8 c0       	vfmadd231pd %ymm0,%ymm0,%ymm0
  40487e:	c4 e2 c5 b8 ff       	vfmadd231pd %ymm7,%ymm7,%ymm7
  404883:	c4 e2 cd b8 f6       	vfmadd231pd %ymm6,%ymm6,%ymm6
  404888:	c4 e2 dd b8 e4       	vfmadd231pd %ymm4,%ymm4,%ymm4
  40488d:	c4 e2 d5 b8 ed       	vfmadd231pd %ymm5,%ymm5,%ymm5
  404892:	c4 e2 e5 b8 db       	vfmadd231pd %ymm3,%ymm3,%ymm3
  404897:	c4 e2 f5 b8 c9       	vfmadd231pd %ymm1,%ymm1,%ymm1
  40489c:	c4 e2 ed b8 d2       	vfmadd231pd %ymm2,%ymm2,%ymm2
  4048a1:	c4 e2 fd b8 c0       	vfmadd231pd %ymm0,%ymm0,%ymm0
  4048a6:	c4 e2 c5 b8 ff       	vfmadd231pd %ymm7,%ymm7,%ymm7
  4048ab:	c4 e2 cd b8 f6       	vfmadd231pd %ymm6,%ymm6,%ymm6
  4048b0:	c4 e2 dd b8 e4       	vfmadd231pd %ymm4,%ymm4,%ymm4
  4048b5:	c4 e2 d5 b8 ed       	vfmadd231pd %ymm5,%ymm5,%ymm5
  4048ba:	c4 e2 e5 b8 db       	vfmadd231pd %ymm3,%ymm3,%ymm3
  4048bf:	c4 e2 f5 b8 c9       	vfmadd231pd %ymm1,%ymm1,%ymm1
  4048c4:	c4 e2 ed b8 d2       	vfmadd231pd %ymm2,%ymm2,%ymm2
  4048c9:	c4 e2 fd b8 c0       	vfmadd231pd %ymm0,%ymm0,%ymm0
  4048ce:	c4 e2 c5 b8 ff       	vfmadd231pd %ymm7,%ymm7,%ymm7
  4048d3:	c4 e2 cd b8 f6       	vfmadd231pd %ymm6,%ymm6,%ymm6
  4048d8:	c4 e2 dd b8 e4       	vfmadd231pd %ymm4,%ymm4,%ymm4
  4048dd:	c4 e2 d5 b8 ed       	vfmadd231pd %ymm5,%ymm5,%ymm5
  4048e2:	c4 e2 e5 b8 db       	vfmadd231pd %ymm3,%ymm3,%ymm3
  4048e7:	c4 e2 f5 b8 c9       	vfmadd231pd %ymm1,%ymm1,%ymm1
  4048ec:	c4 e2 ed b8 d2       	vfmadd231pd %ymm2,%ymm2,%ymm2
  4048f1:	c4 e2 fd b8 c0       	vfmadd231pd %ymm0,%ymm0,%ymm0
  4048f6:	c4 e2 c5 b8 ff       	vfmadd231pd %ymm7,%ymm7,%ymm7
  4048fb:	c4 e2 cd b8 f6       	vfmadd231pd %ymm6,%ymm6,%ymm6
  404900:	c4 e2 dd b8 e4       	vfmadd231pd %ymm4,%ymm4,%ymm4
  404905:	c4 e2 d5 b8 ed       	vfmadd231pd %ymm5,%ymm5,%ymm5
  40490a:	c4 e2 e5 b8 db       	vfmadd231pd %ymm3,%ymm3,%ymm3
  40490f:	c4 e2 f5 b8 c9       	vfmadd231pd %ymm1,%ymm1,%ymm1
  404914:	c4 e2 ed b8 d2       	vfmadd231pd %ymm2,%ymm2,%ymm2
  404919:	c4 e2 fd b8 c0       	vfmadd231pd %ymm0,%ymm0,%ymm0
  40491e:	c4 e2 c5 b8 ff       	vfmadd231pd %ymm7,%ymm7,%ymm7
  404923:	c4 e2 cd b8 f6       	vfmadd231pd %ymm6,%ymm6,%ymm6
  404928:	c4 e2 dd b8 e4       	vfmadd231pd %ymm4,%ymm4,%ymm4
  40492d:	c4 e2 d5 b8 ed       	vfmadd231pd %ymm5,%ymm5,%ymm5
  404932:	c4 e2 e5 b8 db       	vfmadd231pd %ymm3,%ymm3,%ymm3
  404937:	c4 e2 f5 b8 c9       	vfmadd231pd %ymm1,%ymm1,%ymm1
  40493c:	c4 e2 ed b8 d2       	vfmadd231pd %ymm2,%ymm2,%ymm2
  404941:	c4 e2 fd b8 c0       	vfmadd231pd %ymm0,%ymm0,%ymm0
  404946:	c4 e2 c5 b8 ff       	vfmadd231pd %ymm7,%ymm7,%ymm7
  40494b:	c4 e2 cd b8 f6       	vfmadd231pd %ymm6,%ymm6,%ymm6
  404950:	c4 e2 dd b8 e4       	vfmadd231pd %ymm4,%ymm4,%ymm4
  404955:	c4 e2 d5 b8 ed       	vfmadd231pd %ymm5,%ymm5,%ymm5
  40495a:	c4 e2 e5 b8 db       	vfmadd231pd %ymm3,%ymm3,%ymm3
  40495f:	c4 e2 f5 b8 c9       	vfmadd231pd %ymm1,%ymm1,%ymm1
  404964:	c4 e2 ed b8 d2       	vfmadd231pd %ymm2,%ymm2,%ymm2
  404969:	c4 e2 fd b8 c0       	vfmadd231pd %ymm0,%ymm0,%ymm0
  40496e:	c4 e2 c5 b8 ff       	vfmadd231pd %ymm7,%ymm7,%ymm7
  404973:	c4 e2 cd b8 f6       	vfmadd231pd %ymm6,%ymm6,%ymm6
  404978:	c4 e2 dd b8 e4       	vfmadd231pd %ymm4,%ymm4,%ymm4
  40497d:	c4 e2 d5 b8 ed       	vfmadd231pd %ymm5,%ymm5,%ymm5
  404982:	c4 e2 e5 b8 db       	vfmadd231pd %ymm3,%ymm3,%ymm3
  404987:	c4 e2 f5 b8 c9       	vfmadd231pd %ymm1,%ymm1,%ymm1
  40498c:	c4 e2 ed b8 d2       	vfmadd231pd %ymm2,%ymm2,%ymm2
  404991:	c4 e2 fd b8 c0       	vfmadd231pd %ymm0,%ymm0,%ymm0
  404996:	c4 e2 c5 b8 ff       	vfmadd231pd %ymm7,%ymm7,%ymm7
  40499b:	c4 e2 cd b8 f6       	vfmadd231pd %ymm6,%ymm6,%ymm6
  4049a0:	c4 e2 dd b8 e4       	vfmadd231pd %ymm4,%ymm4,%ymm4
  4049a5:	c4 e2 d5 b8 ed       	vfmadd231pd %ymm5,%ymm5,%ymm5
  4049aa:	c4 e2 e5 b8 db       	vfmadd231pd %ymm3,%ymm3,%ymm3
  4049af:	c4 e2 f5 b8 c9       	vfmadd231pd %ymm1,%ymm1,%ymm1
  4049b4:	c4 e2 ed b8 d2       	vfmadd231pd %ymm2,%ymm2,%ymm2
  4049b9:	c4 e2 fd b8 c0       	vfmadd231pd %ymm0,%ymm0,%ymm0
  4049be:	c4 e2 c5 b8 ff       	vfmadd231pd %ymm7,%ymm7,%ymm7
  4049c3:	c4 e2 cd b8 f6       	vfmadd231pd %ymm6,%ymm6,%ymm6
  4049c8:	c4 e2 dd b8 e4       	vfmadd231pd %ymm4,%ymm4,%ymm4
  4049cd:	c4 e2 d5 b8 ed       	vfmadd231pd %ymm5,%ymm5,%ymm5
  4049d2:	c4 e2 e5 b8 db       	vfmadd231pd %ymm3,%ymm3,%ymm3
  4049d7:	c4 e2 f5 b8 c9       	vfmadd231pd %ymm1,%ymm1,%ymm1
  4049dc:	c4 e2 ed b8 d2       	vfmadd231pd %ymm2,%ymm2,%ymm2
  4049e1:	c4 e2 fd b8 c0       	vfmadd231pd %ymm0,%ymm0,%ymm0
  4049e6:	c4 e2 c5 b8 ff       	vfmadd231pd %ymm7,%ymm7,%ymm7
  4049eb:	c4 e2 cd b8 f6       	vfmadd231pd %ymm6,%ymm6,%ymm6
  4049f0:	c4 e2 dd b8 e4       	vfmadd231pd %ymm4,%ymm4,%ymm4
  4049f5:	c4 e2 d5 b8 ed       	vfmadd231pd %ymm5,%ymm5,%ymm5
  4049fa:	c4 e2 e5 b8 db       	vfmadd231pd %ymm3,%ymm3,%ymm3
  4049ff:	c4 e2 f5 b8 c9       	vfmadd231pd %ymm1,%ymm1,%ymm1
  404a04:	c4 e2 ed b8 d2       	vfmadd231pd %ymm2,%ymm2,%ymm2
  404a09:	c4 e2 fd b8 c0       	vfmadd231pd %ymm0,%ymm0,%ymm0
  404a0e:	c4 e2 c5 b8 ff       	vfmadd231pd %ymm7,%ymm7,%ymm7
  404a13:	c4 e2 cd b8 f6       	vfmadd231pd %ymm6,%ymm6,%ymm6
  404a18:	c4 e2 dd b8 e4       	vfmadd231pd %ymm4,%ymm4,%ymm4
  404a1d:	c4 e2 d5 b8 ed       	vfmadd231pd %ymm5,%ymm5,%ymm5
  404a22:	c4 e2 e5 b8 db       	vfmadd231pd %ymm3,%ymm3,%ymm3
  404a27:	c4 e2 f5 b8 c9       	vfmadd231pd %ymm1,%ymm1,%ymm1
  404a2c:	c4 e2 ed b8 d2       	vfmadd231pd %ymm2,%ymm2,%ymm2
  404a31:	c4 e2 fd b8 c0       	vfmadd231pd %ymm0,%ymm0,%ymm0
  404a36:	c4 e2 c5 b8 ff       	vfmadd231pd %ymm7,%ymm7,%ymm7
  404a3b:	c4 e2 cd b8 f6       	vfmadd231pd %ymm6,%ymm6,%ymm6
  404a40:	c4 e2 dd b8 e4       	vfmadd231pd %ymm4,%ymm4,%ymm4
  404a45:	c4 e2 d5 b8 ed       	vfmadd231pd %ymm5,%ymm5,%ymm5
  404a4a:	c4 e2 e5 b8 db       	vfmadd231pd %ymm3,%ymm3,%ymm3
  404a4f:	c4 e2 f5 b8 c9       	vfmadd231pd %ymm1,%ymm1,%ymm1
  404a54:	c4 e2 ed b8 d2       	vfmadd231pd %ymm2,%ymm2,%ymm2
  404a59:	c4 e2 fd b8 c0       	vfmadd231pd %ymm0,%ymm0,%ymm0
  404a5e:	c4 e2 c5 b8 ff       	vfmadd231pd %ymm7,%ymm7,%ymm7
  404a63:	c4 e2 cd b8 f6       	vfmadd231pd %ymm6,%ymm6,%ymm6
  404a68:	c4 e2 dd b8 e4       	vfmadd231pd %ymm4,%ymm4,%ymm4
  404a6d:	c4 e2 d5 b8 ed       	vfmadd231pd %ymm5,%ymm5,%ymm5
  404a72:	c4 e2 e5 b8 db       	vfmadd231pd %ymm3,%ymm3,%ymm3
  404a77:	c4 e2 f5 b8 c9       	vfmadd231pd %ymm1,%ymm1,%ymm1
  404a7c:	c4 e2 ed b8 d2       	vfmadd231pd %ymm2,%ymm2,%ymm2
  404a81:	c4 e2 fd b8 c0       	vfmadd231pd %ymm0,%ymm0,%ymm0
  404a86:	c4 e2 c5 b8 ff       	vfmadd231pd %ymm7,%ymm7,%ymm7
  404a8b:	c4 e2 cd b8 f6       	vfmadd231pd %ymm6,%ymm6,%ymm6
  404a90:	c4 e2 dd b8 e4       	vfmadd231pd %ymm4,%ymm4,%ymm4
  404a95:	c4 e2 d5 b8 ed       	vfmadd231pd %ymm5,%ymm5,%ymm5
  404a9a:	c4 e2 e5 b8 db       	vfmadd231pd %ymm3,%ymm3,%ymm3
  404a9f:	c4 e2 f5 b8 c9       	vfmadd231pd %ymm1,%ymm1,%ymm1
  404aa4:	c4 e2 ed b8 d2       	vfmadd231pd %ymm2,%ymm2,%ymm2
  404aa9:	c4 e2 fd b8 c0       	vfmadd231pd %ymm0,%ymm0,%ymm0
  404aae:	c4 e2 c5 b8 ff       	vfmadd231pd %ymm7,%ymm7,%ymm7
  404ab3:	c4 e2 cd b8 f6       	vfmadd231pd %ymm6,%ymm6,%ymm6
  404ab8:	c4 e2 dd b8 e4       	vfmadd231pd %ymm4,%ymm4,%ymm4
  404abd:	c4 e2 d5 b8 ed       	vfmadd231pd %ymm5,%ymm5,%ymm5
  404ac2:	c4 e2 e5 b8 db       	vfmadd231pd %ymm3,%ymm3,%ymm3
  404ac7:	c4 e2 f5 b8 c9       	vfmadd231pd %ymm1,%ymm1,%ymm1
  404acc:	c4 e2 ed b8 d2       	vfmadd231pd %ymm2,%ymm2,%ymm2
  404ad1:	c4 e2 fd b8 c0       	vfmadd231pd %ymm0,%ymm0,%ymm0
  404ad6:	c4 e2 c5 b8 ff       	vfmadd231pd %ymm7,%ymm7,%ymm7
  404adb:	c4 e2 cd b8 f6       	vfmadd231pd %ymm6,%ymm6,%ymm6
  404ae0:	c4 e2 dd b8 e4       	vfmadd231pd %ymm4,%ymm4,%ymm4
  404ae5:	c4 e2 d5 b8 ed       	vfmadd231pd %ymm5,%ymm5,%ymm5
  404aea:	c4 e2 e5 b8 db       	vfmadd231pd %ymm3,%ymm3,%ymm3
  404aef:	c4 e2 f5 b8 c9       	vfmadd231pd %ymm1,%ymm1,%ymm1
  404af4:	c4 e2 ed b8 d2       	vfmadd231pd %ymm2,%ymm2,%ymm2
  404af9:	c4 e2 fd b8 c0       	vfmadd231pd %ymm0,%ymm0,%ymm0
  404afe:	c4 e2 c5 b8 ff       	vfmadd231pd %ymm7,%ymm7,%ymm7
  404b03:	c4 e2 cd b8 f6       	vfmadd231pd %ymm6,%ymm6,%ymm6
  404b08:	c4 e2 dd b8 e4       	vfmadd231pd %ymm4,%ymm4,%ymm4
  404b0d:	c4 e2 d5 b8 ed       	vfmadd231pd %ymm5,%ymm5,%ymm5
  404b12:	c4 e2 e5 b8 db       	vfmadd231pd %ymm3,%ymm3,%ymm3
  404b17:	c4 e2 f5 b8 c9       	vfmadd231pd %ymm1,%ymm1,%ymm1
  404b1c:	c4 e2 ed b8 d2       	vfmadd231pd %ymm2,%ymm2,%ymm2
  404b21:	c4 e2 fd b8 c0       	vfmadd231pd %ymm0,%ymm0,%ymm0
  404b26:	c4 e2 c5 b8 ff       	vfmadd231pd %ymm7,%ymm7,%ymm7
  404b2b:	c4 e2 cd b8 f6       	vfmadd231pd %ymm6,%ymm6,%ymm6
  404b30:	c4 e2 dd b8 e4       	vfmadd231pd %ymm4,%ymm4,%ymm4
  404b35:	c4 e2 d5 b8 ed       	vfmadd231pd %ymm5,%ymm5,%ymm5
  404b3a:	c4 e2 e5 b8 db       	vfmadd231pd %ymm3,%ymm3,%ymm3
  404b3f:	c4 e2 f5 b8 c9       	vfmadd231pd %ymm1,%ymm1,%ymm1
  404b44:	c4 e2 ed b8 d2       	vfmadd231pd %ymm2,%ymm2,%ymm2
  404b49:	c4 e2 fd b8 c0       	vfmadd231pd %ymm0,%ymm0,%ymm0
  404b4e:	c4 e2 c5 b8 ff       	vfmadd231pd %ymm7,%ymm7,%ymm7
  404b53:	c4 e2 cd b8 f6       	vfmadd231pd %ymm6,%ymm6,%ymm6
  404b58:	c4 e2 dd b8 e4       	vfmadd231pd %ymm4,%ymm4,%ymm4
  404b5d:	c4 e2 d5 b8 ed       	vfmadd231pd %ymm5,%ymm5,%ymm5
  404b62:	c4 e2 e5 b8 db       	vfmadd231pd %ymm3,%ymm3,%ymm3
  404b67:	c4 e2 f5 b8 c9       	vfmadd231pd %ymm1,%ymm1,%ymm1
  404b6c:	c4 e2 ed b8 d2       	vfmadd231pd %ymm2,%ymm2,%ymm2
  404b71:	c4 e2 fd b8 c0       	vfmadd231pd %ymm0,%ymm0,%ymm0
  404b76:	c4 e2 c5 b8 ff       	vfmadd231pd %ymm7,%ymm7,%ymm7
  404b7b:	c4 e2 cd b8 f6       	vfmadd231pd %ymm6,%ymm6,%ymm6
  404b80:	c4 e2 dd b8 e4       	vfmadd231pd %ymm4,%ymm4,%ymm4
  404b85:	c4 e2 d5 b8 ed       	vfmadd231pd %ymm5,%ymm5,%ymm5
  404b8a:	c4 e2 e5 b8 db       	vfmadd231pd %ymm3,%ymm3,%ymm3
  404b8f:	c4 e2 f5 b8 c9       	vfmadd231pd %ymm1,%ymm1,%ymm1
  404b94:	c4 e2 ed b8 d2       	vfmadd231pd %ymm2,%ymm2,%ymm2
  404b99:	c4 e2 fd b8 c0       	vfmadd231pd %ymm0,%ymm0,%ymm0
  404b9e:	c4 e2 c5 b8 ff       	vfmadd231pd %ymm7,%ymm7,%ymm7
  404ba3:	c4 e2 cd b8 f6       	vfmadd231pd %ymm6,%ymm6,%ymm6
  404ba8:	c4 e2 dd b8 e4       	vfmadd231pd %ymm4,%ymm4,%ymm4
  404bad:	c4 e2 d5 b8 ed       	vfmadd231pd %ymm5,%ymm5,%ymm5
  404bb2:	c4 e2 e5 b8 db       	vfmadd231pd %ymm3,%ymm3,%ymm3
  404bb7:	c4 e2 f5 b8 c9       	vfmadd231pd %ymm1,%ymm1,%ymm1
  404bbc:	c4 e2 ed b8 d2       	vfmadd231pd %ymm2,%ymm2,%ymm2
  404bc1:	c4 e2 fd b8 c0       	vfmadd231pd %ymm0,%ymm0,%ymm0
  404bc6:	c4 e2 c5 b8 ff       	vfmadd231pd %ymm7,%ymm7,%ymm7
  404bcb:	c4 e2 cd b8 f6       	vfmadd231pd %ymm6,%ymm6,%ymm6
  404bd0:	c4 e2 dd b8 e4       	vfmadd231pd %ymm4,%ymm4,%ymm4
  404bd5:	c4 e2 d5 b8 ed       	vfmadd231pd %ymm5,%ymm5,%ymm5
  404bda:	c4 e2 e5 b8 db       	vfmadd231pd %ymm3,%ymm3,%ymm3
  404bdf:	c4 e2 f5 b8 c9       	vfmadd231pd %ymm1,%ymm1,%ymm1
  404be4:	c4 e2 ed b8 d2       	vfmadd231pd %ymm2,%ymm2,%ymm2
  404be9:	c4 e2 fd b8 c0       	vfmadd231pd %ymm0,%ymm0,%ymm0
  404bee:	c4 e2 c5 b8 ff       	vfmadd231pd %ymm7,%ymm7,%ymm7
  404bf3:	c4 e2 cd b8 f6       	vfmadd231pd %ymm6,%ymm6,%ymm6
  404bf8:	c4 e2 dd b8 e4       	vfmadd231pd %ymm4,%ymm4,%ymm4
  404bfd:	c4 e2 d5 b8 ed       	vfmadd231pd %ymm5,%ymm5,%ymm5
  404c02:	c4 e2 e5 b8 db       	vfmadd231pd %ymm3,%ymm3,%ymm3
  404c07:	c4 e2 f5 b8 c9       	vfmadd231pd %ymm1,%ymm1,%ymm1
  404c0c:	c4 e2 ed b8 d2       	vfmadd231pd %ymm2,%ymm2,%ymm2
  404c11:	c4 e2 fd b8 c0       	vfmadd231pd %ymm0,%ymm0,%ymm0
  404c16:	c4 e2 c5 b8 ff       	vfmadd231pd %ymm7,%ymm7,%ymm7
  404c1b:	c4 e2 cd b8 f6       	vfmadd231pd %ymm6,%ymm6,%ymm6
  404c20:	c4 e2 dd b8 e4       	vfmadd231pd %ymm4,%ymm4,%ymm4
  404c25:	c4 e2 d5 b8 ed       	vfmadd231pd %ymm5,%ymm5,%ymm5
  404c2a:	c4 e2 e5 b8 db       	vfmadd231pd %ymm3,%ymm3,%ymm3
  404c2f:	c4 e2 f5 b8 c9       	vfmadd231pd %ymm1,%ymm1,%ymm1
  404c34:	c4 e2 ed b8 d2       	vfmadd231pd %ymm2,%ymm2,%ymm2
  404c39:	c4 e2 fd b8 c0       	vfmadd231pd %ymm0,%ymm0,%ymm0
  404c3e:	c4 e2 c5 b8 ff       	vfmadd231pd %ymm7,%ymm7,%ymm7
  404c43:	c4 e2 cd b8 f6       	vfmadd231pd %ymm6,%ymm6,%ymm6
  404c48:	c4 e2 dd b8 e4       	vfmadd231pd %ymm4,%ymm4,%ymm4
  404c4d:	c4 e2 d5 b8 ed       	vfmadd231pd %ymm5,%ymm5,%ymm5
  404c52:	c4 e2 e5 b8 db       	vfmadd231pd %ymm3,%ymm3,%ymm3
  404c57:	c4 e2 f5 b8 c9       	vfmadd231pd %ymm1,%ymm1,%ymm1
  404c5c:	c4 e2 ed b8 d2       	vfmadd231pd %ymm2,%ymm2,%ymm2
  404c61:	c4 e2 fd b8 c0       	vfmadd231pd %ymm0,%ymm0,%ymm0
  404c66:	c4 e2 c5 b8 ff       	vfmadd231pd %ymm7,%ymm7,%ymm7
  404c6b:	c4 e2 cd b8 f6       	vfmadd231pd %ymm6,%ymm6,%ymm6
  404c70:	c4 e2 dd b8 e4       	vfmadd231pd %ymm4,%ymm4,%ymm4
  404c75:	c4 e2 d5 b8 ed       	vfmadd231pd %ymm5,%ymm5,%ymm5
  404c7a:	c4 e2 e5 b8 db       	vfmadd231pd %ymm3,%ymm3,%ymm3
  404c7f:	c4 e2 f5 b8 c9       	vfmadd231pd %ymm1,%ymm1,%ymm1
  404c84:	c4 e2 ed b8 d2       	vfmadd231pd %ymm2,%ymm2,%ymm2
  404c89:	c4 e2 fd b8 c0       	vfmadd231pd %ymm0,%ymm0,%ymm0
  404c8e:	c4 e2 c5 b8 ff       	vfmadd231pd %ymm7,%ymm7,%ymm7
  404c93:	c4 e2 cd b8 f6       	vfmadd231pd %ymm6,%ymm6,%ymm6
  404c98:	c4 e2 dd b8 e4       	vfmadd231pd %ymm4,%ymm4,%ymm4
  404c9d:	c4 e2 d5 b8 ed       	vfmadd231pd %ymm5,%ymm5,%ymm5
  404ca2:	c4 e2 e5 b8 db       	vfmadd231pd %ymm3,%ymm3,%ymm3
  404ca7:	c4 e2 f5 b8 c9       	vfmadd231pd %ymm1,%ymm1,%ymm1
  404cac:	c4 e2 ed b8 d2       	vfmadd231pd %ymm2,%ymm2,%ymm2
  404cb1:	c4 e2 fd b8 c0       	vfmadd231pd %ymm0,%ymm0,%ymm0
  404cb6:	c4 e2 c5 b8 ff       	vfmadd231pd %ymm7,%ymm7,%ymm7
  404cbb:	c4 e2 cd b8 f6       	vfmadd231pd %ymm6,%ymm6,%ymm6
  404cc0:	c4 e2 dd b8 e4       	vfmadd231pd %ymm4,%ymm4,%ymm4
  404cc5:	c4 e2 d5 b8 ed       	vfmadd231pd %ymm5,%ymm5,%ymm5
  404cca:	c4 e2 e5 b8 db       	vfmadd231pd %ymm3,%ymm3,%ymm3
  404ccf:	c4 e2 f5 b8 c9       	vfmadd231pd %ymm1,%ymm1,%ymm1
  404cd4:	c4 e2 ed b8 d2       	vfmadd231pd %ymm2,%ymm2,%ymm2
  404cd9:	c4 e2 fd b8 c0       	vfmadd231pd %ymm0,%ymm0,%ymm0
  404cde:	c4 e2 c5 b8 ff       	vfmadd231pd %ymm7,%ymm7,%ymm7
  404ce3:	c4 e2 cd b8 f6       	vfmadd231pd %ymm6,%ymm6,%ymm6
  404ce8:	c4 e2 dd b8 e4       	vfmadd231pd %ymm4,%ymm4,%ymm4
  404ced:	c4 e2 d5 b8 ed       	vfmadd231pd %ymm5,%ymm5,%ymm5
  404cf2:	c4 e2 e5 b8 db       	vfmadd231pd %ymm3,%ymm3,%ymm3
  404cf7:	c4 e2 f5 b8 c9       	vfmadd231pd %ymm1,%ymm1,%ymm1
  404cfc:	c4 e2 ed b8 d2       	vfmadd231pd %ymm2,%ymm2,%ymm2
  404d01:	c4 e2 fd b8 c0       	vfmadd231pd %ymm0,%ymm0,%ymm0
  404d06:	c4 e2 c5 b8 ff       	vfmadd231pd %ymm7,%ymm7,%ymm7
  404d0b:	c4 e2 cd b8 f6       	vfmadd231pd %ymm6,%ymm6,%ymm6
  404d10:	c4 e2 dd b8 e4       	vfmadd231pd %ymm4,%ymm4,%ymm4
  404d15:	c4 e2 d5 b8 ed       	vfmadd231pd %ymm5,%ymm5,%ymm5
  404d1a:	c4 e2 e5 b8 db       	vfmadd231pd %ymm3,%ymm3,%ymm3
  404d1f:	c4 e2 f5 b8 c9       	vfmadd231pd %ymm1,%ymm1,%ymm1
  404d24:	c4 e2 ed b8 d2       	vfmadd231pd %ymm2,%ymm2,%ymm2
  404d29:	c4 e2 fd b8 c0       	vfmadd231pd %ymm0,%ymm0,%ymm0
  404d2e:	c4 e2 c5 b8 ff       	vfmadd231pd %ymm7,%ymm7,%ymm7
  404d33:	c4 e2 cd b8 f6       	vfmadd231pd %ymm6,%ymm6,%ymm6
  404d38:	c4 e2 dd b8 e4       	vfmadd231pd %ymm4,%ymm4,%ymm4
  404d3d:	c4 e2 d5 b8 ed       	vfmadd231pd %ymm5,%ymm5,%ymm5
  404d42:	c4 e2 e5 b8 db       	vfmadd231pd %ymm3,%ymm3,%ymm3
  404d47:	c4 e2 f5 b8 c9       	vfmadd231pd %ymm1,%ymm1,%ymm1
  404d4c:	c4 e2 ed b8 d2       	vfmadd231pd %ymm2,%ymm2,%ymm2
  404d51:	c4 e2 fd b8 c0       	vfmadd231pd %ymm0,%ymm0,%ymm0
  404d56:	c4 e2 c5 b8 ff       	vfmadd231pd %ymm7,%ymm7,%ymm7
  404d5b:	c4 e2 cd b8 f6       	vfmadd231pd %ymm6,%ymm6,%ymm6
  404d60:	c4 e2 dd b8 e4       	vfmadd231pd %ymm4,%ymm4,%ymm4
  404d65:	c4 e2 d5 b8 ed       	vfmadd231pd %ymm5,%ymm5,%ymm5
  404d6a:	c4 e2 e5 b8 db       	vfmadd231pd %ymm3,%ymm3,%ymm3
  404d6f:	c4 e2 f5 b8 c9       	vfmadd231pd %ymm1,%ymm1,%ymm1
  404d74:	c4 e2 ed b8 d2       	vfmadd231pd %ymm2,%ymm2,%ymm2
  404d79:	c4 e2 fd b8 c0       	vfmadd231pd %ymm0,%ymm0,%ymm0
  404d7e:	c4 e2 c5 b8 ff       	vfmadd231pd %ymm7,%ymm7,%ymm7
  404d83:	c4 e2 cd b8 f6       	vfmadd231pd %ymm6,%ymm6,%ymm6
  404d88:	c4 e2 dd b8 e4       	vfmadd231pd %ymm4,%ymm4,%ymm4
  404d8d:	c4 e2 d5 b8 ed       	vfmadd231pd %ymm5,%ymm5,%ymm5
  404d92:	c4 e2 e5 b8 db       	vfmadd231pd %ymm3,%ymm3,%ymm3
  404d97:	c4 e2 f5 b8 c9       	vfmadd231pd %ymm1,%ymm1,%ymm1
  404d9c:	c4 e2 ed b8 d2       	vfmadd231pd %ymm2,%ymm2,%ymm2
  404da1:	c4 e2 fd b8 c0       	vfmadd231pd %ymm0,%ymm0,%ymm0
  404da6:	c4 e2 c5 b8 ff       	vfmadd231pd %ymm7,%ymm7,%ymm7
  404dab:	c4 e2 cd b8 f6       	vfmadd231pd %ymm6,%ymm6,%ymm6
  404db0:	c4 e2 dd b8 e4       	vfmadd231pd %ymm4,%ymm4,%ymm4
  404db5:	c4 e2 d5 b8 ed       	vfmadd231pd %ymm5,%ymm5,%ymm5
  404dba:	c4 e2 e5 b8 db       	vfmadd231pd %ymm3,%ymm3,%ymm3
  404dbf:	c4 e2 f5 b8 c9       	vfmadd231pd %ymm1,%ymm1,%ymm1
  404dc4:	c4 e2 ed b8 d2       	vfmadd231pd %ymm2,%ymm2,%ymm2
  404dc9:	c4 e2 fd b8 c0       	vfmadd231pd %ymm0,%ymm0,%ymm0
  404dce:	c4 e2 c5 b8 ff       	vfmadd231pd %ymm7,%ymm7,%ymm7
  404dd3:	c4 e2 cd b8 f6       	vfmadd231pd %ymm6,%ymm6,%ymm6
  404dd8:	c4 e2 dd b8 e4       	vfmadd231pd %ymm4,%ymm4,%ymm4
  404ddd:	c4 e2 d5 b8 ed       	vfmadd231pd %ymm5,%ymm5,%ymm5
  404de2:	c4 e2 e5 b8 db       	vfmadd231pd %ymm3,%ymm3,%ymm3
  404de7:	c4 e2 f5 b8 c9       	vfmadd231pd %ymm1,%ymm1,%ymm1
  404dec:	c4 e2 ed b8 d2       	vfmadd231pd %ymm2,%ymm2,%ymm2
  404df1:	c4 e2 fd b8 c0       	vfmadd231pd %ymm0,%ymm0,%ymm0
  404df6:	c4 e2 c5 b8 ff       	vfmadd231pd %ymm7,%ymm7,%ymm7
  404dfb:	c4 e2 cd b8 f6       	vfmadd231pd %ymm6,%ymm6,%ymm6
  404e00:	c4 e2 dd b8 e4       	vfmadd231pd %ymm4,%ymm4,%ymm4
  404e05:	c4 e2 d5 b8 ed       	vfmadd231pd %ymm5,%ymm5,%ymm5
  404e0a:	c4 e2 e5 b8 db       	vfmadd231pd %ymm3,%ymm3,%ymm3
  404e0f:	c4 e2 f5 b8 c9       	vfmadd231pd %ymm1,%ymm1,%ymm1
  404e14:	c4 e2 ed b8 d2       	vfmadd231pd %ymm2,%ymm2,%ymm2
  404e19:	c4 e2 fd b8 c0       	vfmadd231pd %ymm0,%ymm0,%ymm0
  404e1e:	c4 e2 c5 b8 ff       	vfmadd231pd %ymm7,%ymm7,%ymm7
  404e23:	c4 e2 cd b8 f6       	vfmadd231pd %ymm6,%ymm6,%ymm6
  404e28:	c4 e2 dd b8 e4       	vfmadd231pd %ymm4,%ymm4,%ymm4
  404e2d:	c4 e2 d5 b8 ed       	vfmadd231pd %ymm5,%ymm5,%ymm5
  404e32:	c4 e2 e5 b8 db       	vfmadd231pd %ymm3,%ymm3,%ymm3
  404e37:	c4 e2 f5 b8 c9       	vfmadd231pd %ymm1,%ymm1,%ymm1
  404e3c:	c4 e2 ed b8 d2       	vfmadd231pd %ymm2,%ymm2,%ymm2
  404e41:	c4 e2 fd b8 c0       	vfmadd231pd %ymm0,%ymm0,%ymm0
  404e46:	c4 e2 c5 b8 ff       	vfmadd231pd %ymm7,%ymm7,%ymm7
  404e4b:	c4 e2 cd b8 f6       	vfmadd231pd %ymm6,%ymm6,%ymm6
  404e50:	c4 e2 dd b8 e4       	vfmadd231pd %ymm4,%ymm4,%ymm4
  404e55:	c4 e2 d5 b8 ed       	vfmadd231pd %ymm5,%ymm5,%ymm5
  404e5a:	c4 e2 e5 b8 db       	vfmadd231pd %ymm3,%ymm3,%ymm3
  404e5f:	c4 e2 f5 b8 c9       	vfmadd231pd %ymm1,%ymm1,%ymm1
  404e64:	c4 e2 ed b8 d2       	vfmadd231pd %ymm2,%ymm2,%ymm2
  404e69:	c4 e2 fd b8 c0       	vfmadd231pd %ymm0,%ymm0,%ymm0
  404e6e:	c4 e2 c5 b8 ff       	vfmadd231pd %ymm7,%ymm7,%ymm7
  404e73:	c4 e2 cd b8 f6       	vfmadd231pd %ymm6,%ymm6,%ymm6
  404e78:	c4 e2 dd b8 e4       	vfmadd231pd %ymm4,%ymm4,%ymm4
  404e7d:	c4 e2 d5 b8 ed       	vfmadd231pd %ymm5,%ymm5,%ymm5
  404e82:	c4 e2 e5 b8 db       	vfmadd231pd %ymm3,%ymm3,%ymm3
  404e87:	c4 e2 f5 b8 c9       	vfmadd231pd %ymm1,%ymm1,%ymm1
  404e8c:	c4 e2 ed b8 d2       	vfmadd231pd %ymm2,%ymm2,%ymm2
  404e91:	c4 e2 fd b8 c0       	vfmadd231pd %ymm0,%ymm0,%ymm0
  404e96:	c4 e2 c5 b8 ff       	vfmadd231pd %ymm7,%ymm7,%ymm7
  404e9b:	c4 e2 cd b8 f6       	vfmadd231pd %ymm6,%ymm6,%ymm6
  404ea0:	c4 e2 dd b8 e4       	vfmadd231pd %ymm4,%ymm4,%ymm4
  404ea5:	c4 e2 d5 b8 ed       	vfmadd231pd %ymm5,%ymm5,%ymm5
  404eaa:	c4 e2 e5 b8 db       	vfmadd231pd %ymm3,%ymm3,%ymm3
  404eaf:	c4 e2 f5 b8 c9       	vfmadd231pd %ymm1,%ymm1,%ymm1
  404eb4:	c4 e2 ed b8 d2       	vfmadd231pd %ymm2,%ymm2,%ymm2
  404eb9:	c4 e2 fd b8 c0       	vfmadd231pd %ymm0,%ymm0,%ymm0
  404ebe:	c4 e2 c5 b8 ff       	vfmadd231pd %ymm7,%ymm7,%ymm7
  404ec3:	c4 e2 cd b8 f6       	vfmadd231pd %ymm6,%ymm6,%ymm6
  404ec8:	c4 e2 dd b8 e4       	vfmadd231pd %ymm4,%ymm4,%ymm4
  404ecd:	c4 e2 d5 b8 ed       	vfmadd231pd %ymm5,%ymm5,%ymm5
  404ed2:	c4 e2 e5 b8 db       	vfmadd231pd %ymm3,%ymm3,%ymm3
  404ed7:	c4 e2 f5 b8 c9       	vfmadd231pd %ymm1,%ymm1,%ymm1
  404edc:	c4 e2 ed b8 d2       	vfmadd231pd %ymm2,%ymm2,%ymm2
  404ee1:	c4 e2 fd b8 c0       	vfmadd231pd %ymm0,%ymm0,%ymm0
  404ee6:	c4 e2 c5 b8 ff       	vfmadd231pd %ymm7,%ymm7,%ymm7
  404eeb:	c4 e2 cd b8 f6       	vfmadd231pd %ymm6,%ymm6,%ymm6
  404ef0:	c4 e2 dd b8 e4       	vfmadd231pd %ymm4,%ymm4,%ymm4
  404ef5:	c4 e2 d5 b8 ed       	vfmadd231pd %ymm5,%ymm5,%ymm5
  404efa:	c4 e2 e5 b8 db       	vfmadd231pd %ymm3,%ymm3,%ymm3
  404eff:	c4 e2 f5 b8 c9       	vfmadd231pd %ymm1,%ymm1,%ymm1
  404f04:	c4 e2 ed b8 d2       	vfmadd231pd %ymm2,%ymm2,%ymm2
  404f09:	c4 e2 fd b8 c0       	vfmadd231pd %ymm0,%ymm0,%ymm0
  404f0e:	c4 e2 c5 b8 ff       	vfmadd231pd %ymm7,%ymm7,%ymm7
  404f13:	c4 e2 cd b8 f6       	vfmadd231pd %ymm6,%ymm6,%ymm6
  404f18:	c4 e2 dd b8 e4       	vfmadd231pd %ymm4,%ymm4,%ymm4
  404f1d:	c4 e2 d5 b8 ed       	vfmadd231pd %ymm5,%ymm5,%ymm5
  404f22:	c4 e2 e5 b8 db       	vfmadd231pd %ymm3,%ymm3,%ymm3
  404f27:	c4 e2 f5 b8 c9       	vfmadd231pd %ymm1,%ymm1,%ymm1
  404f2c:	c4 e2 ed b8 d2       	vfmadd231pd %ymm2,%ymm2,%ymm2
  404f31:	c4 e2 fd b8 c0       	vfmadd231pd %ymm0,%ymm0,%ymm0
  404f36:	c4 e2 c5 b8 ff       	vfmadd231pd %ymm7,%ymm7,%ymm7
  404f3b:	c4 e2 cd b8 f6       	vfmadd231pd %ymm6,%ymm6,%ymm6
  404f40:	c4 e2 dd b8 e4       	vfmadd231pd %ymm4,%ymm4,%ymm4
  404f45:	c4 e2 d5 b8 ed       	vfmadd231pd %ymm5,%ymm5,%ymm5
  404f4a:	c4 e2 e5 b8 db       	vfmadd231pd %ymm3,%ymm3,%ymm3
  404f4f:	c4 e2 f5 b8 c9       	vfmadd231pd %ymm1,%ymm1,%ymm1
  404f54:	c4 e2 ed b8 d2       	vfmadd231pd %ymm2,%ymm2,%ymm2
  404f59:	c4 e2 fd b8 c0       	vfmadd231pd %ymm0,%ymm0,%ymm0
  404f5e:	c4 e2 c5 b8 ff       	vfmadd231pd %ymm7,%ymm7,%ymm7
  404f63:	c4 e2 cd b8 f6       	vfmadd231pd %ymm6,%ymm6,%ymm6
  404f68:	c4 e2 dd b8 e4       	vfmadd231pd %ymm4,%ymm4,%ymm4
  404f6d:	c4 e2 d5 b8 ed       	vfmadd231pd %ymm5,%ymm5,%ymm5
  404f72:	c4 e2 e5 b8 db       	vfmadd231pd %ymm3,%ymm3,%ymm3
  404f77:	c4 e2 f5 b8 c9       	vfmadd231pd %ymm1,%ymm1,%ymm1
  404f7c:	c4 e2 ed b8 d2       	vfmadd231pd %ymm2,%ymm2,%ymm2
  404f81:	c4 e2 fd b8 c0       	vfmadd231pd %ymm0,%ymm0,%ymm0
  404f86:	c4 e2 c5 b8 ff       	vfmadd231pd %ymm7,%ymm7,%ymm7
  404f8b:	c4 e2 cd b8 f6       	vfmadd231pd %ymm6,%ymm6,%ymm6
  404f90:	c4 e2 dd b8 e4       	vfmadd231pd %ymm4,%ymm4,%ymm4
  404f95:	c4 e2 d5 b8 ed       	vfmadd231pd %ymm5,%ymm5,%ymm5
  404f9a:	c4 e2 e5 b8 db       	vfmadd231pd %ymm3,%ymm3,%ymm3
  404f9f:	c4 e2 f5 b8 c9       	vfmadd231pd %ymm1,%ymm1,%ymm1
  404fa4:	c4 e2 ed b8 d2       	vfmadd231pd %ymm2,%ymm2,%ymm2
  404fa9:	c4 e2 fd b8 c0       	vfmadd231pd %ymm0,%ymm0,%ymm0
  404fae:	c4 e2 c5 b8 ff       	vfmadd231pd %ymm7,%ymm7,%ymm7
  404fb3:	c4 e2 cd b8 f6       	vfmadd231pd %ymm6,%ymm6,%ymm6
  404fb8:	c4 e2 dd b8 e4       	vfmadd231pd %ymm4,%ymm4,%ymm4
  404fbd:	c4 e2 d5 b8 ed       	vfmadd231pd %ymm5,%ymm5,%ymm5
  404fc2:	c4 e2 e5 b8 db       	vfmadd231pd %ymm3,%ymm3,%ymm3
  404fc7:	c4 e2 f5 b8 c9       	vfmadd231pd %ymm1,%ymm1,%ymm1
  404fcc:	c4 e2 ed b8 d2       	vfmadd231pd %ymm2,%ymm2,%ymm2
  404fd1:	c4 e2 fd b8 c0       	vfmadd231pd %ymm0,%ymm0,%ymm0
  404fd6:	c4 e2 c5 b8 ff       	vfmadd231pd %ymm7,%ymm7,%ymm7
  404fdb:	c4 e2 cd b8 f6       	vfmadd231pd %ymm6,%ymm6,%ymm6
  404fe0:	c4 e2 dd b8 e4       	vfmadd231pd %ymm4,%ymm4,%ymm4
  404fe5:	c4 e2 d5 b8 ed       	vfmadd231pd %ymm5,%ymm5,%ymm5
  404fea:	c4 e2 e5 b8 db       	vfmadd231pd %ymm3,%ymm3,%ymm3
  404fef:	c4 e2 f5 b8 c9       	vfmadd231pd %ymm1,%ymm1,%ymm1
  404ff4:	c4 e2 ed b8 d2       	vfmadd231pd %ymm2,%ymm2,%ymm2
  404ff9:	c4 e2 fd b8 c0       	vfmadd231pd %ymm0,%ymm0,%ymm0
  404ffe:	c4 e2 c5 b8 ff       	vfmadd231pd %ymm7,%ymm7,%ymm7
  405003:	c4 e2 cd b8 f6       	vfmadd231pd %ymm6,%ymm6,%ymm6
  405008:	c4 e2 dd b8 e4       	vfmadd231pd %ymm4,%ymm4,%ymm4
  40500d:	c4 e2 d5 b8 ed       	vfmadd231pd %ymm5,%ymm5,%ymm5
  405012:	c4 e2 e5 b8 db       	vfmadd231pd %ymm3,%ymm3,%ymm3
  405017:	c4 e2 f5 b8 c9       	vfmadd231pd %ymm1,%ymm1,%ymm1
  40501c:	c4 e2 ed b8 d2       	vfmadd231pd %ymm2,%ymm2,%ymm2
  405021:	c4 e2 fd b8 c0       	vfmadd231pd %ymm0,%ymm0,%ymm0
  405026:	c4 e2 c5 b8 ff       	vfmadd231pd %ymm7,%ymm7,%ymm7
  40502b:	c4 e2 cd b8 f6       	vfmadd231pd %ymm6,%ymm6,%ymm6
  405030:	c4 e2 dd b8 e4       	vfmadd231pd %ymm4,%ymm4,%ymm4
  405035:	c4 e2 d5 b8 ed       	vfmadd231pd %ymm5,%ymm5,%ymm5
  40503a:	c4 e2 e5 b8 db       	vfmadd231pd %ymm3,%ymm3,%ymm3
  40503f:	c4 e2 f5 b8 c9       	vfmadd231pd %ymm1,%ymm1,%ymm1
  405044:	c4 e2 ed b8 d2       	vfmadd231pd %ymm2,%ymm2,%ymm2
  405049:	c4 e2 fd b8 c0       	vfmadd231pd %ymm0,%ymm0,%ymm0
  40504e:	c4 e2 c5 b8 ff       	vfmadd231pd %ymm7,%ymm7,%ymm7
  405053:	c4 e2 cd b8 f6       	vfmadd231pd %ymm6,%ymm6,%ymm6
  405058:	c4 e2 dd b8 e4       	vfmadd231pd %ymm4,%ymm4,%ymm4
  40505d:	c4 e2 d5 b8 ed       	vfmadd231pd %ymm5,%ymm5,%ymm5
  405062:	c4 e2 e5 b8 db       	vfmadd231pd %ymm3,%ymm3,%ymm3
  405067:	c4 e2 f5 b8 c9       	vfmadd231pd %ymm1,%ymm1,%ymm1
  40506c:	c4 e2 ed b8 d2       	vfmadd231pd %ymm2,%ymm2,%ymm2
  405071:	c4 e2 fd b8 c0       	vfmadd231pd %ymm0,%ymm0,%ymm0
  405076:	c4 e2 c5 b8 ff       	vfmadd231pd %ymm7,%ymm7,%ymm7
  40507b:	c4 e2 cd b8 f6       	vfmadd231pd %ymm6,%ymm6,%ymm6
  405080:	c4 e2 dd b8 e4       	vfmadd231pd %ymm4,%ymm4,%ymm4
  405085:	c4 e2 d5 b8 ed       	vfmadd231pd %ymm5,%ymm5,%ymm5
  40508a:	c4 e2 e5 b8 db       	vfmadd231pd %ymm3,%ymm3,%ymm3
  40508f:	c4 e2 f5 b8 c9       	vfmadd231pd %ymm1,%ymm1,%ymm1
  405094:	c4 e2 ed b8 d2       	vfmadd231pd %ymm2,%ymm2,%ymm2
  405099:	c4 e2 fd b8 c0       	vfmadd231pd %ymm0,%ymm0,%ymm0
  40509e:	c4 e2 c5 b8 ff       	vfmadd231pd %ymm7,%ymm7,%ymm7
  4050a3:	c4 e2 cd b8 f6       	vfmadd231pd %ymm6,%ymm6,%ymm6
  4050a8:	c4 e2 dd b8 e4       	vfmadd231pd %ymm4,%ymm4,%ymm4
  4050ad:	c4 e2 d5 b8 ed       	vfmadd231pd %ymm5,%ymm5,%ymm5
  4050b2:	c4 e2 e5 b8 db       	vfmadd231pd %ymm3,%ymm3,%ymm3
  4050b7:	c4 e2 f5 b8 c9       	vfmadd231pd %ymm1,%ymm1,%ymm1
  4050bc:	c4 e2 ed b8 d2       	vfmadd231pd %ymm2,%ymm2,%ymm2
  4050c1:	c4 e2 fd b8 c0       	vfmadd231pd %ymm0,%ymm0,%ymm0
  4050c6:	c4 e2 c5 b8 ff       	vfmadd231pd %ymm7,%ymm7,%ymm7
  4050cb:	c4 e2 cd b8 f6       	vfmadd231pd %ymm6,%ymm6,%ymm6
  4050d0:	c4 e2 dd b8 e4       	vfmadd231pd %ymm4,%ymm4,%ymm4
  4050d5:	c4 e2 d5 b8 ed       	vfmadd231pd %ymm5,%ymm5,%ymm5
  4050da:	c4 e2 e5 b8 db       	vfmadd231pd %ymm3,%ymm3,%ymm3
  4050df:	c4 e2 f5 b8 c9       	vfmadd231pd %ymm1,%ymm1,%ymm1
  4050e4:	c4 e2 ed b8 d2       	vfmadd231pd %ymm2,%ymm2,%ymm2
  4050e9:	c4 e2 fd b8 c0       	vfmadd231pd %ymm0,%ymm0,%ymm0
  4050ee:	c4 e2 c5 b8 ff       	vfmadd231pd %ymm7,%ymm7,%ymm7
  4050f3:	c4 e2 cd b8 f6       	vfmadd231pd %ymm6,%ymm6,%ymm6
  4050f8:	c4 e2 dd b8 e4       	vfmadd231pd %ymm4,%ymm4,%ymm4
  4050fd:	c4 e2 d5 b8 ed       	vfmadd231pd %ymm5,%ymm5,%ymm5
  405102:	c4 e2 e5 b8 db       	vfmadd231pd %ymm3,%ymm3,%ymm3
  405107:	c4 e2 f5 b8 c9       	vfmadd231pd %ymm1,%ymm1,%ymm1
  40510c:	c4 e2 ed b8 d2       	vfmadd231pd %ymm2,%ymm2,%ymm2
  405111:	c4 e2 fd b8 c0       	vfmadd231pd %ymm0,%ymm0,%ymm0
  405116:	c4 e2 c5 b8 ff       	vfmadd231pd %ymm7,%ymm7,%ymm7
  40511b:	c4 e2 cd b8 f6       	vfmadd231pd %ymm6,%ymm6,%ymm6
  405120:	c4 e2 dd b8 e4       	vfmadd231pd %ymm4,%ymm4,%ymm4
  405125:	c4 e2 d5 b8 ed       	vfmadd231pd %ymm5,%ymm5,%ymm5
  40512a:	c4 e2 e5 b8 db       	vfmadd231pd %ymm3,%ymm3,%ymm3
  40512f:	c4 e2 f5 b8 c9       	vfmadd231pd %ymm1,%ymm1,%ymm1
  405134:	c4 e2 ed b8 d2       	vfmadd231pd %ymm2,%ymm2,%ymm2
  405139:	c4 e2 fd b8 c0       	vfmadd231pd %ymm0,%ymm0,%ymm0
  40513e:	c4 e2 c5 b8 ff       	vfmadd231pd %ymm7,%ymm7,%ymm7
  405143:	c4 e2 cd b8 f6       	vfmadd231pd %ymm6,%ymm6,%ymm6
  405148:	c4 e2 dd b8 e4       	vfmadd231pd %ymm4,%ymm4,%ymm4
  40514d:	c4 e2 d5 b8 ed       	vfmadd231pd %ymm5,%ymm5,%ymm5
  405152:	c4 e2 e5 b8 db       	vfmadd231pd %ymm3,%ymm3,%ymm3
  405157:	c4 e2 f5 b8 c9       	vfmadd231pd %ymm1,%ymm1,%ymm1
  40515c:	c4 e2 ed b8 d2       	vfmadd231pd %ymm2,%ymm2,%ymm2
  405161:	c4 e2 fd b8 c0       	vfmadd231pd %ymm0,%ymm0,%ymm0
  405166:	c4 e2 c5 b8 ff       	vfmadd231pd %ymm7,%ymm7,%ymm7
  40516b:	c4 e2 cd b8 f6       	vfmadd231pd %ymm6,%ymm6,%ymm6
  405170:	c4 e2 dd b8 e4       	vfmadd231pd %ymm4,%ymm4,%ymm4
  405175:	c4 e2 d5 b8 ed       	vfmadd231pd %ymm5,%ymm5,%ymm5
  40517a:	c4 e2 e5 b8 db       	vfmadd231pd %ymm3,%ymm3,%ymm3
  40517f:	c4 e2 f5 b8 c9       	vfmadd231pd %ymm1,%ymm1,%ymm1
  405184:	c4 e2 ed b8 d2       	vfmadd231pd %ymm2,%ymm2,%ymm2
  405189:	c4 e2 fd b8 c0       	vfmadd231pd %ymm0,%ymm0,%ymm0
  40518e:	c4 e2 c5 b8 ff       	vfmadd231pd %ymm7,%ymm7,%ymm7
  405193:	c4 e2 cd b8 f6       	vfmadd231pd %ymm6,%ymm6,%ymm6
  405198:	c4 e2 dd b8 e4       	vfmadd231pd %ymm4,%ymm4,%ymm4
  40519d:	c4 e2 d5 b8 ed       	vfmadd231pd %ymm5,%ymm5,%ymm5
  4051a2:	c4 e2 e5 b8 db       	vfmadd231pd %ymm3,%ymm3,%ymm3
  4051a7:	c4 e2 f5 b8 c9       	vfmadd231pd %ymm1,%ymm1,%ymm1
  4051ac:	c4 e2 ed b8 d2       	vfmadd231pd %ymm2,%ymm2,%ymm2
  4051b1:	c4 e2 fd b8 c0       	vfmadd231pd %ymm0,%ymm0,%ymm0
  4051b6:	c4 e2 c5 b8 ff       	vfmadd231pd %ymm7,%ymm7,%ymm7
  4051bb:	c4 e2 cd b8 f6       	vfmadd231pd %ymm6,%ymm6,%ymm6
  4051c0:	c4 e2 dd b8 e4       	vfmadd231pd %ymm4,%ymm4,%ymm4
  4051c5:	c4 e2 d5 b8 ed       	vfmadd231pd %ymm5,%ymm5,%ymm5
  4051ca:	c4 e2 e5 b8 db       	vfmadd231pd %ymm3,%ymm3,%ymm3
  4051cf:	c4 e2 f5 b8 c9       	vfmadd231pd %ymm1,%ymm1,%ymm1
  4051d4:	c4 e2 ed b8 d2       	vfmadd231pd %ymm2,%ymm2,%ymm2
  4051d9:	c4 e2 fd b8 c0       	vfmadd231pd %ymm0,%ymm0,%ymm0
  4051de:	c4 e2 c5 b8 ff       	vfmadd231pd %ymm7,%ymm7,%ymm7
  4051e3:	c4 e2 cd b8 f6       	vfmadd231pd %ymm6,%ymm6,%ymm6
  4051e8:	c4 e2 dd b8 e4       	vfmadd231pd %ymm4,%ymm4,%ymm4
  4051ed:	c4 e2 d5 b8 ed       	vfmadd231pd %ymm5,%ymm5,%ymm5
  4051f2:	c4 e2 e5 b8 db       	vfmadd231pd %ymm3,%ymm3,%ymm3
  4051f7:	c4 e2 f5 b8 c9       	vfmadd231pd %ymm1,%ymm1,%ymm1
  4051fc:	c4 e2 ed b8 d2       	vfmadd231pd %ymm2,%ymm2,%ymm2
  405201:	c4 e2 fd b8 c0       	vfmadd231pd %ymm0,%ymm0,%ymm0
  405206:	c4 e2 c5 b8 ff       	vfmadd231pd %ymm7,%ymm7,%ymm7
  40520b:	c4 e2 cd b8 f6       	vfmadd231pd %ymm6,%ymm6,%ymm6
  405210:	c4 e2 dd b8 e4       	vfmadd231pd %ymm4,%ymm4,%ymm4
  405215:	c4 e2 d5 b8 ed       	vfmadd231pd %ymm5,%ymm5,%ymm5
  40521a:	c4 e2 e5 b8 db       	vfmadd231pd %ymm3,%ymm3,%ymm3
  40521f:	c4 e2 f5 b8 c9       	vfmadd231pd %ymm1,%ymm1,%ymm1
  405224:	c4 e2 ed b8 d2       	vfmadd231pd %ymm2,%ymm2,%ymm2
  405229:	c4 e2 fd b8 c0       	vfmadd231pd %ymm0,%ymm0,%ymm0
  40522e:	c4 e2 c5 b8 ff       	vfmadd231pd %ymm7,%ymm7,%ymm7
  405233:	c4 e2 cd b8 f6       	vfmadd231pd %ymm6,%ymm6,%ymm6
  405238:	c4 e2 dd b8 e4       	vfmadd231pd %ymm4,%ymm4,%ymm4
  40523d:	c4 e2 d5 b8 ed       	vfmadd231pd %ymm5,%ymm5,%ymm5
  405242:	c4 e2 e5 b8 db       	vfmadd231pd %ymm3,%ymm3,%ymm3
  405247:	c4 e2 f5 b8 c9       	vfmadd231pd %ymm1,%ymm1,%ymm1
  40524c:	c4 e2 ed b8 d2       	vfmadd231pd %ymm2,%ymm2,%ymm2
  405251:	c4 e2 fd b8 c0       	vfmadd231pd %ymm0,%ymm0,%ymm0
  405256:	c4 e2 c5 b8 ff       	vfmadd231pd %ymm7,%ymm7,%ymm7
  40525b:	c4 e2 cd b8 f6       	vfmadd231pd %ymm6,%ymm6,%ymm6
  405260:	c4 e2 dd b8 e4       	vfmadd231pd %ymm4,%ymm4,%ymm4
  405265:	c4 e2 d5 b8 ed       	vfmadd231pd %ymm5,%ymm5,%ymm5
  40526a:	c4 e2 e5 b8 db       	vfmadd231pd %ymm3,%ymm3,%ymm3
  40526f:	c4 e2 f5 b8 c9       	vfmadd231pd %ymm1,%ymm1,%ymm1
  405274:	c4 e2 ed b8 d2       	vfmadd231pd %ymm2,%ymm2,%ymm2
  405279:	c4 e2 fd b8 c0       	vfmadd231pd %ymm0,%ymm0,%ymm0
  40527e:	c4 e2 c5 b8 ff       	vfmadd231pd %ymm7,%ymm7,%ymm7
  405283:	c4 e2 cd b8 f6       	vfmadd231pd %ymm6,%ymm6,%ymm6
  405288:	c4 e2 dd b8 e4       	vfmadd231pd %ymm4,%ymm4,%ymm4
  40528d:	c4 e2 d5 b8 ed       	vfmadd231pd %ymm5,%ymm5,%ymm5
  405292:	c4 e2 e5 b8 db       	vfmadd231pd %ymm3,%ymm3,%ymm3
  405297:	c4 e2 f5 b8 c9       	vfmadd231pd %ymm1,%ymm1,%ymm1
  40529c:	c4 e2 ed b8 d2       	vfmadd231pd %ymm2,%ymm2,%ymm2
  4052a1:	c4 e2 fd b8 c0       	vfmadd231pd %ymm0,%ymm0,%ymm0
  4052a6:	c4 e2 c5 b8 ff       	vfmadd231pd %ymm7,%ymm7,%ymm7
  4052ab:	c4 e2 cd b8 f6       	vfmadd231pd %ymm6,%ymm6,%ymm6
  4052b0:	c4 e2 dd b8 e4       	vfmadd231pd %ymm4,%ymm4,%ymm4
  4052b5:	c4 e2 d5 b8 ed       	vfmadd231pd %ymm5,%ymm5,%ymm5
  4052ba:	c4 e2 e5 b8 db       	vfmadd231pd %ymm3,%ymm3,%ymm3
  4052bf:	c4 e2 f5 b8 c9       	vfmadd231pd %ymm1,%ymm1,%ymm1
  4052c4:	c4 e2 ed b8 d2       	vfmadd231pd %ymm2,%ymm2,%ymm2
  4052c9:	c4 e2 fd b8 c0       	vfmadd231pd %ymm0,%ymm0,%ymm0
  4052ce:	c4 e2 c5 b8 ff       	vfmadd231pd %ymm7,%ymm7,%ymm7
  4052d3:	c4 e2 cd b8 f6       	vfmadd231pd %ymm6,%ymm6,%ymm6
  4052d8:	c4 e2 dd b8 e4       	vfmadd231pd %ymm4,%ymm4,%ymm4
  4052dd:	c4 e2 d5 b8 ed       	vfmadd231pd %ymm5,%ymm5,%ymm5
  4052e2:	c4 e2 e5 b8 db       	vfmadd231pd %ymm3,%ymm3,%ymm3
  4052e7:	c4 e2 f5 b8 c9       	vfmadd231pd %ymm1,%ymm1,%ymm1
  4052ec:	c4 e2 ed b8 d2       	vfmadd231pd %ymm2,%ymm2,%ymm2
  4052f1:	c4 e2 fd b8 c0       	vfmadd231pd %ymm0,%ymm0,%ymm0
  4052f6:	c4 e2 c5 b8 ff       	vfmadd231pd %ymm7,%ymm7,%ymm7
  4052fb:	c4 e2 cd b8 f6       	vfmadd231pd %ymm6,%ymm6,%ymm6
  405300:	c4 e2 dd b8 e4       	vfmadd231pd %ymm4,%ymm4,%ymm4
