
./throughput_simd_add.x:     file format elf64-x86-64


Disassembly of section .init:

0000000000400468 <_init>:
  400468:	f3 0f 1e fa          	endbr64 
  40046c:	48 83 ec 08          	sub    $0x8,%rsp
  400470:	48 8b 05 79 8b 21 00 	mov    0x218b79(%rip),%rax        # 618ff0 <__gmon_start__@Base>
  400477:	48 85 c0             	test   %rax,%rax
  40047a:	74 02                	je     40047e <_init+0x16>
  40047c:	ff d0                	callq  *%rax
  40047e:	48 83 c4 08          	add    $0x8,%rsp
  400482:	c3                   	retq   

Disassembly of section .plt:

0000000000400490 <.plt>:
  400490:	ff 35 72 8b 21 00    	pushq  0x218b72(%rip)        # 619008 <_GLOBAL_OFFSET_TABLE_+0x8>
  400496:	ff 25 74 8b 21 00    	jmpq   *0x218b74(%rip)        # 619010 <_GLOBAL_OFFSET_TABLE_+0x10>
  40049c:	0f 1f 40 00          	nopl   0x0(%rax)

00000000004004a0 <printf@plt>:
  4004a0:	ff 25 72 8b 21 00    	jmpq   *0x218b72(%rip)        # 619018 <printf@GLIBC_2.2.5>
  4004a6:	68 00 00 00 00       	pushq  $0x0
  4004ab:	e9 e0 ff ff ff       	jmpq   400490 <.plt>

Disassembly of section .text:

00000000004004b0 <main>:
  4004b0:	4c 8d 54 24 08       	lea    0x8(%rsp),%r10
  4004b5:	48 83 e4 e0          	and    $0xffffffffffffffe0,%rsp
  4004b9:	bf 64 00 00 00       	mov    $0x64,%edi
  4004be:	41 ff 72 f8          	pushq  -0x8(%r10)
  4004c2:	55                   	push   %rbp
  4004c3:	48 89 e5             	mov    %rsp,%rbp
  4004c6:	41 52                	push   %r10
  4004c8:	53                   	push   %rbx
  4004c9:	31 db                	xor    %ebx,%ebx
  4004cb:	48 83 ec 20          	sub    $0x20,%rsp
  4004cf:	c5 fd 28 05 09 7a 01 	vmovapd 0x17a09(%rip),%ymm0        # 417ee0 <__dso_handle+0x98>
  4004d6:	00 
  4004d7:	c5 fd 28 c8          	vmovapd %ymm0,%ymm1
  4004db:	c5 fd 28 d0          	vmovapd %ymm0,%ymm2
  4004df:	c5 fd 28 d8          	vmovapd %ymm0,%ymm3
  4004e3:	c5 fd 28 e0          	vmovapd %ymm0,%ymm4
  4004e7:	c5 fd 28 e8          	vmovapd %ymm0,%ymm5
  4004eb:	c5 fd 28 f0          	vmovapd %ymm0,%ymm6
  4004ef:	c5 fd 28 f8          	vmovapd %ymm0,%ymm7
  4004f3:	0f 1f 44 00 00       	nopl   0x0(%rax,%rax,1)
  4004f8:	0f 31                	rdtsc  
  4004fa:	89 d1                	mov    %edx,%ecx
  4004fc:	89 c6                	mov    %eax,%esi
  4004fe:	c5 c5 58 ff          	vaddpd %ymm7,%ymm7,%ymm7
  400502:	c5 cd 58 f6          	vaddpd %ymm6,%ymm6,%ymm6
  400506:	c5 d5 58 ed          	vaddpd %ymm5,%ymm5,%ymm5
  40050a:	c5 dd 58 e4          	vaddpd %ymm4,%ymm4,%ymm4
  40050e:	c5 e5 58 db          	vaddpd %ymm3,%ymm3,%ymm3
  400512:	c5 ed 58 d2          	vaddpd %ymm2,%ymm2,%ymm2
  400516:	c5 f5 58 c9          	vaddpd %ymm1,%ymm1,%ymm1
  40051a:	c5 fd 58 c0          	vaddpd %ymm0,%ymm0,%ymm0
  40051e:	c5 c5 58 ff          	vaddpd %ymm7,%ymm7,%ymm7
  400522:	c5 cd 58 f6          	vaddpd %ymm6,%ymm6,%ymm6
  400526:	c5 d5 58 ed          	vaddpd %ymm5,%ymm5,%ymm5
  40052a:	c5 dd 58 e4          	vaddpd %ymm4,%ymm4,%ymm4
  40052e:	c5 e5 58 db          	vaddpd %ymm3,%ymm3,%ymm3
  400532:	c5 ed 58 d2          	vaddpd %ymm2,%ymm2,%ymm2
  400536:	c5 f5 58 c9          	vaddpd %ymm1,%ymm1,%ymm1
  40053a:	c5 fd 58 c0          	vaddpd %ymm0,%ymm0,%ymm0
  40053e:	c5 c5 58 ff          	vaddpd %ymm7,%ymm7,%ymm7
  400542:	c5 cd 58 f6          	vaddpd %ymm6,%ymm6,%ymm6
  400546:	c5 d5 58 ed          	vaddpd %ymm5,%ymm5,%ymm5
  40054a:	c5 dd 58 e4          	vaddpd %ymm4,%ymm4,%ymm4
  40054e:	c5 e5 58 db          	vaddpd %ymm3,%ymm3,%ymm3
  400552:	c5 ed 58 d2          	vaddpd %ymm2,%ymm2,%ymm2
  400556:	c5 f5 58 c9          	vaddpd %ymm1,%ymm1,%ymm1
  40055a:	c5 fd 58 c0          	vaddpd %ymm0,%ymm0,%ymm0
  40055e:	c5 c5 58 ff          	vaddpd %ymm7,%ymm7,%ymm7
  400562:	c5 cd 58 f6          	vaddpd %ymm6,%ymm6,%ymm6
  400566:	c5 d5 58 ed          	vaddpd %ymm5,%ymm5,%ymm5
  40056a:	c5 dd 58 e4          	vaddpd %ymm4,%ymm4,%ymm4
  40056e:	c5 e5 58 db          	vaddpd %ymm3,%ymm3,%ymm3
  400572:	c5 ed 58 d2          	vaddpd %ymm2,%ymm2,%ymm2
  400576:	c5 f5 58 c9          	vaddpd %ymm1,%ymm1,%ymm1
  40057a:	c5 fd 58 c0          	vaddpd %ymm0,%ymm0,%ymm0
  40057e:	c5 c5 58 ff          	vaddpd %ymm7,%ymm7,%ymm7
  400582:	c5 cd 58 f6          	vaddpd %ymm6,%ymm6,%ymm6
  400586:	c5 d5 58 ed          	vaddpd %ymm5,%ymm5,%ymm5
  40058a:	c5 dd 58 e4          	vaddpd %ymm4,%ymm4,%ymm4
  40058e:	c5 e5 58 db          	vaddpd %ymm3,%ymm3,%ymm3
  400592:	c5 ed 58 d2          	vaddpd %ymm2,%ymm2,%ymm2
  400596:	c5 f5 58 c9          	vaddpd %ymm1,%ymm1,%ymm1
  40059a:	c5 fd 58 c0          	vaddpd %ymm0,%ymm0,%ymm0
  40059e:	c5 c5 58 ff          	vaddpd %ymm7,%ymm7,%ymm7
  4005a2:	c5 cd 58 f6          	vaddpd %ymm6,%ymm6,%ymm6
  4005a6:	c5 d5 58 ed          	vaddpd %ymm5,%ymm5,%ymm5
  4005aa:	c5 dd 58 e4          	vaddpd %ymm4,%ymm4,%ymm4
  4005ae:	c5 e5 58 db          	vaddpd %ymm3,%ymm3,%ymm3
  4005b2:	c5 ed 58 d2          	vaddpd %ymm2,%ymm2,%ymm2
  4005b6:	c5 f5 58 c9          	vaddpd %ymm1,%ymm1,%ymm1
  4005ba:	c5 fd 58 c0          	vaddpd %ymm0,%ymm0,%ymm0
  4005be:	c5 c5 58 ff          	vaddpd %ymm7,%ymm7,%ymm7
  4005c2:	c5 cd 58 f6          	vaddpd %ymm6,%ymm6,%ymm6
  4005c6:	c5 d5 58 ed          	vaddpd %ymm5,%ymm5,%ymm5
  4005ca:	c5 dd 58 e4          	vaddpd %ymm4,%ymm4,%ymm4
  4005ce:	c5 e5 58 db          	vaddpd %ymm3,%ymm3,%ymm3
  4005d2:	c5 ed 58 d2          	vaddpd %ymm2,%ymm2,%ymm2
  4005d6:	c5 f5 58 c9          	vaddpd %ymm1,%ymm1,%ymm1
  4005da:	c5 fd 58 c0          	vaddpd %ymm0,%ymm0,%ymm0
  4005de:	c5 c5 58 ff          	vaddpd %ymm7,%ymm7,%ymm7
  4005e2:	c5 cd 58 f6          	vaddpd %ymm6,%ymm6,%ymm6
  4005e6:	c5 d5 58 ed          	vaddpd %ymm5,%ymm5,%ymm5
  4005ea:	c5 dd 58 e4          	vaddpd %ymm4,%ymm4,%ymm4
  4005ee:	c5 e5 58 db          	vaddpd %ymm3,%ymm3,%ymm3
  4005f2:	c5 ed 58 d2          	vaddpd %ymm2,%ymm2,%ymm2
  4005f6:	c5 f5 58 c9          	vaddpd %ymm1,%ymm1,%ymm1
  4005fa:	c5 fd 58 c0          	vaddpd %ymm0,%ymm0,%ymm0
  4005fe:	c5 c5 58 ff          	vaddpd %ymm7,%ymm7,%ymm7
  400602:	c5 cd 58 f6          	vaddpd %ymm6,%ymm6,%ymm6
  400606:	c5 d5 58 ed          	vaddpd %ymm5,%ymm5,%ymm5
  40060a:	c5 dd 58 e4          	vaddpd %ymm4,%ymm4,%ymm4
  40060e:	c5 e5 58 db          	vaddpd %ymm3,%ymm3,%ymm3
  400612:	c5 ed 58 d2          	vaddpd %ymm2,%ymm2,%ymm2
  400616:	c5 f5 58 c9          	vaddpd %ymm1,%ymm1,%ymm1
  40061a:	c5 fd 58 c0          	vaddpd %ymm0,%ymm0,%ymm0
  40061e:	c5 c5 58 ff          	vaddpd %ymm7,%ymm7,%ymm7
  400622:	c5 cd 58 f6          	vaddpd %ymm6,%ymm6,%ymm6
  400626:	c5 d5 58 ed          	vaddpd %ymm5,%ymm5,%ymm5
  40062a:	c5 dd 58 e4          	vaddpd %ymm4,%ymm4,%ymm4
  40062e:	c5 e5 58 db          	vaddpd %ymm3,%ymm3,%ymm3
  400632:	c5 ed 58 d2          	vaddpd %ymm2,%ymm2,%ymm2
  400636:	c5 f5 58 c9          	vaddpd %ymm1,%ymm1,%ymm1
  40063a:	c5 fd 58 c0          	vaddpd %ymm0,%ymm0,%ymm0
  40063e:	c5 c5 58 ff          	vaddpd %ymm7,%ymm7,%ymm7
  400642:	c5 cd 58 f6          	vaddpd %ymm6,%ymm6,%ymm6
  400646:	c5 d5 58 ed          	vaddpd %ymm5,%ymm5,%ymm5
  40064a:	c5 dd 58 e4          	vaddpd %ymm4,%ymm4,%ymm4
  40064e:	c5 e5 58 db          	vaddpd %ymm3,%ymm3,%ymm3
  400652:	c5 ed 58 d2          	vaddpd %ymm2,%ymm2,%ymm2
  400656:	c5 f5 58 c9          	vaddpd %ymm1,%ymm1,%ymm1
  40065a:	c5 fd 58 c0          	vaddpd %ymm0,%ymm0,%ymm0
  40065e:	c5 c5 58 ff          	vaddpd %ymm7,%ymm7,%ymm7
  400662:	c5 cd 58 f6          	vaddpd %ymm6,%ymm6,%ymm6
  400666:	c5 d5 58 ed          	vaddpd %ymm5,%ymm5,%ymm5
  40066a:	c5 dd 58 e4          	vaddpd %ymm4,%ymm4,%ymm4
  40066e:	c5 e5 58 db          	vaddpd %ymm3,%ymm3,%ymm3
  400672:	c5 ed 58 d2          	vaddpd %ymm2,%ymm2,%ymm2
  400676:	c5 f5 58 c9          	vaddpd %ymm1,%ymm1,%ymm1
  40067a:	c5 fd 58 c0          	vaddpd %ymm0,%ymm0,%ymm0
  40067e:	c5 c5 58 ff          	vaddpd %ymm7,%ymm7,%ymm7
  400682:	c5 cd 58 f6          	vaddpd %ymm6,%ymm6,%ymm6
  400686:	c5 d5 58 ed          	vaddpd %ymm5,%ymm5,%ymm5
  40068a:	c5 dd 58 e4          	vaddpd %ymm4,%ymm4,%ymm4
  40068e:	c5 e5 58 db          	vaddpd %ymm3,%ymm3,%ymm3
  400692:	c5 ed 58 d2          	vaddpd %ymm2,%ymm2,%ymm2
  400696:	c5 f5 58 c9          	vaddpd %ymm1,%ymm1,%ymm1
  40069a:	c5 fd 58 c0          	vaddpd %ymm0,%ymm0,%ymm0
  40069e:	c5 c5 58 ff          	vaddpd %ymm7,%ymm7,%ymm7
  4006a2:	c5 cd 58 f6          	vaddpd %ymm6,%ymm6,%ymm6
  4006a6:	c5 d5 58 ed          	vaddpd %ymm5,%ymm5,%ymm5
  4006aa:	c5 dd 58 e4          	vaddpd %ymm4,%ymm4,%ymm4
  4006ae:	c5 e5 58 db          	vaddpd %ymm3,%ymm3,%ymm3
  4006b2:	c5 ed 58 d2          	vaddpd %ymm2,%ymm2,%ymm2
  4006b6:	c5 f5 58 c9          	vaddpd %ymm1,%ymm1,%ymm1
  4006ba:	c5 fd 58 c0          	vaddpd %ymm0,%ymm0,%ymm0
  4006be:	c5 c5 58 ff          	vaddpd %ymm7,%ymm7,%ymm7
  4006c2:	c5 cd 58 f6          	vaddpd %ymm6,%ymm6,%ymm6
  4006c6:	c5 d5 58 ed          	vaddpd %ymm5,%ymm5,%ymm5
  4006ca:	c5 dd 58 e4          	vaddpd %ymm4,%ymm4,%ymm4
  4006ce:	c5 e5 58 db          	vaddpd %ymm3,%ymm3,%ymm3
  4006d2:	c5 ed 58 d2          	vaddpd %ymm2,%ymm2,%ymm2
  4006d6:	c5 f5 58 c9          	vaddpd %ymm1,%ymm1,%ymm1
  4006da:	c5 fd 58 c0          	vaddpd %ymm0,%ymm0,%ymm0
  4006de:	c5 c5 58 ff          	vaddpd %ymm7,%ymm7,%ymm7
  4006e2:	c5 cd 58 f6          	vaddpd %ymm6,%ymm6,%ymm6
  4006e6:	c5 d5 58 ed          	vaddpd %ymm5,%ymm5,%ymm5
  4006ea:	c5 dd 58 e4          	vaddpd %ymm4,%ymm4,%ymm4
  4006ee:	c5 e5 58 db          	vaddpd %ymm3,%ymm3,%ymm3
  4006f2:	c5 ed 58 d2          	vaddpd %ymm2,%ymm2,%ymm2
  4006f6:	c5 f5 58 c9          	vaddpd %ymm1,%ymm1,%ymm1
  4006fa:	c5 fd 58 c0          	vaddpd %ymm0,%ymm0,%ymm0
  4006fe:	c5 c5 58 ff          	vaddpd %ymm7,%ymm7,%ymm7
  400702:	c5 cd 58 f6          	vaddpd %ymm6,%ymm6,%ymm6
  400706:	c5 d5 58 ed          	vaddpd %ymm5,%ymm5,%ymm5
  40070a:	c5 dd 58 e4          	vaddpd %ymm4,%ymm4,%ymm4
  40070e:	c5 e5 58 db          	vaddpd %ymm3,%ymm3,%ymm3
  400712:	c5 ed 58 d2          	vaddpd %ymm2,%ymm2,%ymm2
  400716:	c5 f5 58 c9          	vaddpd %ymm1,%ymm1,%ymm1
  40071a:	c5 fd 58 c0          	vaddpd %ymm0,%ymm0,%ymm0
  40071e:	c5 c5 58 ff          	vaddpd %ymm7,%ymm7,%ymm7
  400722:	c5 cd 58 f6          	vaddpd %ymm6,%ymm6,%ymm6
  400726:	c5 d5 58 ed          	vaddpd %ymm5,%ymm5,%ymm5
  40072a:	c5 dd 58 e4          	vaddpd %ymm4,%ymm4,%ymm4
  40072e:	c5 e5 58 db          	vaddpd %ymm3,%ymm3,%ymm3
  400732:	c5 ed 58 d2          	vaddpd %ymm2,%ymm2,%ymm2
  400736:	c5 f5 58 c9          	vaddpd %ymm1,%ymm1,%ymm1
  40073a:	c5 fd 58 c0          	vaddpd %ymm0,%ymm0,%ymm0
  40073e:	c5 c5 58 ff          	vaddpd %ymm7,%ymm7,%ymm7
  400742:	c5 cd 58 f6          	vaddpd %ymm6,%ymm6,%ymm6
  400746:	c5 d5 58 ed          	vaddpd %ymm5,%ymm5,%ymm5
  40074a:	c5 dd 58 e4          	vaddpd %ymm4,%ymm4,%ymm4
  40074e:	c5 e5 58 db          	vaddpd %ymm3,%ymm3,%ymm3
  400752:	c5 ed 58 d2          	vaddpd %ymm2,%ymm2,%ymm2
  400756:	c5 f5 58 c9          	vaddpd %ymm1,%ymm1,%ymm1
  40075a:	c5 fd 58 c0          	vaddpd %ymm0,%ymm0,%ymm0
  40075e:	c5 c5 58 ff          	vaddpd %ymm7,%ymm7,%ymm7
  400762:	c5 cd 58 f6          	vaddpd %ymm6,%ymm6,%ymm6
  400766:	c5 d5 58 ed          	vaddpd %ymm5,%ymm5,%ymm5
  40076a:	c5 dd 58 e4          	vaddpd %ymm4,%ymm4,%ymm4
  40076e:	c5 e5 58 db          	vaddpd %ymm3,%ymm3,%ymm3
  400772:	c5 ed 58 d2          	vaddpd %ymm2,%ymm2,%ymm2
  400776:	c5 f5 58 c9          	vaddpd %ymm1,%ymm1,%ymm1
  40077a:	c5 fd 58 c0          	vaddpd %ymm0,%ymm0,%ymm0
  40077e:	c5 c5 58 ff          	vaddpd %ymm7,%ymm7,%ymm7
  400782:	c5 cd 58 f6          	vaddpd %ymm6,%ymm6,%ymm6
  400786:	c5 d5 58 ed          	vaddpd %ymm5,%ymm5,%ymm5
  40078a:	c5 dd 58 e4          	vaddpd %ymm4,%ymm4,%ymm4
  40078e:	c5 e5 58 db          	vaddpd %ymm3,%ymm3,%ymm3
  400792:	c5 ed 58 d2          	vaddpd %ymm2,%ymm2,%ymm2
  400796:	c5 f5 58 c9          	vaddpd %ymm1,%ymm1,%ymm1
  40079a:	c5 fd 58 c0          	vaddpd %ymm0,%ymm0,%ymm0
  40079e:	c5 c5 58 ff          	vaddpd %ymm7,%ymm7,%ymm7
  4007a2:	c5 cd 58 f6          	vaddpd %ymm6,%ymm6,%ymm6
  4007a6:	c5 d5 58 ed          	vaddpd %ymm5,%ymm5,%ymm5
  4007aa:	c5 dd 58 e4          	vaddpd %ymm4,%ymm4,%ymm4
  4007ae:	c5 e5 58 db          	vaddpd %ymm3,%ymm3,%ymm3
  4007b2:	c5 ed 58 d2          	vaddpd %ymm2,%ymm2,%ymm2
  4007b6:	c5 f5 58 c9          	vaddpd %ymm1,%ymm1,%ymm1
  4007ba:	c5 fd 58 c0          	vaddpd %ymm0,%ymm0,%ymm0
  4007be:	c5 c5 58 ff          	vaddpd %ymm7,%ymm7,%ymm7
  4007c2:	c5 cd 58 f6          	vaddpd %ymm6,%ymm6,%ymm6
  4007c6:	c5 d5 58 ed          	vaddpd %ymm5,%ymm5,%ymm5
  4007ca:	c5 dd 58 e4          	vaddpd %ymm4,%ymm4,%ymm4
  4007ce:	c5 e5 58 db          	vaddpd %ymm3,%ymm3,%ymm3
  4007d2:	c5 ed 58 d2          	vaddpd %ymm2,%ymm2,%ymm2
  4007d6:	c5 f5 58 c9          	vaddpd %ymm1,%ymm1,%ymm1
  4007da:	c5 fd 58 c0          	vaddpd %ymm0,%ymm0,%ymm0
  4007de:	c5 c5 58 ff          	vaddpd %ymm7,%ymm7,%ymm7
  4007e2:	c5 cd 58 f6          	vaddpd %ymm6,%ymm6,%ymm6
  4007e6:	c5 d5 58 ed          	vaddpd %ymm5,%ymm5,%ymm5
  4007ea:	c5 dd 58 e4          	vaddpd %ymm4,%ymm4,%ymm4
  4007ee:	c5 e5 58 db          	vaddpd %ymm3,%ymm3,%ymm3
  4007f2:	c5 ed 58 d2          	vaddpd %ymm2,%ymm2,%ymm2
  4007f6:	c5 f5 58 c9          	vaddpd %ymm1,%ymm1,%ymm1
  4007fa:	c5 fd 58 c0          	vaddpd %ymm0,%ymm0,%ymm0
  4007fe:	c5 c5 58 ff          	vaddpd %ymm7,%ymm7,%ymm7
  400802:	c5 cd 58 f6          	vaddpd %ymm6,%ymm6,%ymm6
  400806:	c5 d5 58 ed          	vaddpd %ymm5,%ymm5,%ymm5
  40080a:	c5 dd 58 e4          	vaddpd %ymm4,%ymm4,%ymm4
  40080e:	c5 e5 58 db          	vaddpd %ymm3,%ymm3,%ymm3
  400812:	c5 ed 58 d2          	vaddpd %ymm2,%ymm2,%ymm2
  400816:	c5 f5 58 c9          	vaddpd %ymm1,%ymm1,%ymm1
  40081a:	c5 fd 58 c0          	vaddpd %ymm0,%ymm0,%ymm0
  40081e:	c5 c5 58 ff          	vaddpd %ymm7,%ymm7,%ymm7
  400822:	c5 cd 58 f6          	vaddpd %ymm6,%ymm6,%ymm6
  400826:	c5 d5 58 ed          	vaddpd %ymm5,%ymm5,%ymm5
  40082a:	c5 dd 58 e4          	vaddpd %ymm4,%ymm4,%ymm4
  40082e:	c5 e5 58 db          	vaddpd %ymm3,%ymm3,%ymm3
  400832:	c5 ed 58 d2          	vaddpd %ymm2,%ymm2,%ymm2
  400836:	c5 f5 58 c9          	vaddpd %ymm1,%ymm1,%ymm1
  40083a:	c5 fd 58 c0          	vaddpd %ymm0,%ymm0,%ymm0
  40083e:	c5 c5 58 ff          	vaddpd %ymm7,%ymm7,%ymm7
  400842:	c5 cd 58 f6          	vaddpd %ymm6,%ymm6,%ymm6
  400846:	c5 d5 58 ed          	vaddpd %ymm5,%ymm5,%ymm5
  40084a:	c5 dd 58 e4          	vaddpd %ymm4,%ymm4,%ymm4
  40084e:	c5 e5 58 db          	vaddpd %ymm3,%ymm3,%ymm3
  400852:	c5 ed 58 d2          	vaddpd %ymm2,%ymm2,%ymm2
  400856:	c5 f5 58 c9          	vaddpd %ymm1,%ymm1,%ymm1
  40085a:	c5 fd 58 c0          	vaddpd %ymm0,%ymm0,%ymm0
  40085e:	c5 c5 58 ff          	vaddpd %ymm7,%ymm7,%ymm7
  400862:	c5 cd 58 f6          	vaddpd %ymm6,%ymm6,%ymm6
  400866:	c5 d5 58 ed          	vaddpd %ymm5,%ymm5,%ymm5
  40086a:	c5 dd 58 e4          	vaddpd %ymm4,%ymm4,%ymm4
  40086e:	c5 e5 58 db          	vaddpd %ymm3,%ymm3,%ymm3
  400872:	c5 ed 58 d2          	vaddpd %ymm2,%ymm2,%ymm2
  400876:	c5 f5 58 c9          	vaddpd %ymm1,%ymm1,%ymm1
  40087a:	c5 fd 58 c0          	vaddpd %ymm0,%ymm0,%ymm0
  40087e:	c5 c5 58 ff          	vaddpd %ymm7,%ymm7,%ymm7
  400882:	c5 cd 58 f6          	vaddpd %ymm6,%ymm6,%ymm6
  400886:	c5 d5 58 ed          	vaddpd %ymm5,%ymm5,%ymm5
  40088a:	c5 dd 58 e4          	vaddpd %ymm4,%ymm4,%ymm4
  40088e:	c5 e5 58 db          	vaddpd %ymm3,%ymm3,%ymm3
  400892:	c5 ed 58 d2          	vaddpd %ymm2,%ymm2,%ymm2
  400896:	c5 f5 58 c9          	vaddpd %ymm1,%ymm1,%ymm1
  40089a:	c5 fd 58 c0          	vaddpd %ymm0,%ymm0,%ymm0
  40089e:	c5 c5 58 ff          	vaddpd %ymm7,%ymm7,%ymm7
  4008a2:	c5 cd 58 f6          	vaddpd %ymm6,%ymm6,%ymm6
  4008a6:	c5 d5 58 ed          	vaddpd %ymm5,%ymm5,%ymm5
  4008aa:	c5 dd 58 e4          	vaddpd %ymm4,%ymm4,%ymm4
  4008ae:	c5 e5 58 db          	vaddpd %ymm3,%ymm3,%ymm3
  4008b2:	c5 ed 58 d2          	vaddpd %ymm2,%ymm2,%ymm2
  4008b6:	c5 f5 58 c9          	vaddpd %ymm1,%ymm1,%ymm1
  4008ba:	c5 fd 58 c0          	vaddpd %ymm0,%ymm0,%ymm0
  4008be:	c5 c5 58 ff          	vaddpd %ymm7,%ymm7,%ymm7
  4008c2:	c5 cd 58 f6          	vaddpd %ymm6,%ymm6,%ymm6
  4008c6:	c5 d5 58 ed          	vaddpd %ymm5,%ymm5,%ymm5
  4008ca:	c5 dd 58 e4          	vaddpd %ymm4,%ymm4,%ymm4
  4008ce:	c5 e5 58 db          	vaddpd %ymm3,%ymm3,%ymm3
  4008d2:	c5 ed 58 d2          	vaddpd %ymm2,%ymm2,%ymm2
  4008d6:	c5 f5 58 c9          	vaddpd %ymm1,%ymm1,%ymm1
  4008da:	c5 fd 58 c0          	vaddpd %ymm0,%ymm0,%ymm0
  4008de:	c5 c5 58 ff          	vaddpd %ymm7,%ymm7,%ymm7
  4008e2:	c5 cd 58 f6          	vaddpd %ymm6,%ymm6,%ymm6
  4008e6:	c5 d5 58 ed          	vaddpd %ymm5,%ymm5,%ymm5
  4008ea:	c5 dd 58 e4          	vaddpd %ymm4,%ymm4,%ymm4
  4008ee:	c5 e5 58 db          	vaddpd %ymm3,%ymm3,%ymm3
  4008f2:	c5 ed 58 d2          	vaddpd %ymm2,%ymm2,%ymm2
  4008f6:	c5 f5 58 c9          	vaddpd %ymm1,%ymm1,%ymm1
  4008fa:	c5 fd 58 c0          	vaddpd %ymm0,%ymm0,%ymm0
  4008fe:	c5 c5 58 ff          	vaddpd %ymm7,%ymm7,%ymm7
  400902:	c5 cd 58 f6          	vaddpd %ymm6,%ymm6,%ymm6
  400906:	c5 d5 58 ed          	vaddpd %ymm5,%ymm5,%ymm5
  40090a:	c5 dd 58 e4          	vaddpd %ymm4,%ymm4,%ymm4
  40090e:	c5 e5 58 db          	vaddpd %ymm3,%ymm3,%ymm3
  400912:	c5 ed 58 d2          	vaddpd %ymm2,%ymm2,%ymm2
  400916:	c5 f5 58 c9          	vaddpd %ymm1,%ymm1,%ymm1
  40091a:	c5 fd 58 c0          	vaddpd %ymm0,%ymm0,%ymm0
  40091e:	c5 c5 58 ff          	vaddpd %ymm7,%ymm7,%ymm7
  400922:	c5 cd 58 f6          	vaddpd %ymm6,%ymm6,%ymm6
  400926:	c5 d5 58 ed          	vaddpd %ymm5,%ymm5,%ymm5
  40092a:	c5 dd 58 e4          	vaddpd %ymm4,%ymm4,%ymm4
  40092e:	c5 e5 58 db          	vaddpd %ymm3,%ymm3,%ymm3
  400932:	c5 ed 58 d2          	vaddpd %ymm2,%ymm2,%ymm2
  400936:	c5 f5 58 c9          	vaddpd %ymm1,%ymm1,%ymm1
  40093a:	c5 fd 58 c0          	vaddpd %ymm0,%ymm0,%ymm0
  40093e:	c5 c5 58 ff          	vaddpd %ymm7,%ymm7,%ymm7
  400942:	c5 cd 58 f6          	vaddpd %ymm6,%ymm6,%ymm6
  400946:	c5 d5 58 ed          	vaddpd %ymm5,%ymm5,%ymm5
  40094a:	c5 dd 58 e4          	vaddpd %ymm4,%ymm4,%ymm4
  40094e:	c5 e5 58 db          	vaddpd %ymm3,%ymm3,%ymm3
  400952:	c5 ed 58 d2          	vaddpd %ymm2,%ymm2,%ymm2
  400956:	c5 f5 58 c9          	vaddpd %ymm1,%ymm1,%ymm1
  40095a:	c5 fd 58 c0          	vaddpd %ymm0,%ymm0,%ymm0
  40095e:	c5 c5 58 ff          	vaddpd %ymm7,%ymm7,%ymm7
  400962:	c5 cd 58 f6          	vaddpd %ymm6,%ymm6,%ymm6
  400966:	c5 d5 58 ed          	vaddpd %ymm5,%ymm5,%ymm5
  40096a:	c5 dd 58 e4          	vaddpd %ymm4,%ymm4,%ymm4
  40096e:	c5 e5 58 db          	vaddpd %ymm3,%ymm3,%ymm3
  400972:	c5 ed 58 d2          	vaddpd %ymm2,%ymm2,%ymm2
  400976:	c5 f5 58 c9          	vaddpd %ymm1,%ymm1,%ymm1
  40097a:	c5 fd 58 c0          	vaddpd %ymm0,%ymm0,%ymm0
  40097e:	c5 c5 58 ff          	vaddpd %ymm7,%ymm7,%ymm7
  400982:	c5 cd 58 f6          	vaddpd %ymm6,%ymm6,%ymm6
  400986:	c5 d5 58 ed          	vaddpd %ymm5,%ymm5,%ymm5
  40098a:	c5 dd 58 e4          	vaddpd %ymm4,%ymm4,%ymm4
  40098e:	c5 e5 58 db          	vaddpd %ymm3,%ymm3,%ymm3
  400992:	c5 ed 58 d2          	vaddpd %ymm2,%ymm2,%ymm2
  400996:	c5 f5 58 c9          	vaddpd %ymm1,%ymm1,%ymm1
  40099a:	c5 fd 58 c0          	vaddpd %ymm0,%ymm0,%ymm0
  40099e:	c5 c5 58 ff          	vaddpd %ymm7,%ymm7,%ymm7
  4009a2:	c5 cd 58 f6          	vaddpd %ymm6,%ymm6,%ymm6
  4009a6:	c5 d5 58 ed          	vaddpd %ymm5,%ymm5,%ymm5
  4009aa:	c5 dd 58 e4          	vaddpd %ymm4,%ymm4,%ymm4
  4009ae:	c5 e5 58 db          	vaddpd %ymm3,%ymm3,%ymm3
  4009b2:	c5 ed 58 d2          	vaddpd %ymm2,%ymm2,%ymm2
  4009b6:	c5 f5 58 c9          	vaddpd %ymm1,%ymm1,%ymm1
  4009ba:	c5 fd 58 c0          	vaddpd %ymm0,%ymm0,%ymm0
  4009be:	c5 c5 58 ff          	vaddpd %ymm7,%ymm7,%ymm7
  4009c2:	c5 cd 58 f6          	vaddpd %ymm6,%ymm6,%ymm6
  4009c6:	c5 d5 58 ed          	vaddpd %ymm5,%ymm5,%ymm5
  4009ca:	c5 dd 58 e4          	vaddpd %ymm4,%ymm4,%ymm4
  4009ce:	c5 e5 58 db          	vaddpd %ymm3,%ymm3,%ymm3
  4009d2:	c5 ed 58 d2          	vaddpd %ymm2,%ymm2,%ymm2
  4009d6:	c5 f5 58 c9          	vaddpd %ymm1,%ymm1,%ymm1
  4009da:	c5 fd 58 c0          	vaddpd %ymm0,%ymm0,%ymm0
  4009de:	c5 c5 58 ff          	vaddpd %ymm7,%ymm7,%ymm7
  4009e2:	c5 cd 58 f6          	vaddpd %ymm6,%ymm6,%ymm6
  4009e6:	c5 d5 58 ed          	vaddpd %ymm5,%ymm5,%ymm5
  4009ea:	c5 dd 58 e4          	vaddpd %ymm4,%ymm4,%ymm4
  4009ee:	c5 e5 58 db          	vaddpd %ymm3,%ymm3,%ymm3
  4009f2:	c5 ed 58 d2          	vaddpd %ymm2,%ymm2,%ymm2
  4009f6:	c5 f5 58 c9          	vaddpd %ymm1,%ymm1,%ymm1
  4009fa:	c5 fd 58 c0          	vaddpd %ymm0,%ymm0,%ymm0
  4009fe:	c5 c5 58 ff          	vaddpd %ymm7,%ymm7,%ymm7
  400a02:	c5 cd 58 f6          	vaddpd %ymm6,%ymm6,%ymm6
  400a06:	c5 d5 58 ed          	vaddpd %ymm5,%ymm5,%ymm5
  400a0a:	c5 dd 58 e4          	vaddpd %ymm4,%ymm4,%ymm4
  400a0e:	c5 e5 58 db          	vaddpd %ymm3,%ymm3,%ymm3
  400a12:	c5 ed 58 d2          	vaddpd %ymm2,%ymm2,%ymm2
  400a16:	c5 f5 58 c9          	vaddpd %ymm1,%ymm1,%ymm1
  400a1a:	c5 fd 58 c0          	vaddpd %ymm0,%ymm0,%ymm0
  400a1e:	c5 c5 58 ff          	vaddpd %ymm7,%ymm7,%ymm7
  400a22:	c5 cd 58 f6          	vaddpd %ymm6,%ymm6,%ymm6
  400a26:	c5 d5 58 ed          	vaddpd %ymm5,%ymm5,%ymm5
  400a2a:	c5 dd 58 e4          	vaddpd %ymm4,%ymm4,%ymm4
  400a2e:	c5 e5 58 db          	vaddpd %ymm3,%ymm3,%ymm3
  400a32:	c5 ed 58 d2          	vaddpd %ymm2,%ymm2,%ymm2
  400a36:	c5 f5 58 c9          	vaddpd %ymm1,%ymm1,%ymm1
  400a3a:	c5 fd 58 c0          	vaddpd %ymm0,%ymm0,%ymm0
  400a3e:	c5 c5 58 ff          	vaddpd %ymm7,%ymm7,%ymm7
  400a42:	c5 cd 58 f6          	vaddpd %ymm6,%ymm6,%ymm6
  400a46:	c5 d5 58 ed          	vaddpd %ymm5,%ymm5,%ymm5
  400a4a:	c5 dd 58 e4          	vaddpd %ymm4,%ymm4,%ymm4
  400a4e:	c5 e5 58 db          	vaddpd %ymm3,%ymm3,%ymm3
  400a52:	c5 ed 58 d2          	vaddpd %ymm2,%ymm2,%ymm2
  400a56:	c5 f5 58 c9          	vaddpd %ymm1,%ymm1,%ymm1
  400a5a:	c5 fd 58 c0          	vaddpd %ymm0,%ymm0,%ymm0
  400a5e:	c5 c5 58 ff          	vaddpd %ymm7,%ymm7,%ymm7
  400a62:	c5 cd 58 f6          	vaddpd %ymm6,%ymm6,%ymm6
  400a66:	c5 d5 58 ed          	vaddpd %ymm5,%ymm5,%ymm5
  400a6a:	c5 dd 58 e4          	vaddpd %ymm4,%ymm4,%ymm4
  400a6e:	c5 e5 58 db          	vaddpd %ymm3,%ymm3,%ymm3
  400a72:	c5 ed 58 d2          	vaddpd %ymm2,%ymm2,%ymm2
  400a76:	c5 f5 58 c9          	vaddpd %ymm1,%ymm1,%ymm1
  400a7a:	c5 fd 58 c0          	vaddpd %ymm0,%ymm0,%ymm0
  400a7e:	c5 c5 58 ff          	vaddpd %ymm7,%ymm7,%ymm7
  400a82:	c5 cd 58 f6          	vaddpd %ymm6,%ymm6,%ymm6
  400a86:	c5 d5 58 ed          	vaddpd %ymm5,%ymm5,%ymm5
  400a8a:	c5 dd 58 e4          	vaddpd %ymm4,%ymm4,%ymm4
  400a8e:	c5 e5 58 db          	vaddpd %ymm3,%ymm3,%ymm3
  400a92:	c5 ed 58 d2          	vaddpd %ymm2,%ymm2,%ymm2
  400a96:	c5 f5 58 c9          	vaddpd %ymm1,%ymm1,%ymm1
  400a9a:	c5 fd 58 c0          	vaddpd %ymm0,%ymm0,%ymm0
  400a9e:	c5 c5 58 ff          	vaddpd %ymm7,%ymm7,%ymm7
  400aa2:	c5 cd 58 f6          	vaddpd %ymm6,%ymm6,%ymm6
  400aa6:	c5 d5 58 ed          	vaddpd %ymm5,%ymm5,%ymm5
  400aaa:	c5 dd 58 e4          	vaddpd %ymm4,%ymm4,%ymm4
  400aae:	c5 e5 58 db          	vaddpd %ymm3,%ymm3,%ymm3
  400ab2:	c5 ed 58 d2          	vaddpd %ymm2,%ymm2,%ymm2
  400ab6:	c5 f5 58 c9          	vaddpd %ymm1,%ymm1,%ymm1
  400aba:	c5 fd 58 c0          	vaddpd %ymm0,%ymm0,%ymm0
  400abe:	c5 c5 58 ff          	vaddpd %ymm7,%ymm7,%ymm7
  400ac2:	c5 cd 58 f6          	vaddpd %ymm6,%ymm6,%ymm6
  400ac6:	c5 d5 58 ed          	vaddpd %ymm5,%ymm5,%ymm5
  400aca:	c5 dd 58 e4          	vaddpd %ymm4,%ymm4,%ymm4
  400ace:	c5 e5 58 db          	vaddpd %ymm3,%ymm3,%ymm3
  400ad2:	c5 ed 58 d2          	vaddpd %ymm2,%ymm2,%ymm2
  400ad6:	c5 f5 58 c9          	vaddpd %ymm1,%ymm1,%ymm1
  400ada:	c5 fd 58 c0          	vaddpd %ymm0,%ymm0,%ymm0
  400ade:	c5 c5 58 ff          	vaddpd %ymm7,%ymm7,%ymm7
  400ae2:	c5 cd 58 f6          	vaddpd %ymm6,%ymm6,%ymm6
  400ae6:	c5 d5 58 ed          	vaddpd %ymm5,%ymm5,%ymm5
  400aea:	c5 dd 58 e4          	vaddpd %ymm4,%ymm4,%ymm4
  400aee:	c5 e5 58 db          	vaddpd %ymm3,%ymm3,%ymm3
  400af2:	c5 ed 58 d2          	vaddpd %ymm2,%ymm2,%ymm2
  400af6:	c5 f5 58 c9          	vaddpd %ymm1,%ymm1,%ymm1
  400afa:	c5 fd 58 c0          	vaddpd %ymm0,%ymm0,%ymm0
  400afe:	c5 c5 58 ff          	vaddpd %ymm7,%ymm7,%ymm7
  400b02:	c5 cd 58 f6          	vaddpd %ymm6,%ymm6,%ymm6
  400b06:	c5 d5 58 ed          	vaddpd %ymm5,%ymm5,%ymm5
  400b0a:	c5 dd 58 e4          	vaddpd %ymm4,%ymm4,%ymm4
  400b0e:	c5 e5 58 db          	vaddpd %ymm3,%ymm3,%ymm3
  400b12:	c5 ed 58 d2          	vaddpd %ymm2,%ymm2,%ymm2
  400b16:	c5 f5 58 c9          	vaddpd %ymm1,%ymm1,%ymm1
  400b1a:	c5 fd 58 c0          	vaddpd %ymm0,%ymm0,%ymm0
  400b1e:	c5 c5 58 ff          	vaddpd %ymm7,%ymm7,%ymm7
  400b22:	c5 cd 58 f6          	vaddpd %ymm6,%ymm6,%ymm6
  400b26:	c5 d5 58 ed          	vaddpd %ymm5,%ymm5,%ymm5
  400b2a:	c5 dd 58 e4          	vaddpd %ymm4,%ymm4,%ymm4
  400b2e:	c5 e5 58 db          	vaddpd %ymm3,%ymm3,%ymm3
  400b32:	c5 ed 58 d2          	vaddpd %ymm2,%ymm2,%ymm2
  400b36:	c5 f5 58 c9          	vaddpd %ymm1,%ymm1,%ymm1
  400b3a:	c5 fd 58 c0          	vaddpd %ymm0,%ymm0,%ymm0
  400b3e:	c5 c5 58 ff          	vaddpd %ymm7,%ymm7,%ymm7
  400b42:	c5 cd 58 f6          	vaddpd %ymm6,%ymm6,%ymm6
  400b46:	c5 d5 58 ed          	vaddpd %ymm5,%ymm5,%ymm5
  400b4a:	c5 dd 58 e4          	vaddpd %ymm4,%ymm4,%ymm4
  400b4e:	c5 e5 58 db          	vaddpd %ymm3,%ymm3,%ymm3
  400b52:	c5 ed 58 d2          	vaddpd %ymm2,%ymm2,%ymm2
  400b56:	c5 f5 58 c9          	vaddpd %ymm1,%ymm1,%ymm1
  400b5a:	c5 fd 58 c0          	vaddpd %ymm0,%ymm0,%ymm0
  400b5e:	c5 c5 58 ff          	vaddpd %ymm7,%ymm7,%ymm7
  400b62:	c5 cd 58 f6          	vaddpd %ymm6,%ymm6,%ymm6
  400b66:	c5 d5 58 ed          	vaddpd %ymm5,%ymm5,%ymm5
  400b6a:	c5 dd 58 e4          	vaddpd %ymm4,%ymm4,%ymm4
  400b6e:	c5 e5 58 db          	vaddpd %ymm3,%ymm3,%ymm3
  400b72:	c5 ed 58 d2          	vaddpd %ymm2,%ymm2,%ymm2
  400b76:	c5 f5 58 c9          	vaddpd %ymm1,%ymm1,%ymm1
  400b7a:	c5 fd 58 c0          	vaddpd %ymm0,%ymm0,%ymm0
  400b7e:	c5 c5 58 ff          	vaddpd %ymm7,%ymm7,%ymm7
  400b82:	c5 cd 58 f6          	vaddpd %ymm6,%ymm6,%ymm6
  400b86:	c5 d5 58 ed          	vaddpd %ymm5,%ymm5,%ymm5
  400b8a:	c5 dd 58 e4          	vaddpd %ymm4,%ymm4,%ymm4
  400b8e:	c5 e5 58 db          	vaddpd %ymm3,%ymm3,%ymm3
  400b92:	c5 ed 58 d2          	vaddpd %ymm2,%ymm2,%ymm2
  400b96:	c5 f5 58 c9          	vaddpd %ymm1,%ymm1,%ymm1
  400b9a:	c5 fd 58 c0          	vaddpd %ymm0,%ymm0,%ymm0
  400b9e:	c5 c5 58 ff          	vaddpd %ymm7,%ymm7,%ymm7
  400ba2:	c5 cd 58 f6          	vaddpd %ymm6,%ymm6,%ymm6
  400ba6:	c5 d5 58 ed          	vaddpd %ymm5,%ymm5,%ymm5
  400baa:	c5 dd 58 e4          	vaddpd %ymm4,%ymm4,%ymm4
  400bae:	c5 e5 58 db          	vaddpd %ymm3,%ymm3,%ymm3
  400bb2:	c5 ed 58 d2          	vaddpd %ymm2,%ymm2,%ymm2
  400bb6:	c5 f5 58 c9          	vaddpd %ymm1,%ymm1,%ymm1
  400bba:	c5 fd 58 c0          	vaddpd %ymm0,%ymm0,%ymm0
  400bbe:	c5 c5 58 ff          	vaddpd %ymm7,%ymm7,%ymm7
  400bc2:	c5 cd 58 f6          	vaddpd %ymm6,%ymm6,%ymm6
  400bc6:	c5 d5 58 ed          	vaddpd %ymm5,%ymm5,%ymm5
  400bca:	c5 dd 58 e4          	vaddpd %ymm4,%ymm4,%ymm4
  400bce:	c5 e5 58 db          	vaddpd %ymm3,%ymm3,%ymm3
  400bd2:	c5 ed 58 d2          	vaddpd %ymm2,%ymm2,%ymm2
  400bd6:	c5 f5 58 c9          	vaddpd %ymm1,%ymm1,%ymm1
  400bda:	c5 fd 58 c0          	vaddpd %ymm0,%ymm0,%ymm0
  400bde:	c5 c5 58 ff          	vaddpd %ymm7,%ymm7,%ymm7
  400be2:	c5 cd 58 f6          	vaddpd %ymm6,%ymm6,%ymm6
  400be6:	c5 d5 58 ed          	vaddpd %ymm5,%ymm5,%ymm5
  400bea:	c5 dd 58 e4          	vaddpd %ymm4,%ymm4,%ymm4
  400bee:	c5 e5 58 db          	vaddpd %ymm3,%ymm3,%ymm3
  400bf2:	c5 ed 58 d2          	vaddpd %ymm2,%ymm2,%ymm2
  400bf6:	c5 f5 58 c9          	vaddpd %ymm1,%ymm1,%ymm1
  400bfa:	c5 fd 58 c0          	vaddpd %ymm0,%ymm0,%ymm0
  400bfe:	c5 c5 58 ff          	vaddpd %ymm7,%ymm7,%ymm7
  400c02:	c5 cd 58 f6          	vaddpd %ymm6,%ymm6,%ymm6
  400c06:	c5 d5 58 ed          	vaddpd %ymm5,%ymm5,%ymm5
  400c0a:	c5 dd 58 e4          	vaddpd %ymm4,%ymm4,%ymm4
  400c0e:	c5 e5 58 db          	vaddpd %ymm3,%ymm3,%ymm3
  400c12:	c5 ed 58 d2          	vaddpd %ymm2,%ymm2,%ymm2
  400c16:	c5 f5 58 c9          	vaddpd %ymm1,%ymm1,%ymm1
  400c1a:	c5 fd 58 c0          	vaddpd %ymm0,%ymm0,%ymm0
  400c1e:	c5 c5 58 ff          	vaddpd %ymm7,%ymm7,%ymm7
  400c22:	c5 cd 58 f6          	vaddpd %ymm6,%ymm6,%ymm6
  400c26:	c5 d5 58 ed          	vaddpd %ymm5,%ymm5,%ymm5
  400c2a:	c5 dd 58 e4          	vaddpd %ymm4,%ymm4,%ymm4
  400c2e:	c5 e5 58 db          	vaddpd %ymm3,%ymm3,%ymm3
  400c32:	c5 ed 58 d2          	vaddpd %ymm2,%ymm2,%ymm2
  400c36:	c5 f5 58 c9          	vaddpd %ymm1,%ymm1,%ymm1
  400c3a:	c5 fd 58 c0          	vaddpd %ymm0,%ymm0,%ymm0
  400c3e:	c5 c5 58 ff          	vaddpd %ymm7,%ymm7,%ymm7
  400c42:	c5 cd 58 f6          	vaddpd %ymm6,%ymm6,%ymm6
  400c46:	c5 d5 58 ed          	vaddpd %ymm5,%ymm5,%ymm5
  400c4a:	c5 dd 58 e4          	vaddpd %ymm4,%ymm4,%ymm4
  400c4e:	c5 e5 58 db          	vaddpd %ymm3,%ymm3,%ymm3
  400c52:	c5 ed 58 d2          	vaddpd %ymm2,%ymm2,%ymm2
  400c56:	c5 f5 58 c9          	vaddpd %ymm1,%ymm1,%ymm1
  400c5a:	c5 fd 58 c0          	vaddpd %ymm0,%ymm0,%ymm0
  400c5e:	c5 c5 58 ff          	vaddpd %ymm7,%ymm7,%ymm7
  400c62:	c5 cd 58 f6          	vaddpd %ymm6,%ymm6,%ymm6
  400c66:	c5 d5 58 ed          	vaddpd %ymm5,%ymm5,%ymm5
  400c6a:	c5 dd 58 e4          	vaddpd %ymm4,%ymm4,%ymm4
  400c6e:	c5 e5 58 db          	vaddpd %ymm3,%ymm3,%ymm3
  400c72:	c5 ed 58 d2          	vaddpd %ymm2,%ymm2,%ymm2
  400c76:	c5 f5 58 c9          	vaddpd %ymm1,%ymm1,%ymm1
  400c7a:	c5 fd 58 c0          	vaddpd %ymm0,%ymm0,%ymm0
  400c7e:	c5 c5 58 ff          	vaddpd %ymm7,%ymm7,%ymm7
  400c82:	c5 cd 58 f6          	vaddpd %ymm6,%ymm6,%ymm6
  400c86:	c5 d5 58 ed          	vaddpd %ymm5,%ymm5,%ymm5
  400c8a:	c5 dd 58 e4          	vaddpd %ymm4,%ymm4,%ymm4
  400c8e:	c5 e5 58 db          	vaddpd %ymm3,%ymm3,%ymm3
  400c92:	c5 ed 58 d2          	vaddpd %ymm2,%ymm2,%ymm2
  400c96:	c5 f5 58 c9          	vaddpd %ymm1,%ymm1,%ymm1
  400c9a:	c5 fd 58 c0          	vaddpd %ymm0,%ymm0,%ymm0
  400c9e:	c5 c5 58 ff          	vaddpd %ymm7,%ymm7,%ymm7
  400ca2:	c5 cd 58 f6          	vaddpd %ymm6,%ymm6,%ymm6
  400ca6:	c5 d5 58 ed          	vaddpd %ymm5,%ymm5,%ymm5
  400caa:	c5 dd 58 e4          	vaddpd %ymm4,%ymm4,%ymm4
  400cae:	c5 e5 58 db          	vaddpd %ymm3,%ymm3,%ymm3
  400cb2:	c5 ed 58 d2          	vaddpd %ymm2,%ymm2,%ymm2
  400cb6:	c5 f5 58 c9          	vaddpd %ymm1,%ymm1,%ymm1
  400cba:	c5 fd 58 c0          	vaddpd %ymm0,%ymm0,%ymm0
  400cbe:	c5 c5 58 ff          	vaddpd %ymm7,%ymm7,%ymm7
  400cc2:	c5 cd 58 f6          	vaddpd %ymm6,%ymm6,%ymm6
  400cc6:	c5 d5 58 ed          	vaddpd %ymm5,%ymm5,%ymm5
  400cca:	c5 dd 58 e4          	vaddpd %ymm4,%ymm4,%ymm4
  400cce:	c5 e5 58 db          	vaddpd %ymm3,%ymm3,%ymm3
  400cd2:	c5 ed 58 d2          	vaddpd %ymm2,%ymm2,%ymm2
  400cd6:	c5 f5 58 c9          	vaddpd %ymm1,%ymm1,%ymm1
  400cda:	c5 fd 58 c0          	vaddpd %ymm0,%ymm0,%ymm0
  400cde:	c5 c5 58 ff          	vaddpd %ymm7,%ymm7,%ymm7
  400ce2:	c5 cd 58 f6          	vaddpd %ymm6,%ymm6,%ymm6
  400ce6:	c5 d5 58 ed          	vaddpd %ymm5,%ymm5,%ymm5
  400cea:	c5 dd 58 e4          	vaddpd %ymm4,%ymm4,%ymm4
  400cee:	c5 e5 58 db          	vaddpd %ymm3,%ymm3,%ymm3
  400cf2:	c5 ed 58 d2          	vaddpd %ymm2,%ymm2,%ymm2
  400cf6:	c5 f5 58 c9          	vaddpd %ymm1,%ymm1,%ymm1
  400cfa:	c5 fd 58 c0          	vaddpd %ymm0,%ymm0,%ymm0
  400cfe:	c5 c5 58 ff          	vaddpd %ymm7,%ymm7,%ymm7
  400d02:	c5 cd 58 f6          	vaddpd %ymm6,%ymm6,%ymm6
  400d06:	c5 d5 58 ed          	vaddpd %ymm5,%ymm5,%ymm5
  400d0a:	c5 dd 58 e4          	vaddpd %ymm4,%ymm4,%ymm4
  400d0e:	c5 e5 58 db          	vaddpd %ymm3,%ymm3,%ymm3
  400d12:	c5 ed 58 d2          	vaddpd %ymm2,%ymm2,%ymm2
  400d16:	c5 f5 58 c9          	vaddpd %ymm1,%ymm1,%ymm1
  400d1a:	c5 fd 58 c0          	vaddpd %ymm0,%ymm0,%ymm0
  400d1e:	c5 c5 58 ff          	vaddpd %ymm7,%ymm7,%ymm7
  400d22:	c5 cd 58 f6          	vaddpd %ymm6,%ymm6,%ymm6
  400d26:	c5 d5 58 ed          	vaddpd %ymm5,%ymm5,%ymm5
  400d2a:	c5 dd 58 e4          	vaddpd %ymm4,%ymm4,%ymm4
  400d2e:	c5 e5 58 db          	vaddpd %ymm3,%ymm3,%ymm3
  400d32:	c5 ed 58 d2          	vaddpd %ymm2,%ymm2,%ymm2
  400d36:	c5 f5 58 c9          	vaddpd %ymm1,%ymm1,%ymm1
  400d3a:	c5 fd 58 c0          	vaddpd %ymm0,%ymm0,%ymm0
  400d3e:	c5 c5 58 ff          	vaddpd %ymm7,%ymm7,%ymm7
  400d42:	c5 cd 58 f6          	vaddpd %ymm6,%ymm6,%ymm6
  400d46:	c5 d5 58 ed          	vaddpd %ymm5,%ymm5,%ymm5
  400d4a:	c5 dd 58 e4          	vaddpd %ymm4,%ymm4,%ymm4
  400d4e:	c5 e5 58 db          	vaddpd %ymm3,%ymm3,%ymm3
  400d52:	c5 ed 58 d2          	vaddpd %ymm2,%ymm2,%ymm2
  400d56:	c5 f5 58 c9          	vaddpd %ymm1,%ymm1,%ymm1
  400d5a:	c5 fd 58 c0          	vaddpd %ymm0,%ymm0,%ymm0
  400d5e:	c5 c5 58 ff          	vaddpd %ymm7,%ymm7,%ymm7
  400d62:	c5 cd 58 f6          	vaddpd %ymm6,%ymm6,%ymm6
  400d66:	c5 d5 58 ed          	vaddpd %ymm5,%ymm5,%ymm5
  400d6a:	c5 dd 58 e4          	vaddpd %ymm4,%ymm4,%ymm4
  400d6e:	c5 e5 58 db          	vaddpd %ymm3,%ymm3,%ymm3
  400d72:	c5 ed 58 d2          	vaddpd %ymm2,%ymm2,%ymm2
  400d76:	c5 f5 58 c9          	vaddpd %ymm1,%ymm1,%ymm1
  400d7a:	c5 fd 58 c0          	vaddpd %ymm0,%ymm0,%ymm0
  400d7e:	c5 c5 58 ff          	vaddpd %ymm7,%ymm7,%ymm7
  400d82:	c5 cd 58 f6          	vaddpd %ymm6,%ymm6,%ymm6
  400d86:	c5 d5 58 ed          	vaddpd %ymm5,%ymm5,%ymm5
  400d8a:	c5 dd 58 e4          	vaddpd %ymm4,%ymm4,%ymm4
  400d8e:	c5 e5 58 db          	vaddpd %ymm3,%ymm3,%ymm3
  400d92:	c5 ed 58 d2          	vaddpd %ymm2,%ymm2,%ymm2
  400d96:	c5 f5 58 c9          	vaddpd %ymm1,%ymm1,%ymm1
  400d9a:	c5 fd 58 c0          	vaddpd %ymm0,%ymm0,%ymm0
  400d9e:	c5 c5 58 ff          	vaddpd %ymm7,%ymm7,%ymm7
  400da2:	c5 cd 58 f6          	vaddpd %ymm6,%ymm6,%ymm6
  400da6:	c5 d5 58 ed          	vaddpd %ymm5,%ymm5,%ymm5
  400daa:	c5 dd 58 e4          	vaddpd %ymm4,%ymm4,%ymm4
  400dae:	c5 e5 58 db          	vaddpd %ymm3,%ymm3,%ymm3
  400db2:	c5 ed 58 d2          	vaddpd %ymm2,%ymm2,%ymm2
  400db6:	c5 f5 58 c9          	vaddpd %ymm1,%ymm1,%ymm1
  400dba:	c5 fd 58 c0          	vaddpd %ymm0,%ymm0,%ymm0
  400dbe:	c5 c5 58 ff          	vaddpd %ymm7,%ymm7,%ymm7
  400dc2:	c5 cd 58 f6          	vaddpd %ymm6,%ymm6,%ymm6
  400dc6:	c5 d5 58 ed          	vaddpd %ymm5,%ymm5,%ymm5
  400dca:	c5 dd 58 e4          	vaddpd %ymm4,%ymm4,%ymm4
  400dce:	c5 e5 58 db          	vaddpd %ymm3,%ymm3,%ymm3
  400dd2:	c5 ed 58 d2          	vaddpd %ymm2,%ymm2,%ymm2
  400dd6:	c5 f5 58 c9          	vaddpd %ymm1,%ymm1,%ymm1
  400dda:	c5 fd 58 c0          	vaddpd %ymm0,%ymm0,%ymm0
  400dde:	c5 c5 58 ff          	vaddpd %ymm7,%ymm7,%ymm7
  400de2:	c5 cd 58 f6          	vaddpd %ymm6,%ymm6,%ymm6
  400de6:	c5 d5 58 ed          	vaddpd %ymm5,%ymm5,%ymm5
  400dea:	c5 dd 58 e4          	vaddpd %ymm4,%ymm4,%ymm4
  400dee:	c5 e5 58 db          	vaddpd %ymm3,%ymm3,%ymm3
  400df2:	c5 ed 58 d2          	vaddpd %ymm2,%ymm2,%ymm2
  400df6:	c5 f5 58 c9          	vaddpd %ymm1,%ymm1,%ymm1
  400dfa:	c5 fd 58 c0          	vaddpd %ymm0,%ymm0,%ymm0
  400dfe:	c5 c5 58 ff          	vaddpd %ymm7,%ymm7,%ymm7
  400e02:	c5 cd 58 f6          	vaddpd %ymm6,%ymm6,%ymm6
  400e06:	c5 d5 58 ed          	vaddpd %ymm5,%ymm5,%ymm5
  400e0a:	c5 dd 58 e4          	vaddpd %ymm4,%ymm4,%ymm4
  400e0e:	c5 e5 58 db          	vaddpd %ymm3,%ymm3,%ymm3
  400e12:	c5 ed 58 d2          	vaddpd %ymm2,%ymm2,%ymm2
  400e16:	c5 f5 58 c9          	vaddpd %ymm1,%ymm1,%ymm1
  400e1a:	c5 fd 58 c0          	vaddpd %ymm0,%ymm0,%ymm0
  400e1e:	c5 c5 58 ff          	vaddpd %ymm7,%ymm7,%ymm7
  400e22:	c5 cd 58 f6          	vaddpd %ymm6,%ymm6,%ymm6
  400e26:	c5 d5 58 ed          	vaddpd %ymm5,%ymm5,%ymm5
  400e2a:	c5 dd 58 e4          	vaddpd %ymm4,%ymm4,%ymm4
  400e2e:	c5 e5 58 db          	vaddpd %ymm3,%ymm3,%ymm3
  400e32:	c5 ed 58 d2          	vaddpd %ymm2,%ymm2,%ymm2
  400e36:	c5 f5 58 c9          	vaddpd %ymm1,%ymm1,%ymm1
  400e3a:	c5 fd 58 c0          	vaddpd %ymm0,%ymm0,%ymm0
  400e3e:	c5 c5 58 ff          	vaddpd %ymm7,%ymm7,%ymm7
  400e42:	c5 cd 58 f6          	vaddpd %ymm6,%ymm6,%ymm6
  400e46:	c5 d5 58 ed          	vaddpd %ymm5,%ymm5,%ymm5
  400e4a:	c5 dd 58 e4          	vaddpd %ymm4,%ymm4,%ymm4
  400e4e:	c5 e5 58 db          	vaddpd %ymm3,%ymm3,%ymm3
  400e52:	c5 ed 58 d2          	vaddpd %ymm2,%ymm2,%ymm2
  400e56:	c5 f5 58 c9          	vaddpd %ymm1,%ymm1,%ymm1
  400e5a:	c5 fd 58 c0          	vaddpd %ymm0,%ymm0,%ymm0
  400e5e:	c5 c5 58 ff          	vaddpd %ymm7,%ymm7,%ymm7
  400e62:	c5 cd 58 f6          	vaddpd %ymm6,%ymm6,%ymm6
  400e66:	c5 d5 58 ed          	vaddpd %ymm5,%ymm5,%ymm5
  400e6a:	c5 dd 58 e4          	vaddpd %ymm4,%ymm4,%ymm4
  400e6e:	c5 e5 58 db          	vaddpd %ymm3,%ymm3,%ymm3
  400e72:	c5 ed 58 d2          	vaddpd %ymm2,%ymm2,%ymm2
  400e76:	c5 f5 58 c9          	vaddpd %ymm1,%ymm1,%ymm1
  400e7a:	c5 fd 58 c0          	vaddpd %ymm0,%ymm0,%ymm0
  400e7e:	c5 c5 58 ff          	vaddpd %ymm7,%ymm7,%ymm7
  400e82:	c5 cd 58 f6          	vaddpd %ymm6,%ymm6,%ymm6
  400e86:	c5 d5 58 ed          	vaddpd %ymm5,%ymm5,%ymm5
  400e8a:	c5 dd 58 e4          	vaddpd %ymm4,%ymm4,%ymm4
  400e8e:	c5 e5 58 db          	vaddpd %ymm3,%ymm3,%ymm3
  400e92:	c5 ed 58 d2          	vaddpd %ymm2,%ymm2,%ymm2
  400e96:	c5 f5 58 c9          	vaddpd %ymm1,%ymm1,%ymm1
  400e9a:	c5 fd 58 c0          	vaddpd %ymm0,%ymm0,%ymm0
  400e9e:	c5 c5 58 ff          	vaddpd %ymm7,%ymm7,%ymm7
  400ea2:	c5 cd 58 f6          	vaddpd %ymm6,%ymm6,%ymm6
  400ea6:	c5 d5 58 ed          	vaddpd %ymm5,%ymm5,%ymm5
  400eaa:	c5 dd 58 e4          	vaddpd %ymm4,%ymm4,%ymm4
  400eae:	c5 e5 58 db          	vaddpd %ymm3,%ymm3,%ymm3
  400eb2:	c5 ed 58 d2          	vaddpd %ymm2,%ymm2,%ymm2
  400eb6:	c5 f5 58 c9          	vaddpd %ymm1,%ymm1,%ymm1
  400eba:	c5 fd 58 c0          	vaddpd %ymm0,%ymm0,%ymm0
  400ebe:	c5 c5 58 ff          	vaddpd %ymm7,%ymm7,%ymm7
  400ec2:	c5 cd 58 f6          	vaddpd %ymm6,%ymm6,%ymm6
  400ec6:	c5 d5 58 ed          	vaddpd %ymm5,%ymm5,%ymm5
  400eca:	c5 dd 58 e4          	vaddpd %ymm4,%ymm4,%ymm4
  400ece:	c5 e5 58 db          	vaddpd %ymm3,%ymm3,%ymm3
  400ed2:	c5 ed 58 d2          	vaddpd %ymm2,%ymm2,%ymm2
  400ed6:	c5 f5 58 c9          	vaddpd %ymm1,%ymm1,%ymm1
  400eda:	c5 fd 58 c0          	vaddpd %ymm0,%ymm0,%ymm0
  400ede:	c5 c5 58 ff          	vaddpd %ymm7,%ymm7,%ymm7
  400ee2:	c5 cd 58 f6          	vaddpd %ymm6,%ymm6,%ymm6
  400ee6:	c5 d5 58 ed          	vaddpd %ymm5,%ymm5,%ymm5
  400eea:	c5 dd 58 e4          	vaddpd %ymm4,%ymm4,%ymm4
  400eee:	c5 e5 58 db          	vaddpd %ymm3,%ymm3,%ymm3
  400ef2:	c5 ed 58 d2          	vaddpd %ymm2,%ymm2,%ymm2
  400ef6:	c5 f5 58 c9          	vaddpd %ymm1,%ymm1,%ymm1
  400efa:	c5 fd 58 c0          	vaddpd %ymm0,%ymm0,%ymm0
  400efe:	c5 c5 58 ff          	vaddpd %ymm7,%ymm7,%ymm7
  400f02:	c5 cd 58 f6          	vaddpd %ymm6,%ymm6,%ymm6
  400f06:	c5 d5 58 ed          	vaddpd %ymm5,%ymm5,%ymm5
  400f0a:	c5 dd 58 e4          	vaddpd %ymm4,%ymm4,%ymm4
  400f0e:	c5 e5 58 db          	vaddpd %ymm3,%ymm3,%ymm3
  400f12:	c5 ed 58 d2          	vaddpd %ymm2,%ymm2,%ymm2
  400f16:	c5 f5 58 c9          	vaddpd %ymm1,%ymm1,%ymm1
  400f1a:	c5 fd 58 c0          	vaddpd %ymm0,%ymm0,%ymm0
  400f1e:	c5 c5 58 ff          	vaddpd %ymm7,%ymm7,%ymm7
  400f22:	c5 cd 58 f6          	vaddpd %ymm6,%ymm6,%ymm6
  400f26:	c5 d5 58 ed          	vaddpd %ymm5,%ymm5,%ymm5
  400f2a:	c5 dd 58 e4          	vaddpd %ymm4,%ymm4,%ymm4
  400f2e:	c5 e5 58 db          	vaddpd %ymm3,%ymm3,%ymm3
  400f32:	c5 ed 58 d2          	vaddpd %ymm2,%ymm2,%ymm2
  400f36:	c5 f5 58 c9          	vaddpd %ymm1,%ymm1,%ymm1
  400f3a:	c5 fd 58 c0          	vaddpd %ymm0,%ymm0,%ymm0
  400f3e:	c5 c5 58 ff          	vaddpd %ymm7,%ymm7,%ymm7
  400f42:	c5 cd 58 f6          	vaddpd %ymm6,%ymm6,%ymm6
  400f46:	c5 d5 58 ed          	vaddpd %ymm5,%ymm5,%ymm5
  400f4a:	c5 dd 58 e4          	vaddpd %ymm4,%ymm4,%ymm4
  400f4e:	c5 e5 58 db          	vaddpd %ymm3,%ymm3,%ymm3
  400f52:	c5 ed 58 d2          	vaddpd %ymm2,%ymm2,%ymm2
  400f56:	c5 f5 58 c9          	vaddpd %ymm1,%ymm1,%ymm1
  400f5a:	c5 fd 58 c0          	vaddpd %ymm0,%ymm0,%ymm0
  400f5e:	c5 c5 58 ff          	vaddpd %ymm7,%ymm7,%ymm7
  400f62:	c5 cd 58 f6          	vaddpd %ymm6,%ymm6,%ymm6
  400f66:	c5 d5 58 ed          	vaddpd %ymm5,%ymm5,%ymm5
  400f6a:	c5 dd 58 e4          	vaddpd %ymm4,%ymm4,%ymm4
  400f6e:	c5 e5 58 db          	vaddpd %ymm3,%ymm3,%ymm3
  400f72:	c5 ed 58 d2          	vaddpd %ymm2,%ymm2,%ymm2
  400f76:	c5 f5 58 c9          	vaddpd %ymm1,%ymm1,%ymm1
  400f7a:	c5 fd 58 c0          	vaddpd %ymm0,%ymm0,%ymm0
  400f7e:	c5 c5 58 ff          	vaddpd %ymm7,%ymm7,%ymm7
  400f82:	c5 cd 58 f6          	vaddpd %ymm6,%ymm6,%ymm6
  400f86:	c5 d5 58 ed          	vaddpd %ymm5,%ymm5,%ymm5
  400f8a:	c5 dd 58 e4          	vaddpd %ymm4,%ymm4,%ymm4
  400f8e:	c5 e5 58 db          	vaddpd %ymm3,%ymm3,%ymm3
  400f92:	c5 ed 58 d2          	vaddpd %ymm2,%ymm2,%ymm2
  400f96:	c5 f5 58 c9          	vaddpd %ymm1,%ymm1,%ymm1
  400f9a:	c5 fd 58 c0          	vaddpd %ymm0,%ymm0,%ymm0
  400f9e:	c5 c5 58 ff          	vaddpd %ymm7,%ymm7,%ymm7
  400fa2:	c5 cd 58 f6          	vaddpd %ymm6,%ymm6,%ymm6
  400fa6:	c5 d5 58 ed          	vaddpd %ymm5,%ymm5,%ymm5
  400faa:	c5 dd 58 e4          	vaddpd %ymm4,%ymm4,%ymm4
  400fae:	c5 e5 58 db          	vaddpd %ymm3,%ymm3,%ymm3
  400fb2:	c5 ed 58 d2          	vaddpd %ymm2,%ymm2,%ymm2
  400fb6:	c5 f5 58 c9          	vaddpd %ymm1,%ymm1,%ymm1
  400fba:	c5 fd 58 c0          	vaddpd %ymm0,%ymm0,%ymm0
  400fbe:	c5 c5 58 ff          	vaddpd %ymm7,%ymm7,%ymm7
  400fc2:	c5 cd 58 f6          	vaddpd %ymm6,%ymm6,%ymm6
  400fc6:	c5 d5 58 ed          	vaddpd %ymm5,%ymm5,%ymm5
  400fca:	c5 dd 58 e4          	vaddpd %ymm4,%ymm4,%ymm4
  400fce:	c5 e5 58 db          	vaddpd %ymm3,%ymm3,%ymm3
  400fd2:	c5 ed 58 d2          	vaddpd %ymm2,%ymm2,%ymm2
  400fd6:	c5 f5 58 c9          	vaddpd %ymm1,%ymm1,%ymm1
  400fda:	c5 fd 58 c0          	vaddpd %ymm0,%ymm0,%ymm0
  400fde:	c5 c5 58 ff          	vaddpd %ymm7,%ymm7,%ymm7
  400fe2:	c5 cd 58 f6          	vaddpd %ymm6,%ymm6,%ymm6
  400fe6:	c5 d5 58 ed          	vaddpd %ymm5,%ymm5,%ymm5
  400fea:	c5 dd 58 e4          	vaddpd %ymm4,%ymm4,%ymm4
  400fee:	c5 e5 58 db          	vaddpd %ymm3,%ymm3,%ymm3
  400ff2:	c5 ed 58 d2          	vaddpd %ymm2,%ymm2,%ymm2
  400ff6:	c5 f5 58 c9          	vaddpd %ymm1,%ymm1,%ymm1
  400ffa:	c5 fd 58 c0          	vaddpd %ymm0,%ymm0,%ymm0
  400ffe:	c5 c5 58 ff          	vaddpd %ymm7,%ymm7,%ymm7
  401002:	c5 cd 58 f6          	vaddpd %ymm6,%ymm6,%ymm6
  401006:	c5 d5 58 ed          	vaddpd %ymm5,%ymm5,%ymm5
  40100a:	c5 dd 58 e4          	vaddpd %ymm4,%ymm4,%ymm4
  40100e:	c5 e5 58 db          	vaddpd %ymm3,%ymm3,%ymm3
  401012:	c5 ed 58 d2          	vaddpd %ymm2,%ymm2,%ymm2
  401016:	c5 f5 58 c9          	vaddpd %ymm1,%ymm1,%ymm1
  40101a:	c5 fd 58 c0          	vaddpd %ymm0,%ymm0,%ymm0
  40101e:	c5 c5 58 ff          	vaddpd %ymm7,%ymm7,%ymm7
  401022:	c5 cd 58 f6          	vaddpd %ymm6,%ymm6,%ymm6
  401026:	c5 d5 58 ed          	vaddpd %ymm5,%ymm5,%ymm5
  40102a:	c5 dd 58 e4          	vaddpd %ymm4,%ymm4,%ymm4
  40102e:	c5 e5 58 db          	vaddpd %ymm3,%ymm3,%ymm3
  401032:	c5 ed 58 d2          	vaddpd %ymm2,%ymm2,%ymm2
  401036:	c5 f5 58 c9          	vaddpd %ymm1,%ymm1,%ymm1
  40103a:	c5 fd 58 c0          	vaddpd %ymm0,%ymm0,%ymm0
  40103e:	c5 c5 58 ff          	vaddpd %ymm7,%ymm7,%ymm7
  401042:	c5 cd 58 f6          	vaddpd %ymm6,%ymm6,%ymm6
  401046:	c5 d5 58 ed          	vaddpd %ymm5,%ymm5,%ymm5
  40104a:	c5 dd 58 e4          	vaddpd %ymm4,%ymm4,%ymm4
  40104e:	c5 e5 58 db          	vaddpd %ymm3,%ymm3,%ymm3
  401052:	c5 ed 58 d2          	vaddpd %ymm2,%ymm2,%ymm2
  401056:	c5 f5 58 c9          	vaddpd %ymm1,%ymm1,%ymm1
  40105a:	c5 fd 58 c0          	vaddpd %ymm0,%ymm0,%ymm0
  40105e:	c5 c5 58 ff          	vaddpd %ymm7,%ymm7,%ymm7
  401062:	c5 cd 58 f6          	vaddpd %ymm6,%ymm6,%ymm6
  401066:	c5 d5 58 ed          	vaddpd %ymm5,%ymm5,%ymm5
  40106a:	c5 dd 58 e4          	vaddpd %ymm4,%ymm4,%ymm4
  40106e:	c5 e5 58 db          	vaddpd %ymm3,%ymm3,%ymm3
  401072:	c5 ed 58 d2          	vaddpd %ymm2,%ymm2,%ymm2
  401076:	c5 f5 58 c9          	vaddpd %ymm1,%ymm1,%ymm1
  40107a:	c5 fd 58 c0          	vaddpd %ymm0,%ymm0,%ymm0
  40107e:	c5 c5 58 ff          	vaddpd %ymm7,%ymm7,%ymm7
  401082:	c5 cd 58 f6          	vaddpd %ymm6,%ymm6,%ymm6
  401086:	c5 d5 58 ed          	vaddpd %ymm5,%ymm5,%ymm5
  40108a:	c5 dd 58 e4          	vaddpd %ymm4,%ymm4,%ymm4
  40108e:	c5 e5 58 db          	vaddpd %ymm3,%ymm3,%ymm3
  401092:	c5 ed 58 d2          	vaddpd %ymm2,%ymm2,%ymm2
  401096:	c5 f5 58 c9          	vaddpd %ymm1,%ymm1,%ymm1
  40109a:	c5 fd 58 c0          	vaddpd %ymm0,%ymm0,%ymm0
  40109e:	c5 c5 58 ff          	vaddpd %ymm7,%ymm7,%ymm7
  4010a2:	c5 cd 58 f6          	vaddpd %ymm6,%ymm6,%ymm6
  4010a6:	c5 d5 58 ed          	vaddpd %ymm5,%ymm5,%ymm5
  4010aa:	c5 dd 58 e4          	vaddpd %ymm4,%ymm4,%ymm4
  4010ae:	c5 e5 58 db          	vaddpd %ymm3,%ymm3,%ymm3
  4010b2:	c5 ed 58 d2          	vaddpd %ymm2,%ymm2,%ymm2
  4010b6:	c5 f5 58 c9          	vaddpd %ymm1,%ymm1,%ymm1
  4010ba:	c5 fd 58 c0          	vaddpd %ymm0,%ymm0,%ymm0
  4010be:	c5 c5 58 ff          	vaddpd %ymm7,%ymm7,%ymm7
  4010c2:	c5 cd 58 f6          	vaddpd %ymm6,%ymm6,%ymm6
  4010c6:	c5 d5 58 ed          	vaddpd %ymm5,%ymm5,%ymm5
  4010ca:	c5 dd 58 e4          	vaddpd %ymm4,%ymm4,%ymm4
  4010ce:	c5 e5 58 db          	vaddpd %ymm3,%ymm3,%ymm3
  4010d2:	c5 ed 58 d2          	vaddpd %ymm2,%ymm2,%ymm2
  4010d6:	c5 f5 58 c9          	vaddpd %ymm1,%ymm1,%ymm1
  4010da:	c5 fd 58 c0          	vaddpd %ymm0,%ymm0,%ymm0
  4010de:	c5 c5 58 ff          	vaddpd %ymm7,%ymm7,%ymm7
  4010e2:	c5 cd 58 f6          	vaddpd %ymm6,%ymm6,%ymm6
  4010e6:	c5 d5 58 ed          	vaddpd %ymm5,%ymm5,%ymm5
  4010ea:	c5 dd 58 e4          	vaddpd %ymm4,%ymm4,%ymm4
  4010ee:	c5 e5 58 db          	vaddpd %ymm3,%ymm3,%ymm3
  4010f2:	c5 ed 58 d2          	vaddpd %ymm2,%ymm2,%ymm2
  4010f6:	c5 f5 58 c9          	vaddpd %ymm1,%ymm1,%ymm1
  4010fa:	c5 fd 58 c0          	vaddpd %ymm0,%ymm0,%ymm0
  4010fe:	c5 c5 58 ff          	vaddpd %ymm7,%ymm7,%ymm7
  401102:	c5 cd 58 f6          	vaddpd %ymm6,%ymm6,%ymm6
  401106:	c5 d5 58 ed          	vaddpd %ymm5,%ymm5,%ymm5
  40110a:	c5 dd 58 e4          	vaddpd %ymm4,%ymm4,%ymm4
  40110e:	c5 e5 58 db          	vaddpd %ymm3,%ymm3,%ymm3
  401112:	c5 ed 58 d2          	vaddpd %ymm2,%ymm2,%ymm2
  401116:	c5 f5 58 c9          	vaddpd %ymm1,%ymm1,%ymm1
  40111a:	c5 fd 58 c0          	vaddpd %ymm0,%ymm0,%ymm0
  40111e:	c5 c5 58 ff          	vaddpd %ymm7,%ymm7,%ymm7
  401122:	c5 cd 58 f6          	vaddpd %ymm6,%ymm6,%ymm6
  401126:	c5 d5 58 ed          	vaddpd %ymm5,%ymm5,%ymm5
  40112a:	c5 dd 58 e4          	vaddpd %ymm4,%ymm4,%ymm4
  40112e:	c5 e5 58 db          	vaddpd %ymm3,%ymm3,%ymm3
  401132:	c5 ed 58 d2          	vaddpd %ymm2,%ymm2,%ymm2
  401136:	c5 f5 58 c9          	vaddpd %ymm1,%ymm1,%ymm1
  40113a:	c5 fd 58 c0          	vaddpd %ymm0,%ymm0,%ymm0
  40113e:	c5 c5 58 ff          	vaddpd %ymm7,%ymm7,%ymm7
  401142:	c5 cd 58 f6          	vaddpd %ymm6,%ymm6,%ymm6
  401146:	c5 d5 58 ed          	vaddpd %ymm5,%ymm5,%ymm5
  40114a:	c5 dd 58 e4          	vaddpd %ymm4,%ymm4,%ymm4
  40114e:	c5 e5 58 db          	vaddpd %ymm3,%ymm3,%ymm3
  401152:	c5 ed 58 d2          	vaddpd %ymm2,%ymm2,%ymm2
  401156:	c5 f5 58 c9          	vaddpd %ymm1,%ymm1,%ymm1
  40115a:	c5 fd 58 c0          	vaddpd %ymm0,%ymm0,%ymm0
  40115e:	c5 c5 58 ff          	vaddpd %ymm7,%ymm7,%ymm7
  401162:	c5 cd 58 f6          	vaddpd %ymm6,%ymm6,%ymm6
  401166:	c5 d5 58 ed          	vaddpd %ymm5,%ymm5,%ymm5
  40116a:	c5 dd 58 e4          	vaddpd %ymm4,%ymm4,%ymm4
  40116e:	c5 e5 58 db          	vaddpd %ymm3,%ymm3,%ymm3
  401172:	c5 ed 58 d2          	vaddpd %ymm2,%ymm2,%ymm2
  401176:	c5 f5 58 c9          	vaddpd %ymm1,%ymm1,%ymm1
  40117a:	c5 fd 58 c0          	vaddpd %ymm0,%ymm0,%ymm0
  40117e:	c5 c5 58 ff          	vaddpd %ymm7,%ymm7,%ymm7
  401182:	c5 cd 58 f6          	vaddpd %ymm6,%ymm6,%ymm6
  401186:	c5 d5 58 ed          	vaddpd %ymm5,%ymm5,%ymm5
  40118a:	c5 dd 58 e4          	vaddpd %ymm4,%ymm4,%ymm4
  40118e:	c5 e5 58 db          	vaddpd %ymm3,%ymm3,%ymm3
  401192:	c5 ed 58 d2          	vaddpd %ymm2,%ymm2,%ymm2
  401196:	c5 f5 58 c9          	vaddpd %ymm1,%ymm1,%ymm1
  40119a:	c5 fd 58 c0          	vaddpd %ymm0,%ymm0,%ymm0
  40119e:	c5 c5 58 ff          	vaddpd %ymm7,%ymm7,%ymm7
  4011a2:	c5 cd 58 f6          	vaddpd %ymm6,%ymm6,%ymm6
  4011a6:	c5 d5 58 ed          	vaddpd %ymm5,%ymm5,%ymm5
  4011aa:	c5 dd 58 e4          	vaddpd %ymm4,%ymm4,%ymm4
  4011ae:	c5 e5 58 db          	vaddpd %ymm3,%ymm3,%ymm3
  4011b2:	c5 ed 58 d2          	vaddpd %ymm2,%ymm2,%ymm2
  4011b6:	c5 f5 58 c9          	vaddpd %ymm1,%ymm1,%ymm1
  4011ba:	c5 fd 58 c0          	vaddpd %ymm0,%ymm0,%ymm0
  4011be:	c5 c5 58 ff          	vaddpd %ymm7,%ymm7,%ymm7
  4011c2:	c5 cd 58 f6          	vaddpd %ymm6,%ymm6,%ymm6
  4011c6:	c5 d5 58 ed          	vaddpd %ymm5,%ymm5,%ymm5
  4011ca:	c5 dd 58 e4          	vaddpd %ymm4,%ymm4,%ymm4
  4011ce:	c5 e5 58 db          	vaddpd %ymm3,%ymm3,%ymm3
  4011d2:	c5 ed 58 d2          	vaddpd %ymm2,%ymm2,%ymm2
  4011d6:	c5 f5 58 c9          	vaddpd %ymm1,%ymm1,%ymm1
  4011da:	c5 fd 58 c0          	vaddpd %ymm0,%ymm0,%ymm0
  4011de:	c5 c5 58 ff          	vaddpd %ymm7,%ymm7,%ymm7
  4011e2:	c5 cd 58 f6          	vaddpd %ymm6,%ymm6,%ymm6
  4011e6:	c5 d5 58 ed          	vaddpd %ymm5,%ymm5,%ymm5
  4011ea:	c5 dd 58 e4          	vaddpd %ymm4,%ymm4,%ymm4
  4011ee:	c5 e5 58 db          	vaddpd %ymm3,%ymm3,%ymm3
  4011f2:	c5 ed 58 d2          	vaddpd %ymm2,%ymm2,%ymm2
  4011f6:	c5 f5 58 c9          	vaddpd %ymm1,%ymm1,%ymm1
  4011fa:	c5 fd 58 c0          	vaddpd %ymm0,%ymm0,%ymm0
  4011fe:	c5 c5 58 ff          	vaddpd %ymm7,%ymm7,%ymm7
  401202:	c5 cd 58 f6          	vaddpd %ymm6,%ymm6,%ymm6
  401206:	c5 d5 58 ed          	vaddpd %ymm5,%ymm5,%ymm5
  40120a:	c5 dd 58 e4          	vaddpd %ymm4,%ymm4,%ymm4
  40120e:	c5 e5 58 db          	vaddpd %ymm3,%ymm3,%ymm3
  401212:	c5 ed 58 d2          	vaddpd %ymm2,%ymm2,%ymm2
  401216:	c5 f5 58 c9          	vaddpd %ymm1,%ymm1,%ymm1
  40121a:	c5 fd 58 c0          	vaddpd %ymm0,%ymm0,%ymm0
  40121e:	c5 c5 58 ff          	vaddpd %ymm7,%ymm7,%ymm7
  401222:	c5 cd 58 f6          	vaddpd %ymm6,%ymm6,%ymm6
  401226:	c5 d5 58 ed          	vaddpd %ymm5,%ymm5,%ymm5
  40122a:	c5 dd 58 e4          	vaddpd %ymm4,%ymm4,%ymm4
  40122e:	c5 e5 58 db          	vaddpd %ymm3,%ymm3,%ymm3
  401232:	c5 ed 58 d2          	vaddpd %ymm2,%ymm2,%ymm2
  401236:	c5 f5 58 c9          	vaddpd %ymm1,%ymm1,%ymm1
  40123a:	c5 fd 58 c0          	vaddpd %ymm0,%ymm0,%ymm0
  40123e:	c5 c5 58 ff          	vaddpd %ymm7,%ymm7,%ymm7
  401242:	c5 cd 58 f6          	vaddpd %ymm6,%ymm6,%ymm6
  401246:	c5 d5 58 ed          	vaddpd %ymm5,%ymm5,%ymm5
  40124a:	c5 dd 58 e4          	vaddpd %ymm4,%ymm4,%ymm4
  40124e:	c5 e5 58 db          	vaddpd %ymm3,%ymm3,%ymm3
  401252:	c5 ed 58 d2          	vaddpd %ymm2,%ymm2,%ymm2
  401256:	c5 f5 58 c9          	vaddpd %ymm1,%ymm1,%ymm1
  40125a:	c5 fd 58 c0          	vaddpd %ymm0,%ymm0,%ymm0
  40125e:	c5 c5 58 ff          	vaddpd %ymm7,%ymm7,%ymm7
  401262:	c5 cd 58 f6          	vaddpd %ymm6,%ymm6,%ymm6
  401266:	c5 d5 58 ed          	vaddpd %ymm5,%ymm5,%ymm5
  40126a:	c5 dd 58 e4          	vaddpd %ymm4,%ymm4,%ymm4
  40126e:	c5 e5 58 db          	vaddpd %ymm3,%ymm3,%ymm3
  401272:	c5 ed 58 d2          	vaddpd %ymm2,%ymm2,%ymm2
  401276:	c5 f5 58 c9          	vaddpd %ymm1,%ymm1,%ymm1
  40127a:	c5 fd 58 c0          	vaddpd %ymm0,%ymm0,%ymm0
  40127e:	c5 c5 58 ff          	vaddpd %ymm7,%ymm7,%ymm7
  401282:	c5 cd 58 f6          	vaddpd %ymm6,%ymm6,%ymm6
  401286:	c5 d5 58 ed          	vaddpd %ymm5,%ymm5,%ymm5
  40128a:	c5 dd 58 e4          	vaddpd %ymm4,%ymm4,%ymm4
  40128e:	c5 e5 58 db          	vaddpd %ymm3,%ymm3,%ymm3
  401292:	c5 ed 58 d2          	vaddpd %ymm2,%ymm2,%ymm2
  401296:	c5 f5 58 c9          	vaddpd %ymm1,%ymm1,%ymm1
  40129a:	c5 fd 58 c0          	vaddpd %ymm0,%ymm0,%ymm0
  40129e:	c5 c5 58 ff          	vaddpd %ymm7,%ymm7,%ymm7
  4012a2:	c5 cd 58 f6          	vaddpd %ymm6,%ymm6,%ymm6
  4012a6:	c5 d5 58 ed          	vaddpd %ymm5,%ymm5,%ymm5
  4012aa:	c5 dd 58 e4          	vaddpd %ymm4,%ymm4,%ymm4
  4012ae:	c5 e5 58 db          	vaddpd %ymm3,%ymm3,%ymm3
  4012b2:	c5 ed 58 d2          	vaddpd %ymm2,%ymm2,%ymm2
  4012b6:	c5 f5 58 c9          	vaddpd %ymm1,%ymm1,%ymm1
  4012ba:	c5 fd 58 c0          	vaddpd %ymm0,%ymm0,%ymm0
  4012be:	c5 c5 58 ff          	vaddpd %ymm7,%ymm7,%ymm7
  4012c2:	c5 cd 58 f6          	vaddpd %ymm6,%ymm6,%ymm6
  4012c6:	c5 d5 58 ed          	vaddpd %ymm5,%ymm5,%ymm5
  4012ca:	c5 dd 58 e4          	vaddpd %ymm4,%ymm4,%ymm4
  4012ce:	c5 e5 58 db          	vaddpd %ymm3,%ymm3,%ymm3
  4012d2:	c5 ed 58 d2          	vaddpd %ymm2,%ymm2,%ymm2
  4012d6:	c5 f5 58 c9          	vaddpd %ymm1,%ymm1,%ymm1
  4012da:	c5 fd 58 c0          	vaddpd %ymm0,%ymm0,%ymm0
  4012de:	c5 c5 58 ff          	vaddpd %ymm7,%ymm7,%ymm7
  4012e2:	c5 cd 58 f6          	vaddpd %ymm6,%ymm6,%ymm6
  4012e6:	c5 d5 58 ed          	vaddpd %ymm5,%ymm5,%ymm5
  4012ea:	c5 dd 58 e4          	vaddpd %ymm4,%ymm4,%ymm4
  4012ee:	c5 e5 58 db          	vaddpd %ymm3,%ymm3,%ymm3
  4012f2:	c5 ed 58 d2          	vaddpd %ymm2,%ymm2,%ymm2
  4012f6:	c5 f5 58 c9          	vaddpd %ymm1,%ymm1,%ymm1
  4012fa:	c5 fd 58 c0          	vaddpd %ymm0,%ymm0,%ymm0
  4012fe:	c5 c5 58 ff          	vaddpd %ymm7,%ymm7,%ymm7
  401302:	c5 cd 58 f6          	vaddpd %ymm6,%ymm6,%ymm6
  401306:	c5 d5 58 ed          	vaddpd %ymm5,%ymm5,%ymm5
  40130a:	c5 dd 58 e4          	vaddpd %ymm4,%ymm4,%ymm4
  40130e:	c5 e5 58 db          	vaddpd %ymm3,%ymm3,%ymm3
  401312:	c5 ed 58 d2          	vaddpd %ymm2,%ymm2,%ymm2
  401316:	c5 f5 58 c9          	vaddpd %ymm1,%ymm1,%ymm1
  40131a:	c5 fd 58 c0          	vaddpd %ymm0,%ymm0,%ymm0
  40131e:	c5 c5 58 ff          	vaddpd %ymm7,%ymm7,%ymm7
  401322:	c5 cd 58 f6          	vaddpd %ymm6,%ymm6,%ymm6
  401326:	c5 d5 58 ed          	vaddpd %ymm5,%ymm5,%ymm5
  40132a:	c5 dd 58 e4          	vaddpd %ymm4,%ymm4,%ymm4
  40132e:	c5 e5 58 db          	vaddpd %ymm3,%ymm3,%ymm3
  401332:	c5 ed 58 d2          	vaddpd %ymm2,%ymm2,%ymm2
  401336:	c5 f5 58 c9          	vaddpd %ymm1,%ymm1,%ymm1
  40133a:	c5 fd 58 c0          	vaddpd %ymm0,%ymm0,%ymm0
  40133e:	c5 c5 58 ff          	vaddpd %ymm7,%ymm7,%ymm7
  401342:	c5 cd 58 f6          	vaddpd %ymm6,%ymm6,%ymm6
  401346:	c5 d5 58 ed          	vaddpd %ymm5,%ymm5,%ymm5
  40134a:	c5 dd 58 e4          	vaddpd %ymm4,%ymm4,%ymm4
  40134e:	c5 e5 58 db          	vaddpd %ymm3,%ymm3,%ymm3
  401352:	c5 ed 58 d2          	vaddpd %ymm2,%ymm2,%ymm2
  401356:	c5 f5 58 c9          	vaddpd %ymm1,%ymm1,%ymm1
  40135a:	c5 fd 58 c0          	vaddpd %ymm0,%ymm0,%ymm0
  40135e:	c5 c5 58 ff          	vaddpd %ymm7,%ymm7,%ymm7
  401362:	c5 cd 58 f6          	vaddpd %ymm6,%ymm6,%ymm6
  401366:	c5 d5 58 ed          	vaddpd %ymm5,%ymm5,%ymm5
  40136a:	c5 dd 58 e4          	vaddpd %ymm4,%ymm4,%ymm4
  40136e:	c5 e5 58 db          	vaddpd %ymm3,%ymm3,%ymm3
  401372:	c5 ed 58 d2          	vaddpd %ymm2,%ymm2,%ymm2
  401376:	c5 f5 58 c9          	vaddpd %ymm1,%ymm1,%ymm1
  40137a:	c5 fd 58 c0          	vaddpd %ymm0,%ymm0,%ymm0
  40137e:	c5 c5 58 ff          	vaddpd %ymm7,%ymm7,%ymm7
  401382:	c5 cd 58 f6          	vaddpd %ymm6,%ymm6,%ymm6
  401386:	c5 d5 58 ed          	vaddpd %ymm5,%ymm5,%ymm5
  40138a:	c5 dd 58 e4          	vaddpd %ymm4,%ymm4,%ymm4
  40138e:	c5 e5 58 db          	vaddpd %ymm3,%ymm3,%ymm3
  401392:	c5 ed 58 d2          	vaddpd %ymm2,%ymm2,%ymm2
  401396:	c5 f5 58 c9          	vaddpd %ymm1,%ymm1,%ymm1
  40139a:	c5 fd 58 c0          	vaddpd %ymm0,%ymm0,%ymm0
  40139e:	c5 c5 58 ff          	vaddpd %ymm7,%ymm7,%ymm7
  4013a2:	c5 cd 58 f6          	vaddpd %ymm6,%ymm6,%ymm6
  4013a6:	c5 d5 58 ed          	vaddpd %ymm5,%ymm5,%ymm5
  4013aa:	c5 dd 58 e4          	vaddpd %ymm4,%ymm4,%ymm4
  4013ae:	c5 e5 58 db          	vaddpd %ymm3,%ymm3,%ymm3
  4013b2:	c5 ed 58 d2          	vaddpd %ymm2,%ymm2,%ymm2
  4013b6:	c5 f5 58 c9          	vaddpd %ymm1,%ymm1,%ymm1
  4013ba:	c5 fd 58 c0          	vaddpd %ymm0,%ymm0,%ymm0
  4013be:	c5 c5 58 ff          	vaddpd %ymm7,%ymm7,%ymm7
  4013c2:	c5 cd 58 f6          	vaddpd %ymm6,%ymm6,%ymm6
  4013c6:	c5 d5 58 ed          	vaddpd %ymm5,%ymm5,%ymm5
  4013ca:	c5 dd 58 e4          	vaddpd %ymm4,%ymm4,%ymm4
  4013ce:	c5 e5 58 db          	vaddpd %ymm3,%ymm3,%ymm3
  4013d2:	c5 ed 58 d2          	vaddpd %ymm2,%ymm2,%ymm2
  4013d6:	c5 f5 58 c9          	vaddpd %ymm1,%ymm1,%ymm1
  4013da:	c5 fd 58 c0          	vaddpd %ymm0,%ymm0,%ymm0
  4013de:	c5 c5 58 ff          	vaddpd %ymm7,%ymm7,%ymm7
  4013e2:	c5 cd 58 f6          	vaddpd %ymm6,%ymm6,%ymm6
  4013e6:	c5 d5 58 ed          	vaddpd %ymm5,%ymm5,%ymm5
  4013ea:	c5 dd 58 e4          	vaddpd %ymm4,%ymm4,%ymm4
  4013ee:	c5 e5 58 db          	vaddpd %ymm3,%ymm3,%ymm3
  4013f2:	c5 ed 58 d2          	vaddpd %ymm2,%ymm2,%ymm2
  4013f6:	c5 f5 58 c9          	vaddpd %ymm1,%ymm1,%ymm1
  4013fa:	c5 fd 58 c0          	vaddpd %ymm0,%ymm0,%ymm0
  4013fe:	c5 c5 58 ff          	vaddpd %ymm7,%ymm7,%ymm7
  401402:	c5 cd 58 f6          	vaddpd %ymm6,%ymm6,%ymm6
  401406:	c5 d5 58 ed          	vaddpd %ymm5,%ymm5,%ymm5
  40140a:	c5 dd 58 e4          	vaddpd %ymm4,%ymm4,%ymm4
  40140e:	c5 e5 58 db          	vaddpd %ymm3,%ymm3,%ymm3
  401412:	c5 ed 58 d2          	vaddpd %ymm2,%ymm2,%ymm2
  401416:	c5 f5 58 c9          	vaddpd %ymm1,%ymm1,%ymm1
  40141a:	c5 fd 58 c0          	vaddpd %ymm0,%ymm0,%ymm0
  40141e:	c5 c5 58 ff          	vaddpd %ymm7,%ymm7,%ymm7
  401422:	c5 cd 58 f6          	vaddpd %ymm6,%ymm6,%ymm6
  401426:	c5 d5 58 ed          	vaddpd %ymm5,%ymm5,%ymm5
  40142a:	c5 dd 58 e4          	vaddpd %ymm4,%ymm4,%ymm4
  40142e:	c5 e5 58 db          	vaddpd %ymm3,%ymm3,%ymm3
  401432:	c5 ed 58 d2          	vaddpd %ymm2,%ymm2,%ymm2
  401436:	c5 f5 58 c9          	vaddpd %ymm1,%ymm1,%ymm1
  40143a:	c5 fd 58 c0          	vaddpd %ymm0,%ymm0,%ymm0
  40143e:	c5 c5 58 ff          	vaddpd %ymm7,%ymm7,%ymm7
  401442:	c5 cd 58 f6          	vaddpd %ymm6,%ymm6,%ymm6
  401446:	c5 d5 58 ed          	vaddpd %ymm5,%ymm5,%ymm5
  40144a:	c5 dd 58 e4          	vaddpd %ymm4,%ymm4,%ymm4
  40144e:	c5 e5 58 db          	vaddpd %ymm3,%ymm3,%ymm3
  401452:	c5 ed 58 d2          	vaddpd %ymm2,%ymm2,%ymm2
  401456:	c5 f5 58 c9          	vaddpd %ymm1,%ymm1,%ymm1
  40145a:	c5 fd 58 c0          	vaddpd %ymm0,%ymm0,%ymm0
  40145e:	c5 c5 58 ff          	vaddpd %ymm7,%ymm7,%ymm7
  401462:	c5 cd 58 f6          	vaddpd %ymm6,%ymm6,%ymm6
  401466:	c5 d5 58 ed          	vaddpd %ymm5,%ymm5,%ymm5
  40146a:	c5 dd 58 e4          	vaddpd %ymm4,%ymm4,%ymm4
  40146e:	c5 e5 58 db          	vaddpd %ymm3,%ymm3,%ymm3
  401472:	c5 ed 58 d2          	vaddpd %ymm2,%ymm2,%ymm2
  401476:	c5 f5 58 c9          	vaddpd %ymm1,%ymm1,%ymm1
  40147a:	c5 fd 58 c0          	vaddpd %ymm0,%ymm0,%ymm0
  40147e:	c5 c5 58 ff          	vaddpd %ymm7,%ymm7,%ymm7
  401482:	c5 cd 58 f6          	vaddpd %ymm6,%ymm6,%ymm6
  401486:	c5 d5 58 ed          	vaddpd %ymm5,%ymm5,%ymm5
  40148a:	c5 dd 58 e4          	vaddpd %ymm4,%ymm4,%ymm4
  40148e:	c5 e5 58 db          	vaddpd %ymm3,%ymm3,%ymm3
  401492:	c5 ed 58 d2          	vaddpd %ymm2,%ymm2,%ymm2
  401496:	c5 f5 58 c9          	vaddpd %ymm1,%ymm1,%ymm1
  40149a:	c5 fd 58 c0          	vaddpd %ymm0,%ymm0,%ymm0
  40149e:	c5 c5 58 ff          	vaddpd %ymm7,%ymm7,%ymm7
  4014a2:	c5 cd 58 f6          	vaddpd %ymm6,%ymm6,%ymm6
  4014a6:	c5 d5 58 ed          	vaddpd %ymm5,%ymm5,%ymm5
  4014aa:	c5 dd 58 e4          	vaddpd %ymm4,%ymm4,%ymm4
  4014ae:	c5 e5 58 db          	vaddpd %ymm3,%ymm3,%ymm3
  4014b2:	c5 ed 58 d2          	vaddpd %ymm2,%ymm2,%ymm2
  4014b6:	c5 f5 58 c9          	vaddpd %ymm1,%ymm1,%ymm1
  4014ba:	c5 fd 58 c0          	vaddpd %ymm0,%ymm0,%ymm0
  4014be:	c5 c5 58 ff          	vaddpd %ymm7,%ymm7,%ymm7
  4014c2:	c5 cd 58 f6          	vaddpd %ymm6,%ymm6,%ymm6
  4014c6:	c5 d5 58 ed          	vaddpd %ymm5,%ymm5,%ymm5
  4014ca:	c5 dd 58 e4          	vaddpd %ymm4,%ymm4,%ymm4
  4014ce:	c5 e5 58 db          	vaddpd %ymm3,%ymm3,%ymm3
  4014d2:	c5 ed 58 d2          	vaddpd %ymm2,%ymm2,%ymm2
  4014d6:	c5 f5 58 c9          	vaddpd %ymm1,%ymm1,%ymm1
  4014da:	c5 fd 58 c0          	vaddpd %ymm0,%ymm0,%ymm0
  4014de:	c5 c5 58 ff          	vaddpd %ymm7,%ymm7,%ymm7
  4014e2:	c5 cd 58 f6          	vaddpd %ymm6,%ymm6,%ymm6
  4014e6:	c5 d5 58 ed          	vaddpd %ymm5,%ymm5,%ymm5
  4014ea:	c5 dd 58 e4          	vaddpd %ymm4,%ymm4,%ymm4
  4014ee:	c5 e5 58 db          	vaddpd %ymm3,%ymm3,%ymm3
  4014f2:	c5 ed 58 d2          	vaddpd %ymm2,%ymm2,%ymm2
  4014f6:	c5 f5 58 c9          	vaddpd %ymm1,%ymm1,%ymm1
  4014fa:	c5 fd 58 c0          	vaddpd %ymm0,%ymm0,%ymm0
  4014fe:	c5 c5 58 ff          	vaddpd %ymm7,%ymm7,%ymm7
  401502:	c5 cd 58 f6          	vaddpd %ymm6,%ymm6,%ymm6
  401506:	c5 d5 58 ed          	vaddpd %ymm5,%ymm5,%ymm5
  40150a:	c5 dd 58 e4          	vaddpd %ymm4,%ymm4,%ymm4
  40150e:	c5 e5 58 db          	vaddpd %ymm3,%ymm3,%ymm3
  401512:	c5 ed 58 d2          	vaddpd %ymm2,%ymm2,%ymm2
  401516:	c5 f5 58 c9          	vaddpd %ymm1,%ymm1,%ymm1
  40151a:	c5 fd 58 c0          	vaddpd %ymm0,%ymm0,%ymm0
  40151e:	c5 c5 58 ff          	vaddpd %ymm7,%ymm7,%ymm7
  401522:	c5 cd 58 f6          	vaddpd %ymm6,%ymm6,%ymm6
  401526:	c5 d5 58 ed          	vaddpd %ymm5,%ymm5,%ymm5
  40152a:	c5 dd 58 e4          	vaddpd %ymm4,%ymm4,%ymm4
  40152e:	c5 e5 58 db          	vaddpd %ymm3,%ymm3,%ymm3
  401532:	c5 ed 58 d2          	vaddpd %ymm2,%ymm2,%ymm2
  401536:	c5 f5 58 c9          	vaddpd %ymm1,%ymm1,%ymm1
  40153a:	c5 fd 58 c0          	vaddpd %ymm0,%ymm0,%ymm0
  40153e:	c5 c5 58 ff          	vaddpd %ymm7,%ymm7,%ymm7
  401542:	c5 cd 58 f6          	vaddpd %ymm6,%ymm6,%ymm6
  401546:	c5 d5 58 ed          	vaddpd %ymm5,%ymm5,%ymm5
  40154a:	c5 dd 58 e4          	vaddpd %ymm4,%ymm4,%ymm4
  40154e:	c5 e5 58 db          	vaddpd %ymm3,%ymm3,%ymm3
  401552:	c5 ed 58 d2          	vaddpd %ymm2,%ymm2,%ymm2
  401556:	c5 f5 58 c9          	vaddpd %ymm1,%ymm1,%ymm1
  40155a:	c5 fd 58 c0          	vaddpd %ymm0,%ymm0,%ymm0
  40155e:	c5 c5 58 ff          	vaddpd %ymm7,%ymm7,%ymm7
  401562:	c5 cd 58 f6          	vaddpd %ymm6,%ymm6,%ymm6
  401566:	c5 d5 58 ed          	vaddpd %ymm5,%ymm5,%ymm5
  40156a:	c5 dd 58 e4          	vaddpd %ymm4,%ymm4,%ymm4
  40156e:	c5 e5 58 db          	vaddpd %ymm3,%ymm3,%ymm3
  401572:	c5 ed 58 d2          	vaddpd %ymm2,%ymm2,%ymm2
  401576:	c5 f5 58 c9          	vaddpd %ymm1,%ymm1,%ymm1
  40157a:	c5 fd 58 c0          	vaddpd %ymm0,%ymm0,%ymm0
  40157e:	c5 c5 58 ff          	vaddpd %ymm7,%ymm7,%ymm7
  401582:	c5 cd 58 f6          	vaddpd %ymm6,%ymm6,%ymm6
  401586:	c5 d5 58 ed          	vaddpd %ymm5,%ymm5,%ymm5
  40158a:	c5 dd 58 e4          	vaddpd %ymm4,%ymm4,%ymm4
  40158e:	c5 e5 58 db          	vaddpd %ymm3,%ymm3,%ymm3
  401592:	c5 ed 58 d2          	vaddpd %ymm2,%ymm2,%ymm2
  401596:	c5 f5 58 c9          	vaddpd %ymm1,%ymm1,%ymm1
  40159a:	c5 fd 58 c0          	vaddpd %ymm0,%ymm0,%ymm0
  40159e:	c5 c5 58 ff          	vaddpd %ymm7,%ymm7,%ymm7
  4015a2:	c5 cd 58 f6          	vaddpd %ymm6,%ymm6,%ymm6
  4015a6:	c5 d5 58 ed          	vaddpd %ymm5,%ymm5,%ymm5
  4015aa:	c5 dd 58 e4          	vaddpd %ymm4,%ymm4,%ymm4
  4015ae:	c5 e5 58 db          	vaddpd %ymm3,%ymm3,%ymm3
  4015b2:	c5 ed 58 d2          	vaddpd %ymm2,%ymm2,%ymm2
  4015b6:	c5 f5 58 c9          	vaddpd %ymm1,%ymm1,%ymm1
  4015ba:	c5 fd 58 c0          	vaddpd %ymm0,%ymm0,%ymm0
  4015be:	c5 c5 58 ff          	vaddpd %ymm7,%ymm7,%ymm7
  4015c2:	c5 cd 58 f6          	vaddpd %ymm6,%ymm6,%ymm6
  4015c6:	c5 d5 58 ed          	vaddpd %ymm5,%ymm5,%ymm5
  4015ca:	c5 dd 58 e4          	vaddpd %ymm4,%ymm4,%ymm4
  4015ce:	c5 e5 58 db          	vaddpd %ymm3,%ymm3,%ymm3
  4015d2:	c5 ed 58 d2          	vaddpd %ymm2,%ymm2,%ymm2
  4015d6:	c5 f5 58 c9          	vaddpd %ymm1,%ymm1,%ymm1
  4015da:	c5 fd 58 c0          	vaddpd %ymm0,%ymm0,%ymm0
  4015de:	c5 c5 58 ff          	vaddpd %ymm7,%ymm7,%ymm7
  4015e2:	c5 cd 58 f6          	vaddpd %ymm6,%ymm6,%ymm6
  4015e6:	c5 d5 58 ed          	vaddpd %ymm5,%ymm5,%ymm5
  4015ea:	c5 dd 58 e4          	vaddpd %ymm4,%ymm4,%ymm4
  4015ee:	c5 e5 58 db          	vaddpd %ymm3,%ymm3,%ymm3
  4015f2:	c5 ed 58 d2          	vaddpd %ymm2,%ymm2,%ymm2
  4015f6:	c5 f5 58 c9          	vaddpd %ymm1,%ymm1,%ymm1
  4015fa:	c5 fd 58 c0          	vaddpd %ymm0,%ymm0,%ymm0
  4015fe:	c5 c5 58 ff          	vaddpd %ymm7,%ymm7,%ymm7
  401602:	c5 cd 58 f6          	vaddpd %ymm6,%ymm6,%ymm6
  401606:	c5 d5 58 ed          	vaddpd %ymm5,%ymm5,%ymm5
  40160a:	c5 dd 58 e4          	vaddpd %ymm4,%ymm4,%ymm4
  40160e:	c5 e5 58 db          	vaddpd %ymm3,%ymm3,%ymm3
  401612:	c5 ed 58 d2          	vaddpd %ymm2,%ymm2,%ymm2
  401616:	c5 f5 58 c9          	vaddpd %ymm1,%ymm1,%ymm1
  40161a:	c5 fd 58 c0          	vaddpd %ymm0,%ymm0,%ymm0
  40161e:	c5 c5 58 ff          	vaddpd %ymm7,%ymm7,%ymm7
  401622:	c5 cd 58 f6          	vaddpd %ymm6,%ymm6,%ymm6
  401626:	c5 d5 58 ed          	vaddpd %ymm5,%ymm5,%ymm5
  40162a:	c5 dd 58 e4          	vaddpd %ymm4,%ymm4,%ymm4
  40162e:	c5 e5 58 db          	vaddpd %ymm3,%ymm3,%ymm3
  401632:	c5 ed 58 d2          	vaddpd %ymm2,%ymm2,%ymm2
  401636:	c5 f5 58 c9          	vaddpd %ymm1,%ymm1,%ymm1
  40163a:	c5 fd 58 c0          	vaddpd %ymm0,%ymm0,%ymm0
  40163e:	c5 c5 58 ff          	vaddpd %ymm7,%ymm7,%ymm7
  401642:	c5 cd 58 f6          	vaddpd %ymm6,%ymm6,%ymm6
  401646:	c5 d5 58 ed          	vaddpd %ymm5,%ymm5,%ymm5
  40164a:	c5 dd 58 e4          	vaddpd %ymm4,%ymm4,%ymm4
  40164e:	c5 e5 58 db          	vaddpd %ymm3,%ymm3,%ymm3
  401652:	c5 ed 58 d2          	vaddpd %ymm2,%ymm2,%ymm2
  401656:	c5 f5 58 c9          	vaddpd %ymm1,%ymm1,%ymm1
  40165a:	c5 fd 58 c0          	vaddpd %ymm0,%ymm0,%ymm0
  40165e:	c5 c5 58 ff          	vaddpd %ymm7,%ymm7,%ymm7
  401662:	c5 cd 58 f6          	vaddpd %ymm6,%ymm6,%ymm6
  401666:	c5 d5 58 ed          	vaddpd %ymm5,%ymm5,%ymm5
  40166a:	c5 dd 58 e4          	vaddpd %ymm4,%ymm4,%ymm4
  40166e:	c5 e5 58 db          	vaddpd %ymm3,%ymm3,%ymm3
  401672:	c5 ed 58 d2          	vaddpd %ymm2,%ymm2,%ymm2
  401676:	c5 f5 58 c9          	vaddpd %ymm1,%ymm1,%ymm1
  40167a:	c5 fd 58 c0          	vaddpd %ymm0,%ymm0,%ymm0
  40167e:	c5 c5 58 ff          	vaddpd %ymm7,%ymm7,%ymm7
  401682:	c5 cd 58 f6          	vaddpd %ymm6,%ymm6,%ymm6
  401686:	c5 d5 58 ed          	vaddpd %ymm5,%ymm5,%ymm5
  40168a:	c5 dd 58 e4          	vaddpd %ymm4,%ymm4,%ymm4
  40168e:	c5 e5 58 db          	vaddpd %ymm3,%ymm3,%ymm3
  401692:	c5 ed 58 d2          	vaddpd %ymm2,%ymm2,%ymm2
  401696:	c5 f5 58 c9          	vaddpd %ymm1,%ymm1,%ymm1
  40169a:	c5 fd 58 c0          	vaddpd %ymm0,%ymm0,%ymm0
  40169e:	c5 c5 58 ff          	vaddpd %ymm7,%ymm7,%ymm7
  4016a2:	c5 cd 58 f6          	vaddpd %ymm6,%ymm6,%ymm6
  4016a6:	c5 d5 58 ed          	vaddpd %ymm5,%ymm5,%ymm5
  4016aa:	c5 dd 58 e4          	vaddpd %ymm4,%ymm4,%ymm4
  4016ae:	c5 e5 58 db          	vaddpd %ymm3,%ymm3,%ymm3
  4016b2:	c5 ed 58 d2          	vaddpd %ymm2,%ymm2,%ymm2
  4016b6:	c5 f5 58 c9          	vaddpd %ymm1,%ymm1,%ymm1
  4016ba:	c5 fd 58 c0          	vaddpd %ymm0,%ymm0,%ymm0
  4016be:	c5 c5 58 ff          	vaddpd %ymm7,%ymm7,%ymm7
  4016c2:	c5 cd 58 f6          	vaddpd %ymm6,%ymm6,%ymm6
  4016c6:	c5 d5 58 ed          	vaddpd %ymm5,%ymm5,%ymm5
  4016ca:	c5 dd 58 e4          	vaddpd %ymm4,%ymm4,%ymm4
  4016ce:	c5 e5 58 db          	vaddpd %ymm3,%ymm3,%ymm3
  4016d2:	c5 ed 58 d2          	vaddpd %ymm2,%ymm2,%ymm2
  4016d6:	c5 f5 58 c9          	vaddpd %ymm1,%ymm1,%ymm1
  4016da:	c5 fd 58 c0          	vaddpd %ymm0,%ymm0,%ymm0
  4016de:	c5 c5 58 ff          	vaddpd %ymm7,%ymm7,%ymm7
  4016e2:	c5 cd 58 f6          	vaddpd %ymm6,%ymm6,%ymm6
  4016e6:	c5 d5 58 ed          	vaddpd %ymm5,%ymm5,%ymm5
  4016ea:	c5 dd 58 e4          	vaddpd %ymm4,%ymm4,%ymm4
  4016ee:	c5 e5 58 db          	vaddpd %ymm3,%ymm3,%ymm3
  4016f2:	c5 ed 58 d2          	vaddpd %ymm2,%ymm2,%ymm2
  4016f6:	c5 f5 58 c9          	vaddpd %ymm1,%ymm1,%ymm1
  4016fa:	c5 fd 58 c0          	vaddpd %ymm0,%ymm0,%ymm0
  4016fe:	c5 c5 58 ff          	vaddpd %ymm7,%ymm7,%ymm7
  401702:	c5 cd 58 f6          	vaddpd %ymm6,%ymm6,%ymm6
  401706:	c5 d5 58 ed          	vaddpd %ymm5,%ymm5,%ymm5
  40170a:	c5 dd 58 e4          	vaddpd %ymm4,%ymm4,%ymm4
  40170e:	c5 e5 58 db          	vaddpd %ymm3,%ymm3,%ymm3
  401712:	c5 ed 58 d2          	vaddpd %ymm2,%ymm2,%ymm2
  401716:	c5 f5 58 c9          	vaddpd %ymm1,%ymm1,%ymm1
  40171a:	c5 fd 58 c0          	vaddpd %ymm0,%ymm0,%ymm0
  40171e:	c5 c5 58 ff          	vaddpd %ymm7,%ymm7,%ymm7
  401722:	c5 cd 58 f6          	vaddpd %ymm6,%ymm6,%ymm6
  401726:	c5 d5 58 ed          	vaddpd %ymm5,%ymm5,%ymm5
  40172a:	c5 dd 58 e4          	vaddpd %ymm4,%ymm4,%ymm4
  40172e:	c5 e5 58 db          	vaddpd %ymm3,%ymm3,%ymm3
  401732:	c5 ed 58 d2          	vaddpd %ymm2,%ymm2,%ymm2
  401736:	c5 f5 58 c9          	vaddpd %ymm1,%ymm1,%ymm1
  40173a:	c5 fd 58 c0          	vaddpd %ymm0,%ymm0,%ymm0
  40173e:	c5 c5 58 ff          	vaddpd %ymm7,%ymm7,%ymm7
  401742:	c5 cd 58 f6          	vaddpd %ymm6,%ymm6,%ymm6
  401746:	c5 d5 58 ed          	vaddpd %ymm5,%ymm5,%ymm5
  40174a:	c5 dd 58 e4          	vaddpd %ymm4,%ymm4,%ymm4
  40174e:	c5 e5 58 db          	vaddpd %ymm3,%ymm3,%ymm3
  401752:	c5 ed 58 d2          	vaddpd %ymm2,%ymm2,%ymm2
  401756:	c5 f5 58 c9          	vaddpd %ymm1,%ymm1,%ymm1
  40175a:	c5 fd 58 c0          	vaddpd %ymm0,%ymm0,%ymm0
  40175e:	c5 c5 58 ff          	vaddpd %ymm7,%ymm7,%ymm7
  401762:	c5 cd 58 f6          	vaddpd %ymm6,%ymm6,%ymm6
  401766:	c5 d5 58 ed          	vaddpd %ymm5,%ymm5,%ymm5
  40176a:	c5 dd 58 e4          	vaddpd %ymm4,%ymm4,%ymm4
  40176e:	c5 e5 58 db          	vaddpd %ymm3,%ymm3,%ymm3
  401772:	c5 ed 58 d2          	vaddpd %ymm2,%ymm2,%ymm2
  401776:	c5 f5 58 c9          	vaddpd %ymm1,%ymm1,%ymm1
  40177a:	c5 fd 58 c0          	vaddpd %ymm0,%ymm0,%ymm0
  40177e:	c5 c5 58 ff          	vaddpd %ymm7,%ymm7,%ymm7
  401782:	c5 cd 58 f6          	vaddpd %ymm6,%ymm6,%ymm6
  401786:	c5 d5 58 ed          	vaddpd %ymm5,%ymm5,%ymm5
  40178a:	c5 dd 58 e4          	vaddpd %ymm4,%ymm4,%ymm4
  40178e:	c5 e5 58 db          	vaddpd %ymm3,%ymm3,%ymm3
  401792:	c5 ed 58 d2          	vaddpd %ymm2,%ymm2,%ymm2
  401796:	c5 f5 58 c9          	vaddpd %ymm1,%ymm1,%ymm1
  40179a:	c5 fd 58 c0          	vaddpd %ymm0,%ymm0,%ymm0
  40179e:	c5 c5 58 ff          	vaddpd %ymm7,%ymm7,%ymm7
  4017a2:	c5 cd 58 f6          	vaddpd %ymm6,%ymm6,%ymm6
  4017a6:	c5 d5 58 ed          	vaddpd %ymm5,%ymm5,%ymm5
  4017aa:	c5 dd 58 e4          	vaddpd %ymm4,%ymm4,%ymm4
  4017ae:	c5 e5 58 db          	vaddpd %ymm3,%ymm3,%ymm3
  4017b2:	c5 ed 58 d2          	vaddpd %ymm2,%ymm2,%ymm2
  4017b6:	c5 f5 58 c9          	vaddpd %ymm1,%ymm1,%ymm1
  4017ba:	c5 fd 58 c0          	vaddpd %ymm0,%ymm0,%ymm0
  4017be:	c5 c5 58 ff          	vaddpd %ymm7,%ymm7,%ymm7
  4017c2:	c5 cd 58 f6          	vaddpd %ymm6,%ymm6,%ymm6
  4017c6:	c5 d5 58 ed          	vaddpd %ymm5,%ymm5,%ymm5
  4017ca:	c5 dd 58 e4          	vaddpd %ymm4,%ymm4,%ymm4
  4017ce:	c5 e5 58 db          	vaddpd %ymm3,%ymm3,%ymm3
  4017d2:	c5 ed 58 d2          	vaddpd %ymm2,%ymm2,%ymm2
  4017d6:	c5 f5 58 c9          	vaddpd %ymm1,%ymm1,%ymm1
  4017da:	c5 fd 58 c0          	vaddpd %ymm0,%ymm0,%ymm0
  4017de:	c5 c5 58 ff          	vaddpd %ymm7,%ymm7,%ymm7
  4017e2:	c5 cd 58 f6          	vaddpd %ymm6,%ymm6,%ymm6
  4017e6:	c5 d5 58 ed          	vaddpd %ymm5,%ymm5,%ymm5
  4017ea:	c5 dd 58 e4          	vaddpd %ymm4,%ymm4,%ymm4
  4017ee:	c5 e5 58 db          	vaddpd %ymm3,%ymm3,%ymm3
  4017f2:	c5 ed 58 d2          	vaddpd %ymm2,%ymm2,%ymm2
  4017f6:	c5 f5 58 c9          	vaddpd %ymm1,%ymm1,%ymm1
  4017fa:	c5 fd 58 c0          	vaddpd %ymm0,%ymm0,%ymm0
  4017fe:	c5 c5 58 ff          	vaddpd %ymm7,%ymm7,%ymm7
  401802:	c5 cd 58 f6          	vaddpd %ymm6,%ymm6,%ymm6
  401806:	c5 d5 58 ed          	vaddpd %ymm5,%ymm5,%ymm5
  40180a:	c5 dd 58 e4          	vaddpd %ymm4,%ymm4,%ymm4
  40180e:	c5 e5 58 db          	vaddpd %ymm3,%ymm3,%ymm3
  401812:	c5 ed 58 d2          	vaddpd %ymm2,%ymm2,%ymm2
  401816:	c5 f5 58 c9          	vaddpd %ymm1,%ymm1,%ymm1
  40181a:	c5 fd 58 c0          	vaddpd %ymm0,%ymm0,%ymm0
  40181e:	c5 c5 58 ff          	vaddpd %ymm7,%ymm7,%ymm7
  401822:	c5 cd 58 f6          	vaddpd %ymm6,%ymm6,%ymm6
  401826:	c5 d5 58 ed          	vaddpd %ymm5,%ymm5,%ymm5
  40182a:	c5 dd 58 e4          	vaddpd %ymm4,%ymm4,%ymm4
  40182e:	c5 e5 58 db          	vaddpd %ymm3,%ymm3,%ymm3
  401832:	c5 ed 58 d2          	vaddpd %ymm2,%ymm2,%ymm2
  401836:	c5 f5 58 c9          	vaddpd %ymm1,%ymm1,%ymm1
  40183a:	c5 fd 58 c0          	vaddpd %ymm0,%ymm0,%ymm0
  40183e:	c5 c5 58 ff          	vaddpd %ymm7,%ymm7,%ymm7
  401842:	c5 cd 58 f6          	vaddpd %ymm6,%ymm6,%ymm6
  401846:	c5 d5 58 ed          	vaddpd %ymm5,%ymm5,%ymm5
  40184a:	c5 dd 58 e4          	vaddpd %ymm4,%ymm4,%ymm4
  40184e:	c5 e5 58 db          	vaddpd %ymm3,%ymm3,%ymm3
  401852:	c5 ed 58 d2          	vaddpd %ymm2,%ymm2,%ymm2
  401856:	c5 f5 58 c9          	vaddpd %ymm1,%ymm1,%ymm1
  40185a:	c5 fd 58 c0          	vaddpd %ymm0,%ymm0,%ymm0
  40185e:	c5 c5 58 ff          	vaddpd %ymm7,%ymm7,%ymm7
  401862:	c5 cd 58 f6          	vaddpd %ymm6,%ymm6,%ymm6
  401866:	c5 d5 58 ed          	vaddpd %ymm5,%ymm5,%ymm5
  40186a:	c5 dd 58 e4          	vaddpd %ymm4,%ymm4,%ymm4
  40186e:	c5 e5 58 db          	vaddpd %ymm3,%ymm3,%ymm3
  401872:	c5 ed 58 d2          	vaddpd %ymm2,%ymm2,%ymm2
  401876:	c5 f5 58 c9          	vaddpd %ymm1,%ymm1,%ymm1
  40187a:	c5 fd 58 c0          	vaddpd %ymm0,%ymm0,%ymm0
  40187e:	c5 c5 58 ff          	vaddpd %ymm7,%ymm7,%ymm7
  401882:	c5 cd 58 f6          	vaddpd %ymm6,%ymm6,%ymm6
  401886:	c5 d5 58 ed          	vaddpd %ymm5,%ymm5,%ymm5
  40188a:	c5 dd 58 e4          	vaddpd %ymm4,%ymm4,%ymm4
  40188e:	c5 e5 58 db          	vaddpd %ymm3,%ymm3,%ymm3
  401892:	c5 ed 58 d2          	vaddpd %ymm2,%ymm2,%ymm2
  401896:	c5 f5 58 c9          	vaddpd %ymm1,%ymm1,%ymm1
  40189a:	c5 fd 58 c0          	vaddpd %ymm0,%ymm0,%ymm0
  40189e:	c5 c5 58 ff          	vaddpd %ymm7,%ymm7,%ymm7
  4018a2:	c5 cd 58 f6          	vaddpd %ymm6,%ymm6,%ymm6
  4018a6:	c5 d5 58 ed          	vaddpd %ymm5,%ymm5,%ymm5
  4018aa:	c5 dd 58 e4          	vaddpd %ymm4,%ymm4,%ymm4
  4018ae:	c5 e5 58 db          	vaddpd %ymm3,%ymm3,%ymm3
  4018b2:	c5 ed 58 d2          	vaddpd %ymm2,%ymm2,%ymm2
  4018b6:	c5 f5 58 c9          	vaddpd %ymm1,%ymm1,%ymm1
  4018ba:	c5 fd 58 c0          	vaddpd %ymm0,%ymm0,%ymm0
  4018be:	c5 c5 58 ff          	vaddpd %ymm7,%ymm7,%ymm7
  4018c2:	c5 cd 58 f6          	vaddpd %ymm6,%ymm6,%ymm6
  4018c6:	c5 d5 58 ed          	vaddpd %ymm5,%ymm5,%ymm5
  4018ca:	c5 dd 58 e4          	vaddpd %ymm4,%ymm4,%ymm4
  4018ce:	c5 e5 58 db          	vaddpd %ymm3,%ymm3,%ymm3
  4018d2:	c5 ed 58 d2          	vaddpd %ymm2,%ymm2,%ymm2
  4018d6:	c5 f5 58 c9          	vaddpd %ymm1,%ymm1,%ymm1
  4018da:	c5 fd 58 c0          	vaddpd %ymm0,%ymm0,%ymm0
  4018de:	c5 c5 58 ff          	vaddpd %ymm7,%ymm7,%ymm7
  4018e2:	c5 cd 58 f6          	vaddpd %ymm6,%ymm6,%ymm6
  4018e6:	c5 d5 58 ed          	vaddpd %ymm5,%ymm5,%ymm5
  4018ea:	c5 dd 58 e4          	vaddpd %ymm4,%ymm4,%ymm4
  4018ee:	c5 e5 58 db          	vaddpd %ymm3,%ymm3,%ymm3
  4018f2:	c5 ed 58 d2          	vaddpd %ymm2,%ymm2,%ymm2
  4018f6:	c5 f5 58 c9          	vaddpd %ymm1,%ymm1,%ymm1
  4018fa:	c5 fd 58 c0          	vaddpd %ymm0,%ymm0,%ymm0
  4018fe:	c5 c5 58 ff          	vaddpd %ymm7,%ymm7,%ymm7
  401902:	c5 cd 58 f6          	vaddpd %ymm6,%ymm6,%ymm6
  401906:	c5 d5 58 ed          	vaddpd %ymm5,%ymm5,%ymm5
  40190a:	c5 dd 58 e4          	vaddpd %ymm4,%ymm4,%ymm4
  40190e:	c5 e5 58 db          	vaddpd %ymm3,%ymm3,%ymm3
  401912:	c5 ed 58 d2          	vaddpd %ymm2,%ymm2,%ymm2
  401916:	c5 f5 58 c9          	vaddpd %ymm1,%ymm1,%ymm1
  40191a:	c5 fd 58 c0          	vaddpd %ymm0,%ymm0,%ymm0
  40191e:	c5 c5 58 ff          	vaddpd %ymm7,%ymm7,%ymm7
  401922:	c5 cd 58 f6          	vaddpd %ymm6,%ymm6,%ymm6
  401926:	c5 d5 58 ed          	vaddpd %ymm5,%ymm5,%ymm5
  40192a:	c5 dd 58 e4          	vaddpd %ymm4,%ymm4,%ymm4
  40192e:	c5 e5 58 db          	vaddpd %ymm3,%ymm3,%ymm3
  401932:	c5 ed 58 d2          	vaddpd %ymm2,%ymm2,%ymm2
  401936:	c5 f5 58 c9          	vaddpd %ymm1,%ymm1,%ymm1
  40193a:	c5 fd 58 c0          	vaddpd %ymm0,%ymm0,%ymm0
  40193e:	c5 c5 58 ff          	vaddpd %ymm7,%ymm7,%ymm7
  401942:	c5 cd 58 f6          	vaddpd %ymm6,%ymm6,%ymm6
  401946:	c5 d5 58 ed          	vaddpd %ymm5,%ymm5,%ymm5
  40194a:	c5 dd 58 e4          	vaddpd %ymm4,%ymm4,%ymm4
  40194e:	c5 e5 58 db          	vaddpd %ymm3,%ymm3,%ymm3
  401952:	c5 ed 58 d2          	vaddpd %ymm2,%ymm2,%ymm2
  401956:	c5 f5 58 c9          	vaddpd %ymm1,%ymm1,%ymm1
  40195a:	c5 fd 58 c0          	vaddpd %ymm0,%ymm0,%ymm0
  40195e:	c5 c5 58 ff          	vaddpd %ymm7,%ymm7,%ymm7
  401962:	c5 cd 58 f6          	vaddpd %ymm6,%ymm6,%ymm6
  401966:	c5 d5 58 ed          	vaddpd %ymm5,%ymm5,%ymm5
  40196a:	c5 dd 58 e4          	vaddpd %ymm4,%ymm4,%ymm4
  40196e:	c5 e5 58 db          	vaddpd %ymm3,%ymm3,%ymm3
  401972:	c5 ed 58 d2          	vaddpd %ymm2,%ymm2,%ymm2
  401976:	c5 f5 58 c9          	vaddpd %ymm1,%ymm1,%ymm1
  40197a:	c5 fd 58 c0          	vaddpd %ymm0,%ymm0,%ymm0
  40197e:	c5 c5 58 ff          	vaddpd %ymm7,%ymm7,%ymm7
  401982:	c5 cd 58 f6          	vaddpd %ymm6,%ymm6,%ymm6
  401986:	c5 d5 58 ed          	vaddpd %ymm5,%ymm5,%ymm5
  40198a:	c5 dd 58 e4          	vaddpd %ymm4,%ymm4,%ymm4
  40198e:	c5 e5 58 db          	vaddpd %ymm3,%ymm3,%ymm3
  401992:	c5 ed 58 d2          	vaddpd %ymm2,%ymm2,%ymm2
  401996:	c5 f5 58 c9          	vaddpd %ymm1,%ymm1,%ymm1
  40199a:	c5 fd 58 c0          	vaddpd %ymm0,%ymm0,%ymm0
  40199e:	c5 c5 58 ff          	vaddpd %ymm7,%ymm7,%ymm7
  4019a2:	c5 cd 58 f6          	vaddpd %ymm6,%ymm6,%ymm6
  4019a6:	c5 d5 58 ed          	vaddpd %ymm5,%ymm5,%ymm5
  4019aa:	c5 dd 58 e4          	vaddpd %ymm4,%ymm4,%ymm4
  4019ae:	c5 e5 58 db          	vaddpd %ymm3,%ymm3,%ymm3
  4019b2:	c5 ed 58 d2          	vaddpd %ymm2,%ymm2,%ymm2
  4019b6:	c5 f5 58 c9          	vaddpd %ymm1,%ymm1,%ymm1
  4019ba:	c5 fd 58 c0          	vaddpd %ymm0,%ymm0,%ymm0
  4019be:	c5 c5 58 ff          	vaddpd %ymm7,%ymm7,%ymm7
  4019c2:	c5 cd 58 f6          	vaddpd %ymm6,%ymm6,%ymm6
  4019c6:	c5 d5 58 ed          	vaddpd %ymm5,%ymm5,%ymm5
  4019ca:	c5 dd 58 e4          	vaddpd %ymm4,%ymm4,%ymm4
  4019ce:	c5 e5 58 db          	vaddpd %ymm3,%ymm3,%ymm3
  4019d2:	c5 ed 58 d2          	vaddpd %ymm2,%ymm2,%ymm2
  4019d6:	c5 f5 58 c9          	vaddpd %ymm1,%ymm1,%ymm1
  4019da:	c5 fd 58 c0          	vaddpd %ymm0,%ymm0,%ymm0
  4019de:	c5 c5 58 ff          	vaddpd %ymm7,%ymm7,%ymm7
  4019e2:	c5 cd 58 f6          	vaddpd %ymm6,%ymm6,%ymm6
  4019e6:	c5 d5 58 ed          	vaddpd %ymm5,%ymm5,%ymm5
  4019ea:	c5 dd 58 e4          	vaddpd %ymm4,%ymm4,%ymm4
  4019ee:	c5 e5 58 db          	vaddpd %ymm3,%ymm3,%ymm3
  4019f2:	c5 ed 58 d2          	vaddpd %ymm2,%ymm2,%ymm2
  4019f6:	c5 f5 58 c9          	vaddpd %ymm1,%ymm1,%ymm1
  4019fa:	c5 fd 58 c0          	vaddpd %ymm0,%ymm0,%ymm0
  4019fe:	c5 c5 58 ff          	vaddpd %ymm7,%ymm7,%ymm7
  401a02:	c5 cd 58 f6          	vaddpd %ymm6,%ymm6,%ymm6
  401a06:	c5 d5 58 ed          	vaddpd %ymm5,%ymm5,%ymm5
  401a0a:	c5 dd 58 e4          	vaddpd %ymm4,%ymm4,%ymm4
  401a0e:	c5 e5 58 db          	vaddpd %ymm3,%ymm3,%ymm3
  401a12:	c5 ed 58 d2          	vaddpd %ymm2,%ymm2,%ymm2
  401a16:	c5 f5 58 c9          	vaddpd %ymm1,%ymm1,%ymm1
  401a1a:	c5 fd 58 c0          	vaddpd %ymm0,%ymm0,%ymm0
  401a1e:	c5 c5 58 ff          	vaddpd %ymm7,%ymm7,%ymm7
  401a22:	c5 cd 58 f6          	vaddpd %ymm6,%ymm6,%ymm6
  401a26:	c5 d5 58 ed          	vaddpd %ymm5,%ymm5,%ymm5
  401a2a:	c5 dd 58 e4          	vaddpd %ymm4,%ymm4,%ymm4
  401a2e:	c5 e5 58 db          	vaddpd %ymm3,%ymm3,%ymm3
  401a32:	c5 ed 58 d2          	vaddpd %ymm2,%ymm2,%ymm2
  401a36:	c5 f5 58 c9          	vaddpd %ymm1,%ymm1,%ymm1
  401a3a:	c5 fd 58 c0          	vaddpd %ymm0,%ymm0,%ymm0
  401a3e:	c5 c5 58 ff          	vaddpd %ymm7,%ymm7,%ymm7
  401a42:	c5 cd 58 f6          	vaddpd %ymm6,%ymm6,%ymm6
  401a46:	c5 d5 58 ed          	vaddpd %ymm5,%ymm5,%ymm5
  401a4a:	c5 dd 58 e4          	vaddpd %ymm4,%ymm4,%ymm4
  401a4e:	c5 e5 58 db          	vaddpd %ymm3,%ymm3,%ymm3
  401a52:	c5 ed 58 d2          	vaddpd %ymm2,%ymm2,%ymm2
  401a56:	c5 f5 58 c9          	vaddpd %ymm1,%ymm1,%ymm1
  401a5a:	c5 fd 58 c0          	vaddpd %ymm0,%ymm0,%ymm0
  401a5e:	c5 c5 58 ff          	vaddpd %ymm7,%ymm7,%ymm7
  401a62:	c5 cd 58 f6          	vaddpd %ymm6,%ymm6,%ymm6
  401a66:	c5 d5 58 ed          	vaddpd %ymm5,%ymm5,%ymm5
  401a6a:	c5 dd 58 e4          	vaddpd %ymm4,%ymm4,%ymm4
  401a6e:	c5 e5 58 db          	vaddpd %ymm3,%ymm3,%ymm3
  401a72:	c5 ed 58 d2          	vaddpd %ymm2,%ymm2,%ymm2
  401a76:	c5 f5 58 c9          	vaddpd %ymm1,%ymm1,%ymm1
  401a7a:	c5 fd 58 c0          	vaddpd %ymm0,%ymm0,%ymm0
  401a7e:	c5 c5 58 ff          	vaddpd %ymm7,%ymm7,%ymm7
  401a82:	c5 cd 58 f6          	vaddpd %ymm6,%ymm6,%ymm6
  401a86:	c5 d5 58 ed          	vaddpd %ymm5,%ymm5,%ymm5
  401a8a:	c5 dd 58 e4          	vaddpd %ymm4,%ymm4,%ymm4
  401a8e:	c5 e5 58 db          	vaddpd %ymm3,%ymm3,%ymm3
  401a92:	c5 ed 58 d2          	vaddpd %ymm2,%ymm2,%ymm2
  401a96:	c5 f5 58 c9          	vaddpd %ymm1,%ymm1,%ymm1
  401a9a:	c5 fd 58 c0          	vaddpd %ymm0,%ymm0,%ymm0
  401a9e:	c5 c5 58 ff          	vaddpd %ymm7,%ymm7,%ymm7
  401aa2:	c5 cd 58 f6          	vaddpd %ymm6,%ymm6,%ymm6
  401aa6:	c5 d5 58 ed          	vaddpd %ymm5,%ymm5,%ymm5
  401aaa:	c5 dd 58 e4          	vaddpd %ymm4,%ymm4,%ymm4
  401aae:	c5 e5 58 db          	vaddpd %ymm3,%ymm3,%ymm3
  401ab2:	c5 ed 58 d2          	vaddpd %ymm2,%ymm2,%ymm2
  401ab6:	c5 f5 58 c9          	vaddpd %ymm1,%ymm1,%ymm1
  401aba:	c5 fd 58 c0          	vaddpd %ymm0,%ymm0,%ymm0
  401abe:	c5 c5 58 ff          	vaddpd %ymm7,%ymm7,%ymm7
  401ac2:	c5 cd 58 f6          	vaddpd %ymm6,%ymm6,%ymm6
  401ac6:	c5 d5 58 ed          	vaddpd %ymm5,%ymm5,%ymm5
  401aca:	c5 dd 58 e4          	vaddpd %ymm4,%ymm4,%ymm4
  401ace:	c5 e5 58 db          	vaddpd %ymm3,%ymm3,%ymm3
  401ad2:	c5 ed 58 d2          	vaddpd %ymm2,%ymm2,%ymm2
  401ad6:	c5 f5 58 c9          	vaddpd %ymm1,%ymm1,%ymm1
  401ada:	c5 fd 58 c0          	vaddpd %ymm0,%ymm0,%ymm0
  401ade:	c5 c5 58 ff          	vaddpd %ymm7,%ymm7,%ymm7
  401ae2:	c5 cd 58 f6          	vaddpd %ymm6,%ymm6,%ymm6
  401ae6:	c5 d5 58 ed          	vaddpd %ymm5,%ymm5,%ymm5
  401aea:	c5 dd 58 e4          	vaddpd %ymm4,%ymm4,%ymm4
  401aee:	c5 e5 58 db          	vaddpd %ymm3,%ymm3,%ymm3
  401af2:	c5 ed 58 d2          	vaddpd %ymm2,%ymm2,%ymm2
  401af6:	c5 f5 58 c9          	vaddpd %ymm1,%ymm1,%ymm1
  401afa:	c5 fd 58 c0          	vaddpd %ymm0,%ymm0,%ymm0
  401afe:	c5 c5 58 ff          	vaddpd %ymm7,%ymm7,%ymm7
  401b02:	c5 cd 58 f6          	vaddpd %ymm6,%ymm6,%ymm6
  401b06:	c5 d5 58 ed          	vaddpd %ymm5,%ymm5,%ymm5
  401b0a:	c5 dd 58 e4          	vaddpd %ymm4,%ymm4,%ymm4
  401b0e:	c5 e5 58 db          	vaddpd %ymm3,%ymm3,%ymm3
  401b12:	c5 ed 58 d2          	vaddpd %ymm2,%ymm2,%ymm2
  401b16:	c5 f5 58 c9          	vaddpd %ymm1,%ymm1,%ymm1
  401b1a:	c5 fd 58 c0          	vaddpd %ymm0,%ymm0,%ymm0
  401b1e:	c5 c5 58 ff          	vaddpd %ymm7,%ymm7,%ymm7
  401b22:	c5 cd 58 f6          	vaddpd %ymm6,%ymm6,%ymm6
  401b26:	c5 d5 58 ed          	vaddpd %ymm5,%ymm5,%ymm5
  401b2a:	c5 dd 58 e4          	vaddpd %ymm4,%ymm4,%ymm4
  401b2e:	c5 e5 58 db          	vaddpd %ymm3,%ymm3,%ymm3
  401b32:	c5 ed 58 d2          	vaddpd %ymm2,%ymm2,%ymm2
  401b36:	c5 f5 58 c9          	vaddpd %ymm1,%ymm1,%ymm1
  401b3a:	c5 fd 58 c0          	vaddpd %ymm0,%ymm0,%ymm0
  401b3e:	c5 c5 58 ff          	vaddpd %ymm7,%ymm7,%ymm7
  401b42:	c5 cd 58 f6          	vaddpd %ymm6,%ymm6,%ymm6
  401b46:	c5 d5 58 ed          	vaddpd %ymm5,%ymm5,%ymm5
  401b4a:	c5 dd 58 e4          	vaddpd %ymm4,%ymm4,%ymm4
  401b4e:	c5 e5 58 db          	vaddpd %ymm3,%ymm3,%ymm3
  401b52:	c5 ed 58 d2          	vaddpd %ymm2,%ymm2,%ymm2
  401b56:	c5 f5 58 c9          	vaddpd %ymm1,%ymm1,%ymm1
  401b5a:	c5 fd 58 c0          	vaddpd %ymm0,%ymm0,%ymm0
  401b5e:	c5 c5 58 ff          	vaddpd %ymm7,%ymm7,%ymm7
  401b62:	c5 cd 58 f6          	vaddpd %ymm6,%ymm6,%ymm6
  401b66:	c5 d5 58 ed          	vaddpd %ymm5,%ymm5,%ymm5
  401b6a:	c5 dd 58 e4          	vaddpd %ymm4,%ymm4,%ymm4
  401b6e:	c5 e5 58 db          	vaddpd %ymm3,%ymm3,%ymm3
  401b72:	c5 ed 58 d2          	vaddpd %ymm2,%ymm2,%ymm2
  401b76:	c5 f5 58 c9          	vaddpd %ymm1,%ymm1,%ymm1
  401b7a:	c5 fd 58 c0          	vaddpd %ymm0,%ymm0,%ymm0
  401b7e:	c5 c5 58 ff          	vaddpd %ymm7,%ymm7,%ymm7
  401b82:	c5 cd 58 f6          	vaddpd %ymm6,%ymm6,%ymm6
  401b86:	c5 d5 58 ed          	vaddpd %ymm5,%ymm5,%ymm5
  401b8a:	c5 dd 58 e4          	vaddpd %ymm4,%ymm4,%ymm4
  401b8e:	c5 e5 58 db          	vaddpd %ymm3,%ymm3,%ymm3
  401b92:	c5 ed 58 d2          	vaddpd %ymm2,%ymm2,%ymm2
  401b96:	c5 f5 58 c9          	vaddpd %ymm1,%ymm1,%ymm1
  401b9a:	c5 fd 58 c0          	vaddpd %ymm0,%ymm0,%ymm0
  401b9e:	c5 c5 58 ff          	vaddpd %ymm7,%ymm7,%ymm7
  401ba2:	c5 cd 58 f6          	vaddpd %ymm6,%ymm6,%ymm6
  401ba6:	c5 d5 58 ed          	vaddpd %ymm5,%ymm5,%ymm5
  401baa:	c5 dd 58 e4          	vaddpd %ymm4,%ymm4,%ymm4
  401bae:	c5 e5 58 db          	vaddpd %ymm3,%ymm3,%ymm3
  401bb2:	c5 ed 58 d2          	vaddpd %ymm2,%ymm2,%ymm2
  401bb6:	c5 f5 58 c9          	vaddpd %ymm1,%ymm1,%ymm1
  401bba:	c5 fd 58 c0          	vaddpd %ymm0,%ymm0,%ymm0
  401bbe:	c5 c5 58 ff          	vaddpd %ymm7,%ymm7,%ymm7
  401bc2:	c5 cd 58 f6          	vaddpd %ymm6,%ymm6,%ymm6
  401bc6:	c5 d5 58 ed          	vaddpd %ymm5,%ymm5,%ymm5
  401bca:	c5 dd 58 e4          	vaddpd %ymm4,%ymm4,%ymm4
  401bce:	c5 e5 58 db          	vaddpd %ymm3,%ymm3,%ymm3
  401bd2:	c5 ed 58 d2          	vaddpd %ymm2,%ymm2,%ymm2
  401bd6:	c5 f5 58 c9          	vaddpd %ymm1,%ymm1,%ymm1
  401bda:	c5 fd 58 c0          	vaddpd %ymm0,%ymm0,%ymm0
  401bde:	c5 c5 58 ff          	vaddpd %ymm7,%ymm7,%ymm7
  401be2:	c5 cd 58 f6          	vaddpd %ymm6,%ymm6,%ymm6
  401be6:	c5 d5 58 ed          	vaddpd %ymm5,%ymm5,%ymm5
  401bea:	c5 dd 58 e4          	vaddpd %ymm4,%ymm4,%ymm4
  401bee:	c5 e5 58 db          	vaddpd %ymm3,%ymm3,%ymm3
  401bf2:	c5 ed 58 d2          	vaddpd %ymm2,%ymm2,%ymm2
  401bf6:	c5 f5 58 c9          	vaddpd %ymm1,%ymm1,%ymm1
  401bfa:	c5 fd 58 c0          	vaddpd %ymm0,%ymm0,%ymm0
  401bfe:	c5 c5 58 ff          	vaddpd %ymm7,%ymm7,%ymm7
  401c02:	c5 cd 58 f6          	vaddpd %ymm6,%ymm6,%ymm6
  401c06:	c5 d5 58 ed          	vaddpd %ymm5,%ymm5,%ymm5
  401c0a:	c5 dd 58 e4          	vaddpd %ymm4,%ymm4,%ymm4
  401c0e:	c5 e5 58 db          	vaddpd %ymm3,%ymm3,%ymm3
  401c12:	c5 ed 58 d2          	vaddpd %ymm2,%ymm2,%ymm2
  401c16:	c5 f5 58 c9          	vaddpd %ymm1,%ymm1,%ymm1
  401c1a:	c5 fd 58 c0          	vaddpd %ymm0,%ymm0,%ymm0
  401c1e:	c5 c5 58 ff          	vaddpd %ymm7,%ymm7,%ymm7
  401c22:	c5 cd 58 f6          	vaddpd %ymm6,%ymm6,%ymm6
  401c26:	c5 d5 58 ed          	vaddpd %ymm5,%ymm5,%ymm5
  401c2a:	c5 dd 58 e4          	vaddpd %ymm4,%ymm4,%ymm4
  401c2e:	c5 e5 58 db          	vaddpd %ymm3,%ymm3,%ymm3
  401c32:	c5 ed 58 d2          	vaddpd %ymm2,%ymm2,%ymm2
  401c36:	c5 f5 58 c9          	vaddpd %ymm1,%ymm1,%ymm1
  401c3a:	c5 fd 58 c0          	vaddpd %ymm0,%ymm0,%ymm0
  401c3e:	c5 c5 58 ff          	vaddpd %ymm7,%ymm7,%ymm7
  401c42:	c5 cd 58 f6          	vaddpd %ymm6,%ymm6,%ymm6
  401c46:	c5 d5 58 ed          	vaddpd %ymm5,%ymm5,%ymm5
  401c4a:	c5 dd 58 e4          	vaddpd %ymm4,%ymm4,%ymm4
  401c4e:	c5 e5 58 db          	vaddpd %ymm3,%ymm3,%ymm3
  401c52:	c5 ed 58 d2          	vaddpd %ymm2,%ymm2,%ymm2
  401c56:	c5 f5 58 c9          	vaddpd %ymm1,%ymm1,%ymm1
  401c5a:	c5 fd 58 c0          	vaddpd %ymm0,%ymm0,%ymm0
  401c5e:	c5 c5 58 ff          	vaddpd %ymm7,%ymm7,%ymm7
  401c62:	c5 cd 58 f6          	vaddpd %ymm6,%ymm6,%ymm6
  401c66:	c5 d5 58 ed          	vaddpd %ymm5,%ymm5,%ymm5
  401c6a:	c5 dd 58 e4          	vaddpd %ymm4,%ymm4,%ymm4
  401c6e:	c5 e5 58 db          	vaddpd %ymm3,%ymm3,%ymm3
  401c72:	c5 ed 58 d2          	vaddpd %ymm2,%ymm2,%ymm2
  401c76:	c5 f5 58 c9          	vaddpd %ymm1,%ymm1,%ymm1
  401c7a:	c5 fd 58 c0          	vaddpd %ymm0,%ymm0,%ymm0
  401c7e:	c5 c5 58 ff          	vaddpd %ymm7,%ymm7,%ymm7
  401c82:	c5 cd 58 f6          	vaddpd %ymm6,%ymm6,%ymm6
  401c86:	c5 d5 58 ed          	vaddpd %ymm5,%ymm5,%ymm5
  401c8a:	c5 dd 58 e4          	vaddpd %ymm4,%ymm4,%ymm4
  401c8e:	c5 e5 58 db          	vaddpd %ymm3,%ymm3,%ymm3
  401c92:	c5 ed 58 d2          	vaddpd %ymm2,%ymm2,%ymm2
  401c96:	c5 f5 58 c9          	vaddpd %ymm1,%ymm1,%ymm1
  401c9a:	c5 fd 58 c0          	vaddpd %ymm0,%ymm0,%ymm0
  401c9e:	c5 c5 58 ff          	vaddpd %ymm7,%ymm7,%ymm7
  401ca2:	c5 cd 58 f6          	vaddpd %ymm6,%ymm6,%ymm6
  401ca6:	c5 d5 58 ed          	vaddpd %ymm5,%ymm5,%ymm5
  401caa:	c5 dd 58 e4          	vaddpd %ymm4,%ymm4,%ymm4
  401cae:	c5 e5 58 db          	vaddpd %ymm3,%ymm3,%ymm3
  401cb2:	c5 ed 58 d2          	vaddpd %ymm2,%ymm2,%ymm2
  401cb6:	c5 f5 58 c9          	vaddpd %ymm1,%ymm1,%ymm1
  401cba:	c5 fd 58 c0          	vaddpd %ymm0,%ymm0,%ymm0
  401cbe:	c5 c5 58 ff          	vaddpd %ymm7,%ymm7,%ymm7
  401cc2:	c5 cd 58 f6          	vaddpd %ymm6,%ymm6,%ymm6
  401cc6:	c5 d5 58 ed          	vaddpd %ymm5,%ymm5,%ymm5
  401cca:	c5 dd 58 e4          	vaddpd %ymm4,%ymm4,%ymm4
  401cce:	c5 e5 58 db          	vaddpd %ymm3,%ymm3,%ymm3
  401cd2:	c5 ed 58 d2          	vaddpd %ymm2,%ymm2,%ymm2
  401cd6:	c5 f5 58 c9          	vaddpd %ymm1,%ymm1,%ymm1
  401cda:	c5 fd 58 c0          	vaddpd %ymm0,%ymm0,%ymm0
  401cde:	c5 c5 58 ff          	vaddpd %ymm7,%ymm7,%ymm7
  401ce2:	c5 cd 58 f6          	vaddpd %ymm6,%ymm6,%ymm6
  401ce6:	c5 d5 58 ed          	vaddpd %ymm5,%ymm5,%ymm5
  401cea:	c5 dd 58 e4          	vaddpd %ymm4,%ymm4,%ymm4
  401cee:	c5 e5 58 db          	vaddpd %ymm3,%ymm3,%ymm3
  401cf2:	c5 ed 58 d2          	vaddpd %ymm2,%ymm2,%ymm2
  401cf6:	c5 f5 58 c9          	vaddpd %ymm1,%ymm1,%ymm1
  401cfa:	c5 fd 58 c0          	vaddpd %ymm0,%ymm0,%ymm0
  401cfe:	c5 c5 58 ff          	vaddpd %ymm7,%ymm7,%ymm7
  401d02:	c5 cd 58 f6          	vaddpd %ymm6,%ymm6,%ymm6
  401d06:	c5 d5 58 ed          	vaddpd %ymm5,%ymm5,%ymm5
  401d0a:	c5 dd 58 e4          	vaddpd %ymm4,%ymm4,%ymm4
  401d0e:	c5 e5 58 db          	vaddpd %ymm3,%ymm3,%ymm3
  401d12:	c5 ed 58 d2          	vaddpd %ymm2,%ymm2,%ymm2
  401d16:	c5 f5 58 c9          	vaddpd %ymm1,%ymm1,%ymm1
  401d1a:	c5 fd 58 c0          	vaddpd %ymm0,%ymm0,%ymm0
  401d1e:	c5 c5 58 ff          	vaddpd %ymm7,%ymm7,%ymm7
  401d22:	c5 cd 58 f6          	vaddpd %ymm6,%ymm6,%ymm6
  401d26:	c5 d5 58 ed          	vaddpd %ymm5,%ymm5,%ymm5
  401d2a:	c5 dd 58 e4          	vaddpd %ymm4,%ymm4,%ymm4
  401d2e:	c5 e5 58 db          	vaddpd %ymm3,%ymm3,%ymm3
  401d32:	c5 ed 58 d2          	vaddpd %ymm2,%ymm2,%ymm2
  401d36:	c5 f5 58 c9          	vaddpd %ymm1,%ymm1,%ymm1
  401d3a:	c5 fd 58 c0          	vaddpd %ymm0,%ymm0,%ymm0
  401d3e:	c5 c5 58 ff          	vaddpd %ymm7,%ymm7,%ymm7
  401d42:	c5 cd 58 f6          	vaddpd %ymm6,%ymm6,%ymm6
  401d46:	c5 d5 58 ed          	vaddpd %ymm5,%ymm5,%ymm5
  401d4a:	c5 dd 58 e4          	vaddpd %ymm4,%ymm4,%ymm4
  401d4e:	c5 e5 58 db          	vaddpd %ymm3,%ymm3,%ymm3
  401d52:	c5 ed 58 d2          	vaddpd %ymm2,%ymm2,%ymm2
  401d56:	c5 f5 58 c9          	vaddpd %ymm1,%ymm1,%ymm1
  401d5a:	c5 fd 58 c0          	vaddpd %ymm0,%ymm0,%ymm0
  401d5e:	c5 c5 58 ff          	vaddpd %ymm7,%ymm7,%ymm7
  401d62:	c5 cd 58 f6          	vaddpd %ymm6,%ymm6,%ymm6
  401d66:	c5 d5 58 ed          	vaddpd %ymm5,%ymm5,%ymm5
  401d6a:	c5 dd 58 e4          	vaddpd %ymm4,%ymm4,%ymm4
  401d6e:	c5 e5 58 db          	vaddpd %ymm3,%ymm3,%ymm3
  401d72:	c5 ed 58 d2          	vaddpd %ymm2,%ymm2,%ymm2
  401d76:	c5 f5 58 c9          	vaddpd %ymm1,%ymm1,%ymm1
  401d7a:	c5 fd 58 c0          	vaddpd %ymm0,%ymm0,%ymm0
  401d7e:	c5 c5 58 ff          	vaddpd %ymm7,%ymm7,%ymm7
  401d82:	c5 cd 58 f6          	vaddpd %ymm6,%ymm6,%ymm6
  401d86:	c5 d5 58 ed          	vaddpd %ymm5,%ymm5,%ymm5
  401d8a:	c5 dd 58 e4          	vaddpd %ymm4,%ymm4,%ymm4
  401d8e:	c5 e5 58 db          	vaddpd %ymm3,%ymm3,%ymm3
  401d92:	c5 ed 58 d2          	vaddpd %ymm2,%ymm2,%ymm2
  401d96:	c5 f5 58 c9          	vaddpd %ymm1,%ymm1,%ymm1
  401d9a:	c5 fd 58 c0          	vaddpd %ymm0,%ymm0,%ymm0
  401d9e:	c5 c5 58 ff          	vaddpd %ymm7,%ymm7,%ymm7
  401da2:	c5 cd 58 f6          	vaddpd %ymm6,%ymm6,%ymm6
  401da6:	c5 d5 58 ed          	vaddpd %ymm5,%ymm5,%ymm5
  401daa:	c5 dd 58 e4          	vaddpd %ymm4,%ymm4,%ymm4
  401dae:	c5 e5 58 db          	vaddpd %ymm3,%ymm3,%ymm3
  401db2:	c5 ed 58 d2          	vaddpd %ymm2,%ymm2,%ymm2
  401db6:	c5 f5 58 c9          	vaddpd %ymm1,%ymm1,%ymm1
  401dba:	c5 fd 58 c0          	vaddpd %ymm0,%ymm0,%ymm0
  401dbe:	c5 c5 58 ff          	vaddpd %ymm7,%ymm7,%ymm7
  401dc2:	c5 cd 58 f6          	vaddpd %ymm6,%ymm6,%ymm6
  401dc6:	c5 d5 58 ed          	vaddpd %ymm5,%ymm5,%ymm5
  401dca:	c5 dd 58 e4          	vaddpd %ymm4,%ymm4,%ymm4
  401dce:	c5 e5 58 db          	vaddpd %ymm3,%ymm3,%ymm3
  401dd2:	c5 ed 58 d2          	vaddpd %ymm2,%ymm2,%ymm2
  401dd6:	c5 f5 58 c9          	vaddpd %ymm1,%ymm1,%ymm1
  401dda:	c5 fd 58 c0          	vaddpd %ymm0,%ymm0,%ymm0
  401dde:	c5 c5 58 ff          	vaddpd %ymm7,%ymm7,%ymm7
  401de2:	c5 cd 58 f6          	vaddpd %ymm6,%ymm6,%ymm6
  401de6:	c5 d5 58 ed          	vaddpd %ymm5,%ymm5,%ymm5
  401dea:	c5 dd 58 e4          	vaddpd %ymm4,%ymm4,%ymm4
  401dee:	c5 e5 58 db          	vaddpd %ymm3,%ymm3,%ymm3
  401df2:	c5 ed 58 d2          	vaddpd %ymm2,%ymm2,%ymm2
  401df6:	c5 f5 58 c9          	vaddpd %ymm1,%ymm1,%ymm1
  401dfa:	c5 fd 58 c0          	vaddpd %ymm0,%ymm0,%ymm0
  401dfe:	c5 c5 58 ff          	vaddpd %ymm7,%ymm7,%ymm7
  401e02:	c5 cd 58 f6          	vaddpd %ymm6,%ymm6,%ymm6
  401e06:	c5 d5 58 ed          	vaddpd %ymm5,%ymm5,%ymm5
  401e0a:	c5 dd 58 e4          	vaddpd %ymm4,%ymm4,%ymm4
  401e0e:	c5 e5 58 db          	vaddpd %ymm3,%ymm3,%ymm3
  401e12:	c5 ed 58 d2          	vaddpd %ymm2,%ymm2,%ymm2
  401e16:	c5 f5 58 c9          	vaddpd %ymm1,%ymm1,%ymm1
  401e1a:	c5 fd 58 c0          	vaddpd %ymm0,%ymm0,%ymm0
  401e1e:	c5 c5 58 ff          	vaddpd %ymm7,%ymm7,%ymm7
  401e22:	c5 cd 58 f6          	vaddpd %ymm6,%ymm6,%ymm6
  401e26:	c5 d5 58 ed          	vaddpd %ymm5,%ymm5,%ymm5
  401e2a:	c5 dd 58 e4          	vaddpd %ymm4,%ymm4,%ymm4
  401e2e:	c5 e5 58 db          	vaddpd %ymm3,%ymm3,%ymm3
  401e32:	c5 ed 58 d2          	vaddpd %ymm2,%ymm2,%ymm2
  401e36:	c5 f5 58 c9          	vaddpd %ymm1,%ymm1,%ymm1
  401e3a:	c5 fd 58 c0          	vaddpd %ymm0,%ymm0,%ymm0
  401e3e:	c5 c5 58 ff          	vaddpd %ymm7,%ymm7,%ymm7
  401e42:	c5 cd 58 f6          	vaddpd %ymm6,%ymm6,%ymm6
  401e46:	c5 d5 58 ed          	vaddpd %ymm5,%ymm5,%ymm5
  401e4a:	c5 dd 58 e4          	vaddpd %ymm4,%ymm4,%ymm4
  401e4e:	c5 e5 58 db          	vaddpd %ymm3,%ymm3,%ymm3
  401e52:	c5 ed 58 d2          	vaddpd %ymm2,%ymm2,%ymm2
  401e56:	c5 f5 58 c9          	vaddpd %ymm1,%ymm1,%ymm1
  401e5a:	c5 fd 58 c0          	vaddpd %ymm0,%ymm0,%ymm0
  401e5e:	c5 c5 58 ff          	vaddpd %ymm7,%ymm7,%ymm7
  401e62:	c5 cd 58 f6          	vaddpd %ymm6,%ymm6,%ymm6
  401e66:	c5 d5 58 ed          	vaddpd %ymm5,%ymm5,%ymm5
  401e6a:	c5 dd 58 e4          	vaddpd %ymm4,%ymm4,%ymm4
  401e6e:	c5 e5 58 db          	vaddpd %ymm3,%ymm3,%ymm3
  401e72:	c5 ed 58 d2          	vaddpd %ymm2,%ymm2,%ymm2
  401e76:	c5 f5 58 c9          	vaddpd %ymm1,%ymm1,%ymm1
  401e7a:	c5 fd 58 c0          	vaddpd %ymm0,%ymm0,%ymm0
  401e7e:	c5 c5 58 ff          	vaddpd %ymm7,%ymm7,%ymm7
  401e82:	c5 cd 58 f6          	vaddpd %ymm6,%ymm6,%ymm6
  401e86:	c5 d5 58 ed          	vaddpd %ymm5,%ymm5,%ymm5
  401e8a:	c5 dd 58 e4          	vaddpd %ymm4,%ymm4,%ymm4
  401e8e:	c5 e5 58 db          	vaddpd %ymm3,%ymm3,%ymm3
  401e92:	c5 ed 58 d2          	vaddpd %ymm2,%ymm2,%ymm2
  401e96:	c5 f5 58 c9          	vaddpd %ymm1,%ymm1,%ymm1
  401e9a:	c5 fd 58 c0          	vaddpd %ymm0,%ymm0,%ymm0
  401e9e:	c5 c5 58 ff          	vaddpd %ymm7,%ymm7,%ymm7
  401ea2:	c5 cd 58 f6          	vaddpd %ymm6,%ymm6,%ymm6
  401ea6:	c5 d5 58 ed          	vaddpd %ymm5,%ymm5,%ymm5
  401eaa:	c5 dd 58 e4          	vaddpd %ymm4,%ymm4,%ymm4
  401eae:	c5 e5 58 db          	vaddpd %ymm3,%ymm3,%ymm3
  401eb2:	c5 ed 58 d2          	vaddpd %ymm2,%ymm2,%ymm2
  401eb6:	c5 f5 58 c9          	vaddpd %ymm1,%ymm1,%ymm1
  401eba:	c5 fd 58 c0          	vaddpd %ymm0,%ymm0,%ymm0
  401ebe:	c5 c5 58 ff          	vaddpd %ymm7,%ymm7,%ymm7
  401ec2:	c5 cd 58 f6          	vaddpd %ymm6,%ymm6,%ymm6
  401ec6:	c5 d5 58 ed          	vaddpd %ymm5,%ymm5,%ymm5
  401eca:	c5 dd 58 e4          	vaddpd %ymm4,%ymm4,%ymm4
  401ece:	c5 e5 58 db          	vaddpd %ymm3,%ymm3,%ymm3
  401ed2:	c5 ed 58 d2          	vaddpd %ymm2,%ymm2,%ymm2
  401ed6:	c5 f5 58 c9          	vaddpd %ymm1,%ymm1,%ymm1
  401eda:	c5 fd 58 c0          	vaddpd %ymm0,%ymm0,%ymm0
  401ede:	c5 c5 58 ff          	vaddpd %ymm7,%ymm7,%ymm7
  401ee2:	c5 cd 58 f6          	vaddpd %ymm6,%ymm6,%ymm6
  401ee6:	c5 d5 58 ed          	vaddpd %ymm5,%ymm5,%ymm5
  401eea:	c5 dd 58 e4          	vaddpd %ymm4,%ymm4,%ymm4
  401eee:	c5 e5 58 db          	vaddpd %ymm3,%ymm3,%ymm3
  401ef2:	c5 ed 58 d2          	vaddpd %ymm2,%ymm2,%ymm2
  401ef6:	c5 f5 58 c9          	vaddpd %ymm1,%ymm1,%ymm1
  401efa:	c5 fd 58 c0          	vaddpd %ymm0,%ymm0,%ymm0
  401efe:	c5 c5 58 ff          	vaddpd %ymm7,%ymm7,%ymm7
  401f02:	c5 cd 58 f6          	vaddpd %ymm6,%ymm6,%ymm6
  401f06:	c5 d5 58 ed          	vaddpd %ymm5,%ymm5,%ymm5
  401f0a:	c5 dd 58 e4          	vaddpd %ymm4,%ymm4,%ymm4
  401f0e:	c5 e5 58 db          	vaddpd %ymm3,%ymm3,%ymm3
  401f12:	c5 ed 58 d2          	vaddpd %ymm2,%ymm2,%ymm2
  401f16:	c5 f5 58 c9          	vaddpd %ymm1,%ymm1,%ymm1
  401f1a:	c5 fd 58 c0          	vaddpd %ymm0,%ymm0,%ymm0
  401f1e:	c5 c5 58 ff          	vaddpd %ymm7,%ymm7,%ymm7
  401f22:	c5 cd 58 f6          	vaddpd %ymm6,%ymm6,%ymm6
  401f26:	c5 d5 58 ed          	vaddpd %ymm5,%ymm5,%ymm5
  401f2a:	c5 dd 58 e4          	vaddpd %ymm4,%ymm4,%ymm4
  401f2e:	c5 e5 58 db          	vaddpd %ymm3,%ymm3,%ymm3
  401f32:	c5 ed 58 d2          	vaddpd %ymm2,%ymm2,%ymm2
  401f36:	c5 f5 58 c9          	vaddpd %ymm1,%ymm1,%ymm1
  401f3a:	c5 fd 58 c0          	vaddpd %ymm0,%ymm0,%ymm0
  401f3e:	c5 c5 58 ff          	vaddpd %ymm7,%ymm7,%ymm7
  401f42:	c5 cd 58 f6          	vaddpd %ymm6,%ymm6,%ymm6
  401f46:	c5 d5 58 ed          	vaddpd %ymm5,%ymm5,%ymm5
  401f4a:	c5 dd 58 e4          	vaddpd %ymm4,%ymm4,%ymm4
  401f4e:	c5 e5 58 db          	vaddpd %ymm3,%ymm3,%ymm3
  401f52:	c5 ed 58 d2          	vaddpd %ymm2,%ymm2,%ymm2
  401f56:	c5 f5 58 c9          	vaddpd %ymm1,%ymm1,%ymm1
  401f5a:	c5 fd 58 c0          	vaddpd %ymm0,%ymm0,%ymm0
  401f5e:	c5 c5 58 ff          	vaddpd %ymm7,%ymm7,%ymm7
  401f62:	c5 cd 58 f6          	vaddpd %ymm6,%ymm6,%ymm6
  401f66:	c5 d5 58 ed          	vaddpd %ymm5,%ymm5,%ymm5
  401f6a:	c5 dd 58 e4          	vaddpd %ymm4,%ymm4,%ymm4
  401f6e:	c5 e5 58 db          	vaddpd %ymm3,%ymm3,%ymm3
  401f72:	c5 ed 58 d2          	vaddpd %ymm2,%ymm2,%ymm2
  401f76:	c5 f5 58 c9          	vaddpd %ymm1,%ymm1,%ymm1
  401f7a:	c5 fd 58 c0          	vaddpd %ymm0,%ymm0,%ymm0
  401f7e:	c5 c5 58 ff          	vaddpd %ymm7,%ymm7,%ymm7
  401f82:	c5 cd 58 f6          	vaddpd %ymm6,%ymm6,%ymm6
  401f86:	c5 d5 58 ed          	vaddpd %ymm5,%ymm5,%ymm5
  401f8a:	c5 dd 58 e4          	vaddpd %ymm4,%ymm4,%ymm4
  401f8e:	c5 e5 58 db          	vaddpd %ymm3,%ymm3,%ymm3
  401f92:	c5 ed 58 d2          	vaddpd %ymm2,%ymm2,%ymm2
  401f96:	c5 f5 58 c9          	vaddpd %ymm1,%ymm1,%ymm1
  401f9a:	c5 fd 58 c0          	vaddpd %ymm0,%ymm0,%ymm0
  401f9e:	c5 c5 58 ff          	vaddpd %ymm7,%ymm7,%ymm7
  401fa2:	c5 cd 58 f6          	vaddpd %ymm6,%ymm6,%ymm6
  401fa6:	c5 d5 58 ed          	vaddpd %ymm5,%ymm5,%ymm5
  401faa:	c5 dd 58 e4          	vaddpd %ymm4,%ymm4,%ymm4
  401fae:	c5 e5 58 db          	vaddpd %ymm3,%ymm3,%ymm3
  401fb2:	c5 ed 58 d2          	vaddpd %ymm2,%ymm2,%ymm2
  401fb6:	c5 f5 58 c9          	vaddpd %ymm1,%ymm1,%ymm1
  401fba:	c5 fd 58 c0          	vaddpd %ymm0,%ymm0,%ymm0
  401fbe:	c5 c5 58 ff          	vaddpd %ymm7,%ymm7,%ymm7
  401fc2:	c5 cd 58 f6          	vaddpd %ymm6,%ymm6,%ymm6
  401fc6:	c5 d5 58 ed          	vaddpd %ymm5,%ymm5,%ymm5
  401fca:	c5 dd 58 e4          	vaddpd %ymm4,%ymm4,%ymm4
  401fce:	c5 e5 58 db          	vaddpd %ymm3,%ymm3,%ymm3
  401fd2:	c5 ed 58 d2          	vaddpd %ymm2,%ymm2,%ymm2
  401fd6:	c5 f5 58 c9          	vaddpd %ymm1,%ymm1,%ymm1
  401fda:	c5 fd 58 c0          	vaddpd %ymm0,%ymm0,%ymm0
  401fde:	c5 c5 58 ff          	vaddpd %ymm7,%ymm7,%ymm7
  401fe2:	c5 cd 58 f6          	vaddpd %ymm6,%ymm6,%ymm6
  401fe6:	c5 d5 58 ed          	vaddpd %ymm5,%ymm5,%ymm5
  401fea:	c5 dd 58 e4          	vaddpd %ymm4,%ymm4,%ymm4
  401fee:	c5 e5 58 db          	vaddpd %ymm3,%ymm3,%ymm3
  401ff2:	c5 ed 58 d2          	vaddpd %ymm2,%ymm2,%ymm2
  401ff6:	c5 f5 58 c9          	vaddpd %ymm1,%ymm1,%ymm1
  401ffa:	c5 fd 58 c0          	vaddpd %ymm0,%ymm0,%ymm0
  401ffe:	c5 c5 58 ff          	vaddpd %ymm7,%ymm7,%ymm7
  402002:	c5 cd 58 f6          	vaddpd %ymm6,%ymm6,%ymm6
  402006:	c5 d5 58 ed          	vaddpd %ymm5,%ymm5,%ymm5
  40200a:	c5 dd 58 e4          	vaddpd %ymm4,%ymm4,%ymm4
  40200e:	c5 e5 58 db          	vaddpd %ymm3,%ymm3,%ymm3
  402012:	c5 ed 58 d2          	vaddpd %ymm2,%ymm2,%ymm2
  402016:	c5 f5 58 c9          	vaddpd %ymm1,%ymm1,%ymm1
  40201a:	c5 fd 58 c0          	vaddpd %ymm0,%ymm0,%ymm0
  40201e:	c5 c5 58 ff          	vaddpd %ymm7,%ymm7,%ymm7
  402022:	c5 cd 58 f6          	vaddpd %ymm6,%ymm6,%ymm6
  402026:	c5 d5 58 ed          	vaddpd %ymm5,%ymm5,%ymm5
  40202a:	c5 dd 58 e4          	vaddpd %ymm4,%ymm4,%ymm4
  40202e:	c5 e5 58 db          	vaddpd %ymm3,%ymm3,%ymm3
  402032:	c5 ed 58 d2          	vaddpd %ymm2,%ymm2,%ymm2
  402036:	c5 f5 58 c9          	vaddpd %ymm1,%ymm1,%ymm1
  40203a:	c5 fd 58 c0          	vaddpd %ymm0,%ymm0,%ymm0
  40203e:	c5 c5 58 ff          	vaddpd %ymm7,%ymm7,%ymm7
  402042:	c5 cd 58 f6          	vaddpd %ymm6,%ymm6,%ymm6
  402046:	c5 d5 58 ed          	vaddpd %ymm5,%ymm5,%ymm5
  40204a:	c5 dd 58 e4          	vaddpd %ymm4,%ymm4,%ymm4
  40204e:	c5 e5 58 db          	vaddpd %ymm3,%ymm3,%ymm3
  402052:	c5 ed 58 d2          	vaddpd %ymm2,%ymm2,%ymm2
  402056:	c5 f5 58 c9          	vaddpd %ymm1,%ymm1,%ymm1
  40205a:	c5 fd 58 c0          	vaddpd %ymm0,%ymm0,%ymm0
  40205e:	c5 c5 58 ff          	vaddpd %ymm7,%ymm7,%ymm7
  402062:	c5 cd 58 f6          	vaddpd %ymm6,%ymm6,%ymm6
  402066:	c5 d5 58 ed          	vaddpd %ymm5,%ymm5,%ymm5
  40206a:	c5 dd 58 e4          	vaddpd %ymm4,%ymm4,%ymm4
  40206e:	c5 e5 58 db          	vaddpd %ymm3,%ymm3,%ymm3
  402072:	c5 ed 58 d2          	vaddpd %ymm2,%ymm2,%ymm2
  402076:	c5 f5 58 c9          	vaddpd %ymm1,%ymm1,%ymm1
  40207a:	c5 fd 58 c0          	vaddpd %ymm0,%ymm0,%ymm0
  40207e:	c5 c5 58 ff          	vaddpd %ymm7,%ymm7,%ymm7
  402082:	c5 cd 58 f6          	vaddpd %ymm6,%ymm6,%ymm6
  402086:	c5 d5 58 ed          	vaddpd %ymm5,%ymm5,%ymm5
  40208a:	c5 dd 58 e4          	vaddpd %ymm4,%ymm4,%ymm4
  40208e:	c5 e5 58 db          	vaddpd %ymm3,%ymm3,%ymm3
  402092:	c5 ed 58 d2          	vaddpd %ymm2,%ymm2,%ymm2
  402096:	c5 f5 58 c9          	vaddpd %ymm1,%ymm1,%ymm1
  40209a:	c5 fd 58 c0          	vaddpd %ymm0,%ymm0,%ymm0
  40209e:	c5 c5 58 ff          	vaddpd %ymm7,%ymm7,%ymm7
  4020a2:	c5 cd 58 f6          	vaddpd %ymm6,%ymm6,%ymm6
  4020a6:	c5 d5 58 ed          	vaddpd %ymm5,%ymm5,%ymm5
  4020aa:	c5 dd 58 e4          	vaddpd %ymm4,%ymm4,%ymm4
  4020ae:	c5 e5 58 db          	vaddpd %ymm3,%ymm3,%ymm3
  4020b2:	c5 ed 58 d2          	vaddpd %ymm2,%ymm2,%ymm2
  4020b6:	c5 f5 58 c9          	vaddpd %ymm1,%ymm1,%ymm1
  4020ba:	c5 fd 58 c0          	vaddpd %ymm0,%ymm0,%ymm0
  4020be:	c5 c5 58 ff          	vaddpd %ymm7,%ymm7,%ymm7
  4020c2:	c5 cd 58 f6          	vaddpd %ymm6,%ymm6,%ymm6
  4020c6:	c5 d5 58 ed          	vaddpd %ymm5,%ymm5,%ymm5
  4020ca:	c5 dd 58 e4          	vaddpd %ymm4,%ymm4,%ymm4
  4020ce:	c5 e5 58 db          	vaddpd %ymm3,%ymm3,%ymm3
  4020d2:	c5 ed 58 d2          	vaddpd %ymm2,%ymm2,%ymm2
  4020d6:	c5 f5 58 c9          	vaddpd %ymm1,%ymm1,%ymm1
  4020da:	c5 fd 58 c0          	vaddpd %ymm0,%ymm0,%ymm0
  4020de:	c5 c5 58 ff          	vaddpd %ymm7,%ymm7,%ymm7
  4020e2:	c5 cd 58 f6          	vaddpd %ymm6,%ymm6,%ymm6
  4020e6:	c5 d5 58 ed          	vaddpd %ymm5,%ymm5,%ymm5
  4020ea:	c5 dd 58 e4          	vaddpd %ymm4,%ymm4,%ymm4
  4020ee:	c5 e5 58 db          	vaddpd %ymm3,%ymm3,%ymm3
  4020f2:	c5 ed 58 d2          	vaddpd %ymm2,%ymm2,%ymm2
  4020f6:	c5 f5 58 c9          	vaddpd %ymm1,%ymm1,%ymm1
  4020fa:	c5 fd 58 c0          	vaddpd %ymm0,%ymm0,%ymm0
  4020fe:	c5 c5 58 ff          	vaddpd %ymm7,%ymm7,%ymm7
  402102:	c5 cd 58 f6          	vaddpd %ymm6,%ymm6,%ymm6
  402106:	c5 d5 58 ed          	vaddpd %ymm5,%ymm5,%ymm5
  40210a:	c5 dd 58 e4          	vaddpd %ymm4,%ymm4,%ymm4
  40210e:	c5 e5 58 db          	vaddpd %ymm3,%ymm3,%ymm3
  402112:	c5 ed 58 d2          	vaddpd %ymm2,%ymm2,%ymm2
  402116:	c5 f5 58 c9          	vaddpd %ymm1,%ymm1,%ymm1
  40211a:	c5 fd 58 c0          	vaddpd %ymm0,%ymm0,%ymm0
  40211e:	c5 c5 58 ff          	vaddpd %ymm7,%ymm7,%ymm7
  402122:	c5 cd 58 f6          	vaddpd %ymm6,%ymm6,%ymm6
  402126:	c5 d5 58 ed          	vaddpd %ymm5,%ymm5,%ymm5
  40212a:	c5 dd 58 e4          	vaddpd %ymm4,%ymm4,%ymm4
  40212e:	c5 e5 58 db          	vaddpd %ymm3,%ymm3,%ymm3
  402132:	c5 ed 58 d2          	vaddpd %ymm2,%ymm2,%ymm2
  402136:	c5 f5 58 c9          	vaddpd %ymm1,%ymm1,%ymm1
  40213a:	c5 fd 58 c0          	vaddpd %ymm0,%ymm0,%ymm0
  40213e:	c5 c5 58 ff          	vaddpd %ymm7,%ymm7,%ymm7
  402142:	c5 cd 58 f6          	vaddpd %ymm6,%ymm6,%ymm6
  402146:	c5 d5 58 ed          	vaddpd %ymm5,%ymm5,%ymm5
  40214a:	c5 dd 58 e4          	vaddpd %ymm4,%ymm4,%ymm4
  40214e:	c5 e5 58 db          	vaddpd %ymm3,%ymm3,%ymm3
  402152:	c5 ed 58 d2          	vaddpd %ymm2,%ymm2,%ymm2
  402156:	c5 f5 58 c9          	vaddpd %ymm1,%ymm1,%ymm1
  40215a:	c5 fd 58 c0          	vaddpd %ymm0,%ymm0,%ymm0
  40215e:	c5 c5 58 ff          	vaddpd %ymm7,%ymm7,%ymm7
  402162:	c5 cd 58 f6          	vaddpd %ymm6,%ymm6,%ymm6
  402166:	c5 d5 58 ed          	vaddpd %ymm5,%ymm5,%ymm5
  40216a:	c5 dd 58 e4          	vaddpd %ymm4,%ymm4,%ymm4
  40216e:	c5 e5 58 db          	vaddpd %ymm3,%ymm3,%ymm3
  402172:	c5 ed 58 d2          	vaddpd %ymm2,%ymm2,%ymm2
  402176:	c5 f5 58 c9          	vaddpd %ymm1,%ymm1,%ymm1
  40217a:	c5 fd 58 c0          	vaddpd %ymm0,%ymm0,%ymm0
  40217e:	c5 c5 58 ff          	vaddpd %ymm7,%ymm7,%ymm7
  402182:	c5 cd 58 f6          	vaddpd %ymm6,%ymm6,%ymm6
  402186:	c5 d5 58 ed          	vaddpd %ymm5,%ymm5,%ymm5
  40218a:	c5 dd 58 e4          	vaddpd %ymm4,%ymm4,%ymm4
  40218e:	c5 e5 58 db          	vaddpd %ymm3,%ymm3,%ymm3
  402192:	c5 ed 58 d2          	vaddpd %ymm2,%ymm2,%ymm2
  402196:	c5 f5 58 c9          	vaddpd %ymm1,%ymm1,%ymm1
  40219a:	c5 fd 58 c0          	vaddpd %ymm0,%ymm0,%ymm0
  40219e:	c5 c5 58 ff          	vaddpd %ymm7,%ymm7,%ymm7
  4021a2:	c5 cd 58 f6          	vaddpd %ymm6,%ymm6,%ymm6
  4021a6:	c5 d5 58 ed          	vaddpd %ymm5,%ymm5,%ymm5
  4021aa:	c5 dd 58 e4          	vaddpd %ymm4,%ymm4,%ymm4
  4021ae:	c5 e5 58 db          	vaddpd %ymm3,%ymm3,%ymm3
  4021b2:	c5 ed 58 d2          	vaddpd %ymm2,%ymm2,%ymm2
  4021b6:	c5 f5 58 c9          	vaddpd %ymm1,%ymm1,%ymm1
  4021ba:	c5 fd 58 c0          	vaddpd %ymm0,%ymm0,%ymm0
  4021be:	c5 c5 58 ff          	vaddpd %ymm7,%ymm7,%ymm7
  4021c2:	c5 cd 58 f6          	vaddpd %ymm6,%ymm6,%ymm6
  4021c6:	c5 d5 58 ed          	vaddpd %ymm5,%ymm5,%ymm5
  4021ca:	c5 dd 58 e4          	vaddpd %ymm4,%ymm4,%ymm4
  4021ce:	c5 e5 58 db          	vaddpd %ymm3,%ymm3,%ymm3
  4021d2:	c5 ed 58 d2          	vaddpd %ymm2,%ymm2,%ymm2
  4021d6:	c5 f5 58 c9          	vaddpd %ymm1,%ymm1,%ymm1
  4021da:	c5 fd 58 c0          	vaddpd %ymm0,%ymm0,%ymm0
  4021de:	c5 c5 58 ff          	vaddpd %ymm7,%ymm7,%ymm7
  4021e2:	c5 cd 58 f6          	vaddpd %ymm6,%ymm6,%ymm6
  4021e6:	c5 d5 58 ed          	vaddpd %ymm5,%ymm5,%ymm5
  4021ea:	c5 dd 58 e4          	vaddpd %ymm4,%ymm4,%ymm4
  4021ee:	c5 e5 58 db          	vaddpd %ymm3,%ymm3,%ymm3
  4021f2:	c5 ed 58 d2          	vaddpd %ymm2,%ymm2,%ymm2
  4021f6:	c5 f5 58 c9          	vaddpd %ymm1,%ymm1,%ymm1
  4021fa:	c5 fd 58 c0          	vaddpd %ymm0,%ymm0,%ymm0
  4021fe:	c5 c5 58 ff          	vaddpd %ymm7,%ymm7,%ymm7
  402202:	c5 cd 58 f6          	vaddpd %ymm6,%ymm6,%ymm6
  402206:	c5 d5 58 ed          	vaddpd %ymm5,%ymm5,%ymm5
  40220a:	c5 dd 58 e4          	vaddpd %ymm4,%ymm4,%ymm4
  40220e:	c5 e5 58 db          	vaddpd %ymm3,%ymm3,%ymm3
  402212:	c5 ed 58 d2          	vaddpd %ymm2,%ymm2,%ymm2
  402216:	c5 f5 58 c9          	vaddpd %ymm1,%ymm1,%ymm1
  40221a:	c5 fd 58 c0          	vaddpd %ymm0,%ymm0,%ymm0
  40221e:	c5 c5 58 ff          	vaddpd %ymm7,%ymm7,%ymm7
  402222:	c5 cd 58 f6          	vaddpd %ymm6,%ymm6,%ymm6
  402226:	c5 d5 58 ed          	vaddpd %ymm5,%ymm5,%ymm5
  40222a:	c5 dd 58 e4          	vaddpd %ymm4,%ymm4,%ymm4
  40222e:	c5 e5 58 db          	vaddpd %ymm3,%ymm3,%ymm3
  402232:	c5 ed 58 d2          	vaddpd %ymm2,%ymm2,%ymm2
  402236:	c5 f5 58 c9          	vaddpd %ymm1,%ymm1,%ymm1
  40223a:	c5 fd 58 c0          	vaddpd %ymm0,%ymm0,%ymm0
  40223e:	c5 c5 58 ff          	vaddpd %ymm7,%ymm7,%ymm7
  402242:	c5 cd 58 f6          	vaddpd %ymm6,%ymm6,%ymm6
  402246:	c5 d5 58 ed          	vaddpd %ymm5,%ymm5,%ymm5
  40224a:	c5 dd 58 e4          	vaddpd %ymm4,%ymm4,%ymm4
  40224e:	c5 e5 58 db          	vaddpd %ymm3,%ymm3,%ymm3
  402252:	c5 ed 58 d2          	vaddpd %ymm2,%ymm2,%ymm2
  402256:	c5 f5 58 c9          	vaddpd %ymm1,%ymm1,%ymm1
  40225a:	c5 fd 58 c0          	vaddpd %ymm0,%ymm0,%ymm0
  40225e:	c5 c5 58 ff          	vaddpd %ymm7,%ymm7,%ymm7
  402262:	c5 cd 58 f6          	vaddpd %ymm6,%ymm6,%ymm6
  402266:	c5 d5 58 ed          	vaddpd %ymm5,%ymm5,%ymm5
  40226a:	c5 dd 58 e4          	vaddpd %ymm4,%ymm4,%ymm4
  40226e:	c5 e5 58 db          	vaddpd %ymm3,%ymm3,%ymm3
  402272:	c5 ed 58 d2          	vaddpd %ymm2,%ymm2,%ymm2
  402276:	c5 f5 58 c9          	vaddpd %ymm1,%ymm1,%ymm1
  40227a:	c5 fd 58 c0          	vaddpd %ymm0,%ymm0,%ymm0
  40227e:	c5 c5 58 ff          	vaddpd %ymm7,%ymm7,%ymm7
  402282:	c5 cd 58 f6          	vaddpd %ymm6,%ymm6,%ymm6
  402286:	c5 d5 58 ed          	vaddpd %ymm5,%ymm5,%ymm5
  40228a:	c5 dd 58 e4          	vaddpd %ymm4,%ymm4,%ymm4
  40228e:	c5 e5 58 db          	vaddpd %ymm3,%ymm3,%ymm3
  402292:	c5 ed 58 d2          	vaddpd %ymm2,%ymm2,%ymm2
  402296:	c5 f5 58 c9          	vaddpd %ymm1,%ymm1,%ymm1
  40229a:	c5 fd 58 c0          	vaddpd %ymm0,%ymm0,%ymm0
  40229e:	c5 c5 58 ff          	vaddpd %ymm7,%ymm7,%ymm7
  4022a2:	c5 cd 58 f6          	vaddpd %ymm6,%ymm6,%ymm6
  4022a6:	c5 d5 58 ed          	vaddpd %ymm5,%ymm5,%ymm5
  4022aa:	c5 dd 58 e4          	vaddpd %ymm4,%ymm4,%ymm4
  4022ae:	c5 e5 58 db          	vaddpd %ymm3,%ymm3,%ymm3
  4022b2:	c5 ed 58 d2          	vaddpd %ymm2,%ymm2,%ymm2
  4022b6:	c5 f5 58 c9          	vaddpd %ymm1,%ymm1,%ymm1
  4022ba:	c5 fd 58 c0          	vaddpd %ymm0,%ymm0,%ymm0
  4022be:	c5 c5 58 ff          	vaddpd %ymm7,%ymm7,%ymm7
  4022c2:	c5 cd 58 f6          	vaddpd %ymm6,%ymm6,%ymm6
  4022c6:	c5 d5 58 ed          	vaddpd %ymm5,%ymm5,%ymm5
  4022ca:	c5 dd 58 e4          	vaddpd %ymm4,%ymm4,%ymm4
  4022ce:	c5 e5 58 db          	vaddpd %ymm3,%ymm3,%ymm3
  4022d2:	c5 ed 58 d2          	vaddpd %ymm2,%ymm2,%ymm2
  4022d6:	c5 f5 58 c9          	vaddpd %ymm1,%ymm1,%ymm1
  4022da:	c5 fd 58 c0          	vaddpd %ymm0,%ymm0,%ymm0
  4022de:	c5 c5 58 ff          	vaddpd %ymm7,%ymm7,%ymm7
  4022e2:	c5 cd 58 f6          	vaddpd %ymm6,%ymm6,%ymm6
  4022e6:	c5 d5 58 ed          	vaddpd %ymm5,%ymm5,%ymm5
  4022ea:	c5 dd 58 e4          	vaddpd %ymm4,%ymm4,%ymm4
  4022ee:	c5 e5 58 db          	vaddpd %ymm3,%ymm3,%ymm3
  4022f2:	c5 ed 58 d2          	vaddpd %ymm2,%ymm2,%ymm2
  4022f6:	c5 f5 58 c9          	vaddpd %ymm1,%ymm1,%ymm1
  4022fa:	c5 fd 58 c0          	vaddpd %ymm0,%ymm0,%ymm0
  4022fe:	c5 c5 58 ff          	vaddpd %ymm7,%ymm7,%ymm7
  402302:	c5 cd 58 f6          	vaddpd %ymm6,%ymm6,%ymm6
  402306:	c5 d5 58 ed          	vaddpd %ymm5,%ymm5,%ymm5
  40230a:	c5 dd 58 e4          	vaddpd %ymm4,%ymm4,%ymm4
  40230e:	c5 e5 58 db          	vaddpd %ymm3,%ymm3,%ymm3
  402312:	c5 ed 58 d2          	vaddpd %ymm2,%ymm2,%ymm2
  402316:	c5 f5 58 c9          	vaddpd %ymm1,%ymm1,%ymm1
  40231a:	c5 fd 58 c0          	vaddpd %ymm0,%ymm0,%ymm0
  40231e:	c5 c5 58 ff          	vaddpd %ymm7,%ymm7,%ymm7
  402322:	c5 cd 58 f6          	vaddpd %ymm6,%ymm6,%ymm6
  402326:	c5 d5 58 ed          	vaddpd %ymm5,%ymm5,%ymm5
  40232a:	c5 dd 58 e4          	vaddpd %ymm4,%ymm4,%ymm4
  40232e:	c5 e5 58 db          	vaddpd %ymm3,%ymm3,%ymm3
  402332:	c5 ed 58 d2          	vaddpd %ymm2,%ymm2,%ymm2
  402336:	c5 f5 58 c9          	vaddpd %ymm1,%ymm1,%ymm1
  40233a:	c5 fd 58 c0          	vaddpd %ymm0,%ymm0,%ymm0
  40233e:	c5 c5 58 ff          	vaddpd %ymm7,%ymm7,%ymm7
  402342:	c5 cd 58 f6          	vaddpd %ymm6,%ymm6,%ymm6
  402346:	c5 d5 58 ed          	vaddpd %ymm5,%ymm5,%ymm5
  40234a:	c5 dd 58 e4          	vaddpd %ymm4,%ymm4,%ymm4
  40234e:	c5 e5 58 db          	vaddpd %ymm3,%ymm3,%ymm3
  402352:	c5 ed 58 d2          	vaddpd %ymm2,%ymm2,%ymm2
  402356:	c5 f5 58 c9          	vaddpd %ymm1,%ymm1,%ymm1
  40235a:	c5 fd 58 c0          	vaddpd %ymm0,%ymm0,%ymm0
  40235e:	c5 c5 58 ff          	vaddpd %ymm7,%ymm7,%ymm7
  402362:	c5 cd 58 f6          	vaddpd %ymm6,%ymm6,%ymm6
  402366:	c5 d5 58 ed          	vaddpd %ymm5,%ymm5,%ymm5
  40236a:	c5 dd 58 e4          	vaddpd %ymm4,%ymm4,%ymm4
  40236e:	c5 e5 58 db          	vaddpd %ymm3,%ymm3,%ymm3
  402372:	c5 ed 58 d2          	vaddpd %ymm2,%ymm2,%ymm2
  402376:	c5 f5 58 c9          	vaddpd %ymm1,%ymm1,%ymm1
  40237a:	c5 fd 58 c0          	vaddpd %ymm0,%ymm0,%ymm0
  40237e:	c5 c5 58 ff          	vaddpd %ymm7,%ymm7,%ymm7
  402382:	c5 cd 58 f6          	vaddpd %ymm6,%ymm6,%ymm6
  402386:	c5 d5 58 ed          	vaddpd %ymm5,%ymm5,%ymm5
  40238a:	c5 dd 58 e4          	vaddpd %ymm4,%ymm4,%ymm4
  40238e:	c5 e5 58 db          	vaddpd %ymm3,%ymm3,%ymm3
  402392:	c5 ed 58 d2          	vaddpd %ymm2,%ymm2,%ymm2
  402396:	c5 f5 58 c9          	vaddpd %ymm1,%ymm1,%ymm1
  40239a:	c5 fd 58 c0          	vaddpd %ymm0,%ymm0,%ymm0
  40239e:	c5 c5 58 ff          	vaddpd %ymm7,%ymm7,%ymm7
  4023a2:	c5 cd 58 f6          	vaddpd %ymm6,%ymm6,%ymm6
  4023a6:	c5 d5 58 ed          	vaddpd %ymm5,%ymm5,%ymm5
  4023aa:	c5 dd 58 e4          	vaddpd %ymm4,%ymm4,%ymm4
  4023ae:	c5 e5 58 db          	vaddpd %ymm3,%ymm3,%ymm3
  4023b2:	c5 ed 58 d2          	vaddpd %ymm2,%ymm2,%ymm2
  4023b6:	c5 f5 58 c9          	vaddpd %ymm1,%ymm1,%ymm1
  4023ba:	c5 fd 58 c0          	vaddpd %ymm0,%ymm0,%ymm0
  4023be:	c5 c5 58 ff          	vaddpd %ymm7,%ymm7,%ymm7
  4023c2:	c5 cd 58 f6          	vaddpd %ymm6,%ymm6,%ymm6
  4023c6:	c5 d5 58 ed          	vaddpd %ymm5,%ymm5,%ymm5
  4023ca:	c5 dd 58 e4          	vaddpd %ymm4,%ymm4,%ymm4
  4023ce:	c5 e5 58 db          	vaddpd %ymm3,%ymm3,%ymm3
  4023d2:	c5 ed 58 d2          	vaddpd %ymm2,%ymm2,%ymm2
  4023d6:	c5 f5 58 c9          	vaddpd %ymm1,%ymm1,%ymm1
  4023da:	c5 fd 58 c0          	vaddpd %ymm0,%ymm0,%ymm0
  4023de:	c5 c5 58 ff          	vaddpd %ymm7,%ymm7,%ymm7
  4023e2:	c5 cd 58 f6          	vaddpd %ymm6,%ymm6,%ymm6
  4023e6:	c5 d5 58 ed          	vaddpd %ymm5,%ymm5,%ymm5
  4023ea:	c5 dd 58 e4          	vaddpd %ymm4,%ymm4,%ymm4
  4023ee:	c5 e5 58 db          	vaddpd %ymm3,%ymm3,%ymm3
  4023f2:	c5 ed 58 d2          	vaddpd %ymm2,%ymm2,%ymm2
  4023f6:	c5 f5 58 c9          	vaddpd %ymm1,%ymm1,%ymm1
  4023fa:	c5 fd 58 c0          	vaddpd %ymm0,%ymm0,%ymm0
  4023fe:	c5 c5 58 ff          	vaddpd %ymm7,%ymm7,%ymm7
  402402:	c5 cd 58 f6          	vaddpd %ymm6,%ymm6,%ymm6
  402406:	c5 d5 58 ed          	vaddpd %ymm5,%ymm5,%ymm5
  40240a:	c5 dd 58 e4          	vaddpd %ymm4,%ymm4,%ymm4
  40240e:	c5 e5 58 db          	vaddpd %ymm3,%ymm3,%ymm3
  402412:	c5 ed 58 d2          	vaddpd %ymm2,%ymm2,%ymm2
  402416:	c5 f5 58 c9          	vaddpd %ymm1,%ymm1,%ymm1
  40241a:	c5 fd 58 c0          	vaddpd %ymm0,%ymm0,%ymm0
  40241e:	c5 c5 58 ff          	vaddpd %ymm7,%ymm7,%ymm7
  402422:	c5 cd 58 f6          	vaddpd %ymm6,%ymm6,%ymm6
  402426:	c5 d5 58 ed          	vaddpd %ymm5,%ymm5,%ymm5
  40242a:	c5 dd 58 e4          	vaddpd %ymm4,%ymm4,%ymm4
  40242e:	c5 e5 58 db          	vaddpd %ymm3,%ymm3,%ymm3
  402432:	c5 ed 58 d2          	vaddpd %ymm2,%ymm2,%ymm2
  402436:	c5 f5 58 c9          	vaddpd %ymm1,%ymm1,%ymm1
  40243a:	c5 fd 58 c0          	vaddpd %ymm0,%ymm0,%ymm0
  40243e:	c5 c5 58 ff          	vaddpd %ymm7,%ymm7,%ymm7
  402442:	c5 cd 58 f6          	vaddpd %ymm6,%ymm6,%ymm6
  402446:	c5 d5 58 ed          	vaddpd %ymm5,%ymm5,%ymm5
  40244a:	c5 dd 58 e4          	vaddpd %ymm4,%ymm4,%ymm4
  40244e:	c5 e5 58 db          	vaddpd %ymm3,%ymm3,%ymm3
  402452:	c5 ed 58 d2          	vaddpd %ymm2,%ymm2,%ymm2
  402456:	c5 f5 58 c9          	vaddpd %ymm1,%ymm1,%ymm1
  40245a:	c5 fd 58 c0          	vaddpd %ymm0,%ymm0,%ymm0
  40245e:	c5 c5 58 ff          	vaddpd %ymm7,%ymm7,%ymm7
  402462:	c5 cd 58 f6          	vaddpd %ymm6,%ymm6,%ymm6
  402466:	c5 d5 58 ed          	vaddpd %ymm5,%ymm5,%ymm5
  40246a:	c5 dd 58 e4          	vaddpd %ymm4,%ymm4,%ymm4
  40246e:	c5 e5 58 db          	vaddpd %ymm3,%ymm3,%ymm3
  402472:	c5 ed 58 d2          	vaddpd %ymm2,%ymm2,%ymm2
  402476:	c5 f5 58 c9          	vaddpd %ymm1,%ymm1,%ymm1
  40247a:	c5 fd 58 c0          	vaddpd %ymm0,%ymm0,%ymm0
  40247e:	c5 c5 58 ff          	vaddpd %ymm7,%ymm7,%ymm7
  402482:	c5 cd 58 f6          	vaddpd %ymm6,%ymm6,%ymm6
  402486:	c5 d5 58 ed          	vaddpd %ymm5,%ymm5,%ymm5
  40248a:	c5 dd 58 e4          	vaddpd %ymm4,%ymm4,%ymm4
  40248e:	c5 e5 58 db          	vaddpd %ymm3,%ymm3,%ymm3
  402492:	c5 ed 58 d2          	vaddpd %ymm2,%ymm2,%ymm2
  402496:	c5 f5 58 c9          	vaddpd %ymm1,%ymm1,%ymm1
  40249a:	c5 fd 58 c0          	vaddpd %ymm0,%ymm0,%ymm0
  40249e:	c5 c5 58 ff          	vaddpd %ymm7,%ymm7,%ymm7
  4024a2:	c5 cd 58 f6          	vaddpd %ymm6,%ymm6,%ymm6
  4024a6:	c5 d5 58 ed          	vaddpd %ymm5,%ymm5,%ymm5
  4024aa:	c5 dd 58 e4          	vaddpd %ymm4,%ymm4,%ymm4
  4024ae:	c5 e5 58 db          	vaddpd %ymm3,%ymm3,%ymm3
  4024b2:	c5 ed 58 d2          	vaddpd %ymm2,%ymm2,%ymm2
  4024b6:	c5 f5 58 c9          	vaddpd %ymm1,%ymm1,%ymm1
  4024ba:	c5 fd 58 c0          	vaddpd %ymm0,%ymm0,%ymm0
  4024be:	c5 c5 58 ff          	vaddpd %ymm7,%ymm7,%ymm7
  4024c2:	c5 cd 58 f6          	vaddpd %ymm6,%ymm6,%ymm6
  4024c6:	c5 d5 58 ed          	vaddpd %ymm5,%ymm5,%ymm5
  4024ca:	c5 dd 58 e4          	vaddpd %ymm4,%ymm4,%ymm4
  4024ce:	c5 e5 58 db          	vaddpd %ymm3,%ymm3,%ymm3
  4024d2:	c5 ed 58 d2          	vaddpd %ymm2,%ymm2,%ymm2
  4024d6:	c5 f5 58 c9          	vaddpd %ymm1,%ymm1,%ymm1
  4024da:	c5 fd 58 c0          	vaddpd %ymm0,%ymm0,%ymm0
  4024de:	c5 c5 58 ff          	vaddpd %ymm7,%ymm7,%ymm7
  4024e2:	c5 cd 58 f6          	vaddpd %ymm6,%ymm6,%ymm6
  4024e6:	c5 d5 58 ed          	vaddpd %ymm5,%ymm5,%ymm5
  4024ea:	c5 dd 58 e4          	vaddpd %ymm4,%ymm4,%ymm4
  4024ee:	c5 e5 58 db          	vaddpd %ymm3,%ymm3,%ymm3
  4024f2:	c5 ed 58 d2          	vaddpd %ymm2,%ymm2,%ymm2
  4024f6:	c5 f5 58 c9          	vaddpd %ymm1,%ymm1,%ymm1
  4024fa:	c5 fd 58 c0          	vaddpd %ymm0,%ymm0,%ymm0
  4024fe:	c5 c5 58 ff          	vaddpd %ymm7,%ymm7,%ymm7
  402502:	c5 cd 58 f6          	vaddpd %ymm6,%ymm6,%ymm6
  402506:	c5 d5 58 ed          	vaddpd %ymm5,%ymm5,%ymm5
  40250a:	c5 dd 58 e4          	vaddpd %ymm4,%ymm4,%ymm4
  40250e:	c5 e5 58 db          	vaddpd %ymm3,%ymm3,%ymm3
  402512:	c5 ed 58 d2          	vaddpd %ymm2,%ymm2,%ymm2
  402516:	c5 f5 58 c9          	vaddpd %ymm1,%ymm1,%ymm1
  40251a:	c5 fd 58 c0          	vaddpd %ymm0,%ymm0,%ymm0
  40251e:	c5 c5 58 ff          	vaddpd %ymm7,%ymm7,%ymm7
  402522:	c5 cd 58 f6          	vaddpd %ymm6,%ymm6,%ymm6
  402526:	c5 d5 58 ed          	vaddpd %ymm5,%ymm5,%ymm5
  40252a:	c5 dd 58 e4          	vaddpd %ymm4,%ymm4,%ymm4
  40252e:	c5 e5 58 db          	vaddpd %ymm3,%ymm3,%ymm3
  402532:	c5 ed 58 d2          	vaddpd %ymm2,%ymm2,%ymm2
  402536:	c5 f5 58 c9          	vaddpd %ymm1,%ymm1,%ymm1
  40253a:	c5 fd 58 c0          	vaddpd %ymm0,%ymm0,%ymm0
  40253e:	c5 c5 58 ff          	vaddpd %ymm7,%ymm7,%ymm7
  402542:	c5 cd 58 f6          	vaddpd %ymm6,%ymm6,%ymm6
  402546:	c5 d5 58 ed          	vaddpd %ymm5,%ymm5,%ymm5
  40254a:	c5 dd 58 e4          	vaddpd %ymm4,%ymm4,%ymm4
  40254e:	c5 e5 58 db          	vaddpd %ymm3,%ymm3,%ymm3
  402552:	c5 ed 58 d2          	vaddpd %ymm2,%ymm2,%ymm2
  402556:	c5 f5 58 c9          	vaddpd %ymm1,%ymm1,%ymm1
  40255a:	c5 fd 58 c0          	vaddpd %ymm0,%ymm0,%ymm0
  40255e:	c5 c5 58 ff          	vaddpd %ymm7,%ymm7,%ymm7
  402562:	c5 cd 58 f6          	vaddpd %ymm6,%ymm6,%ymm6
  402566:	c5 d5 58 ed          	vaddpd %ymm5,%ymm5,%ymm5
  40256a:	c5 dd 58 e4          	vaddpd %ymm4,%ymm4,%ymm4
  40256e:	c5 e5 58 db          	vaddpd %ymm3,%ymm3,%ymm3
  402572:	c5 ed 58 d2          	vaddpd %ymm2,%ymm2,%ymm2
  402576:	c5 f5 58 c9          	vaddpd %ymm1,%ymm1,%ymm1
  40257a:	c5 fd 58 c0          	vaddpd %ymm0,%ymm0,%ymm0
  40257e:	c5 c5 58 ff          	vaddpd %ymm7,%ymm7,%ymm7
  402582:	c5 cd 58 f6          	vaddpd %ymm6,%ymm6,%ymm6
  402586:	c5 d5 58 ed          	vaddpd %ymm5,%ymm5,%ymm5
  40258a:	c5 dd 58 e4          	vaddpd %ymm4,%ymm4,%ymm4
  40258e:	c5 e5 58 db          	vaddpd %ymm3,%ymm3,%ymm3
  402592:	c5 ed 58 d2          	vaddpd %ymm2,%ymm2,%ymm2
  402596:	c5 f5 58 c9          	vaddpd %ymm1,%ymm1,%ymm1
  40259a:	c5 fd 58 c0          	vaddpd %ymm0,%ymm0,%ymm0
  40259e:	c5 c5 58 ff          	vaddpd %ymm7,%ymm7,%ymm7
  4025a2:	c5 cd 58 f6          	vaddpd %ymm6,%ymm6,%ymm6
  4025a6:	c5 d5 58 ed          	vaddpd %ymm5,%ymm5,%ymm5
  4025aa:	c5 dd 58 e4          	vaddpd %ymm4,%ymm4,%ymm4
  4025ae:	c5 e5 58 db          	vaddpd %ymm3,%ymm3,%ymm3
  4025b2:	c5 ed 58 d2          	vaddpd %ymm2,%ymm2,%ymm2
  4025b6:	c5 f5 58 c9          	vaddpd %ymm1,%ymm1,%ymm1
  4025ba:	c5 fd 58 c0          	vaddpd %ymm0,%ymm0,%ymm0
  4025be:	c5 c5 58 ff          	vaddpd %ymm7,%ymm7,%ymm7
  4025c2:	c5 cd 58 f6          	vaddpd %ymm6,%ymm6,%ymm6
  4025c6:	c5 d5 58 ed          	vaddpd %ymm5,%ymm5,%ymm5
  4025ca:	c5 dd 58 e4          	vaddpd %ymm4,%ymm4,%ymm4
  4025ce:	c5 e5 58 db          	vaddpd %ymm3,%ymm3,%ymm3
  4025d2:	c5 ed 58 d2          	vaddpd %ymm2,%ymm2,%ymm2
  4025d6:	c5 f5 58 c9          	vaddpd %ymm1,%ymm1,%ymm1
  4025da:	c5 fd 58 c0          	vaddpd %ymm0,%ymm0,%ymm0
  4025de:	c5 c5 58 ff          	vaddpd %ymm7,%ymm7,%ymm7
  4025e2:	c5 cd 58 f6          	vaddpd %ymm6,%ymm6,%ymm6
  4025e6:	c5 d5 58 ed          	vaddpd %ymm5,%ymm5,%ymm5
  4025ea:	c5 dd 58 e4          	vaddpd %ymm4,%ymm4,%ymm4
  4025ee:	c5 e5 58 db          	vaddpd %ymm3,%ymm3,%ymm3
  4025f2:	c5 ed 58 d2          	vaddpd %ymm2,%ymm2,%ymm2
  4025f6:	c5 f5 58 c9          	vaddpd %ymm1,%ymm1,%ymm1
  4025fa:	c5 fd 58 c0          	vaddpd %ymm0,%ymm0,%ymm0
  4025fe:	c5 c5 58 ff          	vaddpd %ymm7,%ymm7,%ymm7
  402602:	c5 cd 58 f6          	vaddpd %ymm6,%ymm6,%ymm6
  402606:	c5 d5 58 ed          	vaddpd %ymm5,%ymm5,%ymm5
  40260a:	c5 dd 58 e4          	vaddpd %ymm4,%ymm4,%ymm4
  40260e:	c5 e5 58 db          	vaddpd %ymm3,%ymm3,%ymm3
  402612:	c5 ed 58 d2          	vaddpd %ymm2,%ymm2,%ymm2
  402616:	c5 f5 58 c9          	vaddpd %ymm1,%ymm1,%ymm1
  40261a:	c5 fd 58 c0          	vaddpd %ymm0,%ymm0,%ymm0
  40261e:	c5 c5 58 ff          	vaddpd %ymm7,%ymm7,%ymm7
  402622:	c5 cd 58 f6          	vaddpd %ymm6,%ymm6,%ymm6
  402626:	c5 d5 58 ed          	vaddpd %ymm5,%ymm5,%ymm5
  40262a:	c5 dd 58 e4          	vaddpd %ymm4,%ymm4,%ymm4
  40262e:	c5 e5 58 db          	vaddpd %ymm3,%ymm3,%ymm3
  402632:	c5 ed 58 d2          	vaddpd %ymm2,%ymm2,%ymm2
  402636:	c5 f5 58 c9          	vaddpd %ymm1,%ymm1,%ymm1
  40263a:	c5 fd 58 c0          	vaddpd %ymm0,%ymm0,%ymm0
  40263e:	c5 c5 58 ff          	vaddpd %ymm7,%ymm7,%ymm7
  402642:	c5 cd 58 f6          	vaddpd %ymm6,%ymm6,%ymm6
  402646:	c5 d5 58 ed          	vaddpd %ymm5,%ymm5,%ymm5
  40264a:	c5 dd 58 e4          	vaddpd %ymm4,%ymm4,%ymm4
  40264e:	c5 e5 58 db          	vaddpd %ymm3,%ymm3,%ymm3
  402652:	c5 ed 58 d2          	vaddpd %ymm2,%ymm2,%ymm2
  402656:	c5 f5 58 c9          	vaddpd %ymm1,%ymm1,%ymm1
  40265a:	c5 fd 58 c0          	vaddpd %ymm0,%ymm0,%ymm0
  40265e:	c5 c5 58 ff          	vaddpd %ymm7,%ymm7,%ymm7
  402662:	c5 cd 58 f6          	vaddpd %ymm6,%ymm6,%ymm6
  402666:	c5 d5 58 ed          	vaddpd %ymm5,%ymm5,%ymm5
  40266a:	c5 dd 58 e4          	vaddpd %ymm4,%ymm4,%ymm4
  40266e:	c5 e5 58 db          	vaddpd %ymm3,%ymm3,%ymm3
  402672:	c5 ed 58 d2          	vaddpd %ymm2,%ymm2,%ymm2
  402676:	c5 f5 58 c9          	vaddpd %ymm1,%ymm1,%ymm1
  40267a:	c5 fd 58 c0          	vaddpd %ymm0,%ymm0,%ymm0
  40267e:	c5 c5 58 ff          	vaddpd %ymm7,%ymm7,%ymm7
  402682:	c5 cd 58 f6          	vaddpd %ymm6,%ymm6,%ymm6
  402686:	c5 d5 58 ed          	vaddpd %ymm5,%ymm5,%ymm5
  40268a:	c5 dd 58 e4          	vaddpd %ymm4,%ymm4,%ymm4
  40268e:	c5 e5 58 db          	vaddpd %ymm3,%ymm3,%ymm3
  402692:	c5 ed 58 d2          	vaddpd %ymm2,%ymm2,%ymm2
  402696:	c5 f5 58 c9          	vaddpd %ymm1,%ymm1,%ymm1
  40269a:	c5 fd 58 c0          	vaddpd %ymm0,%ymm0,%ymm0
  40269e:	c5 c5 58 ff          	vaddpd %ymm7,%ymm7,%ymm7
  4026a2:	c5 cd 58 f6          	vaddpd %ymm6,%ymm6,%ymm6
  4026a6:	c5 d5 58 ed          	vaddpd %ymm5,%ymm5,%ymm5
  4026aa:	c5 dd 58 e4          	vaddpd %ymm4,%ymm4,%ymm4
  4026ae:	c5 e5 58 db          	vaddpd %ymm3,%ymm3,%ymm3
  4026b2:	c5 ed 58 d2          	vaddpd %ymm2,%ymm2,%ymm2
  4026b6:	c5 f5 58 c9          	vaddpd %ymm1,%ymm1,%ymm1
  4026ba:	c5 fd 58 c0          	vaddpd %ymm0,%ymm0,%ymm0
  4026be:	c5 c5 58 ff          	vaddpd %ymm7,%ymm7,%ymm7
  4026c2:	c5 cd 58 f6          	vaddpd %ymm6,%ymm6,%ymm6
  4026c6:	c5 d5 58 ed          	vaddpd %ymm5,%ymm5,%ymm5
  4026ca:	c5 dd 58 e4          	vaddpd %ymm4,%ymm4,%ymm4
  4026ce:	c5 e5 58 db          	vaddpd %ymm3,%ymm3,%ymm3
  4026d2:	c5 ed 58 d2          	vaddpd %ymm2,%ymm2,%ymm2
  4026d6:	c5 f5 58 c9          	vaddpd %ymm1,%ymm1,%ymm1
  4026da:	c5 fd 58 c0          	vaddpd %ymm0,%ymm0,%ymm0
  4026de:	c5 c5 58 ff          	vaddpd %ymm7,%ymm7,%ymm7
  4026e2:	c5 cd 58 f6          	vaddpd %ymm6,%ymm6,%ymm6
  4026e6:	c5 d5 58 ed          	vaddpd %ymm5,%ymm5,%ymm5
  4026ea:	c5 dd 58 e4          	vaddpd %ymm4,%ymm4,%ymm4
  4026ee:	c5 e5 58 db          	vaddpd %ymm3,%ymm3,%ymm3
  4026f2:	c5 ed 58 d2          	vaddpd %ymm2,%ymm2,%ymm2
  4026f6:	c5 f5 58 c9          	vaddpd %ymm1,%ymm1,%ymm1
  4026fa:	c5 fd 58 c0          	vaddpd %ymm0,%ymm0,%ymm0
  4026fe:	c5 c5 58 ff          	vaddpd %ymm7,%ymm7,%ymm7
  402702:	c5 cd 58 f6          	vaddpd %ymm6,%ymm6,%ymm6
  402706:	c5 d5 58 ed          	vaddpd %ymm5,%ymm5,%ymm5
  40270a:	c5 dd 58 e4          	vaddpd %ymm4,%ymm4,%ymm4
  40270e:	c5 e5 58 db          	vaddpd %ymm3,%ymm3,%ymm3
  402712:	c5 ed 58 d2          	vaddpd %ymm2,%ymm2,%ymm2
  402716:	c5 f5 58 c9          	vaddpd %ymm1,%ymm1,%ymm1
  40271a:	c5 fd 58 c0          	vaddpd %ymm0,%ymm0,%ymm0
  40271e:	c5 c5 58 ff          	vaddpd %ymm7,%ymm7,%ymm7
  402722:	c5 cd 58 f6          	vaddpd %ymm6,%ymm6,%ymm6
  402726:	c5 d5 58 ed          	vaddpd %ymm5,%ymm5,%ymm5
  40272a:	c5 dd 58 e4          	vaddpd %ymm4,%ymm4,%ymm4
  40272e:	c5 e5 58 db          	vaddpd %ymm3,%ymm3,%ymm3
  402732:	c5 ed 58 d2          	vaddpd %ymm2,%ymm2,%ymm2
  402736:	c5 f5 58 c9          	vaddpd %ymm1,%ymm1,%ymm1
  40273a:	c5 fd 58 c0          	vaddpd %ymm0,%ymm0,%ymm0
  40273e:	c5 c5 58 ff          	vaddpd %ymm7,%ymm7,%ymm7
  402742:	c5 cd 58 f6          	vaddpd %ymm6,%ymm6,%ymm6
  402746:	c5 d5 58 ed          	vaddpd %ymm5,%ymm5,%ymm5
  40274a:	c5 dd 58 e4          	vaddpd %ymm4,%ymm4,%ymm4
  40274e:	c5 e5 58 db          	vaddpd %ymm3,%ymm3,%ymm3
  402752:	c5 ed 58 d2          	vaddpd %ymm2,%ymm2,%ymm2
  402756:	c5 f5 58 c9          	vaddpd %ymm1,%ymm1,%ymm1
  40275a:	c5 fd 58 c0          	vaddpd %ymm0,%ymm0,%ymm0
  40275e:	c5 c5 58 ff          	vaddpd %ymm7,%ymm7,%ymm7
  402762:	c5 cd 58 f6          	vaddpd %ymm6,%ymm6,%ymm6
  402766:	c5 d5 58 ed          	vaddpd %ymm5,%ymm5,%ymm5
  40276a:	c5 dd 58 e4          	vaddpd %ymm4,%ymm4,%ymm4
  40276e:	c5 e5 58 db          	vaddpd %ymm3,%ymm3,%ymm3
  402772:	c5 ed 58 d2          	vaddpd %ymm2,%ymm2,%ymm2
  402776:	c5 f5 58 c9          	vaddpd %ymm1,%ymm1,%ymm1
  40277a:	c5 fd 58 c0          	vaddpd %ymm0,%ymm0,%ymm0
  40277e:	c5 c5 58 ff          	vaddpd %ymm7,%ymm7,%ymm7
  402782:	c5 cd 58 f6          	vaddpd %ymm6,%ymm6,%ymm6
  402786:	c5 d5 58 ed          	vaddpd %ymm5,%ymm5,%ymm5
  40278a:	c5 dd 58 e4          	vaddpd %ymm4,%ymm4,%ymm4
  40278e:	c5 e5 58 db          	vaddpd %ymm3,%ymm3,%ymm3
  402792:	c5 ed 58 d2          	vaddpd %ymm2,%ymm2,%ymm2
  402796:	c5 f5 58 c9          	vaddpd %ymm1,%ymm1,%ymm1
  40279a:	c5 fd 58 c0          	vaddpd %ymm0,%ymm0,%ymm0
  40279e:	c5 c5 58 ff          	vaddpd %ymm7,%ymm7,%ymm7
  4027a2:	c5 cd 58 f6          	vaddpd %ymm6,%ymm6,%ymm6
  4027a6:	c5 d5 58 ed          	vaddpd %ymm5,%ymm5,%ymm5
  4027aa:	c5 dd 58 e4          	vaddpd %ymm4,%ymm4,%ymm4
  4027ae:	c5 e5 58 db          	vaddpd %ymm3,%ymm3,%ymm3
  4027b2:	c5 ed 58 d2          	vaddpd %ymm2,%ymm2,%ymm2
  4027b6:	c5 f5 58 c9          	vaddpd %ymm1,%ymm1,%ymm1
  4027ba:	c5 fd 58 c0          	vaddpd %ymm0,%ymm0,%ymm0
  4027be:	c5 c5 58 ff          	vaddpd %ymm7,%ymm7,%ymm7
  4027c2:	c5 cd 58 f6          	vaddpd %ymm6,%ymm6,%ymm6
  4027c6:	c5 d5 58 ed          	vaddpd %ymm5,%ymm5,%ymm5
  4027ca:	c5 dd 58 e4          	vaddpd %ymm4,%ymm4,%ymm4
  4027ce:	c5 e5 58 db          	vaddpd %ymm3,%ymm3,%ymm3
  4027d2:	c5 ed 58 d2          	vaddpd %ymm2,%ymm2,%ymm2
  4027d6:	c5 f5 58 c9          	vaddpd %ymm1,%ymm1,%ymm1
  4027da:	c5 fd 58 c0          	vaddpd %ymm0,%ymm0,%ymm0
  4027de:	c5 c5 58 ff          	vaddpd %ymm7,%ymm7,%ymm7
  4027e2:	c5 cd 58 f6          	vaddpd %ymm6,%ymm6,%ymm6
  4027e6:	c5 d5 58 ed          	vaddpd %ymm5,%ymm5,%ymm5
  4027ea:	c5 dd 58 e4          	vaddpd %ymm4,%ymm4,%ymm4
  4027ee:	c5 e5 58 db          	vaddpd %ymm3,%ymm3,%ymm3
  4027f2:	c5 ed 58 d2          	vaddpd %ymm2,%ymm2,%ymm2
  4027f6:	c5 f5 58 c9          	vaddpd %ymm1,%ymm1,%ymm1
  4027fa:	c5 fd 58 c0          	vaddpd %ymm0,%ymm0,%ymm0
  4027fe:	c5 c5 58 ff          	vaddpd %ymm7,%ymm7,%ymm7
  402802:	c5 cd 58 f6          	vaddpd %ymm6,%ymm6,%ymm6
  402806:	c5 d5 58 ed          	vaddpd %ymm5,%ymm5,%ymm5
  40280a:	c5 dd 58 e4          	vaddpd %ymm4,%ymm4,%ymm4
  40280e:	c5 e5 58 db          	vaddpd %ymm3,%ymm3,%ymm3
  402812:	c5 ed 58 d2          	vaddpd %ymm2,%ymm2,%ymm2
  402816:	c5 f5 58 c9          	vaddpd %ymm1,%ymm1,%ymm1
  40281a:	c5 fd 58 c0          	vaddpd %ymm0,%ymm0,%ymm0
  40281e:	c5 c5 58 ff          	vaddpd %ymm7,%ymm7,%ymm7
  402822:	c5 cd 58 f6          	vaddpd %ymm6,%ymm6,%ymm6
  402826:	c5 d5 58 ed          	vaddpd %ymm5,%ymm5,%ymm5
  40282a:	c5 dd 58 e4          	vaddpd %ymm4,%ymm4,%ymm4
  40282e:	c5 e5 58 db          	vaddpd %ymm3,%ymm3,%ymm3
  402832:	c5 ed 58 d2          	vaddpd %ymm2,%ymm2,%ymm2
  402836:	c5 f5 58 c9          	vaddpd %ymm1,%ymm1,%ymm1
  40283a:	c5 fd 58 c0          	vaddpd %ymm0,%ymm0,%ymm0
  40283e:	c5 c5 58 ff          	vaddpd %ymm7,%ymm7,%ymm7
  402842:	c5 cd 58 f6          	vaddpd %ymm6,%ymm6,%ymm6
  402846:	c5 d5 58 ed          	vaddpd %ymm5,%ymm5,%ymm5
  40284a:	c5 dd 58 e4          	vaddpd %ymm4,%ymm4,%ymm4
  40284e:	c5 e5 58 db          	vaddpd %ymm3,%ymm3,%ymm3
  402852:	c5 ed 58 d2          	vaddpd %ymm2,%ymm2,%ymm2
  402856:	c5 f5 58 c9          	vaddpd %ymm1,%ymm1,%ymm1
  40285a:	c5 fd 58 c0          	vaddpd %ymm0,%ymm0,%ymm0
  40285e:	c5 c5 58 ff          	vaddpd %ymm7,%ymm7,%ymm7
  402862:	c5 cd 58 f6          	vaddpd %ymm6,%ymm6,%ymm6
  402866:	c5 d5 58 ed          	vaddpd %ymm5,%ymm5,%ymm5
  40286a:	c5 dd 58 e4          	vaddpd %ymm4,%ymm4,%ymm4
  40286e:	c5 e5 58 db          	vaddpd %ymm3,%ymm3,%ymm3
  402872:	c5 ed 58 d2          	vaddpd %ymm2,%ymm2,%ymm2
  402876:	c5 f5 58 c9          	vaddpd %ymm1,%ymm1,%ymm1
  40287a:	c5 fd 58 c0          	vaddpd %ymm0,%ymm0,%ymm0
  40287e:	c5 c5 58 ff          	vaddpd %ymm7,%ymm7,%ymm7
  402882:	c5 cd 58 f6          	vaddpd %ymm6,%ymm6,%ymm6
  402886:	c5 d5 58 ed          	vaddpd %ymm5,%ymm5,%ymm5
  40288a:	c5 dd 58 e4          	vaddpd %ymm4,%ymm4,%ymm4
  40288e:	c5 e5 58 db          	vaddpd %ymm3,%ymm3,%ymm3
  402892:	c5 ed 58 d2          	vaddpd %ymm2,%ymm2,%ymm2
  402896:	c5 f5 58 c9          	vaddpd %ymm1,%ymm1,%ymm1
  40289a:	c5 fd 58 c0          	vaddpd %ymm0,%ymm0,%ymm0
  40289e:	c5 c5 58 ff          	vaddpd %ymm7,%ymm7,%ymm7
  4028a2:	c5 cd 58 f6          	vaddpd %ymm6,%ymm6,%ymm6
  4028a6:	c5 d5 58 ed          	vaddpd %ymm5,%ymm5,%ymm5
  4028aa:	c5 dd 58 e4          	vaddpd %ymm4,%ymm4,%ymm4
  4028ae:	c5 e5 58 db          	vaddpd %ymm3,%ymm3,%ymm3
  4028b2:	c5 ed 58 d2          	vaddpd %ymm2,%ymm2,%ymm2
  4028b6:	c5 f5 58 c9          	vaddpd %ymm1,%ymm1,%ymm1
  4028ba:	c5 fd 58 c0          	vaddpd %ymm0,%ymm0,%ymm0
  4028be:	c5 c5 58 ff          	vaddpd %ymm7,%ymm7,%ymm7
  4028c2:	c5 cd 58 f6          	vaddpd %ymm6,%ymm6,%ymm6
  4028c6:	c5 d5 58 ed          	vaddpd %ymm5,%ymm5,%ymm5
  4028ca:	c5 dd 58 e4          	vaddpd %ymm4,%ymm4,%ymm4
  4028ce:	c5 e5 58 db          	vaddpd %ymm3,%ymm3,%ymm3
  4028d2:	c5 ed 58 d2          	vaddpd %ymm2,%ymm2,%ymm2
  4028d6:	c5 f5 58 c9          	vaddpd %ymm1,%ymm1,%ymm1
  4028da:	c5 fd 58 c0          	vaddpd %ymm0,%ymm0,%ymm0
  4028de:	c5 c5 58 ff          	vaddpd %ymm7,%ymm7,%ymm7
  4028e2:	c5 cd 58 f6          	vaddpd %ymm6,%ymm6,%ymm6
  4028e6:	c5 d5 58 ed          	vaddpd %ymm5,%ymm5,%ymm5
  4028ea:	c5 dd 58 e4          	vaddpd %ymm4,%ymm4,%ymm4
  4028ee:	c5 e5 58 db          	vaddpd %ymm3,%ymm3,%ymm3
  4028f2:	c5 ed 58 d2          	vaddpd %ymm2,%ymm2,%ymm2
  4028f6:	c5 f5 58 c9          	vaddpd %ymm1,%ymm1,%ymm1
  4028fa:	c5 fd 58 c0          	vaddpd %ymm0,%ymm0,%ymm0
  4028fe:	c5 c5 58 ff          	vaddpd %ymm7,%ymm7,%ymm7
  402902:	c5 cd 58 f6          	vaddpd %ymm6,%ymm6,%ymm6
  402906:	c5 d5 58 ed          	vaddpd %ymm5,%ymm5,%ymm5
  40290a:	c5 dd 58 e4          	vaddpd %ymm4,%ymm4,%ymm4
  40290e:	c5 e5 58 db          	vaddpd %ymm3,%ymm3,%ymm3
  402912:	c5 ed 58 d2          	vaddpd %ymm2,%ymm2,%ymm2
  402916:	c5 f5 58 c9          	vaddpd %ymm1,%ymm1,%ymm1
  40291a:	c5 fd 58 c0          	vaddpd %ymm0,%ymm0,%ymm0
  40291e:	c5 c5 58 ff          	vaddpd %ymm7,%ymm7,%ymm7
  402922:	c5 cd 58 f6          	vaddpd %ymm6,%ymm6,%ymm6
  402926:	c5 d5 58 ed          	vaddpd %ymm5,%ymm5,%ymm5
  40292a:	c5 dd 58 e4          	vaddpd %ymm4,%ymm4,%ymm4
  40292e:	c5 e5 58 db          	vaddpd %ymm3,%ymm3,%ymm3
  402932:	c5 ed 58 d2          	vaddpd %ymm2,%ymm2,%ymm2
  402936:	c5 f5 58 c9          	vaddpd %ymm1,%ymm1,%ymm1
  40293a:	c5 fd 58 c0          	vaddpd %ymm0,%ymm0,%ymm0
  40293e:	c5 c5 58 ff          	vaddpd %ymm7,%ymm7,%ymm7
  402942:	c5 cd 58 f6          	vaddpd %ymm6,%ymm6,%ymm6
  402946:	c5 d5 58 ed          	vaddpd %ymm5,%ymm5,%ymm5
  40294a:	c5 dd 58 e4          	vaddpd %ymm4,%ymm4,%ymm4
  40294e:	c5 e5 58 db          	vaddpd %ymm3,%ymm3,%ymm3
  402952:	c5 ed 58 d2          	vaddpd %ymm2,%ymm2,%ymm2
  402956:	c5 f5 58 c9          	vaddpd %ymm1,%ymm1,%ymm1
  40295a:	c5 fd 58 c0          	vaddpd %ymm0,%ymm0,%ymm0
  40295e:	c5 c5 58 ff          	vaddpd %ymm7,%ymm7,%ymm7
  402962:	c5 cd 58 f6          	vaddpd %ymm6,%ymm6,%ymm6
  402966:	c5 d5 58 ed          	vaddpd %ymm5,%ymm5,%ymm5
  40296a:	c5 dd 58 e4          	vaddpd %ymm4,%ymm4,%ymm4
  40296e:	c5 e5 58 db          	vaddpd %ymm3,%ymm3,%ymm3
  402972:	c5 ed 58 d2          	vaddpd %ymm2,%ymm2,%ymm2
  402976:	c5 f5 58 c9          	vaddpd %ymm1,%ymm1,%ymm1
  40297a:	c5 fd 58 c0          	vaddpd %ymm0,%ymm0,%ymm0
  40297e:	c5 c5 58 ff          	vaddpd %ymm7,%ymm7,%ymm7
  402982:	c5 cd 58 f6          	vaddpd %ymm6,%ymm6,%ymm6
  402986:	c5 d5 58 ed          	vaddpd %ymm5,%ymm5,%ymm5
  40298a:	c5 dd 58 e4          	vaddpd %ymm4,%ymm4,%ymm4
  40298e:	c5 e5 58 db          	vaddpd %ymm3,%ymm3,%ymm3
  402992:	c5 ed 58 d2          	vaddpd %ymm2,%ymm2,%ymm2
  402996:	c5 f5 58 c9          	vaddpd %ymm1,%ymm1,%ymm1
  40299a:	c5 fd 58 c0          	vaddpd %ymm0,%ymm0,%ymm0
  40299e:	c5 c5 58 ff          	vaddpd %ymm7,%ymm7,%ymm7
  4029a2:	c5 cd 58 f6          	vaddpd %ymm6,%ymm6,%ymm6
  4029a6:	c5 d5 58 ed          	vaddpd %ymm5,%ymm5,%ymm5
  4029aa:	c5 dd 58 e4          	vaddpd %ymm4,%ymm4,%ymm4
  4029ae:	c5 e5 58 db          	vaddpd %ymm3,%ymm3,%ymm3
  4029b2:	c5 ed 58 d2          	vaddpd %ymm2,%ymm2,%ymm2
  4029b6:	c5 f5 58 c9          	vaddpd %ymm1,%ymm1,%ymm1
  4029ba:	c5 fd 58 c0          	vaddpd %ymm0,%ymm0,%ymm0
  4029be:	c5 c5 58 ff          	vaddpd %ymm7,%ymm7,%ymm7
  4029c2:	c5 cd 58 f6          	vaddpd %ymm6,%ymm6,%ymm6
  4029c6:	c5 d5 58 ed          	vaddpd %ymm5,%ymm5,%ymm5
  4029ca:	c5 dd 58 e4          	vaddpd %ymm4,%ymm4,%ymm4
  4029ce:	c5 e5 58 db          	vaddpd %ymm3,%ymm3,%ymm3
  4029d2:	c5 ed 58 d2          	vaddpd %ymm2,%ymm2,%ymm2
  4029d6:	c5 f5 58 c9          	vaddpd %ymm1,%ymm1,%ymm1
  4029da:	c5 fd 58 c0          	vaddpd %ymm0,%ymm0,%ymm0
  4029de:	c5 c5 58 ff          	vaddpd %ymm7,%ymm7,%ymm7
  4029e2:	c5 cd 58 f6          	vaddpd %ymm6,%ymm6,%ymm6
  4029e6:	c5 d5 58 ed          	vaddpd %ymm5,%ymm5,%ymm5
  4029ea:	c5 dd 58 e4          	vaddpd %ymm4,%ymm4,%ymm4
  4029ee:	c5 e5 58 db          	vaddpd %ymm3,%ymm3,%ymm3
  4029f2:	c5 ed 58 d2          	vaddpd %ymm2,%ymm2,%ymm2
  4029f6:	c5 f5 58 c9          	vaddpd %ymm1,%ymm1,%ymm1
  4029fa:	c5 fd 58 c0          	vaddpd %ymm0,%ymm0,%ymm0
  4029fe:	c5 c5 58 ff          	vaddpd %ymm7,%ymm7,%ymm7
  402a02:	c5 cd 58 f6          	vaddpd %ymm6,%ymm6,%ymm6
  402a06:	c5 d5 58 ed          	vaddpd %ymm5,%ymm5,%ymm5
  402a0a:	c5 dd 58 e4          	vaddpd %ymm4,%ymm4,%ymm4
  402a0e:	c5 e5 58 db          	vaddpd %ymm3,%ymm3,%ymm3
  402a12:	c5 ed 58 d2          	vaddpd %ymm2,%ymm2,%ymm2
  402a16:	c5 f5 58 c9          	vaddpd %ymm1,%ymm1,%ymm1
  402a1a:	c5 fd 58 c0          	vaddpd %ymm0,%ymm0,%ymm0
  402a1e:	c5 c5 58 ff          	vaddpd %ymm7,%ymm7,%ymm7
  402a22:	c5 cd 58 f6          	vaddpd %ymm6,%ymm6,%ymm6
  402a26:	c5 d5 58 ed          	vaddpd %ymm5,%ymm5,%ymm5
  402a2a:	c5 dd 58 e4          	vaddpd %ymm4,%ymm4,%ymm4
  402a2e:	c5 e5 58 db          	vaddpd %ymm3,%ymm3,%ymm3
  402a32:	c5 ed 58 d2          	vaddpd %ymm2,%ymm2,%ymm2
  402a36:	c5 f5 58 c9          	vaddpd %ymm1,%ymm1,%ymm1
  402a3a:	c5 fd 58 c0          	vaddpd %ymm0,%ymm0,%ymm0
  402a3e:	c5 c5 58 ff          	vaddpd %ymm7,%ymm7,%ymm7
  402a42:	c5 cd 58 f6          	vaddpd %ymm6,%ymm6,%ymm6
  402a46:	c5 d5 58 ed          	vaddpd %ymm5,%ymm5,%ymm5
  402a4a:	c5 dd 58 e4          	vaddpd %ymm4,%ymm4,%ymm4
  402a4e:	c5 e5 58 db          	vaddpd %ymm3,%ymm3,%ymm3
  402a52:	c5 ed 58 d2          	vaddpd %ymm2,%ymm2,%ymm2
  402a56:	c5 f5 58 c9          	vaddpd %ymm1,%ymm1,%ymm1
  402a5a:	c5 fd 58 c0          	vaddpd %ymm0,%ymm0,%ymm0
  402a5e:	c5 c5 58 ff          	vaddpd %ymm7,%ymm7,%ymm7
  402a62:	c5 cd 58 f6          	vaddpd %ymm6,%ymm6,%ymm6
  402a66:	c5 d5 58 ed          	vaddpd %ymm5,%ymm5,%ymm5
  402a6a:	c5 dd 58 e4          	vaddpd %ymm4,%ymm4,%ymm4
  402a6e:	c5 e5 58 db          	vaddpd %ymm3,%ymm3,%ymm3
  402a72:	c5 ed 58 d2          	vaddpd %ymm2,%ymm2,%ymm2
  402a76:	c5 f5 58 c9          	vaddpd %ymm1,%ymm1,%ymm1
  402a7a:	c5 fd 58 c0          	vaddpd %ymm0,%ymm0,%ymm0
  402a7e:	c5 c5 58 ff          	vaddpd %ymm7,%ymm7,%ymm7
  402a82:	c5 cd 58 f6          	vaddpd %ymm6,%ymm6,%ymm6
  402a86:	c5 d5 58 ed          	vaddpd %ymm5,%ymm5,%ymm5
  402a8a:	c5 dd 58 e4          	vaddpd %ymm4,%ymm4,%ymm4
  402a8e:	c5 e5 58 db          	vaddpd %ymm3,%ymm3,%ymm3
  402a92:	c5 ed 58 d2          	vaddpd %ymm2,%ymm2,%ymm2
  402a96:	c5 f5 58 c9          	vaddpd %ymm1,%ymm1,%ymm1
  402a9a:	c5 fd 58 c0          	vaddpd %ymm0,%ymm0,%ymm0
  402a9e:	c5 c5 58 ff          	vaddpd %ymm7,%ymm7,%ymm7
  402aa2:	c5 cd 58 f6          	vaddpd %ymm6,%ymm6,%ymm6
  402aa6:	c5 d5 58 ed          	vaddpd %ymm5,%ymm5,%ymm5
  402aaa:	c5 dd 58 e4          	vaddpd %ymm4,%ymm4,%ymm4
  402aae:	c5 e5 58 db          	vaddpd %ymm3,%ymm3,%ymm3
  402ab2:	c5 ed 58 d2          	vaddpd %ymm2,%ymm2,%ymm2
  402ab6:	c5 f5 58 c9          	vaddpd %ymm1,%ymm1,%ymm1
  402aba:	c5 fd 58 c0          	vaddpd %ymm0,%ymm0,%ymm0
  402abe:	c5 c5 58 ff          	vaddpd %ymm7,%ymm7,%ymm7
  402ac2:	c5 cd 58 f6          	vaddpd %ymm6,%ymm6,%ymm6
  402ac6:	c5 d5 58 ed          	vaddpd %ymm5,%ymm5,%ymm5
  402aca:	c5 dd 58 e4          	vaddpd %ymm4,%ymm4,%ymm4
  402ace:	c5 e5 58 db          	vaddpd %ymm3,%ymm3,%ymm3
  402ad2:	c5 ed 58 d2          	vaddpd %ymm2,%ymm2,%ymm2
  402ad6:	c5 f5 58 c9          	vaddpd %ymm1,%ymm1,%ymm1
  402ada:	c5 fd 58 c0          	vaddpd %ymm0,%ymm0,%ymm0
  402ade:	c5 c5 58 ff          	vaddpd %ymm7,%ymm7,%ymm7
  402ae2:	c5 cd 58 f6          	vaddpd %ymm6,%ymm6,%ymm6
  402ae6:	c5 d5 58 ed          	vaddpd %ymm5,%ymm5,%ymm5
  402aea:	c5 dd 58 e4          	vaddpd %ymm4,%ymm4,%ymm4
  402aee:	c5 e5 58 db          	vaddpd %ymm3,%ymm3,%ymm3
  402af2:	c5 ed 58 d2          	vaddpd %ymm2,%ymm2,%ymm2
  402af6:	c5 f5 58 c9          	vaddpd %ymm1,%ymm1,%ymm1
  402afa:	c5 fd 58 c0          	vaddpd %ymm0,%ymm0,%ymm0
  402afe:	c5 c5 58 ff          	vaddpd %ymm7,%ymm7,%ymm7
  402b02:	c5 cd 58 f6          	vaddpd %ymm6,%ymm6,%ymm6
  402b06:	c5 d5 58 ed          	vaddpd %ymm5,%ymm5,%ymm5
  402b0a:	c5 dd 58 e4          	vaddpd %ymm4,%ymm4,%ymm4
  402b0e:	c5 e5 58 db          	vaddpd %ymm3,%ymm3,%ymm3
  402b12:	c5 ed 58 d2          	vaddpd %ymm2,%ymm2,%ymm2
  402b16:	c5 f5 58 c9          	vaddpd %ymm1,%ymm1,%ymm1
  402b1a:	c5 fd 58 c0          	vaddpd %ymm0,%ymm0,%ymm0
  402b1e:	c5 c5 58 ff          	vaddpd %ymm7,%ymm7,%ymm7
  402b22:	c5 cd 58 f6          	vaddpd %ymm6,%ymm6,%ymm6
  402b26:	c5 d5 58 ed          	vaddpd %ymm5,%ymm5,%ymm5
  402b2a:	c5 dd 58 e4          	vaddpd %ymm4,%ymm4,%ymm4
  402b2e:	c5 e5 58 db          	vaddpd %ymm3,%ymm3,%ymm3
  402b32:	c5 ed 58 d2          	vaddpd %ymm2,%ymm2,%ymm2
  402b36:	c5 f5 58 c9          	vaddpd %ymm1,%ymm1,%ymm1
  402b3a:	c5 fd 58 c0          	vaddpd %ymm0,%ymm0,%ymm0
  402b3e:	c5 c5 58 ff          	vaddpd %ymm7,%ymm7,%ymm7
  402b42:	c5 cd 58 f6          	vaddpd %ymm6,%ymm6,%ymm6
  402b46:	c5 d5 58 ed          	vaddpd %ymm5,%ymm5,%ymm5
  402b4a:	c5 dd 58 e4          	vaddpd %ymm4,%ymm4,%ymm4
  402b4e:	c5 e5 58 db          	vaddpd %ymm3,%ymm3,%ymm3
  402b52:	c5 ed 58 d2          	vaddpd %ymm2,%ymm2,%ymm2
  402b56:	c5 f5 58 c9          	vaddpd %ymm1,%ymm1,%ymm1
  402b5a:	c5 fd 58 c0          	vaddpd %ymm0,%ymm0,%ymm0
  402b5e:	c5 c5 58 ff          	vaddpd %ymm7,%ymm7,%ymm7
  402b62:	c5 cd 58 f6          	vaddpd %ymm6,%ymm6,%ymm6
  402b66:	c5 d5 58 ed          	vaddpd %ymm5,%ymm5,%ymm5
  402b6a:	c5 dd 58 e4          	vaddpd %ymm4,%ymm4,%ymm4
  402b6e:	c5 e5 58 db          	vaddpd %ymm3,%ymm3,%ymm3
  402b72:	c5 ed 58 d2          	vaddpd %ymm2,%ymm2,%ymm2
  402b76:	c5 f5 58 c9          	vaddpd %ymm1,%ymm1,%ymm1
  402b7a:	c5 fd 58 c0          	vaddpd %ymm0,%ymm0,%ymm0
  402b7e:	c5 c5 58 ff          	vaddpd %ymm7,%ymm7,%ymm7
  402b82:	c5 cd 58 f6          	vaddpd %ymm6,%ymm6,%ymm6
  402b86:	c5 d5 58 ed          	vaddpd %ymm5,%ymm5,%ymm5
  402b8a:	c5 dd 58 e4          	vaddpd %ymm4,%ymm4,%ymm4
  402b8e:	c5 e5 58 db          	vaddpd %ymm3,%ymm3,%ymm3
  402b92:	c5 ed 58 d2          	vaddpd %ymm2,%ymm2,%ymm2
  402b96:	c5 f5 58 c9          	vaddpd %ymm1,%ymm1,%ymm1
  402b9a:	c5 fd 58 c0          	vaddpd %ymm0,%ymm0,%ymm0
  402b9e:	c5 c5 58 ff          	vaddpd %ymm7,%ymm7,%ymm7
  402ba2:	c5 cd 58 f6          	vaddpd %ymm6,%ymm6,%ymm6
  402ba6:	c5 d5 58 ed          	vaddpd %ymm5,%ymm5,%ymm5
  402baa:	c5 dd 58 e4          	vaddpd %ymm4,%ymm4,%ymm4
  402bae:	c5 e5 58 db          	vaddpd %ymm3,%ymm3,%ymm3
  402bb2:	c5 ed 58 d2          	vaddpd %ymm2,%ymm2,%ymm2
  402bb6:	c5 f5 58 c9          	vaddpd %ymm1,%ymm1,%ymm1
  402bba:	c5 fd 58 c0          	vaddpd %ymm0,%ymm0,%ymm0
  402bbe:	c5 c5 58 ff          	vaddpd %ymm7,%ymm7,%ymm7
  402bc2:	c5 cd 58 f6          	vaddpd %ymm6,%ymm6,%ymm6
  402bc6:	c5 d5 58 ed          	vaddpd %ymm5,%ymm5,%ymm5
  402bca:	c5 dd 58 e4          	vaddpd %ymm4,%ymm4,%ymm4
  402bce:	c5 e5 58 db          	vaddpd %ymm3,%ymm3,%ymm3
  402bd2:	c5 ed 58 d2          	vaddpd %ymm2,%ymm2,%ymm2
  402bd6:	c5 f5 58 c9          	vaddpd %ymm1,%ymm1,%ymm1
  402bda:	c5 fd 58 c0          	vaddpd %ymm0,%ymm0,%ymm0
  402bde:	c5 c5 58 ff          	vaddpd %ymm7,%ymm7,%ymm7
  402be2:	c5 cd 58 f6          	vaddpd %ymm6,%ymm6,%ymm6
  402be6:	c5 d5 58 ed          	vaddpd %ymm5,%ymm5,%ymm5
  402bea:	c5 dd 58 e4          	vaddpd %ymm4,%ymm4,%ymm4
  402bee:	c5 e5 58 db          	vaddpd %ymm3,%ymm3,%ymm3
  402bf2:	c5 ed 58 d2          	vaddpd %ymm2,%ymm2,%ymm2
  402bf6:	c5 f5 58 c9          	vaddpd %ymm1,%ymm1,%ymm1
  402bfa:	c5 fd 58 c0          	vaddpd %ymm0,%ymm0,%ymm0
  402bfe:	c5 c5 58 ff          	vaddpd %ymm7,%ymm7,%ymm7
  402c02:	c5 cd 58 f6          	vaddpd %ymm6,%ymm6,%ymm6
  402c06:	c5 d5 58 ed          	vaddpd %ymm5,%ymm5,%ymm5
  402c0a:	c5 dd 58 e4          	vaddpd %ymm4,%ymm4,%ymm4
  402c0e:	c5 e5 58 db          	vaddpd %ymm3,%ymm3,%ymm3
  402c12:	c5 ed 58 d2          	vaddpd %ymm2,%ymm2,%ymm2
  402c16:	c5 f5 58 c9          	vaddpd %ymm1,%ymm1,%ymm1
  402c1a:	c5 fd 58 c0          	vaddpd %ymm0,%ymm0,%ymm0
  402c1e:	c5 c5 58 ff          	vaddpd %ymm7,%ymm7,%ymm7
  402c22:	c5 cd 58 f6          	vaddpd %ymm6,%ymm6,%ymm6
  402c26:	c5 d5 58 ed          	vaddpd %ymm5,%ymm5,%ymm5
  402c2a:	c5 dd 58 e4          	vaddpd %ymm4,%ymm4,%ymm4
  402c2e:	c5 e5 58 db          	vaddpd %ymm3,%ymm3,%ymm3
  402c32:	c5 ed 58 d2          	vaddpd %ymm2,%ymm2,%ymm2
  402c36:	c5 f5 58 c9          	vaddpd %ymm1,%ymm1,%ymm1
  402c3a:	c5 fd 58 c0          	vaddpd %ymm0,%ymm0,%ymm0
  402c3e:	c5 c5 58 ff          	vaddpd %ymm7,%ymm7,%ymm7
  402c42:	c5 cd 58 f6          	vaddpd %ymm6,%ymm6,%ymm6
  402c46:	c5 d5 58 ed          	vaddpd %ymm5,%ymm5,%ymm5
  402c4a:	c5 dd 58 e4          	vaddpd %ymm4,%ymm4,%ymm4
  402c4e:	c5 e5 58 db          	vaddpd %ymm3,%ymm3,%ymm3
  402c52:	c5 ed 58 d2          	vaddpd %ymm2,%ymm2,%ymm2
  402c56:	c5 f5 58 c9          	vaddpd %ymm1,%ymm1,%ymm1
  402c5a:	c5 fd 58 c0          	vaddpd %ymm0,%ymm0,%ymm0
  402c5e:	c5 c5 58 ff          	vaddpd %ymm7,%ymm7,%ymm7
  402c62:	c5 cd 58 f6          	vaddpd %ymm6,%ymm6,%ymm6
  402c66:	c5 d5 58 ed          	vaddpd %ymm5,%ymm5,%ymm5
  402c6a:	c5 dd 58 e4          	vaddpd %ymm4,%ymm4,%ymm4
  402c6e:	c5 e5 58 db          	vaddpd %ymm3,%ymm3,%ymm3
  402c72:	c5 ed 58 d2          	vaddpd %ymm2,%ymm2,%ymm2
  402c76:	c5 f5 58 c9          	vaddpd %ymm1,%ymm1,%ymm1
  402c7a:	c5 fd 58 c0          	vaddpd %ymm0,%ymm0,%ymm0
  402c7e:	c5 c5 58 ff          	vaddpd %ymm7,%ymm7,%ymm7
  402c82:	c5 cd 58 f6          	vaddpd %ymm6,%ymm6,%ymm6
  402c86:	c5 d5 58 ed          	vaddpd %ymm5,%ymm5,%ymm5
  402c8a:	c5 dd 58 e4          	vaddpd %ymm4,%ymm4,%ymm4
  402c8e:	c5 e5 58 db          	vaddpd %ymm3,%ymm3,%ymm3
  402c92:	c5 ed 58 d2          	vaddpd %ymm2,%ymm2,%ymm2
  402c96:	c5 f5 58 c9          	vaddpd %ymm1,%ymm1,%ymm1
  402c9a:	c5 fd 58 c0          	vaddpd %ymm0,%ymm0,%ymm0
  402c9e:	c5 c5 58 ff          	vaddpd %ymm7,%ymm7,%ymm7
  402ca2:	c5 cd 58 f6          	vaddpd %ymm6,%ymm6,%ymm6
  402ca6:	c5 d5 58 ed          	vaddpd %ymm5,%ymm5,%ymm5
  402caa:	c5 dd 58 e4          	vaddpd %ymm4,%ymm4,%ymm4
  402cae:	c5 e5 58 db          	vaddpd %ymm3,%ymm3,%ymm3
  402cb2:	c5 ed 58 d2          	vaddpd %ymm2,%ymm2,%ymm2
  402cb6:	c5 f5 58 c9          	vaddpd %ymm1,%ymm1,%ymm1
  402cba:	c5 fd 58 c0          	vaddpd %ymm0,%ymm0,%ymm0
  402cbe:	c5 c5 58 ff          	vaddpd %ymm7,%ymm7,%ymm7
  402cc2:	c5 cd 58 f6          	vaddpd %ymm6,%ymm6,%ymm6
  402cc6:	c5 d5 58 ed          	vaddpd %ymm5,%ymm5,%ymm5
  402cca:	c5 dd 58 e4          	vaddpd %ymm4,%ymm4,%ymm4
  402cce:	c5 e5 58 db          	vaddpd %ymm3,%ymm3,%ymm3
  402cd2:	c5 ed 58 d2          	vaddpd %ymm2,%ymm2,%ymm2
  402cd6:	c5 f5 58 c9          	vaddpd %ymm1,%ymm1,%ymm1
  402cda:	c5 fd 58 c0          	vaddpd %ymm0,%ymm0,%ymm0
  402cde:	c5 c5 58 ff          	vaddpd %ymm7,%ymm7,%ymm7
  402ce2:	c5 cd 58 f6          	vaddpd %ymm6,%ymm6,%ymm6
  402ce6:	c5 d5 58 ed          	vaddpd %ymm5,%ymm5,%ymm5
  402cea:	c5 dd 58 e4          	vaddpd %ymm4,%ymm4,%ymm4
  402cee:	c5 e5 58 db          	vaddpd %ymm3,%ymm3,%ymm3
  402cf2:	c5 ed 58 d2          	vaddpd %ymm2,%ymm2,%ymm2
  402cf6:	c5 f5 58 c9          	vaddpd %ymm1,%ymm1,%ymm1
  402cfa:	c5 fd 58 c0          	vaddpd %ymm0,%ymm0,%ymm0
  402cfe:	c5 c5 58 ff          	vaddpd %ymm7,%ymm7,%ymm7
  402d02:	c5 cd 58 f6          	vaddpd %ymm6,%ymm6,%ymm6
  402d06:	c5 d5 58 ed          	vaddpd %ymm5,%ymm5,%ymm5
  402d0a:	c5 dd 58 e4          	vaddpd %ymm4,%ymm4,%ymm4
  402d0e:	c5 e5 58 db          	vaddpd %ymm3,%ymm3,%ymm3
  402d12:	c5 ed 58 d2          	vaddpd %ymm2,%ymm2,%ymm2
  402d16:	c5 f5 58 c9          	vaddpd %ymm1,%ymm1,%ymm1
  402d1a:	c5 fd 58 c0          	vaddpd %ymm0,%ymm0,%ymm0
  402d1e:	c5 c5 58 ff          	vaddpd %ymm7,%ymm7,%ymm7
  402d22:	c5 cd 58 f6          	vaddpd %ymm6,%ymm6,%ymm6
  402d26:	c5 d5 58 ed          	vaddpd %ymm5,%ymm5,%ymm5
  402d2a:	c5 dd 58 e4          	vaddpd %ymm4,%ymm4,%ymm4
  402d2e:	c5 e5 58 db          	vaddpd %ymm3,%ymm3,%ymm3
  402d32:	c5 ed 58 d2          	vaddpd %ymm2,%ymm2,%ymm2
  402d36:	c5 f5 58 c9          	vaddpd %ymm1,%ymm1,%ymm1
  402d3a:	c5 fd 58 c0          	vaddpd %ymm0,%ymm0,%ymm0
  402d3e:	c5 c5 58 ff          	vaddpd %ymm7,%ymm7,%ymm7
  402d42:	c5 cd 58 f6          	vaddpd %ymm6,%ymm6,%ymm6
  402d46:	c5 d5 58 ed          	vaddpd %ymm5,%ymm5,%ymm5
  402d4a:	c5 dd 58 e4          	vaddpd %ymm4,%ymm4,%ymm4
  402d4e:	c5 e5 58 db          	vaddpd %ymm3,%ymm3,%ymm3
  402d52:	c5 ed 58 d2          	vaddpd %ymm2,%ymm2,%ymm2
  402d56:	c5 f5 58 c9          	vaddpd %ymm1,%ymm1,%ymm1
  402d5a:	c5 fd 58 c0          	vaddpd %ymm0,%ymm0,%ymm0
  402d5e:	c5 c5 58 ff          	vaddpd %ymm7,%ymm7,%ymm7
  402d62:	c5 cd 58 f6          	vaddpd %ymm6,%ymm6,%ymm6
  402d66:	c5 d5 58 ed          	vaddpd %ymm5,%ymm5,%ymm5
  402d6a:	c5 dd 58 e4          	vaddpd %ymm4,%ymm4,%ymm4
  402d6e:	c5 e5 58 db          	vaddpd %ymm3,%ymm3,%ymm3
  402d72:	c5 ed 58 d2          	vaddpd %ymm2,%ymm2,%ymm2
  402d76:	c5 f5 58 c9          	vaddpd %ymm1,%ymm1,%ymm1
  402d7a:	c5 fd 58 c0          	vaddpd %ymm0,%ymm0,%ymm0
  402d7e:	c5 c5 58 ff          	vaddpd %ymm7,%ymm7,%ymm7
  402d82:	c5 cd 58 f6          	vaddpd %ymm6,%ymm6,%ymm6
  402d86:	c5 d5 58 ed          	vaddpd %ymm5,%ymm5,%ymm5
  402d8a:	c5 dd 58 e4          	vaddpd %ymm4,%ymm4,%ymm4
  402d8e:	c5 e5 58 db          	vaddpd %ymm3,%ymm3,%ymm3
  402d92:	c5 ed 58 d2          	vaddpd %ymm2,%ymm2,%ymm2
  402d96:	c5 f5 58 c9          	vaddpd %ymm1,%ymm1,%ymm1
  402d9a:	c5 fd 58 c0          	vaddpd %ymm0,%ymm0,%ymm0
  402d9e:	c5 c5 58 ff          	vaddpd %ymm7,%ymm7,%ymm7
  402da2:	c5 cd 58 f6          	vaddpd %ymm6,%ymm6,%ymm6
  402da6:	c5 d5 58 ed          	vaddpd %ymm5,%ymm5,%ymm5
  402daa:	c5 dd 58 e4          	vaddpd %ymm4,%ymm4,%ymm4
  402dae:	c5 e5 58 db          	vaddpd %ymm3,%ymm3,%ymm3
  402db2:	c5 ed 58 d2          	vaddpd %ymm2,%ymm2,%ymm2
  402db6:	c5 f5 58 c9          	vaddpd %ymm1,%ymm1,%ymm1
  402dba:	c5 fd 58 c0          	vaddpd %ymm0,%ymm0,%ymm0
  402dbe:	c5 c5 58 ff          	vaddpd %ymm7,%ymm7,%ymm7
  402dc2:	c5 cd 58 f6          	vaddpd %ymm6,%ymm6,%ymm6
  402dc6:	c5 d5 58 ed          	vaddpd %ymm5,%ymm5,%ymm5
  402dca:	c5 dd 58 e4          	vaddpd %ymm4,%ymm4,%ymm4
  402dce:	c5 e5 58 db          	vaddpd %ymm3,%ymm3,%ymm3
  402dd2:	c5 ed 58 d2          	vaddpd %ymm2,%ymm2,%ymm2
  402dd6:	c5 f5 58 c9          	vaddpd %ymm1,%ymm1,%ymm1
  402dda:	c5 fd 58 c0          	vaddpd %ymm0,%ymm0,%ymm0
  402dde:	c5 c5 58 ff          	vaddpd %ymm7,%ymm7,%ymm7
  402de2:	c5 cd 58 f6          	vaddpd %ymm6,%ymm6,%ymm6
  402de6:	c5 d5 58 ed          	vaddpd %ymm5,%ymm5,%ymm5
  402dea:	c5 dd 58 e4          	vaddpd %ymm4,%ymm4,%ymm4
  402dee:	c5 e5 58 db          	vaddpd %ymm3,%ymm3,%ymm3
  402df2:	c5 ed 58 d2          	vaddpd %ymm2,%ymm2,%ymm2
  402df6:	c5 f5 58 c9          	vaddpd %ymm1,%ymm1,%ymm1
  402dfa:	c5 fd 58 c0          	vaddpd %ymm0,%ymm0,%ymm0
  402dfe:	c5 c5 58 ff          	vaddpd %ymm7,%ymm7,%ymm7
  402e02:	c5 cd 58 f6          	vaddpd %ymm6,%ymm6,%ymm6
  402e06:	c5 d5 58 ed          	vaddpd %ymm5,%ymm5,%ymm5
  402e0a:	c5 dd 58 e4          	vaddpd %ymm4,%ymm4,%ymm4
  402e0e:	c5 e5 58 db          	vaddpd %ymm3,%ymm3,%ymm3
  402e12:	c5 ed 58 d2          	vaddpd %ymm2,%ymm2,%ymm2
  402e16:	c5 f5 58 c9          	vaddpd %ymm1,%ymm1,%ymm1
  402e1a:	c5 fd 58 c0          	vaddpd %ymm0,%ymm0,%ymm0
  402e1e:	c5 c5 58 ff          	vaddpd %ymm7,%ymm7,%ymm7
  402e22:	c5 cd 58 f6          	vaddpd %ymm6,%ymm6,%ymm6
  402e26:	c5 d5 58 ed          	vaddpd %ymm5,%ymm5,%ymm5
  402e2a:	c5 dd 58 e4          	vaddpd %ymm4,%ymm4,%ymm4
  402e2e:	c5 e5 58 db          	vaddpd %ymm3,%ymm3,%ymm3
  402e32:	c5 ed 58 d2          	vaddpd %ymm2,%ymm2,%ymm2
  402e36:	c5 f5 58 c9          	vaddpd %ymm1,%ymm1,%ymm1
  402e3a:	c5 fd 58 c0          	vaddpd %ymm0,%ymm0,%ymm0
  402e3e:	c5 c5 58 ff          	vaddpd %ymm7,%ymm7,%ymm7
  402e42:	c5 cd 58 f6          	vaddpd %ymm6,%ymm6,%ymm6
  402e46:	c5 d5 58 ed          	vaddpd %ymm5,%ymm5,%ymm5
  402e4a:	c5 dd 58 e4          	vaddpd %ymm4,%ymm4,%ymm4
  402e4e:	c5 e5 58 db          	vaddpd %ymm3,%ymm3,%ymm3
  402e52:	c5 ed 58 d2          	vaddpd %ymm2,%ymm2,%ymm2
  402e56:	c5 f5 58 c9          	vaddpd %ymm1,%ymm1,%ymm1
  402e5a:	c5 fd 58 c0          	vaddpd %ymm0,%ymm0,%ymm0
  402e5e:	c5 c5 58 ff          	vaddpd %ymm7,%ymm7,%ymm7
  402e62:	c5 cd 58 f6          	vaddpd %ymm6,%ymm6,%ymm6
  402e66:	c5 d5 58 ed          	vaddpd %ymm5,%ymm5,%ymm5
  402e6a:	c5 dd 58 e4          	vaddpd %ymm4,%ymm4,%ymm4
  402e6e:	c5 e5 58 db          	vaddpd %ymm3,%ymm3,%ymm3
  402e72:	c5 ed 58 d2          	vaddpd %ymm2,%ymm2,%ymm2
  402e76:	c5 f5 58 c9          	vaddpd %ymm1,%ymm1,%ymm1
  402e7a:	c5 fd 58 c0          	vaddpd %ymm0,%ymm0,%ymm0
  402e7e:	c5 c5 58 ff          	vaddpd %ymm7,%ymm7,%ymm7
  402e82:	c5 cd 58 f6          	vaddpd %ymm6,%ymm6,%ymm6
  402e86:	c5 d5 58 ed          	vaddpd %ymm5,%ymm5,%ymm5
  402e8a:	c5 dd 58 e4          	vaddpd %ymm4,%ymm4,%ymm4
  402e8e:	c5 e5 58 db          	vaddpd %ymm3,%ymm3,%ymm3
  402e92:	c5 ed 58 d2          	vaddpd %ymm2,%ymm2,%ymm2
  402e96:	c5 f5 58 c9          	vaddpd %ymm1,%ymm1,%ymm1
  402e9a:	c5 fd 58 c0          	vaddpd %ymm0,%ymm0,%ymm0
  402e9e:	c5 c5 58 ff          	vaddpd %ymm7,%ymm7,%ymm7
  402ea2:	c5 cd 58 f6          	vaddpd %ymm6,%ymm6,%ymm6
  402ea6:	c5 d5 58 ed          	vaddpd %ymm5,%ymm5,%ymm5
  402eaa:	c5 dd 58 e4          	vaddpd %ymm4,%ymm4,%ymm4
  402eae:	c5 e5 58 db          	vaddpd %ymm3,%ymm3,%ymm3
  402eb2:	c5 ed 58 d2          	vaddpd %ymm2,%ymm2,%ymm2
  402eb6:	c5 f5 58 c9          	vaddpd %ymm1,%ymm1,%ymm1
  402eba:	c5 fd 58 c0          	vaddpd %ymm0,%ymm0,%ymm0
  402ebe:	c5 c5 58 ff          	vaddpd %ymm7,%ymm7,%ymm7
  402ec2:	c5 cd 58 f6          	vaddpd %ymm6,%ymm6,%ymm6
  402ec6:	c5 d5 58 ed          	vaddpd %ymm5,%ymm5,%ymm5
  402eca:	c5 dd 58 e4          	vaddpd %ymm4,%ymm4,%ymm4
  402ece:	c5 e5 58 db          	vaddpd %ymm3,%ymm3,%ymm3
  402ed2:	c5 ed 58 d2          	vaddpd %ymm2,%ymm2,%ymm2
  402ed6:	c5 f5 58 c9          	vaddpd %ymm1,%ymm1,%ymm1
  402eda:	c5 fd 58 c0          	vaddpd %ymm0,%ymm0,%ymm0
  402ede:	c5 c5 58 ff          	vaddpd %ymm7,%ymm7,%ymm7
  402ee2:	c5 cd 58 f6          	vaddpd %ymm6,%ymm6,%ymm6
  402ee6:	c5 d5 58 ed          	vaddpd %ymm5,%ymm5,%ymm5
  402eea:	c5 dd 58 e4          	vaddpd %ymm4,%ymm4,%ymm4
  402eee:	c5 e5 58 db          	vaddpd %ymm3,%ymm3,%ymm3
  402ef2:	c5 ed 58 d2          	vaddpd %ymm2,%ymm2,%ymm2
  402ef6:	c5 f5 58 c9          	vaddpd %ymm1,%ymm1,%ymm1
  402efa:	c5 fd 58 c0          	vaddpd %ymm0,%ymm0,%ymm0
  402efe:	c5 c5 58 ff          	vaddpd %ymm7,%ymm7,%ymm7
  402f02:	c5 cd 58 f6          	vaddpd %ymm6,%ymm6,%ymm6
  402f06:	c5 d5 58 ed          	vaddpd %ymm5,%ymm5,%ymm5
  402f0a:	c5 dd 58 e4          	vaddpd %ymm4,%ymm4,%ymm4
  402f0e:	c5 e5 58 db          	vaddpd %ymm3,%ymm3,%ymm3
  402f12:	c5 ed 58 d2          	vaddpd %ymm2,%ymm2,%ymm2
  402f16:	c5 f5 58 c9          	vaddpd %ymm1,%ymm1,%ymm1
  402f1a:	c5 fd 58 c0          	vaddpd %ymm0,%ymm0,%ymm0
  402f1e:	c5 c5 58 ff          	vaddpd %ymm7,%ymm7,%ymm7
  402f22:	c5 cd 58 f6          	vaddpd %ymm6,%ymm6,%ymm6
  402f26:	c5 d5 58 ed          	vaddpd %ymm5,%ymm5,%ymm5
  402f2a:	c5 dd 58 e4          	vaddpd %ymm4,%ymm4,%ymm4
  402f2e:	c5 e5 58 db          	vaddpd %ymm3,%ymm3,%ymm3
  402f32:	c5 ed 58 d2          	vaddpd %ymm2,%ymm2,%ymm2
  402f36:	c5 f5 58 c9          	vaddpd %ymm1,%ymm1,%ymm1
  402f3a:	c5 fd 58 c0          	vaddpd %ymm0,%ymm0,%ymm0
  402f3e:	c5 c5 58 ff          	vaddpd %ymm7,%ymm7,%ymm7
  402f42:	c5 cd 58 f6          	vaddpd %ymm6,%ymm6,%ymm6
  402f46:	c5 d5 58 ed          	vaddpd %ymm5,%ymm5,%ymm5
  402f4a:	c5 dd 58 e4          	vaddpd %ymm4,%ymm4,%ymm4
  402f4e:	c5 e5 58 db          	vaddpd %ymm3,%ymm3,%ymm3
  402f52:	c5 ed 58 d2          	vaddpd %ymm2,%ymm2,%ymm2
  402f56:	c5 f5 58 c9          	vaddpd %ymm1,%ymm1,%ymm1
  402f5a:	c5 fd 58 c0          	vaddpd %ymm0,%ymm0,%ymm0
  402f5e:	c5 c5 58 ff          	vaddpd %ymm7,%ymm7,%ymm7
  402f62:	c5 cd 58 f6          	vaddpd %ymm6,%ymm6,%ymm6
  402f66:	c5 d5 58 ed          	vaddpd %ymm5,%ymm5,%ymm5
  402f6a:	c5 dd 58 e4          	vaddpd %ymm4,%ymm4,%ymm4
  402f6e:	c5 e5 58 db          	vaddpd %ymm3,%ymm3,%ymm3
  402f72:	c5 ed 58 d2          	vaddpd %ymm2,%ymm2,%ymm2
  402f76:	c5 f5 58 c9          	vaddpd %ymm1,%ymm1,%ymm1
  402f7a:	c5 fd 58 c0          	vaddpd %ymm0,%ymm0,%ymm0
  402f7e:	c5 c5 58 ff          	vaddpd %ymm7,%ymm7,%ymm7
  402f82:	c5 cd 58 f6          	vaddpd %ymm6,%ymm6,%ymm6
  402f86:	c5 d5 58 ed          	vaddpd %ymm5,%ymm5,%ymm5
  402f8a:	c5 dd 58 e4          	vaddpd %ymm4,%ymm4,%ymm4
  402f8e:	c5 e5 58 db          	vaddpd %ymm3,%ymm3,%ymm3
  402f92:	c5 ed 58 d2          	vaddpd %ymm2,%ymm2,%ymm2
  402f96:	c5 f5 58 c9          	vaddpd %ymm1,%ymm1,%ymm1
  402f9a:	c5 fd 58 c0          	vaddpd %ymm0,%ymm0,%ymm0
  402f9e:	c5 c5 58 ff          	vaddpd %ymm7,%ymm7,%ymm7
  402fa2:	c5 cd 58 f6          	vaddpd %ymm6,%ymm6,%ymm6
  402fa6:	c5 d5 58 ed          	vaddpd %ymm5,%ymm5,%ymm5
  402faa:	c5 dd 58 e4          	vaddpd %ymm4,%ymm4,%ymm4
  402fae:	c5 e5 58 db          	vaddpd %ymm3,%ymm3,%ymm3
  402fb2:	c5 ed 58 d2          	vaddpd %ymm2,%ymm2,%ymm2
  402fb6:	c5 f5 58 c9          	vaddpd %ymm1,%ymm1,%ymm1
  402fba:	c5 fd 58 c0          	vaddpd %ymm0,%ymm0,%ymm0
  402fbe:	c5 c5 58 ff          	vaddpd %ymm7,%ymm7,%ymm7
  402fc2:	c5 cd 58 f6          	vaddpd %ymm6,%ymm6,%ymm6
  402fc6:	c5 d5 58 ed          	vaddpd %ymm5,%ymm5,%ymm5
  402fca:	c5 dd 58 e4          	vaddpd %ymm4,%ymm4,%ymm4
  402fce:	c5 e5 58 db          	vaddpd %ymm3,%ymm3,%ymm3
  402fd2:	c5 ed 58 d2          	vaddpd %ymm2,%ymm2,%ymm2
  402fd6:	c5 f5 58 c9          	vaddpd %ymm1,%ymm1,%ymm1
  402fda:	c5 fd 58 c0          	vaddpd %ymm0,%ymm0,%ymm0
  402fde:	c5 c5 58 ff          	vaddpd %ymm7,%ymm7,%ymm7
  402fe2:	c5 cd 58 f6          	vaddpd %ymm6,%ymm6,%ymm6
  402fe6:	c5 d5 58 ed          	vaddpd %ymm5,%ymm5,%ymm5
  402fea:	c5 dd 58 e4          	vaddpd %ymm4,%ymm4,%ymm4
  402fee:	c5 e5 58 db          	vaddpd %ymm3,%ymm3,%ymm3
  402ff2:	c5 ed 58 d2          	vaddpd %ymm2,%ymm2,%ymm2
  402ff6:	c5 f5 58 c9          	vaddpd %ymm1,%ymm1,%ymm1
  402ffa:	c5 fd 58 c0          	vaddpd %ymm0,%ymm0,%ymm0
  402ffe:	c5 c5 58 ff          	vaddpd %ymm7,%ymm7,%ymm7
  403002:	c5 cd 58 f6          	vaddpd %ymm6,%ymm6,%ymm6
  403006:	c5 d5 58 ed          	vaddpd %ymm5,%ymm5,%ymm5
  40300a:	c5 dd 58 e4          	vaddpd %ymm4,%ymm4,%ymm4
  40300e:	c5 e5 58 db          	vaddpd %ymm3,%ymm3,%ymm3
  403012:	c5 ed 58 d2          	vaddpd %ymm2,%ymm2,%ymm2
  403016:	c5 f5 58 c9          	vaddpd %ymm1,%ymm1,%ymm1
  40301a:	c5 fd 58 c0          	vaddpd %ymm0,%ymm0,%ymm0
  40301e:	c5 c5 58 ff          	vaddpd %ymm7,%ymm7,%ymm7
  403022:	c5 cd 58 f6          	vaddpd %ymm6,%ymm6,%ymm6
  403026:	c5 d5 58 ed          	vaddpd %ymm5,%ymm5,%ymm5
  40302a:	c5 dd 58 e4          	vaddpd %ymm4,%ymm4,%ymm4
  40302e:	c5 e5 58 db          	vaddpd %ymm3,%ymm3,%ymm3
  403032:	c5 ed 58 d2          	vaddpd %ymm2,%ymm2,%ymm2
  403036:	c5 f5 58 c9          	vaddpd %ymm1,%ymm1,%ymm1
  40303a:	c5 fd 58 c0          	vaddpd %ymm0,%ymm0,%ymm0
  40303e:	c5 c5 58 ff          	vaddpd %ymm7,%ymm7,%ymm7
  403042:	c5 cd 58 f6          	vaddpd %ymm6,%ymm6,%ymm6
  403046:	c5 d5 58 ed          	vaddpd %ymm5,%ymm5,%ymm5
  40304a:	c5 dd 58 e4          	vaddpd %ymm4,%ymm4,%ymm4
  40304e:	c5 e5 58 db          	vaddpd %ymm3,%ymm3,%ymm3
  403052:	c5 ed 58 d2          	vaddpd %ymm2,%ymm2,%ymm2
  403056:	c5 f5 58 c9          	vaddpd %ymm1,%ymm1,%ymm1
  40305a:	c5 fd 58 c0          	vaddpd %ymm0,%ymm0,%ymm0
  40305e:	c5 c5 58 ff          	vaddpd %ymm7,%ymm7,%ymm7
  403062:	c5 cd 58 f6          	vaddpd %ymm6,%ymm6,%ymm6
  403066:	c5 d5 58 ed          	vaddpd %ymm5,%ymm5,%ymm5
  40306a:	c5 dd 58 e4          	vaddpd %ymm4,%ymm4,%ymm4
  40306e:	c5 e5 58 db          	vaddpd %ymm3,%ymm3,%ymm3
  403072:	c5 ed 58 d2          	vaddpd %ymm2,%ymm2,%ymm2
  403076:	c5 f5 58 c9          	vaddpd %ymm1,%ymm1,%ymm1
  40307a:	c5 fd 58 c0          	vaddpd %ymm0,%ymm0,%ymm0
  40307e:	c5 c5 58 ff          	vaddpd %ymm7,%ymm7,%ymm7
  403082:	c5 cd 58 f6          	vaddpd %ymm6,%ymm6,%ymm6
  403086:	c5 d5 58 ed          	vaddpd %ymm5,%ymm5,%ymm5
  40308a:	c5 dd 58 e4          	vaddpd %ymm4,%ymm4,%ymm4
  40308e:	c5 e5 58 db          	vaddpd %ymm3,%ymm3,%ymm3
  403092:	c5 ed 58 d2          	vaddpd %ymm2,%ymm2,%ymm2
  403096:	c5 f5 58 c9          	vaddpd %ymm1,%ymm1,%ymm1
  40309a:	c5 fd 58 c0          	vaddpd %ymm0,%ymm0,%ymm0
  40309e:	c5 c5 58 ff          	vaddpd %ymm7,%ymm7,%ymm7
  4030a2:	c5 cd 58 f6          	vaddpd %ymm6,%ymm6,%ymm6
  4030a6:	c5 d5 58 ed          	vaddpd %ymm5,%ymm5,%ymm5
  4030aa:	c5 dd 58 e4          	vaddpd %ymm4,%ymm4,%ymm4
  4030ae:	c5 e5 58 db          	vaddpd %ymm3,%ymm3,%ymm3
  4030b2:	c5 ed 58 d2          	vaddpd %ymm2,%ymm2,%ymm2
  4030b6:	c5 f5 58 c9          	vaddpd %ymm1,%ymm1,%ymm1
  4030ba:	c5 fd 58 c0          	vaddpd %ymm0,%ymm0,%ymm0
  4030be:	c5 c5 58 ff          	vaddpd %ymm7,%ymm7,%ymm7
  4030c2:	c5 cd 58 f6          	vaddpd %ymm6,%ymm6,%ymm6
  4030c6:	c5 d5 58 ed          	vaddpd %ymm5,%ymm5,%ymm5
  4030ca:	c5 dd 58 e4          	vaddpd %ymm4,%ymm4,%ymm4
  4030ce:	c5 e5 58 db          	vaddpd %ymm3,%ymm3,%ymm3
  4030d2:	c5 ed 58 d2          	vaddpd %ymm2,%ymm2,%ymm2
  4030d6:	c5 f5 58 c9          	vaddpd %ymm1,%ymm1,%ymm1
  4030da:	c5 fd 58 c0          	vaddpd %ymm0,%ymm0,%ymm0
  4030de:	c5 c5 58 ff          	vaddpd %ymm7,%ymm7,%ymm7
  4030e2:	c5 cd 58 f6          	vaddpd %ymm6,%ymm6,%ymm6
  4030e6:	c5 d5 58 ed          	vaddpd %ymm5,%ymm5,%ymm5
  4030ea:	c5 dd 58 e4          	vaddpd %ymm4,%ymm4,%ymm4
  4030ee:	c5 e5 58 db          	vaddpd %ymm3,%ymm3,%ymm3
  4030f2:	c5 ed 58 d2          	vaddpd %ymm2,%ymm2,%ymm2
  4030f6:	c5 f5 58 c9          	vaddpd %ymm1,%ymm1,%ymm1
  4030fa:	c5 fd 58 c0          	vaddpd %ymm0,%ymm0,%ymm0
  4030fe:	c5 c5 58 ff          	vaddpd %ymm7,%ymm7,%ymm7
  403102:	c5 cd 58 f6          	vaddpd %ymm6,%ymm6,%ymm6
  403106:	c5 d5 58 ed          	vaddpd %ymm5,%ymm5,%ymm5
  40310a:	c5 dd 58 e4          	vaddpd %ymm4,%ymm4,%ymm4
  40310e:	c5 e5 58 db          	vaddpd %ymm3,%ymm3,%ymm3
  403112:	c5 ed 58 d2          	vaddpd %ymm2,%ymm2,%ymm2
  403116:	c5 f5 58 c9          	vaddpd %ymm1,%ymm1,%ymm1
  40311a:	c5 fd 58 c0          	vaddpd %ymm0,%ymm0,%ymm0
  40311e:	c5 c5 58 ff          	vaddpd %ymm7,%ymm7,%ymm7
  403122:	c5 cd 58 f6          	vaddpd %ymm6,%ymm6,%ymm6
  403126:	c5 d5 58 ed          	vaddpd %ymm5,%ymm5,%ymm5
  40312a:	c5 dd 58 e4          	vaddpd %ymm4,%ymm4,%ymm4
  40312e:	c5 e5 58 db          	vaddpd %ymm3,%ymm3,%ymm3
  403132:	c5 ed 58 d2          	vaddpd %ymm2,%ymm2,%ymm2
  403136:	c5 f5 58 c9          	vaddpd %ymm1,%ymm1,%ymm1
  40313a:	c5 fd 58 c0          	vaddpd %ymm0,%ymm0,%ymm0
  40313e:	c5 c5 58 ff          	vaddpd %ymm7,%ymm7,%ymm7
  403142:	c5 cd 58 f6          	vaddpd %ymm6,%ymm6,%ymm6
  403146:	c5 d5 58 ed          	vaddpd %ymm5,%ymm5,%ymm5
  40314a:	c5 dd 58 e4          	vaddpd %ymm4,%ymm4,%ymm4
  40314e:	c5 e5 58 db          	vaddpd %ymm3,%ymm3,%ymm3
  403152:	c5 ed 58 d2          	vaddpd %ymm2,%ymm2,%ymm2
  403156:	c5 f5 58 c9          	vaddpd %ymm1,%ymm1,%ymm1
  40315a:	c5 fd 58 c0          	vaddpd %ymm0,%ymm0,%ymm0
  40315e:	c5 c5 58 ff          	vaddpd %ymm7,%ymm7,%ymm7
  403162:	c5 cd 58 f6          	vaddpd %ymm6,%ymm6,%ymm6
  403166:	c5 d5 58 ed          	vaddpd %ymm5,%ymm5,%ymm5
  40316a:	c5 dd 58 e4          	vaddpd %ymm4,%ymm4,%ymm4
  40316e:	c5 e5 58 db          	vaddpd %ymm3,%ymm3,%ymm3
  403172:	c5 ed 58 d2          	vaddpd %ymm2,%ymm2,%ymm2
  403176:	c5 f5 58 c9          	vaddpd %ymm1,%ymm1,%ymm1
  40317a:	c5 fd 58 c0          	vaddpd %ymm0,%ymm0,%ymm0
  40317e:	c5 c5 58 ff          	vaddpd %ymm7,%ymm7,%ymm7
  403182:	c5 cd 58 f6          	vaddpd %ymm6,%ymm6,%ymm6
  403186:	c5 d5 58 ed          	vaddpd %ymm5,%ymm5,%ymm5
  40318a:	c5 dd 58 e4          	vaddpd %ymm4,%ymm4,%ymm4
  40318e:	c5 e5 58 db          	vaddpd %ymm3,%ymm3,%ymm3
  403192:	c5 ed 58 d2          	vaddpd %ymm2,%ymm2,%ymm2
  403196:	c5 f5 58 c9          	vaddpd %ymm1,%ymm1,%ymm1
  40319a:	c5 fd 58 c0          	vaddpd %ymm0,%ymm0,%ymm0
  40319e:	c5 c5 58 ff          	vaddpd %ymm7,%ymm7,%ymm7
  4031a2:	c5 cd 58 f6          	vaddpd %ymm6,%ymm6,%ymm6
  4031a6:	c5 d5 58 ed          	vaddpd %ymm5,%ymm5,%ymm5
  4031aa:	c5 dd 58 e4          	vaddpd %ymm4,%ymm4,%ymm4
  4031ae:	c5 e5 58 db          	vaddpd %ymm3,%ymm3,%ymm3
  4031b2:	c5 ed 58 d2          	vaddpd %ymm2,%ymm2,%ymm2
  4031b6:	c5 f5 58 c9          	vaddpd %ymm1,%ymm1,%ymm1
  4031ba:	c5 fd 58 c0          	vaddpd %ymm0,%ymm0,%ymm0
  4031be:	c5 c5 58 ff          	vaddpd %ymm7,%ymm7,%ymm7
  4031c2:	c5 cd 58 f6          	vaddpd %ymm6,%ymm6,%ymm6
  4031c6:	c5 d5 58 ed          	vaddpd %ymm5,%ymm5,%ymm5
  4031ca:	c5 dd 58 e4          	vaddpd %ymm4,%ymm4,%ymm4
  4031ce:	c5 e5 58 db          	vaddpd %ymm3,%ymm3,%ymm3
  4031d2:	c5 ed 58 d2          	vaddpd %ymm2,%ymm2,%ymm2
  4031d6:	c5 f5 58 c9          	vaddpd %ymm1,%ymm1,%ymm1
  4031da:	c5 fd 58 c0          	vaddpd %ymm0,%ymm0,%ymm0
  4031de:	c5 c5 58 ff          	vaddpd %ymm7,%ymm7,%ymm7
  4031e2:	c5 cd 58 f6          	vaddpd %ymm6,%ymm6,%ymm6
  4031e6:	c5 d5 58 ed          	vaddpd %ymm5,%ymm5,%ymm5
  4031ea:	c5 dd 58 e4          	vaddpd %ymm4,%ymm4,%ymm4
  4031ee:	c5 e5 58 db          	vaddpd %ymm3,%ymm3,%ymm3
  4031f2:	c5 ed 58 d2          	vaddpd %ymm2,%ymm2,%ymm2
  4031f6:	c5 f5 58 c9          	vaddpd %ymm1,%ymm1,%ymm1
  4031fa:	c5 fd 58 c0          	vaddpd %ymm0,%ymm0,%ymm0
  4031fe:	c5 c5 58 ff          	vaddpd %ymm7,%ymm7,%ymm7
  403202:	c5 cd 58 f6          	vaddpd %ymm6,%ymm6,%ymm6
  403206:	c5 d5 58 ed          	vaddpd %ymm5,%ymm5,%ymm5
  40320a:	c5 dd 58 e4          	vaddpd %ymm4,%ymm4,%ymm4
  40320e:	c5 e5 58 db          	vaddpd %ymm3,%ymm3,%ymm3
  403212:	c5 ed 58 d2          	vaddpd %ymm2,%ymm2,%ymm2
  403216:	c5 f5 58 c9          	vaddpd %ymm1,%ymm1,%ymm1
  40321a:	c5 fd 58 c0          	vaddpd %ymm0,%ymm0,%ymm0
  40321e:	c5 c5 58 ff          	vaddpd %ymm7,%ymm7,%ymm7
  403222:	c5 cd 58 f6          	vaddpd %ymm6,%ymm6,%ymm6
  403226:	c5 d5 58 ed          	vaddpd %ymm5,%ymm5,%ymm5
  40322a:	c5 dd 58 e4          	vaddpd %ymm4,%ymm4,%ymm4
  40322e:	c5 e5 58 db          	vaddpd %ymm3,%ymm3,%ymm3
  403232:	c5 ed 58 d2          	vaddpd %ymm2,%ymm2,%ymm2
  403236:	c5 f5 58 c9          	vaddpd %ymm1,%ymm1,%ymm1
  40323a:	c5 fd 58 c0          	vaddpd %ymm0,%ymm0,%ymm0
  40323e:	c5 c5 58 ff          	vaddpd %ymm7,%ymm7,%ymm7
  403242:	c5 cd 58 f6          	vaddpd %ymm6,%ymm6,%ymm6
  403246:	c5 d5 58 ed          	vaddpd %ymm5,%ymm5,%ymm5
  40324a:	c5 dd 58 e4          	vaddpd %ymm4,%ymm4,%ymm4
  40324e:	c5 e5 58 db          	vaddpd %ymm3,%ymm3,%ymm3
  403252:	c5 ed 58 d2          	vaddpd %ymm2,%ymm2,%ymm2
  403256:	c5 f5 58 c9          	vaddpd %ymm1,%ymm1,%ymm1
  40325a:	c5 fd 58 c0          	vaddpd %ymm0,%ymm0,%ymm0
  40325e:	c5 c5 58 ff          	vaddpd %ymm7,%ymm7,%ymm7
  403262:	c5 cd 58 f6          	vaddpd %ymm6,%ymm6,%ymm6
  403266:	c5 d5 58 ed          	vaddpd %ymm5,%ymm5,%ymm5
  40326a:	c5 dd 58 e4          	vaddpd %ymm4,%ymm4,%ymm4
  40326e:	c5 e5 58 db          	vaddpd %ymm3,%ymm3,%ymm3
  403272:	c5 ed 58 d2          	vaddpd %ymm2,%ymm2,%ymm2
  403276:	c5 f5 58 c9          	vaddpd %ymm1,%ymm1,%ymm1
  40327a:	c5 fd 58 c0          	vaddpd %ymm0,%ymm0,%ymm0
  40327e:	c5 c5 58 ff          	vaddpd %ymm7,%ymm7,%ymm7
  403282:	c5 cd 58 f6          	vaddpd %ymm6,%ymm6,%ymm6
  403286:	c5 d5 58 ed          	vaddpd %ymm5,%ymm5,%ymm5
  40328a:	c5 dd 58 e4          	vaddpd %ymm4,%ymm4,%ymm4
  40328e:	c5 e5 58 db          	vaddpd %ymm3,%ymm3,%ymm3
  403292:	c5 ed 58 d2          	vaddpd %ymm2,%ymm2,%ymm2
  403296:	c5 f5 58 c9          	vaddpd %ymm1,%ymm1,%ymm1
  40329a:	c5 fd 58 c0          	vaddpd %ymm0,%ymm0,%ymm0
  40329e:	c5 c5 58 ff          	vaddpd %ymm7,%ymm7,%ymm7
  4032a2:	c5 cd 58 f6          	vaddpd %ymm6,%ymm6,%ymm6
  4032a6:	c5 d5 58 ed          	vaddpd %ymm5,%ymm5,%ymm5
  4032aa:	c5 dd 58 e4          	vaddpd %ymm4,%ymm4,%ymm4
  4032ae:	c5 e5 58 db          	vaddpd %ymm3,%ymm3,%ymm3
  4032b2:	c5 ed 58 d2          	vaddpd %ymm2,%ymm2,%ymm2
  4032b6:	c5 f5 58 c9          	vaddpd %ymm1,%ymm1,%ymm1
  4032ba:	c5 fd 58 c0          	vaddpd %ymm0,%ymm0,%ymm0
  4032be:	c5 c5 58 ff          	vaddpd %ymm7,%ymm7,%ymm7
  4032c2:	c5 cd 58 f6          	vaddpd %ymm6,%ymm6,%ymm6
  4032c6:	c5 d5 58 ed          	vaddpd %ymm5,%ymm5,%ymm5
  4032ca:	c5 dd 58 e4          	vaddpd %ymm4,%ymm4,%ymm4
  4032ce:	c5 e5 58 db          	vaddpd %ymm3,%ymm3,%ymm3
  4032d2:	c5 ed 58 d2          	vaddpd %ymm2,%ymm2,%ymm2
  4032d6:	c5 f5 58 c9          	vaddpd %ymm1,%ymm1,%ymm1
  4032da:	c5 fd 58 c0          	vaddpd %ymm0,%ymm0,%ymm0
  4032de:	c5 c5 58 ff          	vaddpd %ymm7,%ymm7,%ymm7
  4032e2:	c5 cd 58 f6          	vaddpd %ymm6,%ymm6,%ymm6
  4032e6:	c5 d5 58 ed          	vaddpd %ymm5,%ymm5,%ymm5
  4032ea:	c5 dd 58 e4          	vaddpd %ymm4,%ymm4,%ymm4
  4032ee:	c5 e5 58 db          	vaddpd %ymm3,%ymm3,%ymm3
  4032f2:	c5 ed 58 d2          	vaddpd %ymm2,%ymm2,%ymm2
  4032f6:	c5 f5 58 c9          	vaddpd %ymm1,%ymm1,%ymm1
  4032fa:	c5 fd 58 c0          	vaddpd %ymm0,%ymm0,%ymm0
  4032fe:	c5 c5 58 ff          	vaddpd %ymm7,%ymm7,%ymm7
  403302:	c5 cd 58 f6          	vaddpd %ymm6,%ymm6,%ymm6
  403306:	c5 d5 58 ed          	vaddpd %ymm5,%ymm5,%ymm5
  40330a:	c5 dd 58 e4          	vaddpd %ymm4,%ymm4,%ymm4
  40330e:	c5 e5 58 db          	vaddpd %ymm3,%ymm3,%ymm3
  403312:	c5 ed 58 d2          	vaddpd %ymm2,%ymm2,%ymm2
  403316:	c5 f5 58 c9          	vaddpd %ymm1,%ymm1,%ymm1
  40331a:	c5 fd 58 c0          	vaddpd %ymm0,%ymm0,%ymm0
  40331e:	c5 c5 58 ff          	vaddpd %ymm7,%ymm7,%ymm7
  403322:	c5 cd 58 f6          	vaddpd %ymm6,%ymm6,%ymm6
  403326:	c5 d5 58 ed          	vaddpd %ymm5,%ymm5,%ymm5
  40332a:	c5 dd 58 e4          	vaddpd %ymm4,%ymm4,%ymm4
  40332e:	c5 e5 58 db          	vaddpd %ymm3,%ymm3,%ymm3
  403332:	c5 ed 58 d2          	vaddpd %ymm2,%ymm2,%ymm2
  403336:	c5 f5 58 c9          	vaddpd %ymm1,%ymm1,%ymm1
  40333a:	c5 fd 58 c0          	vaddpd %ymm0,%ymm0,%ymm0
  40333e:	c5 c5 58 ff          	vaddpd %ymm7,%ymm7,%ymm7
  403342:	c5 cd 58 f6          	vaddpd %ymm6,%ymm6,%ymm6
  403346:	c5 d5 58 ed          	vaddpd %ymm5,%ymm5,%ymm5
  40334a:	c5 dd 58 e4          	vaddpd %ymm4,%ymm4,%ymm4
  40334e:	c5 e5 58 db          	vaddpd %ymm3,%ymm3,%ymm3
  403352:	c5 ed 58 d2          	vaddpd %ymm2,%ymm2,%ymm2
  403356:	c5 f5 58 c9          	vaddpd %ymm1,%ymm1,%ymm1
  40335a:	c5 fd 58 c0          	vaddpd %ymm0,%ymm0,%ymm0
  40335e:	c5 c5 58 ff          	vaddpd %ymm7,%ymm7,%ymm7
  403362:	c5 cd 58 f6          	vaddpd %ymm6,%ymm6,%ymm6
  403366:	c5 d5 58 ed          	vaddpd %ymm5,%ymm5,%ymm5
  40336a:	c5 dd 58 e4          	vaddpd %ymm4,%ymm4,%ymm4
  40336e:	c5 e5 58 db          	vaddpd %ymm3,%ymm3,%ymm3
  403372:	c5 ed 58 d2          	vaddpd %ymm2,%ymm2,%ymm2
  403376:	c5 f5 58 c9          	vaddpd %ymm1,%ymm1,%ymm1
  40337a:	c5 fd 58 c0          	vaddpd %ymm0,%ymm0,%ymm0
  40337e:	c5 c5 58 ff          	vaddpd %ymm7,%ymm7,%ymm7
  403382:	c5 cd 58 f6          	vaddpd %ymm6,%ymm6,%ymm6
  403386:	c5 d5 58 ed          	vaddpd %ymm5,%ymm5,%ymm5
  40338a:	c5 dd 58 e4          	vaddpd %ymm4,%ymm4,%ymm4
  40338e:	c5 e5 58 db          	vaddpd %ymm3,%ymm3,%ymm3
  403392:	c5 ed 58 d2          	vaddpd %ymm2,%ymm2,%ymm2
  403396:	c5 f5 58 c9          	vaddpd %ymm1,%ymm1,%ymm1
  40339a:	c5 fd 58 c0          	vaddpd %ymm0,%ymm0,%ymm0
  40339e:	c5 c5 58 ff          	vaddpd %ymm7,%ymm7,%ymm7
  4033a2:	c5 cd 58 f6          	vaddpd %ymm6,%ymm6,%ymm6
  4033a6:	c5 d5 58 ed          	vaddpd %ymm5,%ymm5,%ymm5
  4033aa:	c5 dd 58 e4          	vaddpd %ymm4,%ymm4,%ymm4
  4033ae:	c5 e5 58 db          	vaddpd %ymm3,%ymm3,%ymm3
  4033b2:	c5 ed 58 d2          	vaddpd %ymm2,%ymm2,%ymm2
  4033b6:	c5 f5 58 c9          	vaddpd %ymm1,%ymm1,%ymm1
  4033ba:	c5 fd 58 c0          	vaddpd %ymm0,%ymm0,%ymm0
  4033be:	c5 c5 58 ff          	vaddpd %ymm7,%ymm7,%ymm7
  4033c2:	c5 cd 58 f6          	vaddpd %ymm6,%ymm6,%ymm6
  4033c6:	c5 d5 58 ed          	vaddpd %ymm5,%ymm5,%ymm5
  4033ca:	c5 dd 58 e4          	vaddpd %ymm4,%ymm4,%ymm4
  4033ce:	c5 e5 58 db          	vaddpd %ymm3,%ymm3,%ymm3
  4033d2:	c5 ed 58 d2          	vaddpd %ymm2,%ymm2,%ymm2
  4033d6:	c5 f5 58 c9          	vaddpd %ymm1,%ymm1,%ymm1
  4033da:	c5 fd 58 c0          	vaddpd %ymm0,%ymm0,%ymm0
  4033de:	c5 c5 58 ff          	vaddpd %ymm7,%ymm7,%ymm7
  4033e2:	c5 cd 58 f6          	vaddpd %ymm6,%ymm6,%ymm6
  4033e6:	c5 d5 58 ed          	vaddpd %ymm5,%ymm5,%ymm5
  4033ea:	c5 dd 58 e4          	vaddpd %ymm4,%ymm4,%ymm4
  4033ee:	c5 e5 58 db          	vaddpd %ymm3,%ymm3,%ymm3
  4033f2:	c5 ed 58 d2          	vaddpd %ymm2,%ymm2,%ymm2
  4033f6:	c5 f5 58 c9          	vaddpd %ymm1,%ymm1,%ymm1
  4033fa:	c5 fd 58 c0          	vaddpd %ymm0,%ymm0,%ymm0
  4033fe:	c5 c5 58 ff          	vaddpd %ymm7,%ymm7,%ymm7
  403402:	c5 cd 58 f6          	vaddpd %ymm6,%ymm6,%ymm6
  403406:	c5 d5 58 ed          	vaddpd %ymm5,%ymm5,%ymm5
  40340a:	c5 dd 58 e4          	vaddpd %ymm4,%ymm4,%ymm4
  40340e:	c5 e5 58 db          	vaddpd %ymm3,%ymm3,%ymm3
  403412:	c5 ed 58 d2          	vaddpd %ymm2,%ymm2,%ymm2
  403416:	c5 f5 58 c9          	vaddpd %ymm1,%ymm1,%ymm1
  40341a:	c5 fd 58 c0          	vaddpd %ymm0,%ymm0,%ymm0
  40341e:	c5 c5 58 ff          	vaddpd %ymm7,%ymm7,%ymm7
  403422:	c5 cd 58 f6          	vaddpd %ymm6,%ymm6,%ymm6
  403426:	c5 d5 58 ed          	vaddpd %ymm5,%ymm5,%ymm5
  40342a:	c5 dd 58 e4          	vaddpd %ymm4,%ymm4,%ymm4
  40342e:	c5 e5 58 db          	vaddpd %ymm3,%ymm3,%ymm3
  403432:	c5 ed 58 d2          	vaddpd %ymm2,%ymm2,%ymm2
  403436:	c5 f5 58 c9          	vaddpd %ymm1,%ymm1,%ymm1
  40343a:	c5 fd 58 c0          	vaddpd %ymm0,%ymm0,%ymm0
  40343e:	c5 c5 58 ff          	vaddpd %ymm7,%ymm7,%ymm7
  403442:	c5 cd 58 f6          	vaddpd %ymm6,%ymm6,%ymm6
  403446:	c5 d5 58 ed          	vaddpd %ymm5,%ymm5,%ymm5
  40344a:	c5 dd 58 e4          	vaddpd %ymm4,%ymm4,%ymm4
  40344e:	c5 e5 58 db          	vaddpd %ymm3,%ymm3,%ymm3
  403452:	c5 ed 58 d2          	vaddpd %ymm2,%ymm2,%ymm2
  403456:	c5 f5 58 c9          	vaddpd %ymm1,%ymm1,%ymm1
  40345a:	c5 fd 58 c0          	vaddpd %ymm0,%ymm0,%ymm0
  40345e:	c5 c5 58 ff          	vaddpd %ymm7,%ymm7,%ymm7
  403462:	c5 cd 58 f6          	vaddpd %ymm6,%ymm6,%ymm6
  403466:	c5 d5 58 ed          	vaddpd %ymm5,%ymm5,%ymm5
  40346a:	c5 dd 58 e4          	vaddpd %ymm4,%ymm4,%ymm4
  40346e:	c5 e5 58 db          	vaddpd %ymm3,%ymm3,%ymm3
  403472:	c5 ed 58 d2          	vaddpd %ymm2,%ymm2,%ymm2
  403476:	c5 f5 58 c9          	vaddpd %ymm1,%ymm1,%ymm1
  40347a:	c5 fd 58 c0          	vaddpd %ymm0,%ymm0,%ymm0
  40347e:	c5 c5 58 ff          	vaddpd %ymm7,%ymm7,%ymm7
  403482:	c5 cd 58 f6          	vaddpd %ymm6,%ymm6,%ymm6
  403486:	c5 d5 58 ed          	vaddpd %ymm5,%ymm5,%ymm5
  40348a:	c5 dd 58 e4          	vaddpd %ymm4,%ymm4,%ymm4
  40348e:	c5 e5 58 db          	vaddpd %ymm3,%ymm3,%ymm3
  403492:	c5 ed 58 d2          	vaddpd %ymm2,%ymm2,%ymm2
  403496:	c5 f5 58 c9          	vaddpd %ymm1,%ymm1,%ymm1
  40349a:	c5 fd 58 c0          	vaddpd %ymm0,%ymm0,%ymm0
  40349e:	c5 c5 58 ff          	vaddpd %ymm7,%ymm7,%ymm7
  4034a2:	c5 cd 58 f6          	vaddpd %ymm6,%ymm6,%ymm6
  4034a6:	c5 d5 58 ed          	vaddpd %ymm5,%ymm5,%ymm5
  4034aa:	c5 dd 58 e4          	vaddpd %ymm4,%ymm4,%ymm4
  4034ae:	c5 e5 58 db          	vaddpd %ymm3,%ymm3,%ymm3
  4034b2:	c5 ed 58 d2          	vaddpd %ymm2,%ymm2,%ymm2
  4034b6:	c5 f5 58 c9          	vaddpd %ymm1,%ymm1,%ymm1
  4034ba:	c5 fd 58 c0          	vaddpd %ymm0,%ymm0,%ymm0
  4034be:	c5 c5 58 ff          	vaddpd %ymm7,%ymm7,%ymm7
  4034c2:	c5 cd 58 f6          	vaddpd %ymm6,%ymm6,%ymm6
  4034c6:	c5 d5 58 ed          	vaddpd %ymm5,%ymm5,%ymm5
  4034ca:	c5 dd 58 e4          	vaddpd %ymm4,%ymm4,%ymm4
  4034ce:	c5 e5 58 db          	vaddpd %ymm3,%ymm3,%ymm3
  4034d2:	c5 ed 58 d2          	vaddpd %ymm2,%ymm2,%ymm2
  4034d6:	c5 f5 58 c9          	vaddpd %ymm1,%ymm1,%ymm1
  4034da:	c5 fd 58 c0          	vaddpd %ymm0,%ymm0,%ymm0
  4034de:	c5 c5 58 ff          	vaddpd %ymm7,%ymm7,%ymm7
  4034e2:	c5 cd 58 f6          	vaddpd %ymm6,%ymm6,%ymm6
  4034e6:	c5 d5 58 ed          	vaddpd %ymm5,%ymm5,%ymm5
  4034ea:	c5 dd 58 e4          	vaddpd %ymm4,%ymm4,%ymm4
  4034ee:	c5 e5 58 db          	vaddpd %ymm3,%ymm3,%ymm3
  4034f2:	c5 ed 58 d2          	vaddpd %ymm2,%ymm2,%ymm2
  4034f6:	c5 f5 58 c9          	vaddpd %ymm1,%ymm1,%ymm1
  4034fa:	c5 fd 58 c0          	vaddpd %ymm0,%ymm0,%ymm0
  4034fe:	c5 c5 58 ff          	vaddpd %ymm7,%ymm7,%ymm7
  403502:	c5 cd 58 f6          	vaddpd %ymm6,%ymm6,%ymm6
  403506:	c5 d5 58 ed          	vaddpd %ymm5,%ymm5,%ymm5
  40350a:	c5 dd 58 e4          	vaddpd %ymm4,%ymm4,%ymm4
  40350e:	c5 e5 58 db          	vaddpd %ymm3,%ymm3,%ymm3
  403512:	c5 ed 58 d2          	vaddpd %ymm2,%ymm2,%ymm2
  403516:	c5 f5 58 c9          	vaddpd %ymm1,%ymm1,%ymm1
  40351a:	c5 fd 58 c0          	vaddpd %ymm0,%ymm0,%ymm0
  40351e:	c5 c5 58 ff          	vaddpd %ymm7,%ymm7,%ymm7
  403522:	c5 cd 58 f6          	vaddpd %ymm6,%ymm6,%ymm6
  403526:	c5 d5 58 ed          	vaddpd %ymm5,%ymm5,%ymm5
  40352a:	c5 dd 58 e4          	vaddpd %ymm4,%ymm4,%ymm4
  40352e:	c5 e5 58 db          	vaddpd %ymm3,%ymm3,%ymm3
  403532:	c5 ed 58 d2          	vaddpd %ymm2,%ymm2,%ymm2
  403536:	c5 f5 58 c9          	vaddpd %ymm1,%ymm1,%ymm1
  40353a:	c5 fd 58 c0          	vaddpd %ymm0,%ymm0,%ymm0
  40353e:	c5 c5 58 ff          	vaddpd %ymm7,%ymm7,%ymm7
  403542:	c5 cd 58 f6          	vaddpd %ymm6,%ymm6,%ymm6
  403546:	c5 d5 58 ed          	vaddpd %ymm5,%ymm5,%ymm5
  40354a:	c5 dd 58 e4          	vaddpd %ymm4,%ymm4,%ymm4
  40354e:	c5 e5 58 db          	vaddpd %ymm3,%ymm3,%ymm3
  403552:	c5 ed 58 d2          	vaddpd %ymm2,%ymm2,%ymm2
  403556:	c5 f5 58 c9          	vaddpd %ymm1,%ymm1,%ymm1
  40355a:	c5 fd 58 c0          	vaddpd %ymm0,%ymm0,%ymm0
  40355e:	c5 c5 58 ff          	vaddpd %ymm7,%ymm7,%ymm7
  403562:	c5 cd 58 f6          	vaddpd %ymm6,%ymm6,%ymm6
  403566:	c5 d5 58 ed          	vaddpd %ymm5,%ymm5,%ymm5
  40356a:	c5 dd 58 e4          	vaddpd %ymm4,%ymm4,%ymm4
  40356e:	c5 e5 58 db          	vaddpd %ymm3,%ymm3,%ymm3
  403572:	c5 ed 58 d2          	vaddpd %ymm2,%ymm2,%ymm2
  403576:	c5 f5 58 c9          	vaddpd %ymm1,%ymm1,%ymm1
  40357a:	c5 fd 58 c0          	vaddpd %ymm0,%ymm0,%ymm0
  40357e:	c5 c5 58 ff          	vaddpd %ymm7,%ymm7,%ymm7
  403582:	c5 cd 58 f6          	vaddpd %ymm6,%ymm6,%ymm6
  403586:	c5 d5 58 ed          	vaddpd %ymm5,%ymm5,%ymm5
  40358a:	c5 dd 58 e4          	vaddpd %ymm4,%ymm4,%ymm4
  40358e:	c5 e5 58 db          	vaddpd %ymm3,%ymm3,%ymm3
  403592:	c5 ed 58 d2          	vaddpd %ymm2,%ymm2,%ymm2
  403596:	c5 f5 58 c9          	vaddpd %ymm1,%ymm1,%ymm1
  40359a:	c5 fd 58 c0          	vaddpd %ymm0,%ymm0,%ymm0
  40359e:	c5 c5 58 ff          	vaddpd %ymm7,%ymm7,%ymm7
  4035a2:	c5 cd 58 f6          	vaddpd %ymm6,%ymm6,%ymm6
  4035a6:	c5 d5 58 ed          	vaddpd %ymm5,%ymm5,%ymm5
  4035aa:	c5 dd 58 e4          	vaddpd %ymm4,%ymm4,%ymm4
  4035ae:	c5 e5 58 db          	vaddpd %ymm3,%ymm3,%ymm3
  4035b2:	c5 ed 58 d2          	vaddpd %ymm2,%ymm2,%ymm2
  4035b6:	c5 f5 58 c9          	vaddpd %ymm1,%ymm1,%ymm1
  4035ba:	c5 fd 58 c0          	vaddpd %ymm0,%ymm0,%ymm0
  4035be:	c5 c5 58 ff          	vaddpd %ymm7,%ymm7,%ymm7
  4035c2:	c5 cd 58 f6          	vaddpd %ymm6,%ymm6,%ymm6
  4035c6:	c5 d5 58 ed          	vaddpd %ymm5,%ymm5,%ymm5
  4035ca:	c5 dd 58 e4          	vaddpd %ymm4,%ymm4,%ymm4
  4035ce:	c5 e5 58 db          	vaddpd %ymm3,%ymm3,%ymm3
  4035d2:	c5 ed 58 d2          	vaddpd %ymm2,%ymm2,%ymm2
  4035d6:	c5 f5 58 c9          	vaddpd %ymm1,%ymm1,%ymm1
  4035da:	c5 fd 58 c0          	vaddpd %ymm0,%ymm0,%ymm0
  4035de:	c5 c5 58 ff          	vaddpd %ymm7,%ymm7,%ymm7
  4035e2:	c5 cd 58 f6          	vaddpd %ymm6,%ymm6,%ymm6
  4035e6:	c5 d5 58 ed          	vaddpd %ymm5,%ymm5,%ymm5
  4035ea:	c5 dd 58 e4          	vaddpd %ymm4,%ymm4,%ymm4
  4035ee:	c5 e5 58 db          	vaddpd %ymm3,%ymm3,%ymm3
  4035f2:	c5 ed 58 d2          	vaddpd %ymm2,%ymm2,%ymm2
  4035f6:	c5 f5 58 c9          	vaddpd %ymm1,%ymm1,%ymm1
  4035fa:	c5 fd 58 c0          	vaddpd %ymm0,%ymm0,%ymm0
  4035fe:	c5 c5 58 ff          	vaddpd %ymm7,%ymm7,%ymm7
  403602:	c5 cd 58 f6          	vaddpd %ymm6,%ymm6,%ymm6
  403606:	c5 d5 58 ed          	vaddpd %ymm5,%ymm5,%ymm5
  40360a:	c5 dd 58 e4          	vaddpd %ymm4,%ymm4,%ymm4
  40360e:	c5 e5 58 db          	vaddpd %ymm3,%ymm3,%ymm3
  403612:	c5 ed 58 d2          	vaddpd %ymm2,%ymm2,%ymm2
  403616:	c5 f5 58 c9          	vaddpd %ymm1,%ymm1,%ymm1
  40361a:	c5 fd 58 c0          	vaddpd %ymm0,%ymm0,%ymm0
  40361e:	c5 c5 58 ff          	vaddpd %ymm7,%ymm7,%ymm7
  403622:	c5 cd 58 f6          	vaddpd %ymm6,%ymm6,%ymm6
  403626:	c5 d5 58 ed          	vaddpd %ymm5,%ymm5,%ymm5
  40362a:	c5 dd 58 e4          	vaddpd %ymm4,%ymm4,%ymm4
  40362e:	c5 e5 58 db          	vaddpd %ymm3,%ymm3,%ymm3
  403632:	c5 ed 58 d2          	vaddpd %ymm2,%ymm2,%ymm2
  403636:	c5 f5 58 c9          	vaddpd %ymm1,%ymm1,%ymm1
  40363a:	c5 fd 58 c0          	vaddpd %ymm0,%ymm0,%ymm0
  40363e:	c5 c5 58 ff          	vaddpd %ymm7,%ymm7,%ymm7
  403642:	c5 cd 58 f6          	vaddpd %ymm6,%ymm6,%ymm6
  403646:	c5 d5 58 ed          	vaddpd %ymm5,%ymm5,%ymm5
  40364a:	c5 dd 58 e4          	vaddpd %ymm4,%ymm4,%ymm4
  40364e:	c5 e5 58 db          	vaddpd %ymm3,%ymm3,%ymm3
  403652:	c5 ed 58 d2          	vaddpd %ymm2,%ymm2,%ymm2
  403656:	c5 f5 58 c9          	vaddpd %ymm1,%ymm1,%ymm1
  40365a:	c5 fd 58 c0          	vaddpd %ymm0,%ymm0,%ymm0
  40365e:	c5 c5 58 ff          	vaddpd %ymm7,%ymm7,%ymm7
  403662:	c5 cd 58 f6          	vaddpd %ymm6,%ymm6,%ymm6
  403666:	c5 d5 58 ed          	vaddpd %ymm5,%ymm5,%ymm5
  40366a:	c5 dd 58 e4          	vaddpd %ymm4,%ymm4,%ymm4
  40366e:	c5 e5 58 db          	vaddpd %ymm3,%ymm3,%ymm3
  403672:	c5 ed 58 d2          	vaddpd %ymm2,%ymm2,%ymm2
  403676:	c5 f5 58 c9          	vaddpd %ymm1,%ymm1,%ymm1
  40367a:	c5 fd 58 c0          	vaddpd %ymm0,%ymm0,%ymm0
  40367e:	c5 c5 58 ff          	vaddpd %ymm7,%ymm7,%ymm7
  403682:	c5 cd 58 f6          	vaddpd %ymm6,%ymm6,%ymm6
  403686:	c5 d5 58 ed          	vaddpd %ymm5,%ymm5,%ymm5
  40368a:	c5 dd 58 e4          	vaddpd %ymm4,%ymm4,%ymm4
  40368e:	c5 e5 58 db          	vaddpd %ymm3,%ymm3,%ymm3
  403692:	c5 ed 58 d2          	vaddpd %ymm2,%ymm2,%ymm2
  403696:	c5 f5 58 c9          	vaddpd %ymm1,%ymm1,%ymm1
  40369a:	c5 fd 58 c0          	vaddpd %ymm0,%ymm0,%ymm0
  40369e:	c5 c5 58 ff          	vaddpd %ymm7,%ymm7,%ymm7
  4036a2:	c5 cd 58 f6          	vaddpd %ymm6,%ymm6,%ymm6
  4036a6:	c5 d5 58 ed          	vaddpd %ymm5,%ymm5,%ymm5
  4036aa:	c5 dd 58 e4          	vaddpd %ymm4,%ymm4,%ymm4
  4036ae:	c5 e5 58 db          	vaddpd %ymm3,%ymm3,%ymm3
  4036b2:	c5 ed 58 d2          	vaddpd %ymm2,%ymm2,%ymm2
  4036b6:	c5 f5 58 c9          	vaddpd %ymm1,%ymm1,%ymm1
  4036ba:	c5 fd 58 c0          	vaddpd %ymm0,%ymm0,%ymm0
  4036be:	c5 c5 58 ff          	vaddpd %ymm7,%ymm7,%ymm7
  4036c2:	c5 cd 58 f6          	vaddpd %ymm6,%ymm6,%ymm6
  4036c6:	c5 d5 58 ed          	vaddpd %ymm5,%ymm5,%ymm5
  4036ca:	c5 dd 58 e4          	vaddpd %ymm4,%ymm4,%ymm4
  4036ce:	c5 e5 58 db          	vaddpd %ymm3,%ymm3,%ymm3
  4036d2:	c5 ed 58 d2          	vaddpd %ymm2,%ymm2,%ymm2
  4036d6:	c5 f5 58 c9          	vaddpd %ymm1,%ymm1,%ymm1
  4036da:	c5 fd 58 c0          	vaddpd %ymm0,%ymm0,%ymm0
  4036de:	c5 c5 58 ff          	vaddpd %ymm7,%ymm7,%ymm7
  4036e2:	c5 cd 58 f6          	vaddpd %ymm6,%ymm6,%ymm6
  4036e6:	c5 d5 58 ed          	vaddpd %ymm5,%ymm5,%ymm5
  4036ea:	c5 dd 58 e4          	vaddpd %ymm4,%ymm4,%ymm4
  4036ee:	c5 e5 58 db          	vaddpd %ymm3,%ymm3,%ymm3
  4036f2:	c5 ed 58 d2          	vaddpd %ymm2,%ymm2,%ymm2
  4036f6:	c5 f5 58 c9          	vaddpd %ymm1,%ymm1,%ymm1
  4036fa:	c5 fd 58 c0          	vaddpd %ymm0,%ymm0,%ymm0
  4036fe:	c5 c5 58 ff          	vaddpd %ymm7,%ymm7,%ymm7
  403702:	c5 cd 58 f6          	vaddpd %ymm6,%ymm6,%ymm6
  403706:	c5 d5 58 ed          	vaddpd %ymm5,%ymm5,%ymm5
  40370a:	c5 dd 58 e4          	vaddpd %ymm4,%ymm4,%ymm4
  40370e:	c5 e5 58 db          	vaddpd %ymm3,%ymm3,%ymm3
  403712:	c5 ed 58 d2          	vaddpd %ymm2,%ymm2,%ymm2
  403716:	c5 f5 58 c9          	vaddpd %ymm1,%ymm1,%ymm1
  40371a:	c5 fd 58 c0          	vaddpd %ymm0,%ymm0,%ymm0
  40371e:	c5 c5 58 ff          	vaddpd %ymm7,%ymm7,%ymm7
  403722:	c5 cd 58 f6          	vaddpd %ymm6,%ymm6,%ymm6
  403726:	c5 d5 58 ed          	vaddpd %ymm5,%ymm5,%ymm5
  40372a:	c5 dd 58 e4          	vaddpd %ymm4,%ymm4,%ymm4
  40372e:	c5 e5 58 db          	vaddpd %ymm3,%ymm3,%ymm3
  403732:	c5 ed 58 d2          	vaddpd %ymm2,%ymm2,%ymm2
  403736:	c5 f5 58 c9          	vaddpd %ymm1,%ymm1,%ymm1
  40373a:	c5 fd 58 c0          	vaddpd %ymm0,%ymm0,%ymm0
  40373e:	c5 c5 58 ff          	vaddpd %ymm7,%ymm7,%ymm7
  403742:	c5 cd 58 f6          	vaddpd %ymm6,%ymm6,%ymm6
  403746:	c5 d5 58 ed          	vaddpd %ymm5,%ymm5,%ymm5
  40374a:	c5 dd 58 e4          	vaddpd %ymm4,%ymm4,%ymm4
  40374e:	c5 e5 58 db          	vaddpd %ymm3,%ymm3,%ymm3
  403752:	c5 ed 58 d2          	vaddpd %ymm2,%ymm2,%ymm2
  403756:	c5 f5 58 c9          	vaddpd %ymm1,%ymm1,%ymm1
  40375a:	c5 fd 58 c0          	vaddpd %ymm0,%ymm0,%ymm0
  40375e:	c5 c5 58 ff          	vaddpd %ymm7,%ymm7,%ymm7
  403762:	c5 cd 58 f6          	vaddpd %ymm6,%ymm6,%ymm6
  403766:	c5 d5 58 ed          	vaddpd %ymm5,%ymm5,%ymm5
  40376a:	c5 dd 58 e4          	vaddpd %ymm4,%ymm4,%ymm4
  40376e:	c5 e5 58 db          	vaddpd %ymm3,%ymm3,%ymm3
  403772:	c5 ed 58 d2          	vaddpd %ymm2,%ymm2,%ymm2
  403776:	c5 f5 58 c9          	vaddpd %ymm1,%ymm1,%ymm1
  40377a:	c5 fd 58 c0          	vaddpd %ymm0,%ymm0,%ymm0
  40377e:	c5 c5 58 ff          	vaddpd %ymm7,%ymm7,%ymm7
  403782:	c5 cd 58 f6          	vaddpd %ymm6,%ymm6,%ymm6
  403786:	c5 d5 58 ed          	vaddpd %ymm5,%ymm5,%ymm5
  40378a:	c5 dd 58 e4          	vaddpd %ymm4,%ymm4,%ymm4
  40378e:	c5 e5 58 db          	vaddpd %ymm3,%ymm3,%ymm3
  403792:	c5 ed 58 d2          	vaddpd %ymm2,%ymm2,%ymm2
  403796:	c5 f5 58 c9          	vaddpd %ymm1,%ymm1,%ymm1
  40379a:	c5 fd 58 c0          	vaddpd %ymm0,%ymm0,%ymm0
  40379e:	c5 c5 58 ff          	vaddpd %ymm7,%ymm7,%ymm7
  4037a2:	c5 cd 58 f6          	vaddpd %ymm6,%ymm6,%ymm6
  4037a6:	c5 d5 58 ed          	vaddpd %ymm5,%ymm5,%ymm5
  4037aa:	c5 dd 58 e4          	vaddpd %ymm4,%ymm4,%ymm4
  4037ae:	c5 e5 58 db          	vaddpd %ymm3,%ymm3,%ymm3
  4037b2:	c5 ed 58 d2          	vaddpd %ymm2,%ymm2,%ymm2
  4037b6:	c5 f5 58 c9          	vaddpd %ymm1,%ymm1,%ymm1
  4037ba:	c5 fd 58 c0          	vaddpd %ymm0,%ymm0,%ymm0
  4037be:	c5 c5 58 ff          	vaddpd %ymm7,%ymm7,%ymm7
  4037c2:	c5 cd 58 f6          	vaddpd %ymm6,%ymm6,%ymm6
  4037c6:	c5 d5 58 ed          	vaddpd %ymm5,%ymm5,%ymm5
  4037ca:	c5 dd 58 e4          	vaddpd %ymm4,%ymm4,%ymm4
  4037ce:	c5 e5 58 db          	vaddpd %ymm3,%ymm3,%ymm3
  4037d2:	c5 ed 58 d2          	vaddpd %ymm2,%ymm2,%ymm2
  4037d6:	c5 f5 58 c9          	vaddpd %ymm1,%ymm1,%ymm1
  4037da:	c5 fd 58 c0          	vaddpd %ymm0,%ymm0,%ymm0
  4037de:	c5 c5 58 ff          	vaddpd %ymm7,%ymm7,%ymm7
  4037e2:	c5 cd 58 f6          	vaddpd %ymm6,%ymm6,%ymm6
  4037e6:	c5 d5 58 ed          	vaddpd %ymm5,%ymm5,%ymm5
  4037ea:	c5 dd 58 e4          	vaddpd %ymm4,%ymm4,%ymm4
  4037ee:	c5 e5 58 db          	vaddpd %ymm3,%ymm3,%ymm3
  4037f2:	c5 ed 58 d2          	vaddpd %ymm2,%ymm2,%ymm2
  4037f6:	c5 f5 58 c9          	vaddpd %ymm1,%ymm1,%ymm1
  4037fa:	c5 fd 58 c0          	vaddpd %ymm0,%ymm0,%ymm0
  4037fe:	c5 c5 58 ff          	vaddpd %ymm7,%ymm7,%ymm7
  403802:	c5 cd 58 f6          	vaddpd %ymm6,%ymm6,%ymm6
  403806:	c5 d5 58 ed          	vaddpd %ymm5,%ymm5,%ymm5
  40380a:	c5 dd 58 e4          	vaddpd %ymm4,%ymm4,%ymm4
  40380e:	c5 e5 58 db          	vaddpd %ymm3,%ymm3,%ymm3
  403812:	c5 ed 58 d2          	vaddpd %ymm2,%ymm2,%ymm2
  403816:	c5 f5 58 c9          	vaddpd %ymm1,%ymm1,%ymm1
  40381a:	c5 fd 58 c0          	vaddpd %ymm0,%ymm0,%ymm0
  40381e:	c5 c5 58 ff          	vaddpd %ymm7,%ymm7,%ymm7
  403822:	c5 cd 58 f6          	vaddpd %ymm6,%ymm6,%ymm6
  403826:	c5 d5 58 ed          	vaddpd %ymm5,%ymm5,%ymm5
  40382a:	c5 dd 58 e4          	vaddpd %ymm4,%ymm4,%ymm4
  40382e:	c5 e5 58 db          	vaddpd %ymm3,%ymm3,%ymm3
  403832:	c5 ed 58 d2          	vaddpd %ymm2,%ymm2,%ymm2
  403836:	c5 f5 58 c9          	vaddpd %ymm1,%ymm1,%ymm1
  40383a:	c5 fd 58 c0          	vaddpd %ymm0,%ymm0,%ymm0
  40383e:	c5 c5 58 ff          	vaddpd %ymm7,%ymm7,%ymm7
  403842:	c5 cd 58 f6          	vaddpd %ymm6,%ymm6,%ymm6
  403846:	c5 d5 58 ed          	vaddpd %ymm5,%ymm5,%ymm5
  40384a:	c5 dd 58 e4          	vaddpd %ymm4,%ymm4,%ymm4
  40384e:	c5 e5 58 db          	vaddpd %ymm3,%ymm3,%ymm3
  403852:	c5 ed 58 d2          	vaddpd %ymm2,%ymm2,%ymm2
  403856:	c5 f5 58 c9          	vaddpd %ymm1,%ymm1,%ymm1
  40385a:	c5 fd 58 c0          	vaddpd %ymm0,%ymm0,%ymm0
  40385e:	c5 c5 58 ff          	vaddpd %ymm7,%ymm7,%ymm7
  403862:	c5 cd 58 f6          	vaddpd %ymm6,%ymm6,%ymm6
  403866:	c5 d5 58 ed          	vaddpd %ymm5,%ymm5,%ymm5
  40386a:	c5 dd 58 e4          	vaddpd %ymm4,%ymm4,%ymm4
  40386e:	c5 e5 58 db          	vaddpd %ymm3,%ymm3,%ymm3
  403872:	c5 ed 58 d2          	vaddpd %ymm2,%ymm2,%ymm2
  403876:	c5 f5 58 c9          	vaddpd %ymm1,%ymm1,%ymm1
  40387a:	c5 fd 58 c0          	vaddpd %ymm0,%ymm0,%ymm0
  40387e:	c5 c5 58 ff          	vaddpd %ymm7,%ymm7,%ymm7
  403882:	c5 cd 58 f6          	vaddpd %ymm6,%ymm6,%ymm6
  403886:	c5 d5 58 ed          	vaddpd %ymm5,%ymm5,%ymm5
  40388a:	c5 dd 58 e4          	vaddpd %ymm4,%ymm4,%ymm4
  40388e:	c5 e5 58 db          	vaddpd %ymm3,%ymm3,%ymm3
  403892:	c5 ed 58 d2          	vaddpd %ymm2,%ymm2,%ymm2
  403896:	c5 f5 58 c9          	vaddpd %ymm1,%ymm1,%ymm1
  40389a:	c5 fd 58 c0          	vaddpd %ymm0,%ymm0,%ymm0
  40389e:	c5 c5 58 ff          	vaddpd %ymm7,%ymm7,%ymm7
  4038a2:	c5 cd 58 f6          	vaddpd %ymm6,%ymm6,%ymm6
  4038a6:	c5 d5 58 ed          	vaddpd %ymm5,%ymm5,%ymm5
  4038aa:	c5 dd 58 e4          	vaddpd %ymm4,%ymm4,%ymm4
  4038ae:	c5 e5 58 db          	vaddpd %ymm3,%ymm3,%ymm3
  4038b2:	c5 ed 58 d2          	vaddpd %ymm2,%ymm2,%ymm2
  4038b6:	c5 f5 58 c9          	vaddpd %ymm1,%ymm1,%ymm1
  4038ba:	c5 fd 58 c0          	vaddpd %ymm0,%ymm0,%ymm0
  4038be:	c5 c5 58 ff          	vaddpd %ymm7,%ymm7,%ymm7
  4038c2:	c5 cd 58 f6          	vaddpd %ymm6,%ymm6,%ymm6
  4038c6:	c5 d5 58 ed          	vaddpd %ymm5,%ymm5,%ymm5
  4038ca:	c5 dd 58 e4          	vaddpd %ymm4,%ymm4,%ymm4
  4038ce:	c5 e5 58 db          	vaddpd %ymm3,%ymm3,%ymm3
  4038d2:	c5 ed 58 d2          	vaddpd %ymm2,%ymm2,%ymm2
  4038d6:	c5 f5 58 c9          	vaddpd %ymm1,%ymm1,%ymm1
  4038da:	c5 fd 58 c0          	vaddpd %ymm0,%ymm0,%ymm0
  4038de:	c5 c5 58 ff          	vaddpd %ymm7,%ymm7,%ymm7
  4038e2:	c5 cd 58 f6          	vaddpd %ymm6,%ymm6,%ymm6
  4038e6:	c5 d5 58 ed          	vaddpd %ymm5,%ymm5,%ymm5
  4038ea:	c5 dd 58 e4          	vaddpd %ymm4,%ymm4,%ymm4
  4038ee:	c5 e5 58 db          	vaddpd %ymm3,%ymm3,%ymm3
  4038f2:	c5 ed 58 d2          	vaddpd %ymm2,%ymm2,%ymm2
  4038f6:	c5 f5 58 c9          	vaddpd %ymm1,%ymm1,%ymm1
  4038fa:	c5 fd 58 c0          	vaddpd %ymm0,%ymm0,%ymm0
  4038fe:	c5 c5 58 ff          	vaddpd %ymm7,%ymm7,%ymm7
  403902:	c5 cd 58 f6          	vaddpd %ymm6,%ymm6,%ymm6
  403906:	c5 d5 58 ed          	vaddpd %ymm5,%ymm5,%ymm5
  40390a:	c5 dd 58 e4          	vaddpd %ymm4,%ymm4,%ymm4
  40390e:	c5 e5 58 db          	vaddpd %ymm3,%ymm3,%ymm3
  403912:	c5 ed 58 d2          	vaddpd %ymm2,%ymm2,%ymm2
  403916:	c5 f5 58 c9          	vaddpd %ymm1,%ymm1,%ymm1
  40391a:	c5 fd 58 c0          	vaddpd %ymm0,%ymm0,%ymm0
  40391e:	c5 c5 58 ff          	vaddpd %ymm7,%ymm7,%ymm7
  403922:	c5 cd 58 f6          	vaddpd %ymm6,%ymm6,%ymm6
  403926:	c5 d5 58 ed          	vaddpd %ymm5,%ymm5,%ymm5
  40392a:	c5 dd 58 e4          	vaddpd %ymm4,%ymm4,%ymm4
  40392e:	c5 e5 58 db          	vaddpd %ymm3,%ymm3,%ymm3
  403932:	c5 ed 58 d2          	vaddpd %ymm2,%ymm2,%ymm2
  403936:	c5 f5 58 c9          	vaddpd %ymm1,%ymm1,%ymm1
  40393a:	c5 fd 58 c0          	vaddpd %ymm0,%ymm0,%ymm0
  40393e:	c5 c5 58 ff          	vaddpd %ymm7,%ymm7,%ymm7
  403942:	c5 cd 58 f6          	vaddpd %ymm6,%ymm6,%ymm6
  403946:	c5 d5 58 ed          	vaddpd %ymm5,%ymm5,%ymm5
  40394a:	c5 dd 58 e4          	vaddpd %ymm4,%ymm4,%ymm4
  40394e:	c5 e5 58 db          	vaddpd %ymm3,%ymm3,%ymm3
  403952:	c5 ed 58 d2          	vaddpd %ymm2,%ymm2,%ymm2
  403956:	c5 f5 58 c9          	vaddpd %ymm1,%ymm1,%ymm1
  40395a:	c5 fd 58 c0          	vaddpd %ymm0,%ymm0,%ymm0
  40395e:	c5 c5 58 ff          	vaddpd %ymm7,%ymm7,%ymm7
  403962:	c5 cd 58 f6          	vaddpd %ymm6,%ymm6,%ymm6
  403966:	c5 d5 58 ed          	vaddpd %ymm5,%ymm5,%ymm5
  40396a:	c5 dd 58 e4          	vaddpd %ymm4,%ymm4,%ymm4
  40396e:	c5 e5 58 db          	vaddpd %ymm3,%ymm3,%ymm3
  403972:	c5 ed 58 d2          	vaddpd %ymm2,%ymm2,%ymm2
  403976:	c5 f5 58 c9          	vaddpd %ymm1,%ymm1,%ymm1
  40397a:	c5 fd 58 c0          	vaddpd %ymm0,%ymm0,%ymm0
  40397e:	c5 c5 58 ff          	vaddpd %ymm7,%ymm7,%ymm7
  403982:	c5 cd 58 f6          	vaddpd %ymm6,%ymm6,%ymm6
  403986:	c5 d5 58 ed          	vaddpd %ymm5,%ymm5,%ymm5
  40398a:	c5 dd 58 e4          	vaddpd %ymm4,%ymm4,%ymm4
  40398e:	c5 e5 58 db          	vaddpd %ymm3,%ymm3,%ymm3
  403992:	c5 ed 58 d2          	vaddpd %ymm2,%ymm2,%ymm2
  403996:	c5 f5 58 c9          	vaddpd %ymm1,%ymm1,%ymm1
  40399a:	c5 fd 58 c0          	vaddpd %ymm0,%ymm0,%ymm0
  40399e:	c5 c5 58 ff          	vaddpd %ymm7,%ymm7,%ymm7
  4039a2:	c5 cd 58 f6          	vaddpd %ymm6,%ymm6,%ymm6
  4039a6:	c5 d5 58 ed          	vaddpd %ymm5,%ymm5,%ymm5
  4039aa:	c5 dd 58 e4          	vaddpd %ymm4,%ymm4,%ymm4
  4039ae:	c5 e5 58 db          	vaddpd %ymm3,%ymm3,%ymm3
  4039b2:	c5 ed 58 d2          	vaddpd %ymm2,%ymm2,%ymm2
  4039b6:	c5 f5 58 c9          	vaddpd %ymm1,%ymm1,%ymm1
  4039ba:	c5 fd 58 c0          	vaddpd %ymm0,%ymm0,%ymm0
  4039be:	c5 c5 58 ff          	vaddpd %ymm7,%ymm7,%ymm7
  4039c2:	c5 cd 58 f6          	vaddpd %ymm6,%ymm6,%ymm6
  4039c6:	c5 d5 58 ed          	vaddpd %ymm5,%ymm5,%ymm5
  4039ca:	c5 dd 58 e4          	vaddpd %ymm4,%ymm4,%ymm4
  4039ce:	c5 e5 58 db          	vaddpd %ymm3,%ymm3,%ymm3
  4039d2:	c5 ed 58 d2          	vaddpd %ymm2,%ymm2,%ymm2
  4039d6:	c5 f5 58 c9          	vaddpd %ymm1,%ymm1,%ymm1
  4039da:	c5 fd 58 c0          	vaddpd %ymm0,%ymm0,%ymm0
  4039de:	c5 c5 58 ff          	vaddpd %ymm7,%ymm7,%ymm7
  4039e2:	c5 cd 58 f6          	vaddpd %ymm6,%ymm6,%ymm6
  4039e6:	c5 d5 58 ed          	vaddpd %ymm5,%ymm5,%ymm5
  4039ea:	c5 dd 58 e4          	vaddpd %ymm4,%ymm4,%ymm4
  4039ee:	c5 e5 58 db          	vaddpd %ymm3,%ymm3,%ymm3
  4039f2:	c5 ed 58 d2          	vaddpd %ymm2,%ymm2,%ymm2
  4039f6:	c5 f5 58 c9          	vaddpd %ymm1,%ymm1,%ymm1
  4039fa:	c5 fd 58 c0          	vaddpd %ymm0,%ymm0,%ymm0
  4039fe:	c5 c5 58 ff          	vaddpd %ymm7,%ymm7,%ymm7
  403a02:	c5 cd 58 f6          	vaddpd %ymm6,%ymm6,%ymm6
  403a06:	c5 d5 58 ed          	vaddpd %ymm5,%ymm5,%ymm5
  403a0a:	c5 dd 58 e4          	vaddpd %ymm4,%ymm4,%ymm4
  403a0e:	c5 e5 58 db          	vaddpd %ymm3,%ymm3,%ymm3
  403a12:	c5 ed 58 d2          	vaddpd %ymm2,%ymm2,%ymm2
  403a16:	c5 f5 58 c9          	vaddpd %ymm1,%ymm1,%ymm1
  403a1a:	c5 fd 58 c0          	vaddpd %ymm0,%ymm0,%ymm0
  403a1e:	c5 c5 58 ff          	vaddpd %ymm7,%ymm7,%ymm7
  403a22:	c5 cd 58 f6          	vaddpd %ymm6,%ymm6,%ymm6
  403a26:	c5 d5 58 ed          	vaddpd %ymm5,%ymm5,%ymm5
  403a2a:	c5 dd 58 e4          	vaddpd %ymm4,%ymm4,%ymm4
  403a2e:	c5 e5 58 db          	vaddpd %ymm3,%ymm3,%ymm3
  403a32:	c5 ed 58 d2          	vaddpd %ymm2,%ymm2,%ymm2
  403a36:	c5 f5 58 c9          	vaddpd %ymm1,%ymm1,%ymm1
  403a3a:	c5 fd 58 c0          	vaddpd %ymm0,%ymm0,%ymm0
  403a3e:	c5 c5 58 ff          	vaddpd %ymm7,%ymm7,%ymm7
  403a42:	c5 cd 58 f6          	vaddpd %ymm6,%ymm6,%ymm6
  403a46:	c5 d5 58 ed          	vaddpd %ymm5,%ymm5,%ymm5
  403a4a:	c5 dd 58 e4          	vaddpd %ymm4,%ymm4,%ymm4
  403a4e:	c5 e5 58 db          	vaddpd %ymm3,%ymm3,%ymm3
  403a52:	c5 ed 58 d2          	vaddpd %ymm2,%ymm2,%ymm2
  403a56:	c5 f5 58 c9          	vaddpd %ymm1,%ymm1,%ymm1
  403a5a:	c5 fd 58 c0          	vaddpd %ymm0,%ymm0,%ymm0
  403a5e:	c5 c5 58 ff          	vaddpd %ymm7,%ymm7,%ymm7
  403a62:	c5 cd 58 f6          	vaddpd %ymm6,%ymm6,%ymm6
  403a66:	c5 d5 58 ed          	vaddpd %ymm5,%ymm5,%ymm5
  403a6a:	c5 dd 58 e4          	vaddpd %ymm4,%ymm4,%ymm4
  403a6e:	c5 e5 58 db          	vaddpd %ymm3,%ymm3,%ymm3
  403a72:	c5 ed 58 d2          	vaddpd %ymm2,%ymm2,%ymm2
  403a76:	c5 f5 58 c9          	vaddpd %ymm1,%ymm1,%ymm1
  403a7a:	c5 fd 58 c0          	vaddpd %ymm0,%ymm0,%ymm0
  403a7e:	c5 c5 58 ff          	vaddpd %ymm7,%ymm7,%ymm7
  403a82:	c5 cd 58 f6          	vaddpd %ymm6,%ymm6,%ymm6
  403a86:	c5 d5 58 ed          	vaddpd %ymm5,%ymm5,%ymm5
  403a8a:	c5 dd 58 e4          	vaddpd %ymm4,%ymm4,%ymm4
  403a8e:	c5 e5 58 db          	vaddpd %ymm3,%ymm3,%ymm3
  403a92:	c5 ed 58 d2          	vaddpd %ymm2,%ymm2,%ymm2
  403a96:	c5 f5 58 c9          	vaddpd %ymm1,%ymm1,%ymm1
  403a9a:	c5 fd 58 c0          	vaddpd %ymm0,%ymm0,%ymm0
  403a9e:	c5 c5 58 ff          	vaddpd %ymm7,%ymm7,%ymm7
  403aa2:	c5 cd 58 f6          	vaddpd %ymm6,%ymm6,%ymm6
  403aa6:	c5 d5 58 ed          	vaddpd %ymm5,%ymm5,%ymm5
  403aaa:	c5 dd 58 e4          	vaddpd %ymm4,%ymm4,%ymm4
  403aae:	c5 e5 58 db          	vaddpd %ymm3,%ymm3,%ymm3
  403ab2:	c5 ed 58 d2          	vaddpd %ymm2,%ymm2,%ymm2
  403ab6:	c5 f5 58 c9          	vaddpd %ymm1,%ymm1,%ymm1
  403aba:	c5 fd 58 c0          	vaddpd %ymm0,%ymm0,%ymm0
  403abe:	c5 c5 58 ff          	vaddpd %ymm7,%ymm7,%ymm7
  403ac2:	c5 cd 58 f6          	vaddpd %ymm6,%ymm6,%ymm6
  403ac6:	c5 d5 58 ed          	vaddpd %ymm5,%ymm5,%ymm5
  403aca:	c5 dd 58 e4          	vaddpd %ymm4,%ymm4,%ymm4
  403ace:	c5 e5 58 db          	vaddpd %ymm3,%ymm3,%ymm3
  403ad2:	c5 ed 58 d2          	vaddpd %ymm2,%ymm2,%ymm2
  403ad6:	c5 f5 58 c9          	vaddpd %ymm1,%ymm1,%ymm1
  403ada:	c5 fd 58 c0          	vaddpd %ymm0,%ymm0,%ymm0
  403ade:	c5 c5 58 ff          	vaddpd %ymm7,%ymm7,%ymm7
  403ae2:	c5 cd 58 f6          	vaddpd %ymm6,%ymm6,%ymm6
  403ae6:	c5 d5 58 ed          	vaddpd %ymm5,%ymm5,%ymm5
  403aea:	c5 dd 58 e4          	vaddpd %ymm4,%ymm4,%ymm4
  403aee:	c5 e5 58 db          	vaddpd %ymm3,%ymm3,%ymm3
  403af2:	c5 ed 58 d2          	vaddpd %ymm2,%ymm2,%ymm2
  403af6:	c5 f5 58 c9          	vaddpd %ymm1,%ymm1,%ymm1
  403afa:	c5 fd 58 c0          	vaddpd %ymm0,%ymm0,%ymm0
  403afe:	c5 c5 58 ff          	vaddpd %ymm7,%ymm7,%ymm7
  403b02:	c5 cd 58 f6          	vaddpd %ymm6,%ymm6,%ymm6
  403b06:	c5 d5 58 ed          	vaddpd %ymm5,%ymm5,%ymm5
  403b0a:	c5 dd 58 e4          	vaddpd %ymm4,%ymm4,%ymm4
  403b0e:	c5 e5 58 db          	vaddpd %ymm3,%ymm3,%ymm3
  403b12:	c5 ed 58 d2          	vaddpd %ymm2,%ymm2,%ymm2
  403b16:	c5 f5 58 c9          	vaddpd %ymm1,%ymm1,%ymm1
  403b1a:	c5 fd 58 c0          	vaddpd %ymm0,%ymm0,%ymm0
  403b1e:	c5 c5 58 ff          	vaddpd %ymm7,%ymm7,%ymm7
  403b22:	c5 cd 58 f6          	vaddpd %ymm6,%ymm6,%ymm6
  403b26:	c5 d5 58 ed          	vaddpd %ymm5,%ymm5,%ymm5
  403b2a:	c5 dd 58 e4          	vaddpd %ymm4,%ymm4,%ymm4
  403b2e:	c5 e5 58 db          	vaddpd %ymm3,%ymm3,%ymm3
  403b32:	c5 ed 58 d2          	vaddpd %ymm2,%ymm2,%ymm2
  403b36:	c5 f5 58 c9          	vaddpd %ymm1,%ymm1,%ymm1
  403b3a:	c5 fd 58 c0          	vaddpd %ymm0,%ymm0,%ymm0
  403b3e:	c5 c5 58 ff          	vaddpd %ymm7,%ymm7,%ymm7
  403b42:	c5 cd 58 f6          	vaddpd %ymm6,%ymm6,%ymm6
  403b46:	c5 d5 58 ed          	vaddpd %ymm5,%ymm5,%ymm5
  403b4a:	c5 dd 58 e4          	vaddpd %ymm4,%ymm4,%ymm4
  403b4e:	c5 e5 58 db          	vaddpd %ymm3,%ymm3,%ymm3
  403b52:	c5 ed 58 d2          	vaddpd %ymm2,%ymm2,%ymm2
  403b56:	c5 f5 58 c9          	vaddpd %ymm1,%ymm1,%ymm1
  403b5a:	c5 fd 58 c0          	vaddpd %ymm0,%ymm0,%ymm0
  403b5e:	c5 c5 58 ff          	vaddpd %ymm7,%ymm7,%ymm7
  403b62:	c5 cd 58 f6          	vaddpd %ymm6,%ymm6,%ymm6
  403b66:	c5 d5 58 ed          	vaddpd %ymm5,%ymm5,%ymm5
  403b6a:	c5 dd 58 e4          	vaddpd %ymm4,%ymm4,%ymm4
  403b6e:	c5 e5 58 db          	vaddpd %ymm3,%ymm3,%ymm3
  403b72:	c5 ed 58 d2          	vaddpd %ymm2,%ymm2,%ymm2
  403b76:	c5 f5 58 c9          	vaddpd %ymm1,%ymm1,%ymm1
  403b7a:	c5 fd 58 c0          	vaddpd %ymm0,%ymm0,%ymm0
  403b7e:	c5 c5 58 ff          	vaddpd %ymm7,%ymm7,%ymm7
  403b82:	c5 cd 58 f6          	vaddpd %ymm6,%ymm6,%ymm6
  403b86:	c5 d5 58 ed          	vaddpd %ymm5,%ymm5,%ymm5
  403b8a:	c5 dd 58 e4          	vaddpd %ymm4,%ymm4,%ymm4
  403b8e:	c5 e5 58 db          	vaddpd %ymm3,%ymm3,%ymm3
  403b92:	c5 ed 58 d2          	vaddpd %ymm2,%ymm2,%ymm2
  403b96:	c5 f5 58 c9          	vaddpd %ymm1,%ymm1,%ymm1
  403b9a:	c5 fd 58 c0          	vaddpd %ymm0,%ymm0,%ymm0
  403b9e:	c5 c5 58 ff          	vaddpd %ymm7,%ymm7,%ymm7
  403ba2:	c5 cd 58 f6          	vaddpd %ymm6,%ymm6,%ymm6
  403ba6:	c5 d5 58 ed          	vaddpd %ymm5,%ymm5,%ymm5
  403baa:	c5 dd 58 e4          	vaddpd %ymm4,%ymm4,%ymm4
  403bae:	c5 e5 58 db          	vaddpd %ymm3,%ymm3,%ymm3
  403bb2:	c5 ed 58 d2          	vaddpd %ymm2,%ymm2,%ymm2
  403bb6:	c5 f5 58 c9          	vaddpd %ymm1,%ymm1,%ymm1
  403bba:	c5 fd 58 c0          	vaddpd %ymm0,%ymm0,%ymm0
  403bbe:	c5 c5 58 ff          	vaddpd %ymm7,%ymm7,%ymm7
  403bc2:	c5 cd 58 f6          	vaddpd %ymm6,%ymm6,%ymm6
  403bc6:	c5 d5 58 ed          	vaddpd %ymm5,%ymm5,%ymm5
  403bca:	c5 dd 58 e4          	vaddpd %ymm4,%ymm4,%ymm4
  403bce:	c5 e5 58 db          	vaddpd %ymm3,%ymm3,%ymm3
  403bd2:	c5 ed 58 d2          	vaddpd %ymm2,%ymm2,%ymm2
  403bd6:	c5 f5 58 c9          	vaddpd %ymm1,%ymm1,%ymm1
  403bda:	c5 fd 58 c0          	vaddpd %ymm0,%ymm0,%ymm0
  403bde:	c5 c5 58 ff          	vaddpd %ymm7,%ymm7,%ymm7
  403be2:	c5 cd 58 f6          	vaddpd %ymm6,%ymm6,%ymm6
  403be6:	c5 d5 58 ed          	vaddpd %ymm5,%ymm5,%ymm5
  403bea:	c5 dd 58 e4          	vaddpd %ymm4,%ymm4,%ymm4
  403bee:	c5 e5 58 db          	vaddpd %ymm3,%ymm3,%ymm3
  403bf2:	c5 ed 58 d2          	vaddpd %ymm2,%ymm2,%ymm2
  403bf6:	c5 f5 58 c9          	vaddpd %ymm1,%ymm1,%ymm1
  403bfa:	c5 fd 58 c0          	vaddpd %ymm0,%ymm0,%ymm0
  403bfe:	c5 c5 58 ff          	vaddpd %ymm7,%ymm7,%ymm7
  403c02:	c5 cd 58 f6          	vaddpd %ymm6,%ymm6,%ymm6
  403c06:	c5 d5 58 ed          	vaddpd %ymm5,%ymm5,%ymm5
  403c0a:	c5 dd 58 e4          	vaddpd %ymm4,%ymm4,%ymm4
  403c0e:	c5 e5 58 db          	vaddpd %ymm3,%ymm3,%ymm3
  403c12:	c5 ed 58 d2          	vaddpd %ymm2,%ymm2,%ymm2
  403c16:	c5 f5 58 c9          	vaddpd %ymm1,%ymm1,%ymm1
  403c1a:	c5 fd 58 c0          	vaddpd %ymm0,%ymm0,%ymm0
  403c1e:	c5 c5 58 ff          	vaddpd %ymm7,%ymm7,%ymm7
  403c22:	c5 cd 58 f6          	vaddpd %ymm6,%ymm6,%ymm6
  403c26:	c5 d5 58 ed          	vaddpd %ymm5,%ymm5,%ymm5
  403c2a:	c5 dd 58 e4          	vaddpd %ymm4,%ymm4,%ymm4
  403c2e:	c5 e5 58 db          	vaddpd %ymm3,%ymm3,%ymm3
  403c32:	c5 ed 58 d2          	vaddpd %ymm2,%ymm2,%ymm2
  403c36:	c5 f5 58 c9          	vaddpd %ymm1,%ymm1,%ymm1
  403c3a:	c5 fd 58 c0          	vaddpd %ymm0,%ymm0,%ymm0
  403c3e:	c5 c5 58 ff          	vaddpd %ymm7,%ymm7,%ymm7
  403c42:	c5 cd 58 f6          	vaddpd %ymm6,%ymm6,%ymm6
  403c46:	c5 d5 58 ed          	vaddpd %ymm5,%ymm5,%ymm5
  403c4a:	c5 dd 58 e4          	vaddpd %ymm4,%ymm4,%ymm4
  403c4e:	c5 e5 58 db          	vaddpd %ymm3,%ymm3,%ymm3
  403c52:	c5 ed 58 d2          	vaddpd %ymm2,%ymm2,%ymm2
  403c56:	c5 f5 58 c9          	vaddpd %ymm1,%ymm1,%ymm1
  403c5a:	c5 fd 58 c0          	vaddpd %ymm0,%ymm0,%ymm0
  403c5e:	c5 c5 58 ff          	vaddpd %ymm7,%ymm7,%ymm7
  403c62:	c5 cd 58 f6          	vaddpd %ymm6,%ymm6,%ymm6
  403c66:	c5 d5 58 ed          	vaddpd %ymm5,%ymm5,%ymm5
  403c6a:	c5 dd 58 e4          	vaddpd %ymm4,%ymm4,%ymm4
  403c6e:	c5 e5 58 db          	vaddpd %ymm3,%ymm3,%ymm3
  403c72:	c5 ed 58 d2          	vaddpd %ymm2,%ymm2,%ymm2
  403c76:	c5 f5 58 c9          	vaddpd %ymm1,%ymm1,%ymm1
  403c7a:	c5 fd 58 c0          	vaddpd %ymm0,%ymm0,%ymm0
  403c7e:	c5 c5 58 ff          	vaddpd %ymm7,%ymm7,%ymm7
  403c82:	c5 cd 58 f6          	vaddpd %ymm6,%ymm6,%ymm6
  403c86:	c5 d5 58 ed          	vaddpd %ymm5,%ymm5,%ymm5
  403c8a:	c5 dd 58 e4          	vaddpd %ymm4,%ymm4,%ymm4
  403c8e:	c5 e5 58 db          	vaddpd %ymm3,%ymm3,%ymm3
  403c92:	c5 ed 58 d2          	vaddpd %ymm2,%ymm2,%ymm2
  403c96:	c5 f5 58 c9          	vaddpd %ymm1,%ymm1,%ymm1
  403c9a:	c5 fd 58 c0          	vaddpd %ymm0,%ymm0,%ymm0
  403c9e:	c5 c5 58 ff          	vaddpd %ymm7,%ymm7,%ymm7
  403ca2:	c5 cd 58 f6          	vaddpd %ymm6,%ymm6,%ymm6
  403ca6:	c5 d5 58 ed          	vaddpd %ymm5,%ymm5,%ymm5
  403caa:	c5 dd 58 e4          	vaddpd %ymm4,%ymm4,%ymm4
  403cae:	c5 e5 58 db          	vaddpd %ymm3,%ymm3,%ymm3
  403cb2:	c5 ed 58 d2          	vaddpd %ymm2,%ymm2,%ymm2
  403cb6:	c5 f5 58 c9          	vaddpd %ymm1,%ymm1,%ymm1
  403cba:	c5 fd 58 c0          	vaddpd %ymm0,%ymm0,%ymm0
  403cbe:	c5 c5 58 ff          	vaddpd %ymm7,%ymm7,%ymm7
  403cc2:	c5 cd 58 f6          	vaddpd %ymm6,%ymm6,%ymm6
  403cc6:	c5 d5 58 ed          	vaddpd %ymm5,%ymm5,%ymm5
  403cca:	c5 dd 58 e4          	vaddpd %ymm4,%ymm4,%ymm4
  403cce:	c5 e5 58 db          	vaddpd %ymm3,%ymm3,%ymm3
  403cd2:	c5 ed 58 d2          	vaddpd %ymm2,%ymm2,%ymm2
  403cd6:	c5 f5 58 c9          	vaddpd %ymm1,%ymm1,%ymm1
  403cda:	c5 fd 58 c0          	vaddpd %ymm0,%ymm0,%ymm0
  403cde:	c5 c5 58 ff          	vaddpd %ymm7,%ymm7,%ymm7
  403ce2:	c5 cd 58 f6          	vaddpd %ymm6,%ymm6,%ymm6
  403ce6:	c5 d5 58 ed          	vaddpd %ymm5,%ymm5,%ymm5
  403cea:	c5 dd 58 e4          	vaddpd %ymm4,%ymm4,%ymm4
  403cee:	c5 e5 58 db          	vaddpd %ymm3,%ymm3,%ymm3
  403cf2:	c5 ed 58 d2          	vaddpd %ymm2,%ymm2,%ymm2
  403cf6:	c5 f5 58 c9          	vaddpd %ymm1,%ymm1,%ymm1
  403cfa:	c5 fd 58 c0          	vaddpd %ymm0,%ymm0,%ymm0
  403cfe:	c5 c5 58 ff          	vaddpd %ymm7,%ymm7,%ymm7
  403d02:	c5 cd 58 f6          	vaddpd %ymm6,%ymm6,%ymm6
  403d06:	c5 d5 58 ed          	vaddpd %ymm5,%ymm5,%ymm5
  403d0a:	c5 dd 58 e4          	vaddpd %ymm4,%ymm4,%ymm4
  403d0e:	c5 e5 58 db          	vaddpd %ymm3,%ymm3,%ymm3
  403d12:	c5 ed 58 d2          	vaddpd %ymm2,%ymm2,%ymm2
  403d16:	c5 f5 58 c9          	vaddpd %ymm1,%ymm1,%ymm1
  403d1a:	c5 fd 58 c0          	vaddpd %ymm0,%ymm0,%ymm0
  403d1e:	c5 c5 58 ff          	vaddpd %ymm7,%ymm7,%ymm7
  403d22:	c5 cd 58 f6          	vaddpd %ymm6,%ymm6,%ymm6
  403d26:	c5 d5 58 ed          	vaddpd %ymm5,%ymm5,%ymm5
  403d2a:	c5 dd 58 e4          	vaddpd %ymm4,%ymm4,%ymm4
  403d2e:	c5 e5 58 db          	vaddpd %ymm3,%ymm3,%ymm3
  403d32:	c5 ed 58 d2          	vaddpd %ymm2,%ymm2,%ymm2
  403d36:	c5 f5 58 c9          	vaddpd %ymm1,%ymm1,%ymm1
  403d3a:	c5 fd 58 c0          	vaddpd %ymm0,%ymm0,%ymm0
  403d3e:	c5 c5 58 ff          	vaddpd %ymm7,%ymm7,%ymm7
  403d42:	c5 cd 58 f6          	vaddpd %ymm6,%ymm6,%ymm6
  403d46:	c5 d5 58 ed          	vaddpd %ymm5,%ymm5,%ymm5
  403d4a:	c5 dd 58 e4          	vaddpd %ymm4,%ymm4,%ymm4
  403d4e:	c5 e5 58 db          	vaddpd %ymm3,%ymm3,%ymm3
  403d52:	c5 ed 58 d2          	vaddpd %ymm2,%ymm2,%ymm2
  403d56:	c5 f5 58 c9          	vaddpd %ymm1,%ymm1,%ymm1
  403d5a:	c5 fd 58 c0          	vaddpd %ymm0,%ymm0,%ymm0
  403d5e:	c5 c5 58 ff          	vaddpd %ymm7,%ymm7,%ymm7
  403d62:	c5 cd 58 f6          	vaddpd %ymm6,%ymm6,%ymm6
  403d66:	c5 d5 58 ed          	vaddpd %ymm5,%ymm5,%ymm5
  403d6a:	c5 dd 58 e4          	vaddpd %ymm4,%ymm4,%ymm4
  403d6e:	c5 e5 58 db          	vaddpd %ymm3,%ymm3,%ymm3
  403d72:	c5 ed 58 d2          	vaddpd %ymm2,%ymm2,%ymm2
  403d76:	c5 f5 58 c9          	vaddpd %ymm1,%ymm1,%ymm1
  403d7a:	c5 fd 58 c0          	vaddpd %ymm0,%ymm0,%ymm0
  403d7e:	c5 c5 58 ff          	vaddpd %ymm7,%ymm7,%ymm7
  403d82:	c5 cd 58 f6          	vaddpd %ymm6,%ymm6,%ymm6
  403d86:	c5 d5 58 ed          	vaddpd %ymm5,%ymm5,%ymm5
  403d8a:	c5 dd 58 e4          	vaddpd %ymm4,%ymm4,%ymm4
  403d8e:	c5 e5 58 db          	vaddpd %ymm3,%ymm3,%ymm3
  403d92:	c5 ed 58 d2          	vaddpd %ymm2,%ymm2,%ymm2
  403d96:	c5 f5 58 c9          	vaddpd %ymm1,%ymm1,%ymm1
  403d9a:	c5 fd 58 c0          	vaddpd %ymm0,%ymm0,%ymm0
  403d9e:	c5 c5 58 ff          	vaddpd %ymm7,%ymm7,%ymm7
  403da2:	c5 cd 58 f6          	vaddpd %ymm6,%ymm6,%ymm6
  403da6:	c5 d5 58 ed          	vaddpd %ymm5,%ymm5,%ymm5
  403daa:	c5 dd 58 e4          	vaddpd %ymm4,%ymm4,%ymm4
  403dae:	c5 e5 58 db          	vaddpd %ymm3,%ymm3,%ymm3
  403db2:	c5 ed 58 d2          	vaddpd %ymm2,%ymm2,%ymm2
  403db6:	c5 f5 58 c9          	vaddpd %ymm1,%ymm1,%ymm1
  403dba:	c5 fd 58 c0          	vaddpd %ymm0,%ymm0,%ymm0
  403dbe:	c5 c5 58 ff          	vaddpd %ymm7,%ymm7,%ymm7
  403dc2:	c5 cd 58 f6          	vaddpd %ymm6,%ymm6,%ymm6
  403dc6:	c5 d5 58 ed          	vaddpd %ymm5,%ymm5,%ymm5
  403dca:	c5 dd 58 e4          	vaddpd %ymm4,%ymm4,%ymm4
  403dce:	c5 e5 58 db          	vaddpd %ymm3,%ymm3,%ymm3
  403dd2:	c5 ed 58 d2          	vaddpd %ymm2,%ymm2,%ymm2
  403dd6:	c5 f5 58 c9          	vaddpd %ymm1,%ymm1,%ymm1
  403dda:	c5 fd 58 c0          	vaddpd %ymm0,%ymm0,%ymm0
  403dde:	c5 c5 58 ff          	vaddpd %ymm7,%ymm7,%ymm7
  403de2:	c5 cd 58 f6          	vaddpd %ymm6,%ymm6,%ymm6
  403de6:	c5 d5 58 ed          	vaddpd %ymm5,%ymm5,%ymm5
  403dea:	c5 dd 58 e4          	vaddpd %ymm4,%ymm4,%ymm4
  403dee:	c5 e5 58 db          	vaddpd %ymm3,%ymm3,%ymm3
  403df2:	c5 ed 58 d2          	vaddpd %ymm2,%ymm2,%ymm2
  403df6:	c5 f5 58 c9          	vaddpd %ymm1,%ymm1,%ymm1
  403dfa:	c5 fd 58 c0          	vaddpd %ymm0,%ymm0,%ymm0
  403dfe:	c5 c5 58 ff          	vaddpd %ymm7,%ymm7,%ymm7
  403e02:	c5 cd 58 f6          	vaddpd %ymm6,%ymm6,%ymm6
  403e06:	c5 d5 58 ed          	vaddpd %ymm5,%ymm5,%ymm5
  403e0a:	c5 dd 58 e4          	vaddpd %ymm4,%ymm4,%ymm4
  403e0e:	c5 e5 58 db          	vaddpd %ymm3,%ymm3,%ymm3
  403e12:	c5 ed 58 d2          	vaddpd %ymm2,%ymm2,%ymm2
  403e16:	c5 f5 58 c9          	vaddpd %ymm1,%ymm1,%ymm1
  403e1a:	c5 fd 58 c0          	vaddpd %ymm0,%ymm0,%ymm0
  403e1e:	c5 c5 58 ff          	vaddpd %ymm7,%ymm7,%ymm7
  403e22:	c5 cd 58 f6          	vaddpd %ymm6,%ymm6,%ymm6
  403e26:	c5 d5 58 ed          	vaddpd %ymm5,%ymm5,%ymm5
  403e2a:	c5 dd 58 e4          	vaddpd %ymm4,%ymm4,%ymm4
  403e2e:	c5 e5 58 db          	vaddpd %ymm3,%ymm3,%ymm3
  403e32:	c5 ed 58 d2          	vaddpd %ymm2,%ymm2,%ymm2
  403e36:	c5 f5 58 c9          	vaddpd %ymm1,%ymm1,%ymm1
  403e3a:	c5 fd 58 c0          	vaddpd %ymm0,%ymm0,%ymm0
  403e3e:	c5 c5 58 ff          	vaddpd %ymm7,%ymm7,%ymm7
  403e42:	c5 cd 58 f6          	vaddpd %ymm6,%ymm6,%ymm6
  403e46:	c5 d5 58 ed          	vaddpd %ymm5,%ymm5,%ymm5
  403e4a:	c5 dd 58 e4          	vaddpd %ymm4,%ymm4,%ymm4
  403e4e:	c5 e5 58 db          	vaddpd %ymm3,%ymm3,%ymm3
  403e52:	c5 ed 58 d2          	vaddpd %ymm2,%ymm2,%ymm2
  403e56:	c5 f5 58 c9          	vaddpd %ymm1,%ymm1,%ymm1
  403e5a:	c5 fd 58 c0          	vaddpd %ymm0,%ymm0,%ymm0
  403e5e:	c5 c5 58 ff          	vaddpd %ymm7,%ymm7,%ymm7
  403e62:	c5 cd 58 f6          	vaddpd %ymm6,%ymm6,%ymm6
  403e66:	c5 d5 58 ed          	vaddpd %ymm5,%ymm5,%ymm5
  403e6a:	c5 dd 58 e4          	vaddpd %ymm4,%ymm4,%ymm4
  403e6e:	c5 e5 58 db          	vaddpd %ymm3,%ymm3,%ymm3
  403e72:	c5 ed 58 d2          	vaddpd %ymm2,%ymm2,%ymm2
  403e76:	c5 f5 58 c9          	vaddpd %ymm1,%ymm1,%ymm1
  403e7a:	c5 fd 58 c0          	vaddpd %ymm0,%ymm0,%ymm0
  403e7e:	c5 c5 58 ff          	vaddpd %ymm7,%ymm7,%ymm7
  403e82:	c5 cd 58 f6          	vaddpd %ymm6,%ymm6,%ymm6
  403e86:	c5 d5 58 ed          	vaddpd %ymm5,%ymm5,%ymm5
  403e8a:	c5 dd 58 e4          	vaddpd %ymm4,%ymm4,%ymm4
  403e8e:	c5 e5 58 db          	vaddpd %ymm3,%ymm3,%ymm3
  403e92:	c5 ed 58 d2          	vaddpd %ymm2,%ymm2,%ymm2
  403e96:	c5 f5 58 c9          	vaddpd %ymm1,%ymm1,%ymm1
  403e9a:	c5 fd 58 c0          	vaddpd %ymm0,%ymm0,%ymm0
  403e9e:	c5 c5 58 ff          	vaddpd %ymm7,%ymm7,%ymm7
  403ea2:	c5 cd 58 f6          	vaddpd %ymm6,%ymm6,%ymm6
  403ea6:	c5 d5 58 ed          	vaddpd %ymm5,%ymm5,%ymm5
  403eaa:	c5 dd 58 e4          	vaddpd %ymm4,%ymm4,%ymm4
  403eae:	c5 e5 58 db          	vaddpd %ymm3,%ymm3,%ymm3
  403eb2:	c5 ed 58 d2          	vaddpd %ymm2,%ymm2,%ymm2
  403eb6:	c5 f5 58 c9          	vaddpd %ymm1,%ymm1,%ymm1
  403eba:	c5 fd 58 c0          	vaddpd %ymm0,%ymm0,%ymm0
  403ebe:	c5 c5 58 ff          	vaddpd %ymm7,%ymm7,%ymm7
  403ec2:	c5 cd 58 f6          	vaddpd %ymm6,%ymm6,%ymm6
  403ec6:	c5 d5 58 ed          	vaddpd %ymm5,%ymm5,%ymm5
  403eca:	c5 dd 58 e4          	vaddpd %ymm4,%ymm4,%ymm4
  403ece:	c5 e5 58 db          	vaddpd %ymm3,%ymm3,%ymm3
  403ed2:	c5 ed 58 d2          	vaddpd %ymm2,%ymm2,%ymm2
  403ed6:	c5 f5 58 c9          	vaddpd %ymm1,%ymm1,%ymm1
  403eda:	c5 fd 58 c0          	vaddpd %ymm0,%ymm0,%ymm0
  403ede:	c5 c5 58 ff          	vaddpd %ymm7,%ymm7,%ymm7
  403ee2:	c5 cd 58 f6          	vaddpd %ymm6,%ymm6,%ymm6
  403ee6:	c5 d5 58 ed          	vaddpd %ymm5,%ymm5,%ymm5
  403eea:	c5 dd 58 e4          	vaddpd %ymm4,%ymm4,%ymm4
  403eee:	c5 e5 58 db          	vaddpd %ymm3,%ymm3,%ymm3
  403ef2:	c5 ed 58 d2          	vaddpd %ymm2,%ymm2,%ymm2
  403ef6:	c5 f5 58 c9          	vaddpd %ymm1,%ymm1,%ymm1
  403efa:	c5 fd 58 c0          	vaddpd %ymm0,%ymm0,%ymm0
  403efe:	c5 c5 58 ff          	vaddpd %ymm7,%ymm7,%ymm7
  403f02:	c5 cd 58 f6          	vaddpd %ymm6,%ymm6,%ymm6
  403f06:	c5 d5 58 ed          	vaddpd %ymm5,%ymm5,%ymm5
  403f0a:	c5 dd 58 e4          	vaddpd %ymm4,%ymm4,%ymm4
  403f0e:	c5 e5 58 db          	vaddpd %ymm3,%ymm3,%ymm3
  403f12:	c5 ed 58 d2          	vaddpd %ymm2,%ymm2,%ymm2
  403f16:	c5 f5 58 c9          	vaddpd %ymm1,%ymm1,%ymm1
  403f1a:	c5 fd 58 c0          	vaddpd %ymm0,%ymm0,%ymm0
  403f1e:	c5 c5 58 ff          	vaddpd %ymm7,%ymm7,%ymm7
  403f22:	c5 cd 58 f6          	vaddpd %ymm6,%ymm6,%ymm6
  403f26:	c5 d5 58 ed          	vaddpd %ymm5,%ymm5,%ymm5
  403f2a:	c5 dd 58 e4          	vaddpd %ymm4,%ymm4,%ymm4
  403f2e:	c5 e5 58 db          	vaddpd %ymm3,%ymm3,%ymm3
  403f32:	c5 ed 58 d2          	vaddpd %ymm2,%ymm2,%ymm2
  403f36:	c5 f5 58 c9          	vaddpd %ymm1,%ymm1,%ymm1
  403f3a:	c5 fd 58 c0          	vaddpd %ymm0,%ymm0,%ymm0
  403f3e:	c5 c5 58 ff          	vaddpd %ymm7,%ymm7,%ymm7
  403f42:	c5 cd 58 f6          	vaddpd %ymm6,%ymm6,%ymm6
  403f46:	c5 d5 58 ed          	vaddpd %ymm5,%ymm5,%ymm5
  403f4a:	c5 dd 58 e4          	vaddpd %ymm4,%ymm4,%ymm4
  403f4e:	c5 e5 58 db          	vaddpd %ymm3,%ymm3,%ymm3
  403f52:	c5 ed 58 d2          	vaddpd %ymm2,%ymm2,%ymm2
  403f56:	c5 f5 58 c9          	vaddpd %ymm1,%ymm1,%ymm1
  403f5a:	c5 fd 58 c0          	vaddpd %ymm0,%ymm0,%ymm0
  403f5e:	c5 c5 58 ff          	vaddpd %ymm7,%ymm7,%ymm7
  403f62:	c5 cd 58 f6          	vaddpd %ymm6,%ymm6,%ymm6
  403f66:	c5 d5 58 ed          	vaddpd %ymm5,%ymm5,%ymm5
  403f6a:	c5 dd 58 e4          	vaddpd %ymm4,%ymm4,%ymm4
  403f6e:	c5 e5 58 db          	vaddpd %ymm3,%ymm3,%ymm3
  403f72:	c5 ed 58 d2          	vaddpd %ymm2,%ymm2,%ymm2
  403f76:	c5 f5 58 c9          	vaddpd %ymm1,%ymm1,%ymm1
  403f7a:	c5 fd 58 c0          	vaddpd %ymm0,%ymm0,%ymm0
  403f7e:	c5 c5 58 ff          	vaddpd %ymm7,%ymm7,%ymm7
  403f82:	c5 cd 58 f6          	vaddpd %ymm6,%ymm6,%ymm6
  403f86:	c5 d5 58 ed          	vaddpd %ymm5,%ymm5,%ymm5
  403f8a:	c5 dd 58 e4          	vaddpd %ymm4,%ymm4,%ymm4
  403f8e:	c5 e5 58 db          	vaddpd %ymm3,%ymm3,%ymm3
  403f92:	c5 ed 58 d2          	vaddpd %ymm2,%ymm2,%ymm2
  403f96:	c5 f5 58 c9          	vaddpd %ymm1,%ymm1,%ymm1
  403f9a:	c5 fd 58 c0          	vaddpd %ymm0,%ymm0,%ymm0
  403f9e:	c5 c5 58 ff          	vaddpd %ymm7,%ymm7,%ymm7
  403fa2:	c5 cd 58 f6          	vaddpd %ymm6,%ymm6,%ymm6
  403fa6:	c5 d5 58 ed          	vaddpd %ymm5,%ymm5,%ymm5
  403faa:	c5 dd 58 e4          	vaddpd %ymm4,%ymm4,%ymm4
  403fae:	c5 e5 58 db          	vaddpd %ymm3,%ymm3,%ymm3
  403fb2:	c5 ed 58 d2          	vaddpd %ymm2,%ymm2,%ymm2
  403fb6:	c5 f5 58 c9          	vaddpd %ymm1,%ymm1,%ymm1
  403fba:	c5 fd 58 c0          	vaddpd %ymm0,%ymm0,%ymm0
  403fbe:	c5 c5 58 ff          	vaddpd %ymm7,%ymm7,%ymm7
  403fc2:	c5 cd 58 f6          	vaddpd %ymm6,%ymm6,%ymm6
  403fc6:	c5 d5 58 ed          	vaddpd %ymm5,%ymm5,%ymm5
  403fca:	c5 dd 58 e4          	vaddpd %ymm4,%ymm4,%ymm4
  403fce:	c5 e5 58 db          	vaddpd %ymm3,%ymm3,%ymm3
  403fd2:	c5 ed 58 d2          	vaddpd %ymm2,%ymm2,%ymm2
  403fd6:	c5 f5 58 c9          	vaddpd %ymm1,%ymm1,%ymm1
  403fda:	c5 fd 58 c0          	vaddpd %ymm0,%ymm0,%ymm0
  403fde:	c5 c5 58 ff          	vaddpd %ymm7,%ymm7,%ymm7
  403fe2:	c5 cd 58 f6          	vaddpd %ymm6,%ymm6,%ymm6
  403fe6:	c5 d5 58 ed          	vaddpd %ymm5,%ymm5,%ymm5
  403fea:	c5 dd 58 e4          	vaddpd %ymm4,%ymm4,%ymm4
  403fee:	c5 e5 58 db          	vaddpd %ymm3,%ymm3,%ymm3
  403ff2:	c5 ed 58 d2          	vaddpd %ymm2,%ymm2,%ymm2
  403ff6:	c5 f5 58 c9          	vaddpd %ymm1,%ymm1,%ymm1
  403ffa:	c5 fd 58 c0          	vaddpd %ymm0,%ymm0,%ymm0
  403ffe:	c5 c5 58 ff          	vaddpd %ymm7,%ymm7,%ymm7
  404002:	c5 cd 58 f6          	vaddpd %ymm6,%ymm6,%ymm6
  404006:	c5 d5 58 ed          	vaddpd %ymm5,%ymm5,%ymm5
  40400a:	c5 dd 58 e4          	vaddpd %ymm4,%ymm4,%ymm4
  40400e:	c5 e5 58 db          	vaddpd %ymm3,%ymm3,%ymm3
  404012:	c5 ed 58 d2          	vaddpd %ymm2,%ymm2,%ymm2
  404016:	c5 f5 58 c9          	vaddpd %ymm1,%ymm1,%ymm1
  40401a:	c5 fd 58 c0          	vaddpd %ymm0,%ymm0,%ymm0
  40401e:	c5 c5 58 ff          	vaddpd %ymm7,%ymm7,%ymm7
  404022:	c5 cd 58 f6          	vaddpd %ymm6,%ymm6,%ymm6
  404026:	c5 d5 58 ed          	vaddpd %ymm5,%ymm5,%ymm5
  40402a:	c5 dd 58 e4          	vaddpd %ymm4,%ymm4,%ymm4
  40402e:	c5 e5 58 db          	vaddpd %ymm3,%ymm3,%ymm3
  404032:	c5 ed 58 d2          	vaddpd %ymm2,%ymm2,%ymm2
  404036:	c5 f5 58 c9          	vaddpd %ymm1,%ymm1,%ymm1
  40403a:	c5 fd 58 c0          	vaddpd %ymm0,%ymm0,%ymm0
  40403e:	c5 c5 58 ff          	vaddpd %ymm7,%ymm7,%ymm7
  404042:	c5 cd 58 f6          	vaddpd %ymm6,%ymm6,%ymm6
  404046:	c5 d5 58 ed          	vaddpd %ymm5,%ymm5,%ymm5
  40404a:	c5 dd 58 e4          	vaddpd %ymm4,%ymm4,%ymm4
  40404e:	c5 e5 58 db          	vaddpd %ymm3,%ymm3,%ymm3
  404052:	c5 ed 58 d2          	vaddpd %ymm2,%ymm2,%ymm2
  404056:	c5 f5 58 c9          	vaddpd %ymm1,%ymm1,%ymm1
  40405a:	c5 fd 58 c0          	vaddpd %ymm0,%ymm0,%ymm0
  40405e:	c5 c5 58 ff          	vaddpd %ymm7,%ymm7,%ymm7
  404062:	c5 cd 58 f6          	vaddpd %ymm6,%ymm6,%ymm6
  404066:	c5 d5 58 ed          	vaddpd %ymm5,%ymm5,%ymm5
  40406a:	c5 dd 58 e4          	vaddpd %ymm4,%ymm4,%ymm4
  40406e:	c5 e5 58 db          	vaddpd %ymm3,%ymm3,%ymm3
  404072:	c5 ed 58 d2          	vaddpd %ymm2,%ymm2,%ymm2
  404076:	c5 f5 58 c9          	vaddpd %ymm1,%ymm1,%ymm1
  40407a:	c5 fd 58 c0          	vaddpd %ymm0,%ymm0,%ymm0
  40407e:	c5 c5 58 ff          	vaddpd %ymm7,%ymm7,%ymm7
  404082:	c5 cd 58 f6          	vaddpd %ymm6,%ymm6,%ymm6
  404086:	c5 d5 58 ed          	vaddpd %ymm5,%ymm5,%ymm5
  40408a:	c5 dd 58 e4          	vaddpd %ymm4,%ymm4,%ymm4
  40408e:	c5 e5 58 db          	vaddpd %ymm3,%ymm3,%ymm3
  404092:	c5 ed 58 d2          	vaddpd %ymm2,%ymm2,%ymm2
  404096:	c5 f5 58 c9          	vaddpd %ymm1,%ymm1,%ymm1
  40409a:	c5 fd 58 c0          	vaddpd %ymm0,%ymm0,%ymm0
  40409e:	c5 c5 58 ff          	vaddpd %ymm7,%ymm7,%ymm7
  4040a2:	c5 cd 58 f6          	vaddpd %ymm6,%ymm6,%ymm6
  4040a6:	c5 d5 58 ed          	vaddpd %ymm5,%ymm5,%ymm5
  4040aa:	c5 dd 58 e4          	vaddpd %ymm4,%ymm4,%ymm4
  4040ae:	c5 e5 58 db          	vaddpd %ymm3,%ymm3,%ymm3
  4040b2:	c5 ed 58 d2          	vaddpd %ymm2,%ymm2,%ymm2
  4040b6:	c5 f5 58 c9          	vaddpd %ymm1,%ymm1,%ymm1
  4040ba:	c5 fd 58 c0          	vaddpd %ymm0,%ymm0,%ymm0
  4040be:	c5 c5 58 ff          	vaddpd %ymm7,%ymm7,%ymm7
  4040c2:	c5 cd 58 f6          	vaddpd %ymm6,%ymm6,%ymm6
  4040c6:	c5 d5 58 ed          	vaddpd %ymm5,%ymm5,%ymm5
  4040ca:	c5 dd 58 e4          	vaddpd %ymm4,%ymm4,%ymm4
  4040ce:	c5 e5 58 db          	vaddpd %ymm3,%ymm3,%ymm3
  4040d2:	c5 ed 58 d2          	vaddpd %ymm2,%ymm2,%ymm2
  4040d6:	c5 f5 58 c9          	vaddpd %ymm1,%ymm1,%ymm1
  4040da:	c5 fd 58 c0          	vaddpd %ymm0,%ymm0,%ymm0
  4040de:	c5 c5 58 ff          	vaddpd %ymm7,%ymm7,%ymm7
  4040e2:	c5 cd 58 f6          	vaddpd %ymm6,%ymm6,%ymm6
  4040e6:	c5 d5 58 ed          	vaddpd %ymm5,%ymm5,%ymm5
  4040ea:	c5 dd 58 e4          	vaddpd %ymm4,%ymm4,%ymm4
  4040ee:	c5 e5 58 db          	vaddpd %ymm3,%ymm3,%ymm3
  4040f2:	c5 ed 58 d2          	vaddpd %ymm2,%ymm2,%ymm2
  4040f6:	c5 f5 58 c9          	vaddpd %ymm1,%ymm1,%ymm1
  4040fa:	c5 fd 58 c0          	vaddpd %ymm0,%ymm0,%ymm0
  4040fe:	c5 c5 58 ff          	vaddpd %ymm7,%ymm7,%ymm7
  404102:	c5 cd 58 f6          	vaddpd %ymm6,%ymm6,%ymm6
  404106:	c5 d5 58 ed          	vaddpd %ymm5,%ymm5,%ymm5
  40410a:	c5 dd 58 e4          	vaddpd %ymm4,%ymm4,%ymm4
  40410e:	c5 e5 58 db          	vaddpd %ymm3,%ymm3,%ymm3
  404112:	c5 ed 58 d2          	vaddpd %ymm2,%ymm2,%ymm2
  404116:	c5 f5 58 c9          	vaddpd %ymm1,%ymm1,%ymm1
  40411a:	c5 fd 58 c0          	vaddpd %ymm0,%ymm0,%ymm0
  40411e:	c5 c5 58 ff          	vaddpd %ymm7,%ymm7,%ymm7
  404122:	c5 cd 58 f6          	vaddpd %ymm6,%ymm6,%ymm6
  404126:	c5 d5 58 ed          	vaddpd %ymm5,%ymm5,%ymm5
  40412a:	c5 dd 58 e4          	vaddpd %ymm4,%ymm4,%ymm4
  40412e:	c5 e5 58 db          	vaddpd %ymm3,%ymm3,%ymm3
  404132:	c5 ed 58 d2          	vaddpd %ymm2,%ymm2,%ymm2
  404136:	c5 f5 58 c9          	vaddpd %ymm1,%ymm1,%ymm1
  40413a:	c5 fd 58 c0          	vaddpd %ymm0,%ymm0,%ymm0
  40413e:	c5 c5 58 ff          	vaddpd %ymm7,%ymm7,%ymm7
  404142:	c5 cd 58 f6          	vaddpd %ymm6,%ymm6,%ymm6
  404146:	c5 d5 58 ed          	vaddpd %ymm5,%ymm5,%ymm5
  40414a:	c5 dd 58 e4          	vaddpd %ymm4,%ymm4,%ymm4
  40414e:	c5 e5 58 db          	vaddpd %ymm3,%ymm3,%ymm3
  404152:	c5 ed 58 d2          	vaddpd %ymm2,%ymm2,%ymm2
  404156:	c5 f5 58 c9          	vaddpd %ymm1,%ymm1,%ymm1
  40415a:	c5 fd 58 c0          	vaddpd %ymm0,%ymm0,%ymm0
  40415e:	c5 c5 58 ff          	vaddpd %ymm7,%ymm7,%ymm7
  404162:	c5 cd 58 f6          	vaddpd %ymm6,%ymm6,%ymm6
  404166:	c5 d5 58 ed          	vaddpd %ymm5,%ymm5,%ymm5
  40416a:	c5 dd 58 e4          	vaddpd %ymm4,%ymm4,%ymm4
  40416e:	c5 e5 58 db          	vaddpd %ymm3,%ymm3,%ymm3
  404172:	c5 ed 58 d2          	vaddpd %ymm2,%ymm2,%ymm2
  404176:	c5 f5 58 c9          	vaddpd %ymm1,%ymm1,%ymm1
  40417a:	c5 fd 58 c0          	vaddpd %ymm0,%ymm0,%ymm0
  40417e:	c5 c5 58 ff          	vaddpd %ymm7,%ymm7,%ymm7
  404182:	c5 cd 58 f6          	vaddpd %ymm6,%ymm6,%ymm6
  404186:	c5 d5 58 ed          	vaddpd %ymm5,%ymm5,%ymm5
  40418a:	c5 dd 58 e4          	vaddpd %ymm4,%ymm4,%ymm4
  40418e:	c5 e5 58 db          	vaddpd %ymm3,%ymm3,%ymm3
  404192:	c5 ed 58 d2          	vaddpd %ymm2,%ymm2,%ymm2
  404196:	c5 f5 58 c9          	vaddpd %ymm1,%ymm1,%ymm1
  40419a:	c5 fd 58 c0          	vaddpd %ymm0,%ymm0,%ymm0
  40419e:	c5 c5 58 ff          	vaddpd %ymm7,%ymm7,%ymm7
  4041a2:	c5 cd 58 f6          	vaddpd %ymm6,%ymm6,%ymm6
  4041a6:	c5 d5 58 ed          	vaddpd %ymm5,%ymm5,%ymm5
  4041aa:	c5 dd 58 e4          	vaddpd %ymm4,%ymm4,%ymm4
  4041ae:	c5 e5 58 db          	vaddpd %ymm3,%ymm3,%ymm3
  4041b2:	c5 ed 58 d2          	vaddpd %ymm2,%ymm2,%ymm2
  4041b6:	c5 f5 58 c9          	vaddpd %ymm1,%ymm1,%ymm1
  4041ba:	c5 fd 58 c0          	vaddpd %ymm0,%ymm0,%ymm0
  4041be:	c5 c5 58 ff          	vaddpd %ymm7,%ymm7,%ymm7
  4041c2:	c5 cd 58 f6          	vaddpd %ymm6,%ymm6,%ymm6
  4041c6:	c5 d5 58 ed          	vaddpd %ymm5,%ymm5,%ymm5
  4041ca:	c5 dd 58 e4          	vaddpd %ymm4,%ymm4,%ymm4
  4041ce:	c5 e5 58 db          	vaddpd %ymm3,%ymm3,%ymm3
  4041d2:	c5 ed 58 d2          	vaddpd %ymm2,%ymm2,%ymm2
  4041d6:	c5 f5 58 c9          	vaddpd %ymm1,%ymm1,%ymm1
  4041da:	c5 fd 58 c0          	vaddpd %ymm0,%ymm0,%ymm0
  4041de:	c5 c5 58 ff          	vaddpd %ymm7,%ymm7,%ymm7
  4041e2:	c5 cd 58 f6          	vaddpd %ymm6,%ymm6,%ymm6
  4041e6:	c5 d5 58 ed          	vaddpd %ymm5,%ymm5,%ymm5
  4041ea:	c5 dd 58 e4          	vaddpd %ymm4,%ymm4,%ymm4
  4041ee:	c5 e5 58 db          	vaddpd %ymm3,%ymm3,%ymm3
  4041f2:	c5 ed 58 d2          	vaddpd %ymm2,%ymm2,%ymm2
  4041f6:	c5 f5 58 c9          	vaddpd %ymm1,%ymm1,%ymm1
  4041fa:	c5 fd 58 c0          	vaddpd %ymm0,%ymm0,%ymm0
  4041fe:	c5 c5 58 ff          	vaddpd %ymm7,%ymm7,%ymm7
  404202:	c5 cd 58 f6          	vaddpd %ymm6,%ymm6,%ymm6
  404206:	c5 d5 58 ed          	vaddpd %ymm5,%ymm5,%ymm5
  40420a:	c5 dd 58 e4          	vaddpd %ymm4,%ymm4,%ymm4
  40420e:	c5 e5 58 db          	vaddpd %ymm3,%ymm3,%ymm3
  404212:	c5 ed 58 d2          	vaddpd %ymm2,%ymm2,%ymm2
  404216:	c5 f5 58 c9          	vaddpd %ymm1,%ymm1,%ymm1
  40421a:	c5 fd 58 c0          	vaddpd %ymm0,%ymm0,%ymm0
  40421e:	c5 c5 58 ff          	vaddpd %ymm7,%ymm7,%ymm7
  404222:	c5 cd 58 f6          	vaddpd %ymm6,%ymm6,%ymm6
  404226:	c5 d5 58 ed          	vaddpd %ymm5,%ymm5,%ymm5
  40422a:	c5 dd 58 e4          	vaddpd %ymm4,%ymm4,%ymm4
  40422e:	c5 e5 58 db          	vaddpd %ymm3,%ymm3,%ymm3
  404232:	c5 ed 58 d2          	vaddpd %ymm2,%ymm2,%ymm2
  404236:	c5 f5 58 c9          	vaddpd %ymm1,%ymm1,%ymm1
  40423a:	c5 fd 58 c0          	vaddpd %ymm0,%ymm0,%ymm0
  40423e:	c5 c5 58 ff          	vaddpd %ymm7,%ymm7,%ymm7
  404242:	c5 cd 58 f6          	vaddpd %ymm6,%ymm6,%ymm6
  404246:	c5 d5 58 ed          	vaddpd %ymm5,%ymm5,%ymm5
  40424a:	c5 dd 58 e4          	vaddpd %ymm4,%ymm4,%ymm4
  40424e:	c5 e5 58 db          	vaddpd %ymm3,%ymm3,%ymm3
  404252:	c5 ed 58 d2          	vaddpd %ymm2,%ymm2,%ymm2
  404256:	c5 f5 58 c9          	vaddpd %ymm1,%ymm1,%ymm1
  40425a:	c5 fd 58 c0          	vaddpd %ymm0,%ymm0,%ymm0
  40425e:	c5 c5 58 ff          	vaddpd %ymm7,%ymm7,%ymm7
  404262:	c5 cd 58 f6          	vaddpd %ymm6,%ymm6,%ymm6
  404266:	c5 d5 58 ed          	vaddpd %ymm5,%ymm5,%ymm5
  40426a:	c5 dd 58 e4          	vaddpd %ymm4,%ymm4,%ymm4
  40426e:	c5 e5 58 db          	vaddpd %ymm3,%ymm3,%ymm3
  404272:	c5 ed 58 d2          	vaddpd %ymm2,%ymm2,%ymm2
  404276:	c5 f5 58 c9          	vaddpd %ymm1,%ymm1,%ymm1
  40427a:	c5 fd 58 c0          	vaddpd %ymm0,%ymm0,%ymm0
  40427e:	c5 c5 58 ff          	vaddpd %ymm7,%ymm7,%ymm7
  404282:	c5 cd 58 f6          	vaddpd %ymm6,%ymm6,%ymm6
  404286:	c5 d5 58 ed          	vaddpd %ymm5,%ymm5,%ymm5
  40428a:	c5 dd 58 e4          	vaddpd %ymm4,%ymm4,%ymm4
  40428e:	c5 e5 58 db          	vaddpd %ymm3,%ymm3,%ymm3
  404292:	c5 ed 58 d2          	vaddpd %ymm2,%ymm2,%ymm2
  404296:	c5 f5 58 c9          	vaddpd %ymm1,%ymm1,%ymm1
  40429a:	c5 fd 58 c0          	vaddpd %ymm0,%ymm0,%ymm0
  40429e:	c5 c5 58 ff          	vaddpd %ymm7,%ymm7,%ymm7
  4042a2:	c5 cd 58 f6          	vaddpd %ymm6,%ymm6,%ymm6
  4042a6:	c5 d5 58 ed          	vaddpd %ymm5,%ymm5,%ymm5
  4042aa:	c5 dd 58 e4          	vaddpd %ymm4,%ymm4,%ymm4
  4042ae:	c5 e5 58 db          	vaddpd %ymm3,%ymm3,%ymm3
  4042b2:	c5 ed 58 d2          	vaddpd %ymm2,%ymm2,%ymm2
  4042b6:	c5 f5 58 c9          	vaddpd %ymm1,%ymm1,%ymm1
  4042ba:	c5 fd 58 c0          	vaddpd %ymm0,%ymm0,%ymm0
  4042be:	c5 c5 58 ff          	vaddpd %ymm7,%ymm7,%ymm7
  4042c2:	c5 cd 58 f6          	vaddpd %ymm6,%ymm6,%ymm6
  4042c6:	c5 d5 58 ed          	vaddpd %ymm5,%ymm5,%ymm5
  4042ca:	c5 dd 58 e4          	vaddpd %ymm4,%ymm4,%ymm4
  4042ce:	c5 e5 58 db          	vaddpd %ymm3,%ymm3,%ymm3
  4042d2:	c5 ed 58 d2          	vaddpd %ymm2,%ymm2,%ymm2
  4042d6:	c5 f5 58 c9          	vaddpd %ymm1,%ymm1,%ymm1
  4042da:	c5 fd 58 c0          	vaddpd %ymm0,%ymm0,%ymm0
  4042de:	c5 c5 58 ff          	vaddpd %ymm7,%ymm7,%ymm7
  4042e2:	c5 cd 58 f6          	vaddpd %ymm6,%ymm6,%ymm6
  4042e6:	c5 d5 58 ed          	vaddpd %ymm5,%ymm5,%ymm5
  4042ea:	c5 dd 58 e4          	vaddpd %ymm4,%ymm4,%ymm4
  4042ee:	c5 e5 58 db          	vaddpd %ymm3,%ymm3,%ymm3
  4042f2:	c5 ed 58 d2          	vaddpd %ymm2,%ymm2,%ymm2
  4042f6:	c5 f5 58 c9          	vaddpd %ymm1,%ymm1,%ymm1
  4042fa:	c5 fd 58 c0          	vaddpd %ymm0,%ymm0,%ymm0
  4042fe:	c5 c5 58 ff          	vaddpd %ymm7,%ymm7,%ymm7
  404302:	c5 cd 58 f6          	vaddpd %ymm6,%ymm6,%ymm6
  404306:	c5 d5 58 ed          	vaddpd %ymm5,%ymm5,%ymm5
  40430a:	c5 dd 58 e4          	vaddpd %ymm4,%ymm4,%ymm4
  40430e:	c5 e5 58 db          	vaddpd %ymm3,%ymm3,%ymm3
  404312:	c5 ed 58 d2          	vaddpd %ymm2,%ymm2,%ymm2
  404316:	c5 f5 58 c9          	vaddpd %ymm1,%ymm1,%ymm1
  40431a:	c5 fd 58 c0          	vaddpd %ymm0,%ymm0,%ymm0
  40431e:	c5 c5 58 ff          	vaddpd %ymm7,%ymm7,%ymm7
  404322:	c5 cd 58 f6          	vaddpd %ymm6,%ymm6,%ymm6
  404326:	c5 d5 58 ed          	vaddpd %ymm5,%ymm5,%ymm5
  40432a:	c5 dd 58 e4          	vaddpd %ymm4,%ymm4,%ymm4
  40432e:	c5 e5 58 db          	vaddpd %ymm3,%ymm3,%ymm3
  404332:	c5 ed 58 d2          	vaddpd %ymm2,%ymm2,%ymm2
  404336:	c5 f5 58 c9          	vaddpd %ymm1,%ymm1,%ymm1
  40433a:	c5 fd 58 c0          	vaddpd %ymm0,%ymm0,%ymm0
  40433e:	c5 c5 58 ff          	vaddpd %ymm7,%ymm7,%ymm7
  404342:	c5 cd 58 f6          	vaddpd %ymm6,%ymm6,%ymm6
  404346:	c5 d5 58 ed          	vaddpd %ymm5,%ymm5,%ymm5
  40434a:	c5 dd 58 e4          	vaddpd %ymm4,%ymm4,%ymm4
  40434e:	c5 e5 58 db          	vaddpd %ymm3,%ymm3,%ymm3
  404352:	c5 ed 58 d2          	vaddpd %ymm2,%ymm2,%ymm2
  404356:	c5 f5 58 c9          	vaddpd %ymm1,%ymm1,%ymm1
  40435a:	c5 fd 58 c0          	vaddpd %ymm0,%ymm0,%ymm0
  40435e:	c5 c5 58 ff          	vaddpd %ymm7,%ymm7,%ymm7
  404362:	c5 cd 58 f6          	vaddpd %ymm6,%ymm6,%ymm6
  404366:	c5 d5 58 ed          	vaddpd %ymm5,%ymm5,%ymm5
  40436a:	c5 dd 58 e4          	vaddpd %ymm4,%ymm4,%ymm4
  40436e:	c5 e5 58 db          	vaddpd %ymm3,%ymm3,%ymm3
  404372:	c5 ed 58 d2          	vaddpd %ymm2,%ymm2,%ymm2
  404376:	c5 f5 58 c9          	vaddpd %ymm1,%ymm1,%ymm1
  40437a:	c5 fd 58 c0          	vaddpd %ymm0,%ymm0,%ymm0
  40437e:	c5 c5 58 ff          	vaddpd %ymm7,%ymm7,%ymm7
  404382:	c5 cd 58 f6          	vaddpd %ymm6,%ymm6,%ymm6
  404386:	c5 d5 58 ed          	vaddpd %ymm5,%ymm5,%ymm5
  40438a:	c5 dd 58 e4          	vaddpd %ymm4,%ymm4,%ymm4
  40438e:	c5 e5 58 db          	vaddpd %ymm3,%ymm3,%ymm3
  404392:	c5 ed 58 d2          	vaddpd %ymm2,%ymm2,%ymm2
  404396:	c5 f5 58 c9          	vaddpd %ymm1,%ymm1,%ymm1
  40439a:	c5 fd 58 c0          	vaddpd %ymm0,%ymm0,%ymm0
  40439e:	c5 c5 58 ff          	vaddpd %ymm7,%ymm7,%ymm7
  4043a2:	c5 cd 58 f6          	vaddpd %ymm6,%ymm6,%ymm6
  4043a6:	c5 d5 58 ed          	vaddpd %ymm5,%ymm5,%ymm5
  4043aa:	c5 dd 58 e4          	vaddpd %ymm4,%ymm4,%ymm4
  4043ae:	c5 e5 58 db          	vaddpd %ymm3,%ymm3,%ymm3
  4043b2:	c5 ed 58 d2          	vaddpd %ymm2,%ymm2,%ymm2
  4043b6:	c5 f5 58 c9          	vaddpd %ymm1,%ymm1,%ymm1
  4043ba:	c5 fd 58 c0          	vaddpd %ymm0,%ymm0,%ymm0
  4043be:	c5 c5 58 ff          	vaddpd %ymm7,%ymm7,%ymm7
  4043c2:	c5 cd 58 f6          	vaddpd %ymm6,%ymm6,%ymm6
  4043c6:	c5 d5 58 ed          	vaddpd %ymm5,%ymm5,%ymm5
  4043ca:	c5 dd 58 e4          	vaddpd %ymm4,%ymm4,%ymm4
  4043ce:	c5 e5 58 db          	vaddpd %ymm3,%ymm3,%ymm3
  4043d2:	c5 ed 58 d2          	vaddpd %ymm2,%ymm2,%ymm2
  4043d6:	c5 f5 58 c9          	vaddpd %ymm1,%ymm1,%ymm1
  4043da:	c5 fd 58 c0          	vaddpd %ymm0,%ymm0,%ymm0
  4043de:	c5 c5 58 ff          	vaddpd %ymm7,%ymm7,%ymm7
  4043e2:	c5 cd 58 f6          	vaddpd %ymm6,%ymm6,%ymm6
  4043e6:	c5 d5 58 ed          	vaddpd %ymm5,%ymm5,%ymm5
  4043ea:	c5 dd 58 e4          	vaddpd %ymm4,%ymm4,%ymm4
  4043ee:	c5 e5 58 db          	vaddpd %ymm3,%ymm3,%ymm3
  4043f2:	c5 ed 58 d2          	vaddpd %ymm2,%ymm2,%ymm2
  4043f6:	c5 f5 58 c9          	vaddpd %ymm1,%ymm1,%ymm1
  4043fa:	c5 fd 58 c0          	vaddpd %ymm0,%ymm0,%ymm0
  4043fe:	c5 c5 58 ff          	vaddpd %ymm7,%ymm7,%ymm7
  404402:	c5 cd 58 f6          	vaddpd %ymm6,%ymm6,%ymm6
  404406:	c5 d5 58 ed          	vaddpd %ymm5,%ymm5,%ymm5
  40440a:	c5 dd 58 e4          	vaddpd %ymm4,%ymm4,%ymm4
  40440e:	c5 e5 58 db          	vaddpd %ymm3,%ymm3,%ymm3
  404412:	c5 ed 58 d2          	vaddpd %ymm2,%ymm2,%ymm2
  404416:	c5 f5 58 c9          	vaddpd %ymm1,%ymm1,%ymm1
  40441a:	c5 fd 58 c0          	vaddpd %ymm0,%ymm0,%ymm0
  40441e:	c5 c5 58 ff          	vaddpd %ymm7,%ymm7,%ymm7
  404422:	c5 cd 58 f6          	vaddpd %ymm6,%ymm6,%ymm6
  404426:	c5 d5 58 ed          	vaddpd %ymm5,%ymm5,%ymm5
  40442a:	c5 dd 58 e4          	vaddpd %ymm4,%ymm4,%ymm4
  40442e:	c5 e5 58 db          	vaddpd %ymm3,%ymm3,%ymm3
  404432:	c5 ed 58 d2          	vaddpd %ymm2,%ymm2,%ymm2
  404436:	c5 f5 58 c9          	vaddpd %ymm1,%ymm1,%ymm1
  40443a:	c5 fd 58 c0          	vaddpd %ymm0,%ymm0,%ymm0
  40443e:	c5 c5 58 ff          	vaddpd %ymm7,%ymm7,%ymm7
  404442:	c5 cd 58 f6          	vaddpd %ymm6,%ymm6,%ymm6
  404446:	c5 d5 58 ed          	vaddpd %ymm5,%ymm5,%ymm5
  40444a:	c5 dd 58 e4          	vaddpd %ymm4,%ymm4,%ymm4
  40444e:	c5 e5 58 db          	vaddpd %ymm3,%ymm3,%ymm3
  404452:	c5 ed 58 d2          	vaddpd %ymm2,%ymm2,%ymm2
  404456:	c5 f5 58 c9          	vaddpd %ymm1,%ymm1,%ymm1
  40445a:	c5 fd 58 c0          	vaddpd %ymm0,%ymm0,%ymm0
  40445e:	c5 c5 58 ff          	vaddpd %ymm7,%ymm7,%ymm7
  404462:	c5 cd 58 f6          	vaddpd %ymm6,%ymm6,%ymm6
  404466:	c5 d5 58 ed          	vaddpd %ymm5,%ymm5,%ymm5
  40446a:	c5 dd 58 e4          	vaddpd %ymm4,%ymm4,%ymm4
  40446e:	c5 e5 58 db          	vaddpd %ymm3,%ymm3,%ymm3
  404472:	c5 ed 58 d2          	vaddpd %ymm2,%ymm2,%ymm2
  404476:	c5 f5 58 c9          	vaddpd %ymm1,%ymm1,%ymm1
  40447a:	c5 fd 58 c0          	vaddpd %ymm0,%ymm0,%ymm0
  40447e:	c5 c5 58 ff          	vaddpd %ymm7,%ymm7,%ymm7
  404482:	c5 cd 58 f6          	vaddpd %ymm6,%ymm6,%ymm6
  404486:	c5 d5 58 ed          	vaddpd %ymm5,%ymm5,%ymm5
  40448a:	c5 dd 58 e4          	vaddpd %ymm4,%ymm4,%ymm4
  40448e:	c5 e5 58 db          	vaddpd %ymm3,%ymm3,%ymm3
  404492:	c5 ed 58 d2          	vaddpd %ymm2,%ymm2,%ymm2
  404496:	c5 f5 58 c9          	vaddpd %ymm1,%ymm1,%ymm1
  40449a:	c5 fd 58 c0          	vaddpd %ymm0,%ymm0,%ymm0
  40449e:	c5 c5 58 ff          	vaddpd %ymm7,%ymm7,%ymm7
  4044a2:	c5 cd 58 f6          	vaddpd %ymm6,%ymm6,%ymm6
  4044a6:	c5 d5 58 ed          	vaddpd %ymm5,%ymm5,%ymm5
  4044aa:	c5 dd 58 e4          	vaddpd %ymm4,%ymm4,%ymm4
  4044ae:	c5 e5 58 db          	vaddpd %ymm3,%ymm3,%ymm3
  4044b2:	c5 ed 58 d2          	vaddpd %ymm2,%ymm2,%ymm2
  4044b6:	c5 f5 58 c9          	vaddpd %ymm1,%ymm1,%ymm1
  4044ba:	c5 fd 58 c0          	vaddpd %ymm0,%ymm0,%ymm0
  4044be:	c5 c5 58 ff          	vaddpd %ymm7,%ymm7,%ymm7
  4044c2:	c5 cd 58 f6          	vaddpd %ymm6,%ymm6,%ymm6
  4044c6:	c5 d5 58 ed          	vaddpd %ymm5,%ymm5,%ymm5
  4044ca:	c5 dd 58 e4          	vaddpd %ymm4,%ymm4,%ymm4
  4044ce:	c5 e5 58 db          	vaddpd %ymm3,%ymm3,%ymm3
  4044d2:	c5 ed 58 d2          	vaddpd %ymm2,%ymm2,%ymm2
  4044d6:	c5 f5 58 c9          	vaddpd %ymm1,%ymm1,%ymm1
  4044da:	c5 fd 58 c0          	vaddpd %ymm0,%ymm0,%ymm0
  4044de:	c5 c5 58 ff          	vaddpd %ymm7,%ymm7,%ymm7
  4044e2:	c5 cd 58 f6          	vaddpd %ymm6,%ymm6,%ymm6
  4044e6:	c5 d5 58 ed          	vaddpd %ymm5,%ymm5,%ymm5
  4044ea:	c5 dd 58 e4          	vaddpd %ymm4,%ymm4,%ymm4
  4044ee:	c5 e5 58 db          	vaddpd %ymm3,%ymm3,%ymm3
  4044f2:	c5 ed 58 d2          	vaddpd %ymm2,%ymm2,%ymm2
  4044f6:	c5 f5 58 c9          	vaddpd %ymm1,%ymm1,%ymm1
  4044fa:	c5 fd 58 c0          	vaddpd %ymm0,%ymm0,%ymm0
  4044fe:	c5 c5 58 ff          	vaddpd %ymm7,%ymm7,%ymm7
  404502:	c5 cd 58 f6          	vaddpd %ymm6,%ymm6,%ymm6
  404506:	c5 d5 58 ed          	vaddpd %ymm5,%ymm5,%ymm5
  40450a:	c5 dd 58 e4          	vaddpd %ymm4,%ymm4,%ymm4
  40450e:	c5 e5 58 db          	vaddpd %ymm3,%ymm3,%ymm3
  404512:	c5 ed 58 d2          	vaddpd %ymm2,%ymm2,%ymm2
  404516:	c5 f5 58 c9          	vaddpd %ymm1,%ymm1,%ymm1
  40451a:	c5 fd 58 c0          	vaddpd %ymm0,%ymm0,%ymm0
  40451e:	c5 c5 58 ff          	vaddpd %ymm7,%ymm7,%ymm7
  404522:	c5 cd 58 f6          	vaddpd %ymm6,%ymm6,%ymm6
  404526:	c5 d5 58 ed          	vaddpd %ymm5,%ymm5,%ymm5
  40452a:	c5 dd 58 e4          	vaddpd %ymm4,%ymm4,%ymm4
  40452e:	c5 e5 58 db          	vaddpd %ymm3,%ymm3,%ymm3
  404532:	c5 ed 58 d2          	vaddpd %ymm2,%ymm2,%ymm2
  404536:	c5 f5 58 c9          	vaddpd %ymm1,%ymm1,%ymm1
  40453a:	c5 fd 58 c0          	vaddpd %ymm0,%ymm0,%ymm0
  40453e:	c5 c5 58 ff          	vaddpd %ymm7,%ymm7,%ymm7
  404542:	c5 cd 58 f6          	vaddpd %ymm6,%ymm6,%ymm6
  404546:	c5 d5 58 ed          	vaddpd %ymm5,%ymm5,%ymm5
  40454a:	c5 dd 58 e4          	vaddpd %ymm4,%ymm4,%ymm4
  40454e:	c5 e5 58 db          	vaddpd %ymm3,%ymm3,%ymm3
  404552:	c5 ed 58 d2          	vaddpd %ymm2,%ymm2,%ymm2
  404556:	c5 f5 58 c9          	vaddpd %ymm1,%ymm1,%ymm1
  40455a:	c5 fd 58 c0          	vaddpd %ymm0,%ymm0,%ymm0
  40455e:	c5 c5 58 ff          	vaddpd %ymm7,%ymm7,%ymm7
  404562:	c5 cd 58 f6          	vaddpd %ymm6,%ymm6,%ymm6
  404566:	c5 d5 58 ed          	vaddpd %ymm5,%ymm5,%ymm5
  40456a:	c5 dd 58 e4          	vaddpd %ymm4,%ymm4,%ymm4
  40456e:	c5 e5 58 db          	vaddpd %ymm3,%ymm3,%ymm3
  404572:	c5 ed 58 d2          	vaddpd %ymm2,%ymm2,%ymm2
  404576:	c5 f5 58 c9          	vaddpd %ymm1,%ymm1,%ymm1
  40457a:	c5 fd 58 c0          	vaddpd %ymm0,%ymm0,%ymm0
  40457e:	c5 c5 58 ff          	vaddpd %ymm7,%ymm7,%ymm7
  404582:	c5 cd 58 f6          	vaddpd %ymm6,%ymm6,%ymm6
  404586:	c5 d5 58 ed          	vaddpd %ymm5,%ymm5,%ymm5
  40458a:	c5 dd 58 e4          	vaddpd %ymm4,%ymm4,%ymm4
  40458e:	c5 e5 58 db          	vaddpd %ymm3,%ymm3,%ymm3
  404592:	c5 ed 58 d2          	vaddpd %ymm2,%ymm2,%ymm2
  404596:	c5 f5 58 c9          	vaddpd %ymm1,%ymm1,%ymm1
  40459a:	c5 fd 58 c0          	vaddpd %ymm0,%ymm0,%ymm0
  40459e:	c5 c5 58 ff          	vaddpd %ymm7,%ymm7,%ymm7
  4045a2:	c5 cd 58 f6          	vaddpd %ymm6,%ymm6,%ymm6
  4045a6:	c5 d5 58 ed          	vaddpd %ymm5,%ymm5,%ymm5
  4045aa:	c5 dd 58 e4          	vaddpd %ymm4,%ymm4,%ymm4
  4045ae:	c5 e5 58 db          	vaddpd %ymm3,%ymm3,%ymm3
  4045b2:	c5 ed 58 d2          	vaddpd %ymm2,%ymm2,%ymm2
  4045b6:	c5 f5 58 c9          	vaddpd %ymm1,%ymm1,%ymm1
  4045ba:	c5 fd 58 c0          	vaddpd %ymm0,%ymm0,%ymm0
  4045be:	c5 c5 58 ff          	vaddpd %ymm7,%ymm7,%ymm7
  4045c2:	c5 cd 58 f6          	vaddpd %ymm6,%ymm6,%ymm6
  4045c6:	c5 d5 58 ed          	vaddpd %ymm5,%ymm5,%ymm5
  4045ca:	c5 dd 58 e4          	vaddpd %ymm4,%ymm4,%ymm4
  4045ce:	c5 e5 58 db          	vaddpd %ymm3,%ymm3,%ymm3
  4045d2:	c5 ed 58 d2          	vaddpd %ymm2,%ymm2,%ymm2
  4045d6:	c5 f5 58 c9          	vaddpd %ymm1,%ymm1,%ymm1
  4045da:	c5 fd 58 c0          	vaddpd %ymm0,%ymm0,%ymm0
  4045de:	c5 c5 58 ff          	vaddpd %ymm7,%ymm7,%ymm7
  4045e2:	c5 cd 58 f6          	vaddpd %ymm6,%ymm6,%ymm6
  4045e6:	c5 d5 58 ed          	vaddpd %ymm5,%ymm5,%ymm5
  4045ea:	c5 dd 58 e4          	vaddpd %ymm4,%ymm4,%ymm4
  4045ee:	c5 e5 58 db          	vaddpd %ymm3,%ymm3,%ymm3
  4045f2:	c5 ed 58 d2          	vaddpd %ymm2,%ymm2,%ymm2
  4045f6:	c5 f5 58 c9          	vaddpd %ymm1,%ymm1,%ymm1
  4045fa:	c5 fd 58 c0          	vaddpd %ymm0,%ymm0,%ymm0
  4045fe:	c5 c5 58 ff          	vaddpd %ymm7,%ymm7,%ymm7
  404602:	c5 cd 58 f6          	vaddpd %ymm6,%ymm6,%ymm6
  404606:	c5 d5 58 ed          	vaddpd %ymm5,%ymm5,%ymm5
  40460a:	c5 dd 58 e4          	vaddpd %ymm4,%ymm4,%ymm4
  40460e:	c5 e5 58 db          	vaddpd %ymm3,%ymm3,%ymm3
  404612:	c5 ed 58 d2          	vaddpd %ymm2,%ymm2,%ymm2
  404616:	c5 f5 58 c9          	vaddpd %ymm1,%ymm1,%ymm1
  40461a:	c5 fd 58 c0          	vaddpd %ymm0,%ymm0,%ymm0
  40461e:	c5 c5 58 ff          	vaddpd %ymm7,%ymm7,%ymm7
  404622:	c5 cd 58 f6          	vaddpd %ymm6,%ymm6,%ymm6
  404626:	c5 d5 58 ed          	vaddpd %ymm5,%ymm5,%ymm5
  40462a:	c5 dd 58 e4          	vaddpd %ymm4,%ymm4,%ymm4
  40462e:	c5 e5 58 db          	vaddpd %ymm3,%ymm3,%ymm3
  404632:	c5 ed 58 d2          	vaddpd %ymm2,%ymm2,%ymm2
  404636:	c5 f5 58 c9          	vaddpd %ymm1,%ymm1,%ymm1
  40463a:	c5 fd 58 c0          	vaddpd %ymm0,%ymm0,%ymm0
  40463e:	c5 c5 58 ff          	vaddpd %ymm7,%ymm7,%ymm7
  404642:	c5 cd 58 f6          	vaddpd %ymm6,%ymm6,%ymm6
  404646:	c5 d5 58 ed          	vaddpd %ymm5,%ymm5,%ymm5
  40464a:	c5 dd 58 e4          	vaddpd %ymm4,%ymm4,%ymm4
  40464e:	c5 e5 58 db          	vaddpd %ymm3,%ymm3,%ymm3
  404652:	c5 ed 58 d2          	vaddpd %ymm2,%ymm2,%ymm2
  404656:	c5 f5 58 c9          	vaddpd %ymm1,%ymm1,%ymm1
  40465a:	c5 fd 58 c0          	vaddpd %ymm0,%ymm0,%ymm0
  40465e:	c5 c5 58 ff          	vaddpd %ymm7,%ymm7,%ymm7
  404662:	c5 cd 58 f6          	vaddpd %ymm6,%ymm6,%ymm6
  404666:	c5 d5 58 ed          	vaddpd %ymm5,%ymm5,%ymm5
  40466a:	c5 dd 58 e4          	vaddpd %ymm4,%ymm4,%ymm4
  40466e:	c5 e5 58 db          	vaddpd %ymm3,%ymm3,%ymm3
  404672:	c5 ed 58 d2          	vaddpd %ymm2,%ymm2,%ymm2
  404676:	c5 f5 58 c9          	vaddpd %ymm1,%ymm1,%ymm1
  40467a:	c5 fd 58 c0          	vaddpd %ymm0,%ymm0,%ymm0
  40467e:	c5 c5 58 ff          	vaddpd %ymm7,%ymm7,%ymm7
  404682:	c5 cd 58 f6          	vaddpd %ymm6,%ymm6,%ymm6
  404686:	c5 d5 58 ed          	vaddpd %ymm5,%ymm5,%ymm5
  40468a:	c5 dd 58 e4          	vaddpd %ymm4,%ymm4,%ymm4
  40468e:	c5 e5 58 db          	vaddpd %ymm3,%ymm3,%ymm3
  404692:	c5 ed 58 d2          	vaddpd %ymm2,%ymm2,%ymm2
  404696:	c5 f5 58 c9          	vaddpd %ymm1,%ymm1,%ymm1
  40469a:	c5 fd 58 c0          	vaddpd %ymm0,%ymm0,%ymm0
  40469e:	c5 c5 58 ff          	vaddpd %ymm7,%ymm7,%ymm7
  4046a2:	c5 cd 58 f6          	vaddpd %ymm6,%ymm6,%ymm6
  4046a6:	c5 d5 58 ed          	vaddpd %ymm5,%ymm5,%ymm5
  4046aa:	c5 dd 58 e4          	vaddpd %ymm4,%ymm4,%ymm4
  4046ae:	c5 e5 58 db          	vaddpd %ymm3,%ymm3,%ymm3
  4046b2:	c5 ed 58 d2          	vaddpd %ymm2,%ymm2,%ymm2
  4046b6:	c5 f5 58 c9          	vaddpd %ymm1,%ymm1,%ymm1
  4046ba:	c5 fd 58 c0          	vaddpd %ymm0,%ymm0,%ymm0
  4046be:	c5 c5 58 ff          	vaddpd %ymm7,%ymm7,%ymm7
  4046c2:	c5 cd 58 f6          	vaddpd %ymm6,%ymm6,%ymm6
  4046c6:	c5 d5 58 ed          	vaddpd %ymm5,%ymm5,%ymm5
  4046ca:	c5 dd 58 e4          	vaddpd %ymm4,%ymm4,%ymm4
  4046ce:	c5 e5 58 db          	vaddpd %ymm3,%ymm3,%ymm3
  4046d2:	c5 ed 58 d2          	vaddpd %ymm2,%ymm2,%ymm2
  4046d6:	c5 f5 58 c9          	vaddpd %ymm1,%ymm1,%ymm1
  4046da:	c5 fd 58 c0          	vaddpd %ymm0,%ymm0,%ymm0
  4046de:	c5 c5 58 ff          	vaddpd %ymm7,%ymm7,%ymm7
  4046e2:	c5 cd 58 f6          	vaddpd %ymm6,%ymm6,%ymm6
  4046e6:	c5 d5 58 ed          	vaddpd %ymm5,%ymm5,%ymm5
  4046ea:	c5 dd 58 e4          	vaddpd %ymm4,%ymm4,%ymm4
  4046ee:	c5 e5 58 db          	vaddpd %ymm3,%ymm3,%ymm3
  4046f2:	c5 ed 58 d2          	vaddpd %ymm2,%ymm2,%ymm2
  4046f6:	c5 f5 58 c9          	vaddpd %ymm1,%ymm1,%ymm1
  4046fa:	c5 fd 58 c0          	vaddpd %ymm0,%ymm0,%ymm0
  4046fe:	c5 c5 58 ff          	vaddpd %ymm7,%ymm7,%ymm7
  404702:	c5 cd 58 f6          	vaddpd %ymm6,%ymm6,%ymm6
  404706:	c5 d5 58 ed          	vaddpd %ymm5,%ymm5,%ymm5
  40470a:	c5 dd 58 e4          	vaddpd %ymm4,%ymm4,%ymm4
  40470e:	c5 e5 58 db          	vaddpd %ymm3,%ymm3,%ymm3
  404712:	c5 ed 58 d2          	vaddpd %ymm2,%ymm2,%ymm2
  404716:	c5 f5 58 c9          	vaddpd %ymm1,%ymm1,%ymm1
  40471a:	c5 fd 58 c0          	vaddpd %ymm0,%ymm0,%ymm0
  40471e:	c5 c5 58 ff          	vaddpd %ymm7,%ymm7,%ymm7
  404722:	c5 cd 58 f6          	vaddpd %ymm6,%ymm6,%ymm6
  404726:	c5 d5 58 ed          	vaddpd %ymm5,%ymm5,%ymm5
  40472a:	c5 dd 58 e4          	vaddpd %ymm4,%ymm4,%ymm4
  40472e:	c5 e5 58 db          	vaddpd %ymm3,%ymm3,%ymm3
  404732:	c5 ed 58 d2          	vaddpd %ymm2,%ymm2,%ymm2
  404736:	c5 f5 58 c9          	vaddpd %ymm1,%ymm1,%ymm1
  40473a:	c5 fd 58 c0          	vaddpd %ymm0,%ymm0,%ymm0
  40473e:	c5 c5 58 ff          	vaddpd %ymm7,%ymm7,%ymm7
  404742:	c5 cd 58 f6          	vaddpd %ymm6,%ymm6,%ymm6
  404746:	c5 d5 58 ed          	vaddpd %ymm5,%ymm5,%ymm5
  40474a:	c5 dd 58 e4          	vaddpd %ymm4,%ymm4,%ymm4
  40474e:	c5 e5 58 db          	vaddpd %ymm3,%ymm3,%ymm3
  404752:	c5 ed 58 d2          	vaddpd %ymm2,%ymm2,%ymm2
  404756:	c5 f5 58 c9          	vaddpd %ymm1,%ymm1,%ymm1
  40475a:	c5 fd 58 c0          	vaddpd %ymm0,%ymm0,%ymm0
  40475e:	c5 c5 58 ff          	vaddpd %ymm7,%ymm7,%ymm7
  404762:	c5 cd 58 f6          	vaddpd %ymm6,%ymm6,%ymm6
  404766:	c5 d5 58 ed          	vaddpd %ymm5,%ymm5,%ymm5
  40476a:	c5 dd 58 e4          	vaddpd %ymm4,%ymm4,%ymm4
  40476e:	c5 e5 58 db          	vaddpd %ymm3,%ymm3,%ymm3
  404772:	c5 ed 58 d2          	vaddpd %ymm2,%ymm2,%ymm2
  404776:	c5 f5 58 c9          	vaddpd %ymm1,%ymm1,%ymm1
  40477a:	c5 fd 58 c0          	vaddpd %ymm0,%ymm0,%ymm0
  40477e:	c5 c5 58 ff          	vaddpd %ymm7,%ymm7,%ymm7
  404782:	c5 cd 58 f6          	vaddpd %ymm6,%ymm6,%ymm6
  404786:	c5 d5 58 ed          	vaddpd %ymm5,%ymm5,%ymm5
  40478a:	c5 dd 58 e4          	vaddpd %ymm4,%ymm4,%ymm4
  40478e:	c5 e5 58 db          	vaddpd %ymm3,%ymm3,%ymm3
  404792:	c5 ed 58 d2          	vaddpd %ymm2,%ymm2,%ymm2
  404796:	c5 f5 58 c9          	vaddpd %ymm1,%ymm1,%ymm1
  40479a:	c5 fd 58 c0          	vaddpd %ymm0,%ymm0,%ymm0
  40479e:	c5 c5 58 ff          	vaddpd %ymm7,%ymm7,%ymm7
  4047a2:	c5 cd 58 f6          	vaddpd %ymm6,%ymm6,%ymm6
  4047a6:	c5 d5 58 ed          	vaddpd %ymm5,%ymm5,%ymm5
  4047aa:	c5 dd 58 e4          	vaddpd %ymm4,%ymm4,%ymm4
  4047ae:	c5 e5 58 db          	vaddpd %ymm3,%ymm3,%ymm3
  4047b2:	c5 ed 58 d2          	vaddpd %ymm2,%ymm2,%ymm2
  4047b6:	c5 f5 58 c9          	vaddpd %ymm1,%ymm1,%ymm1
  4047ba:	c5 fd 58 c0          	vaddpd %ymm0,%ymm0,%ymm0
  4047be:	c5 c5 58 ff          	vaddpd %ymm7,%ymm7,%ymm7
  4047c2:	c5 cd 58 f6          	vaddpd %ymm6,%ymm6,%ymm6
  4047c6:	c5 d5 58 ed          	vaddpd %ymm5,%ymm5,%ymm5
  4047ca:	c5 dd 58 e4          	vaddpd %ymm4,%ymm4,%ymm4
  4047ce:	c5 e5 58 db          	vaddpd %ymm3,%ymm3,%ymm3
  4047d2:	c5 ed 58 d2          	vaddpd %ymm2,%ymm2,%ymm2
  4047d6:	c5 f5 58 c9          	vaddpd %ymm1,%ymm1,%ymm1
  4047da:	c5 fd 58 c0          	vaddpd %ymm0,%ymm0,%ymm0
  4047de:	c5 c5 58 ff          	vaddpd %ymm7,%ymm7,%ymm7
  4047e2:	c5 cd 58 f6          	vaddpd %ymm6,%ymm6,%ymm6
  4047e6:	c5 d5 58 ed          	vaddpd %ymm5,%ymm5,%ymm5
  4047ea:	c5 dd 58 e4          	vaddpd %ymm4,%ymm4,%ymm4
  4047ee:	c5 e5 58 db          	vaddpd %ymm3,%ymm3,%ymm3
  4047f2:	c5 ed 58 d2          	vaddpd %ymm2,%ymm2,%ymm2
  4047f6:	c5 f5 58 c9          	vaddpd %ymm1,%ymm1,%ymm1
  4047fa:	c5 fd 58 c0          	vaddpd %ymm0,%ymm0,%ymm0
  4047fe:	c5 c5 58 ff          	vaddpd %ymm7,%ymm7,%ymm7
  404802:	c5 cd 58 f6          	vaddpd %ymm6,%ymm6,%ymm6
  404806:	c5 d5 58 ed          	vaddpd %ymm5,%ymm5,%ymm5
  40480a:	c5 dd 58 e4          	vaddpd %ymm4,%ymm4,%ymm4
  40480e:	c5 e5 58 db          	vaddpd %ymm3,%ymm3,%ymm3
  404812:	c5 ed 58 d2          	vaddpd %ymm2,%ymm2,%ymm2
  404816:	c5 f5 58 c9          	vaddpd %ymm1,%ymm1,%ymm1
  40481a:	c5 fd 58 c0          	vaddpd %ymm0,%ymm0,%ymm0
  40481e:	c5 c5 58 ff          	vaddpd %ymm7,%ymm7,%ymm7
  404822:	c5 cd 58 f6          	vaddpd %ymm6,%ymm6,%ymm6
  404826:	c5 d5 58 ed          	vaddpd %ymm5,%ymm5,%ymm5
  40482a:	c5 dd 58 e4          	vaddpd %ymm4,%ymm4,%ymm4
  40482e:	c5 e5 58 db          	vaddpd %ymm3,%ymm3,%ymm3
  404832:	c5 ed 58 d2          	vaddpd %ymm2,%ymm2,%ymm2
  404836:	c5 f5 58 c9          	vaddpd %ymm1,%ymm1,%ymm1
  40483a:	c5 fd 58 c0          	vaddpd %ymm0,%ymm0,%ymm0
  40483e:	c5 c5 58 ff          	vaddpd %ymm7,%ymm7,%ymm7
  404842:	c5 cd 58 f6          	vaddpd %ymm6,%ymm6,%ymm6
  404846:	c5 d5 58 ed          	vaddpd %ymm5,%ymm5,%ymm5
  40484a:	c5 dd 58 e4          	vaddpd %ymm4,%ymm4,%ymm4
  40484e:	c5 e5 58 db          	vaddpd %ymm3,%ymm3,%ymm3
  404852:	c5 ed 58 d2          	vaddpd %ymm2,%ymm2,%ymm2
  404856:	c5 f5 58 c9          	vaddpd %ymm1,%ymm1,%ymm1
  40485a:	c5 fd 58 c0          	vaddpd %ymm0,%ymm0,%ymm0
  40485e:	c5 c5 58 ff          	vaddpd %ymm7,%ymm7,%ymm7
  404862:	c5 cd 58 f6          	vaddpd %ymm6,%ymm6,%ymm6
  404866:	c5 d5 58 ed          	vaddpd %ymm5,%ymm5,%ymm5
  40486a:	c5 dd 58 e4          	vaddpd %ymm4,%ymm4,%ymm4
  40486e:	c5 e5 58 db          	vaddpd %ymm3,%ymm3,%ymm3
  404872:	c5 ed 58 d2          	vaddpd %ymm2,%ymm2,%ymm2
  404876:	c5 f5 58 c9          	vaddpd %ymm1,%ymm1,%ymm1
  40487a:	c5 fd 58 c0          	vaddpd %ymm0,%ymm0,%ymm0
  40487e:	c5 c5 58 ff          	vaddpd %ymm7,%ymm7,%ymm7
  404882:	c5 cd 58 f6          	vaddpd %ymm6,%ymm6,%ymm6
  404886:	c5 d5 58 ed          	vaddpd %ymm5,%ymm5,%ymm5
  40488a:	c5 dd 58 e4          	vaddpd %ymm4,%ymm4,%ymm4
  40488e:	c5 e5 58 db          	vaddpd %ymm3,%ymm3,%ymm3
  404892:	c5 ed 58 d2          	vaddpd %ymm2,%ymm2,%ymm2
  404896:	c5 f5 58 c9          	vaddpd %ymm1,%ymm1,%ymm1
  40489a:	c5 fd 58 c0          	vaddpd %ymm0,%ymm0,%ymm0
  40489e:	c5 c5 58 ff          	vaddpd %ymm7,%ymm7,%ymm7
  4048a2:	c5 cd 58 f6          	vaddpd %ymm6,%ymm6,%ymm6
  4048a6:	c5 d5 58 ed          	vaddpd %ymm5,%ymm5,%ymm5
  4048aa:	c5 dd 58 e4          	vaddpd %ymm4,%ymm4,%ymm4
  4048ae:	c5 e5 58 db          	vaddpd %ymm3,%ymm3,%ymm3
  4048b2:	c5 ed 58 d2          	vaddpd %ymm2,%ymm2,%ymm2
  4048b6:	c5 f5 58 c9          	vaddpd %ymm1,%ymm1,%ymm1
  4048ba:	c5 fd 58 c0          	vaddpd %ymm0,%ymm0,%ymm0
  4048be:	c5 c5 58 ff          	vaddpd %ymm7,%ymm7,%ymm7
  4048c2:	c5 cd 58 f6          	vaddpd %ymm6,%ymm6,%ymm6
  4048c6:	c5 d5 58 ed          	vaddpd %ymm5,%ymm5,%ymm5
  4048ca:	c5 dd 58 e4          	vaddpd %ymm4,%ymm4,%ymm4
  4048ce:	c5 e5 58 db          	vaddpd %ymm3,%ymm3,%ymm3
  4048d2:	c5 ed 58 d2          	vaddpd %ymm2,%ymm2,%ymm2
  4048d6:	c5 f5 58 c9          	vaddpd %ymm1,%ymm1,%ymm1
  4048da:	c5 fd 58 c0          	vaddpd %ymm0,%ymm0,%ymm0
  4048de:	c5 c5 58 ff          	vaddpd %ymm7,%ymm7,%ymm7
